LIBRARY shareddebug/COSDynamic433_vc17_rtd.dll
VERSION 3.3
EXPORTS
??0?$_CORBA_Sequence@J@@IEAA@AEBV0@@Z
??0?$_CORBA_Sequence@J@@IEAA@XZ
??0?$_CORBA_Sequence@UConstraintExp@CosNotifyFilter@@@@IEAA@AEBV0@@Z
??0?$_CORBA_Sequence@UConstraintExp@CosNotifyFilter@@@@IEAA@XZ
??0?$_CORBA_Sequence@UConstraintInfo@CosNotifyFilter@@@@IEAA@AEBV0@@Z
??0?$_CORBA_Sequence@UConstraintInfo@CosNotifyFilter@@@@IEAA@XZ
??0?$_CORBA_Sequence@UEventType@CosNotification@@@@IEAA@AEBV0@@Z
??0?$_CORBA_Sequence@UEventType@CosNotification@@@@IEAA@XZ
??0?$_CORBA_Sequence@UMappingConstraintInfo@CosNotifyFilter@@@@IEAA@AEBV0@@Z
??0?$_CORBA_Sequence@UMappingConstraintInfo@CosNotifyFilter@@@@IEAA@XZ
??0?$_CORBA_Sequence@UMappingConstraintPair@CosNotifyFilter@@@@IEAA@AEBV0@@Z
??0?$_CORBA_Sequence@UMappingConstraintPair@CosNotifyFilter@@@@IEAA@XZ
??0?$_CORBA_Sequence@UNVP@CosLifeCycle@@@@IEAA@AEBV0@@Z
??0?$_CORBA_Sequence@UNVP@CosLifeCycle@@@@IEAA@XZ
??0?$_CORBA_Sequence@UNameComponent@CosNaming@@@@IEAA@XZ
??0?$_CORBA_Sequence@UNamedPropertyRange@CosNotification@@@@IEAA@AEBV0@@Z
??0?$_CORBA_Sequence@UNamedPropertyRange@CosNotification@@@@IEAA@XZ
??0?$_CORBA_Sequence@UProperty@CosNotification@@@@IEAA@AEBV0@@Z
??0?$_CORBA_Sequence@UProperty@CosNotification@@@@IEAA@XZ
??0?$_CORBA_Sequence@UPropertyError@CosNotification@@@@IEAA@AEBV0@@Z
??0?$_CORBA_Sequence@UPropertyError@CosNotification@@@@IEAA@XZ
??0?$_CORBA_Sequence@UStructuredEvent@CosNotification@@@@IEAA@AEBV0@@Z
??0?$_CORBA_Sequence@UStructuredEvent@CosNotification@@@@IEAA@XZ
??0?$_CORBA_Sequence_ObjRef@VObject@CORBA@@VObject_Element@2@VObject_Helper@2@@@IEAA@AEBV0@@Z
??0?$_CORBA_Sequence_ObjRef@VObject@CORBA@@VObject_Element@2@VObject_Helper@2@@@IEAA@XZ
??0?$_CORBA_Unbounded_Sequence@J@@QEAA@AEBV0@@Z
??0?$_CORBA_Unbounded_Sequence@J@@QEAA@XZ
??0?$_CORBA_Unbounded_Sequence@UConstraintExp@CosNotifyFilter@@@@QEAA@AEBV0@@Z
??0?$_CORBA_Unbounded_Sequence@UConstraintExp@CosNotifyFilter@@@@QEAA@XZ
??0?$_CORBA_Unbounded_Sequence@UConstraintInfo@CosNotifyFilter@@@@QEAA@AEBV0@@Z
??0?$_CORBA_Unbounded_Sequence@UConstraintInfo@CosNotifyFilter@@@@QEAA@XZ
??0?$_CORBA_Unbounded_Sequence@UEventType@CosNotification@@@@QEAA@AEBV0@@Z
??0?$_CORBA_Unbounded_Sequence@UEventType@CosNotification@@@@QEAA@XZ
??0?$_CORBA_Unbounded_Sequence@UMappingConstraintInfo@CosNotifyFilter@@@@QEAA@AEBV0@@Z
??0?$_CORBA_Unbounded_Sequence@UMappingConstraintInfo@CosNotifyFilter@@@@QEAA@XZ
??0?$_CORBA_Unbounded_Sequence@UMappingConstraintPair@CosNotifyFilter@@@@QEAA@AEBV0@@Z
??0?$_CORBA_Unbounded_Sequence@UMappingConstraintPair@CosNotifyFilter@@@@QEAA@XZ
??0?$_CORBA_Unbounded_Sequence@UNVP@CosLifeCycle@@@@QEAA@AEBV0@@Z
??0?$_CORBA_Unbounded_Sequence@UNVP@CosLifeCycle@@@@QEAA@XZ
??0?$_CORBA_Unbounded_Sequence@UNameComponent@CosNaming@@@@QEAA@XZ
??0?$_CORBA_Unbounded_Sequence@UNamedPropertyRange@CosNotification@@@@QEAA@AEBV0@@Z
??0?$_CORBA_Unbounded_Sequence@UNamedPropertyRange@CosNotification@@@@QEAA@XZ
??0?$_CORBA_Unbounded_Sequence@UProperty@CosNotification@@@@QEAA@AEBV0@@Z
??0?$_CORBA_Unbounded_Sequence@UProperty@CosNotification@@@@QEAA@XZ
??0?$_CORBA_Unbounded_Sequence@UPropertyError@CosNotification@@@@QEAA@AEBV0@@Z
??0?$_CORBA_Unbounded_Sequence@UPropertyError@CosNotification@@@@QEAA@XZ
??0?$_CORBA_Unbounded_Sequence@UStructuredEvent@CosNotification@@@@QEAA@AEBV0@@Z
??0?$_CORBA_Unbounded_Sequence@UStructuredEvent@CosNotification@@@@QEAA@XZ
??0?$_CORBA_Unbounded_Sequence_ObjRef@VObject@CORBA@@VObject_Element@2@VObject_Helper@2@@@QEAA@AEBV0@@Z
??0?$_CORBA_Unbounded_Sequence_ObjRef@VObject@CORBA@@VObject_Element@2@VObject_Helper@2@@@QEAA@XZ
??0?$_CORBA_Unbounded_Sequence_w_FixSizeElement@J$03$03@@QEAA@AEBV0@@Z
??0?$_CORBA_Unbounded_Sequence_w_FixSizeElement@J$03$03@@QEAA@XZ
??0AdminIDSeq@CosNotifyChannelAdmin@@QEAA@AEBV01@@Z
??0AdminIDSeq@CosNotifyChannelAdmin@@QEAA@XZ
??0AdminLimit@CosNotifyChannelAdmin@@QEAA@AEBU01@@Z
??0AdminLimit@CosNotifyChannelAdmin@@QEAA@XZ
??0AdminLimitExceeded@CosNotifyChannelAdmin@@QEAA@XZ
??0AdminNotFound@CosNotifyChannelAdmin@@QEAA@XZ
??0AlreadyConnected@CosEventChannelAdmin@@QEAA@XZ
??0CallbackIDSeq@CosNotifyFilter@@QEAA@AEBV01@@Z
??0CallbackIDSeq@CosNotifyFilter@@QEAA@XZ
??0CallbackNotFound@CosNotifyFilter@@QEAA@XZ
??0CannotMeetCriteria@CosLifeCycle@@QEAA@XZ
??0ChannelIDSeq@CosNotifyChannelAdmin@@QEAA@AEBV01@@Z
??0ChannelIDSeq@CosNotifyChannelAdmin@@QEAA@XZ
??0ChannelNotFound@CosNotifyChannelAdmin@@QEAA@XZ
??0ConnectionAlreadyActive@CosNotifyChannelAdmin@@QEAA@XZ
??0ConnectionAlreadyInactive@CosNotifyChannelAdmin@@QEAA@XZ
??0ConstraintExp@CosNotifyFilter@@QEAA@AEBU01@@Z
??0ConstraintExp@CosNotifyFilter@@QEAA@XZ
??0ConstraintExpSeq@CosNotifyFilter@@QEAA@AEBV01@@Z
??0ConstraintExpSeq@CosNotifyFilter@@QEAA@XZ
??0ConstraintIDSeq@CosNotifyFilter@@QEAA@AEBV01@@Z
??0ConstraintIDSeq@CosNotifyFilter@@QEAA@XZ
??0ConstraintInfo@CosNotifyFilter@@QEAA@AEBU01@@Z
??0ConstraintInfo@CosNotifyFilter@@QEAA@XZ
??0ConstraintInfoSeq@CosNotifyFilter@@QEAA@AEBV01@@Z
??0ConstraintInfoSeq@CosNotifyFilter@@QEAA@XZ
??0ConstraintNotFound@CosNotifyFilter@@QEAA@XZ
??0Criteria@CosLifeCycle@@QEAA@AEBV01@@Z
??0Criteria@CosLifeCycle@@QEAA@XZ
??0Disconnected@CosEventComm@@QEAA@XZ
??0DuplicateConstraintID@CosNotifyFilter@@QEAA@XZ
??0EventBatch@CosNotification@@QEAA@AEBV01@@Z
??0EventBatch@CosNotification@@QEAA@XZ
??0EventHeader@CosNotification@@QEAA@AEBU01@@Z
??0EventHeader@CosNotification@@QEAA@XZ
??0EventType@CosNotification@@QEAA@AEBU01@@Z
??0EventType@CosNotification@@QEAA@XZ
??0EventTypeSeq@CosNotification@@QEAA@AEBV01@@Z
??0EventTypeSeq@CosNotification@@QEAA@XZ
??0Exception@CORBA@@IEAA@XZ
??0Exception@CORBA@@QEAA@AEBV01@@Z
??0Factories@CosLifeCycle@@QEAA@AEBV01@@Z
??0Factories@CosLifeCycle@@QEAA@XZ
??0FilterIDSeq@CosNotifyFilter@@QEAA@AEBV01@@Z
??0FilterIDSeq@CosNotifyFilter@@QEAA@XZ
??0FilterNotFound@CosNotifyFilter@@QEAA@XZ
??0FixedEventHeader@CosNotification@@QEAA@AEBU01@@Z
??0FixedEventHeader@CosNotification@@QEAA@XZ
??0InvalidConstraint@CosNotifyFilter@@QEAA@XZ
??0InvalidCriteria@CosLifeCycle@@QEAA@XZ
??0InvalidEventType@CosNotifyComm@@QEAA@XZ
??0InvalidGrammar@CosNotifyFilter@@QEAA@XZ
??0InvalidValue@CosNotifyFilter@@QEAA@XZ
??0MARSHAL@CORBA@@QEAA@AEBV01@@Z
??0MARSHAL@CORBA@@QEAA@KW4CompletionStatus@1@@Z
??0MappingConstraintInfo@CosNotifyFilter@@QEAA@AEBU01@@Z
??0MappingConstraintInfo@CosNotifyFilter@@QEAA@XZ
??0MappingConstraintInfoSeq@CosNotifyFilter@@QEAA@AEBV01@@Z
??0MappingConstraintInfoSeq@CosNotifyFilter@@QEAA@XZ
??0MappingConstraintPair@CosNotifyFilter@@QEAA@AEBU01@@Z
??0MappingConstraintPair@CosNotifyFilter@@QEAA@XZ
??0MappingConstraintPairSeq@CosNotifyFilter@@QEAA@AEBV01@@Z
??0MappingConstraintPairSeq@CosNotifyFilter@@QEAA@XZ
??0NVP@CosLifeCycle@@QEAA@AEBU01@@Z
??0NVP@CosLifeCycle@@QEAA@XZ
??0Name@CosNaming@@QEAA@XZ
??0NamedPropertyRange@CosNotification@@QEAA@AEBU01@@Z
??0NamedPropertyRange@CosNotification@@QEAA@XZ
??0NamedPropertyRangeSeq@CosNotification@@QEAA@AEBV01@@Z
??0NamedPropertyRangeSeq@CosNotification@@QEAA@XZ
??0NoFactory@CosLifeCycle@@QEAA@XZ
??0NotConnected@CosNotifyChannelAdmin@@QEAA@XZ
??0NotCopyable@CosLifeCycle@@QEAA@XZ
??0NotMovable@CosLifeCycle@@QEAA@XZ
??0NotRemovable@CosLifeCycle@@QEAA@XZ
??0Property@CosNotification@@QEAA@AEBU01@@Z
??0Property@CosNotification@@QEAA@XZ
??0PropertyError@CosNotification@@QEAA@AEBU01@@Z
??0PropertyError@CosNotification@@QEAA@XZ
??0PropertyErrorSeq@CosNotification@@QEAA@AEBV01@@Z
??0PropertyErrorSeq@CosNotification@@QEAA@XZ
??0PropertyRange@CosNotification@@QEAA@AEBU01@@Z
??0PropertyRange@CosNotification@@QEAA@XZ
??0PropertySeq@CosNotification@@QEAA@AEBV01@@Z
??0PropertySeq@CosNotification@@QEAA@XZ
??0ProxyIDSeq@CosNotifyChannelAdmin@@QEAA@AEBV01@@Z
??0ProxyIDSeq@CosNotifyChannelAdmin@@QEAA@XZ
??0ProxyNotFound@CosNotifyChannelAdmin@@QEAA@XZ
??0StructuredEvent@CosNotification@@QEAA@AEBU01@@Z
??0StructuredEvent@CosNotification@@QEAA@XZ
??0SystemException@CORBA@@QEAA@AEBV01@@Z
??0SystemException@CORBA@@QEAA@KW4CompletionStatus@1@@Z
??0TimeUnavailable@CosTime@@QEAA@XZ
??0TypeError@CosEventChannelAdmin@@QEAA@XZ
??0UnsupportedAdmin@CosNotification@@QEAA@XZ
??0UnsupportedFilterableData@CosNotifyFilter@@QEAA@XZ
??0UnsupportedQoS@CosNotification@@QEAA@XZ
??0UserException@CORBA@@IEAA@XZ
??0_0RL_insertToAny_Singleton__cCosEventChannelAdmin_mAlreadyConnected@@QEAA@XZ
??0_0RL_insertToAny_Singleton__cCosEventChannelAdmin_mTypeError@@QEAA@XZ
??0_0RL_insertToAny_Singleton__cCosEventComm_mDisconnected@@QEAA@XZ
??0_0RL_insertToAny_Singleton__cCosLifeCycle_mCannotMeetCriteria@@QEAA@XZ
??0_0RL_insertToAny_Singleton__cCosLifeCycle_mInvalidCriteria@@QEAA@XZ
??0_0RL_insertToAny_Singleton__cCosLifeCycle_mNoFactory@@QEAA@XZ
??0_0RL_insertToAny_Singleton__cCosLifeCycle_mNotCopyable@@QEAA@XZ
??0_0RL_insertToAny_Singleton__cCosLifeCycle_mNotMovable@@QEAA@XZ
??0_0RL_insertToAny_Singleton__cCosLifeCycle_mNotRemovable@@QEAA@XZ
??0_0RL_insertToAny_Singleton__cCosNotification_mUnsupportedAdmin@@QEAA@XZ
??0_0RL_insertToAny_Singleton__cCosNotification_mUnsupportedQoS@@QEAA@XZ
??0_0RL_insertToAny_Singleton__cCosNotifyChannelAdmin_mAdminLimitExceeded@@QEAA@XZ
??0_0RL_insertToAny_Singleton__cCosNotifyChannelAdmin_mAdminNotFound@@QEAA@XZ
??0_0RL_insertToAny_Singleton__cCosNotifyChannelAdmin_mChannelNotFound@@QEAA@XZ
??0_0RL_insertToAny_Singleton__cCosNotifyChannelAdmin_mConnectionAlreadyActive@@QEAA@XZ
??0_0RL_insertToAny_Singleton__cCosNotifyChannelAdmin_mConnectionAlreadyInactive@@QEAA@XZ
??0_0RL_insertToAny_Singleton__cCosNotifyChannelAdmin_mNotConnected@@QEAA@XZ
??0_0RL_insertToAny_Singleton__cCosNotifyChannelAdmin_mProxyNotFound@@QEAA@XZ
??0_0RL_insertToAny_Singleton__cCosNotifyComm_mInvalidEventType@@QEAA@XZ
??0_0RL_insertToAny_Singleton__cCosNotifyFilter_mCallbackNotFound@@QEAA@XZ
??0_0RL_insertToAny_Singleton__cCosNotifyFilter_mConstraintNotFound@@QEAA@XZ
??0_0RL_insertToAny_Singleton__cCosNotifyFilter_mDuplicateConstraintID@@QEAA@XZ
??0_0RL_insertToAny_Singleton__cCosNotifyFilter_mFilterNotFound@@QEAA@XZ
??0_0RL_insertToAny_Singleton__cCosNotifyFilter_mInvalidConstraint@@QEAA@XZ
??0_0RL_insertToAny_Singleton__cCosNotifyFilter_mInvalidGrammar@@QEAA@XZ
??0_0RL_insertToAny_Singleton__cCosNotifyFilter_mInvalidValue@@QEAA@XZ
??0_0RL_insertToAny_Singleton__cCosNotifyFilter_mUnsupportedFilterableData@@QEAA@XZ
??0_0RL_insertToAny_Singleton__cCosTime_mTimeUnavailable@@QEAA@XZ
??0_CORBA_String_member@@QEAA@AEBV0@@Z
??0_CORBA_String_member@@QEAA@XZ
??0_Tracker@TypeCode@CORBA@@QEAA@PEBD@Z
??1?$_CORBA_ObjRef_Member@V_objref_Contained@CORBA@@VContained_Helper@2@@@QEAA@XZ
??1?$_CORBA_ObjRef_Member@V_objref_IDLType@CORBA@@VIDLType_Helper@2@@@QEAA@XZ
??1?$_CORBA_PseudoObj_Member@VDynAny@DynamicAny@@V?$_CORBA_PseudoObj_Var@VDynAny@DynamicAny@@@@@@QEAA@XZ
??1?$_CORBA_PseudoObj_Member@VPolicy@CORBA@@V?$_CORBA_PseudoObj_Var@VPolicy@CORBA@@@@@@QEAA@XZ
??1?$_CORBA_Sequence@E@@QEAA@XZ
??1?$_CORBA_Sequence@J@@QEAA@XZ
??1?$_CORBA_Sequence@UConstraintExp@CosNotifyFilter@@@@QEAA@XZ
??1?$_CORBA_Sequence@UConstraintInfo@CosNotifyFilter@@@@QEAA@XZ
??1?$_CORBA_Sequence@UEventType@CosNotification@@@@QEAA@XZ
??1?$_CORBA_Sequence@UExceptionDescription@CORBA@@@@QEAA@XZ
??1?$_CORBA_Sequence@UMappingConstraintInfo@CosNotifyFilter@@@@QEAA@XZ
??1?$_CORBA_Sequence@UMappingConstraintPair@CosNotifyFilter@@@@QEAA@XZ
??1?$_CORBA_Sequence@UNVP@CosLifeCycle@@@@QEAA@XZ
??1?$_CORBA_Sequence@UNameComponent@CosNaming@@@@QEAA@XZ
??1?$_CORBA_Sequence@UNamedPropertyRange@CosNotification@@@@QEAA@XZ
??1?$_CORBA_Sequence@UParameterDescription@CORBA@@@@QEAA@XZ
??1?$_CORBA_Sequence@UProperty@CosNotification@@@@QEAA@XZ
??1?$_CORBA_Sequence@UPropertyError@CosNotification@@@@QEAA@XZ
??1?$_CORBA_Sequence@UStructMember@CORBA@@@@QEAA@XZ
??1?$_CORBA_Sequence@UStructuredEvent@CosNotification@@@@QEAA@XZ
??1?$_CORBA_Sequence_ObjRef@VObject@CORBA@@VObject_Element@2@VObject_Helper@2@@@QEAA@XZ
??1?$_CORBA_Unbounded_Sequence@J@@QEAA@XZ
??1?$_CORBA_Unbounded_Sequence@UConstraintExp@CosNotifyFilter@@@@QEAA@XZ
??1?$_CORBA_Unbounded_Sequence@UConstraintInfo@CosNotifyFilter@@@@QEAA@XZ
??1?$_CORBA_Unbounded_Sequence@UEventType@CosNotification@@@@QEAA@XZ
??1?$_CORBA_Unbounded_Sequence@UExceptionDescription@CORBA@@@@QEAA@XZ
??1?$_CORBA_Unbounded_Sequence@UMappingConstraintInfo@CosNotifyFilter@@@@QEAA@XZ
??1?$_CORBA_Unbounded_Sequence@UMappingConstraintPair@CosNotifyFilter@@@@QEAA@XZ
??1?$_CORBA_Unbounded_Sequence@UNVP@CosLifeCycle@@@@QEAA@XZ
??1?$_CORBA_Unbounded_Sequence@UNameComponent@CosNaming@@@@QEAA@XZ
??1?$_CORBA_Unbounded_Sequence@UNamedPropertyRange@CosNotification@@@@QEAA@XZ
??1?$_CORBA_Unbounded_Sequence@UParameterDescription@CORBA@@@@QEAA@XZ
??1?$_CORBA_Unbounded_Sequence@UProperty@CosNotification@@@@QEAA@XZ
??1?$_CORBA_Unbounded_Sequence@UPropertyError@CosNotification@@@@QEAA@XZ
??1?$_CORBA_Unbounded_Sequence@UStructMember@CORBA@@@@QEAA@XZ
??1?$_CORBA_Unbounded_Sequence@UStructuredEvent@CosNotification@@@@QEAA@XZ
??1?$_CORBA_Unbounded_Sequence_ObjRef@VObject@CORBA@@VObject_Element@2@VObject_Helper@2@@@QEAA@XZ
??1?$_CORBA_Unbounded_Sequence_w_FixSizeElement@J$03$03@@QEAA@XZ
??1AdminIDSeq@CosNotifyChannelAdmin@@QEAA@XZ
??1AdminLimit@CosNotifyChannelAdmin@@QEAA@XZ
??1AttributeDescription@CORBA@@QEAA@XZ
??1Binding@CosNaming@@QEAA@XZ
??1CallbackIDSeq@CosNotifyFilter@@QEAA@XZ
??1ChannelIDSeq@CosNotifyChannelAdmin@@QEAA@XZ
??1ConstraintExp@CosNotifyFilter@@QEAA@XZ
??1ConstraintExpSeq@CosNotifyFilter@@QEAA@XZ
??1ConstraintIDSeq@CosNotifyFilter@@QEAA@XZ
??1ConstraintInfo@CosNotifyFilter@@QEAA@XZ
??1ConstraintInfoSeq@CosNotifyFilter@@QEAA@XZ
??1ContextIdSeq@CORBA@@QEAA@XZ
??1Criteria@CosLifeCycle@@QEAA@XZ
??1Description@Container@CORBA@@QEAA@XZ
??1EventBatch@CosNotification@@QEAA@XZ
??1EventHeader@CosNotification@@QEAA@XZ
??1EventType@CosNotification@@QEAA@XZ
??1EventTypeSeq@CosNotification@@QEAA@XZ
??1ExcDescriptionSeq@CORBA@@QEAA@XZ
??1ExceptionDescription@CORBA@@QEAA@XZ
??1Factories@CosLifeCycle@@QEAA@XZ
??1FilterIDSeq@CosNotifyFilter@@QEAA@XZ
??1FixedEventHeader@CosNotification@@QEAA@XZ
??1Initializer@CORBA@@QEAA@XZ
??1MappingConstraintInfo@CosNotifyFilter@@QEAA@XZ
??1MappingConstraintInfoSeq@CosNotifyFilter@@QEAA@XZ
??1MappingConstraintPair@CosNotifyFilter@@QEAA@XZ
??1MappingConstraintPairSeq@CosNotifyFilter@@QEAA@XZ
??1NVP@CosLifeCycle@@QEAA@XZ
??1Name@CosNaming@@QEAA@XZ
??1NameComponent@CosNaming@@QEAA@XZ
??1NameDynAnyPair@DynamicAny@@QEAA@XZ
??1NameValuePair@DynamicAny@@QEAA@XZ
??1NamedPropertyRange@CosNotification@@QEAA@XZ
??1NamedPropertyRangeSeq@CosNotification@@QEAA@XZ
??1OperationDescription@CORBA@@QEAA@XZ
??1ParDescriptionSeq@CORBA@@QEAA@XZ
??1ParameterDescription@CORBA@@QEAA@XZ
??1Property@CosNotification@@QEAA@XZ
??1PropertyError@CosNotification@@QEAA@XZ
??1PropertyErrorSeq@CosNotification@@QEAA@XZ
??1PropertyRange@CosNotification@@QEAA@XZ
??1PropertySeq@CosNotification@@QEAA@XZ
??1ProxyIDSeq@CosNotifyChannelAdmin@@QEAA@XZ
??1ServiceContext@IOP@@QEAA@XZ
??1StructMember@CORBA@@QEAA@XZ
??1StructMemberSeq@CORBA@@QEAA@XZ
??1StructuredEvent@CosNotification@@QEAA@XZ
??1TaggedComponent@IOP@@QEAA@XZ
??1TaggedProfile@IOP@@QEAA@XZ
??1UnionMember@CORBA@@QEAA@XZ
??1ValueMember@CORBA@@QEAA@XZ
??1_CORBA_Sequence_Octet@@IEAA@XZ
??1_CORBA_Sequence_String@@QEAA@XZ
??1_CORBA_String_member@@QEAA@XZ
??1_CORBA_Unbounded_Sequence_Octet@@QEAA@XZ
??1_CORBA_Unbounded_Sequence_String@@QEAA@XZ
??4?$_CORBA_Sequence@UEventType@CosNotification@@@@IEAAAEAV0@AEBV0@@Z
??4?$_CORBA_Sequence@UProperty@CosNotification@@@@IEAAAEAV0@AEBV0@@Z
??4?$_CORBA_Unbounded_Sequence@UEventType@CosNotification@@@@QEAAAEAV0@AEBV0@@Z
??4?$_CORBA_Unbounded_Sequence@UProperty@CosNotification@@@@QEAAAEAV0@AEBV0@@Z
??4ConstraintExp@CosNotifyFilter@@QEAAAEAU01@AEBU01@@Z
??4ConstraintInfo@CosNotifyFilter@@QEAAAEAU01@AEBU01@@Z
??4EventHeader@CosNotification@@QEAAAEAU01@AEBU01@@Z
??4EventType@CosNotification@@QEAAAEAU01@AEBU01@@Z
??4EventTypeSeq@CosNotification@@QEAAAEAV01@AEBV01@@Z
??4FixedEventHeader@CosNotification@@QEAAAEAU01@AEBU01@@Z
??4MappingConstraintInfo@CosNotifyFilter@@QEAAAEAU01@AEBU01@@Z
??4MappingConstraintPair@CosNotifyFilter@@QEAAAEAU01@AEBU01@@Z
??4NVP@CosLifeCycle@@QEAAAEAU01@AEBU01@@Z
??4NamedPropertyRange@CosNotification@@QEAAAEAU01@AEBU01@@Z
??4Property@CosNotification@@QEAAAEAU01@AEBU01@@Z
??4PropertyError@CosNotification@@QEAAAEAU01@AEBU01@@Z
??4PropertyRange@CosNotification@@QEAAAEAU01@AEBU01@@Z
??4PropertySeq@CosNotification@@QEAAAEAV01@AEBV01@@Z
??4StructuredEvent@CosNotification@@QEAAAEAU01@AEBU01@@Z
??4_CORBA_String_member@@QEAAAEAV0@AEBV0@@Z
??_2?$_CORBA_Sequence_ObjRef@VObject@CORBA@@VObject_Element@2@VObject_Helper@2@@@QEBAXAEAVcdrStream@@@Z
??_2?$_CORBA_Unbounded_Sequence@J@@QEBAXAEAVcdrStream@@@Z
??_2?$_CORBA_Unbounded_Sequence@UConstraintExp@CosNotifyFilter@@@@QEBAXAEAVcdrStream@@@Z
??_2?$_CORBA_Unbounded_Sequence@UConstraintInfo@CosNotifyFilter@@@@QEBAXAEAVcdrStream@@@Z
??_2?$_CORBA_Unbounded_Sequence@UEventType@CosNotification@@@@QEBAXAEAVcdrStream@@@Z
??_2?$_CORBA_Unbounded_Sequence@UMappingConstraintInfo@CosNotifyFilter@@@@QEBAXAEAVcdrStream@@@Z
??_2?$_CORBA_Unbounded_Sequence@UMappingConstraintPair@CosNotifyFilter@@@@QEBAXAEAVcdrStream@@@Z
??_2?$_CORBA_Unbounded_Sequence@UNVP@CosLifeCycle@@@@QEBAXAEAVcdrStream@@@Z
??_2?$_CORBA_Unbounded_Sequence@UNamedPropertyRange@CosNotification@@@@QEBAXAEAVcdrStream@@@Z
??_2?$_CORBA_Unbounded_Sequence@UProperty@CosNotification@@@@QEBAXAEAVcdrStream@@@Z
??_2?$_CORBA_Unbounded_Sequence@UPropertyError@CosNotification@@@@QEBAXAEAVcdrStream@@@Z
??_2?$_CORBA_Unbounded_Sequence@UStructuredEvent@CosNotification@@@@QEBAXAEAVcdrStream@@@Z
??_2?$_CORBA_Unbounded_Sequence_w_FixSizeElement@J$03$03@@QEBAXAEAVcdrStream@@@Z
??_2@YAXJAEAVcdrStream@@@Z
??_2@YAXKAEAVcdrStream@@@Z
??_2@YAXW4ClientType@CosNotifyChannelAdmin@@AEAVcdrStream@@@Z
??_2@YAXW4ComparisonType@CosTime@@AEAVcdrStream@@@Z
??_2@YAXW4InterFilterGroupOperator@CosNotifyChannelAdmin@@AEAVcdrStream@@@Z
??_2@YAXW4ObtainInfoMode@CosNotifyChannelAdmin@@AEAVcdrStream@@@Z
??_2@YAXW4OverlapType@CosTime@@AEAVcdrStream@@@Z
??_2@YAXW4ProxyType@CosNotifyChannelAdmin@@AEAVcdrStream@@@Z
??_2@YAXW4QoSError_code@CosNotification@@AEAVcdrStream@@@Z
??_2@YAXW4TimeComparison@CosTime@@AEAVcdrStream@@@Z
??_2@YA_NAEBVAny@CORBA@@AEAPEAUAdminLimit@CosNotifyChannelAdmin@@@Z
??_2@YA_NAEBVAny@CORBA@@AEAPEAUConstraintExp@CosNotifyFilter@@@Z
??_2@YA_NAEBVAny@CORBA@@AEAPEAUConstraintInfo@CosNotifyFilter@@@Z
??_2@YA_NAEBVAny@CORBA@@AEAPEAUEventHeader@CosNotification@@@Z
??_2@YA_NAEBVAny@CORBA@@AEAPEAUEventType@CosNotification@@@Z
??_2@YA_NAEBVAny@CORBA@@AEAPEAUFixedEventHeader@CosNotification@@@Z
??_2@YA_NAEBVAny@CORBA@@AEAPEAUIntervalT@TimeBase@@@Z
??_2@YA_NAEBVAny@CORBA@@AEAPEAUMappingConstraintInfo@CosNotifyFilter@@@Z
??_2@YA_NAEBVAny@CORBA@@AEAPEAUMappingConstraintPair@CosNotifyFilter@@@Z
??_2@YA_NAEBVAny@CORBA@@AEAPEAUNVP@CosLifeCycle@@@Z
??_2@YA_NAEBVAny@CORBA@@AEAPEAUNamedPropertyRange@CosNotification@@@Z
??_2@YA_NAEBVAny@CORBA@@AEAPEAUProperty@CosNotification@@@Z
??_2@YA_NAEBVAny@CORBA@@AEAPEAUPropertyError@CosNotification@@@Z
??_2@YA_NAEBVAny@CORBA@@AEAPEAUPropertyRange@CosNotification@@@Z
??_2@YA_NAEBVAny@CORBA@@AEAPEAUStructuredEvent@CosNotification@@@Z
??_2@YA_NAEBVAny@CORBA@@AEAPEAUUtcT@TimeBase@@@Z
??_2@YA_NAEBVAny@CORBA@@AEAPEAVAdminIDSeq@CosNotifyChannelAdmin@@@Z
??_2@YA_NAEBVAny@CORBA@@AEAPEAVCallbackIDSeq@CosNotifyFilter@@@Z
??_2@YA_NAEBVAny@CORBA@@AEAPEAVChannelIDSeq@CosNotifyChannelAdmin@@@Z
??_2@YA_NAEBVAny@CORBA@@AEAPEAVConstraintExpSeq@CosNotifyFilter@@@Z
??_2@YA_NAEBVAny@CORBA@@AEAPEAVConstraintIDSeq@CosNotifyFilter@@@Z
??_2@YA_NAEBVAny@CORBA@@AEAPEAVConstraintInfoSeq@CosNotifyFilter@@@Z
??_2@YA_NAEBVAny@CORBA@@AEAPEAVCriteria@CosLifeCycle@@@Z
??_2@YA_NAEBVAny@CORBA@@AEAPEAVEventBatch@CosNotification@@@Z
??_2@YA_NAEBVAny@CORBA@@AEAPEAVEventTypeSeq@CosNotification@@@Z
??_2@YA_NAEBVAny@CORBA@@AEAPEAVFactories@CosLifeCycle@@@Z
??_2@YA_NAEBVAny@CORBA@@AEAPEAVFilterIDSeq@CosNotifyFilter@@@Z
??_2@YA_NAEBVAny@CORBA@@AEAPEAVMappingConstraintInfoSeq@CosNotifyFilter@@@Z
??_2@YA_NAEBVAny@CORBA@@AEAPEAVMappingConstraintPairSeq@CosNotifyFilter@@@Z
??_2@YA_NAEBVAny@CORBA@@AEAPEAVNamedPropertyRangeSeq@CosNotification@@@Z
??_2@YA_NAEBVAny@CORBA@@AEAPEAVPropertyErrorSeq@CosNotification@@@Z
??_2@YA_NAEBVAny@CORBA@@AEAPEAVPropertySeq@CosNotification@@@Z
??_2@YA_NAEBVAny@CORBA@@AEAPEAVProxyIDSeq@CosNotifyChannelAdmin@@@Z
??_2@YA_NAEBVAny@CORBA@@AEAPEAV_objref_AdminPropertiesAdmin@CosNotification@@@Z
??_2@YA_NAEBVAny@CORBA@@AEAPEAV_objref_ConsumerAdmin@CosEventChannelAdmin@@@Z
??_2@YA_NAEBVAny@CORBA@@AEAPEAV_objref_ConsumerAdmin@CosNotifyChannelAdmin@@@Z
??_2@YA_NAEBVAny@CORBA@@AEAPEAV_objref_EventChannel@CosEventChannelAdmin@@@Z
??_2@YA_NAEBVAny@CORBA@@AEAPEAV_objref_EventChannel@CosNotifyChannelAdmin@@@Z
??_2@YA_NAEBVAny@CORBA@@AEAPEAV_objref_EventChannelFactory@CosNotifyChannelAdmin@@@Z
??_2@YA_NAEBVAny@CORBA@@AEAPEAV_objref_FactoryFinder@CosLifeCycle@@@Z
??_2@YA_NAEBVAny@CORBA@@AEAPEAV_objref_Filter@CosNotifyFilter@@@Z
??_2@YA_NAEBVAny@CORBA@@AEAPEAV_objref_FilterAdmin@CosNotifyFilter@@@Z
??_2@YA_NAEBVAny@CORBA@@AEAPEAV_objref_FilterFactory@CosNotifyFilter@@@Z
??_2@YA_NAEBVAny@CORBA@@AEAPEAV_objref_GenericFactory@CosLifeCycle@@@Z
??_2@YA_NAEBVAny@CORBA@@AEAPEAV_objref_LifeCycleObject@CosLifeCycle@@@Z
??_2@YA_NAEBVAny@CORBA@@AEAPEAV_objref_MappingFilter@CosNotifyFilter@@@Z
??_2@YA_NAEBVAny@CORBA@@AEAPEAV_objref_NotifyPublish@CosNotifyComm@@@Z
??_2@YA_NAEBVAny@CORBA@@AEAPEAV_objref_NotifySubscribe@CosNotifyComm@@@Z
??_2@YA_NAEBVAny@CORBA@@AEAPEAV_objref_ProxyConsumer@CosNotifyChannelAdmin@@@Z
??_2@YA_NAEBVAny@CORBA@@AEAPEAV_objref_ProxyPullConsumer@CosEventChannelAdmin@@@Z
??_2@YA_NAEBVAny@CORBA@@AEAPEAV_objref_ProxyPullConsumer@CosNotifyChannelAdmin@@@Z
??_2@YA_NAEBVAny@CORBA@@AEAPEAV_objref_ProxyPullSupplier@CosEventChannelAdmin@@@Z
??_2@YA_NAEBVAny@CORBA@@AEAPEAV_objref_ProxyPullSupplier@CosNotifyChannelAdmin@@@Z
??_2@YA_NAEBVAny@CORBA@@AEAPEAV_objref_ProxyPushConsumer@CosEventChannelAdmin@@@Z
??_2@YA_NAEBVAny@CORBA@@AEAPEAV_objref_ProxyPushConsumer@CosNotifyChannelAdmin@@@Z
??_2@YA_NAEBVAny@CORBA@@AEAPEAV_objref_ProxyPushSupplier@CosEventChannelAdmin@@@Z
??_2@YA_NAEBVAny@CORBA@@AEAPEAV_objref_ProxyPushSupplier@CosNotifyChannelAdmin@@@Z
??_2@YA_NAEBVAny@CORBA@@AEAPEAV_objref_ProxySupplier@CosNotifyChannelAdmin@@@Z
??_2@YA_NAEBVAny@CORBA@@AEAPEAV_objref_PullConsumer@CosEventComm@@@Z
??_2@YA_NAEBVAny@CORBA@@AEAPEAV_objref_PullConsumer@CosNotifyComm@@@Z
??_2@YA_NAEBVAny@CORBA@@AEAPEAV_objref_PullSupplier@CosEventComm@@@Z
??_2@YA_NAEBVAny@CORBA@@AEAPEAV_objref_PullSupplier@CosNotifyComm@@@Z
??_2@YA_NAEBVAny@CORBA@@AEAPEAV_objref_PushConsumer@CosEventComm@@@Z
??_2@YA_NAEBVAny@CORBA@@AEAPEAV_objref_PushConsumer@CosNotifyComm@@@Z
??_2@YA_NAEBVAny@CORBA@@AEAPEAV_objref_PushSupplier@CosEventComm@@@Z
??_2@YA_NAEBVAny@CORBA@@AEAPEAV_objref_PushSupplier@CosNotifyComm@@@Z
??_2@YA_NAEBVAny@CORBA@@AEAPEAV_objref_QoSAdmin@CosNotification@@@Z
??_2@YA_NAEBVAny@CORBA@@AEAPEAV_objref_SequenceProxyPullConsumer@CosNotifyChannelAdmin@@@Z
??_2@YA_NAEBVAny@CORBA@@AEAPEAV_objref_SequenceProxyPullSupplier@CosNotifyChannelAdmin@@@Z
??_2@YA_NAEBVAny@CORBA@@AEAPEAV_objref_SequenceProxyPushConsumer@CosNotifyChannelAdmin@@@Z
??_2@YA_NAEBVAny@CORBA@@AEAPEAV_objref_SequenceProxyPushSupplier@CosNotifyChannelAdmin@@@Z
??_2@YA_NAEBVAny@CORBA@@AEAPEAV_objref_SequencePullConsumer@CosNotifyComm@@@Z
??_2@YA_NAEBVAny@CORBA@@AEAPEAV_objref_SequencePullSupplier@CosNotifyComm@@@Z
??_2@YA_NAEBVAny@CORBA@@AEAPEAV_objref_SequencePushConsumer@CosNotifyComm@@@Z
??_2@YA_NAEBVAny@CORBA@@AEAPEAV_objref_SequencePushSupplier@CosNotifyComm@@@Z
??_2@YA_NAEBVAny@CORBA@@AEAPEAV_objref_StructuredProxyPullConsumer@CosNotifyChannelAdmin@@@Z
??_2@YA_NAEBVAny@CORBA@@AEAPEAV_objref_StructuredProxyPullSupplier@CosNotifyChannelAdmin@@@Z
??_2@YA_NAEBVAny@CORBA@@AEAPEAV_objref_StructuredProxyPushConsumer@CosNotifyChannelAdmin@@@Z
??_2@YA_NAEBVAny@CORBA@@AEAPEAV_objref_StructuredProxyPushSupplier@CosNotifyChannelAdmin@@@Z
??_2@YA_NAEBVAny@CORBA@@AEAPEAV_objref_StructuredPullConsumer@CosNotifyComm@@@Z
??_2@YA_NAEBVAny@CORBA@@AEAPEAV_objref_StructuredPullSupplier@CosNotifyComm@@@Z
??_2@YA_NAEBVAny@CORBA@@AEAPEAV_objref_StructuredPushConsumer@CosNotifyComm@@@Z
??_2@YA_NAEBVAny@CORBA@@AEAPEAV_objref_StructuredPushSupplier@CosNotifyComm@@@Z
??_2@YA_NAEBVAny@CORBA@@AEAPEAV_objref_SupplierAdmin@CosEventChannelAdmin@@@Z
??_2@YA_NAEBVAny@CORBA@@AEAPEAV_objref_SupplierAdmin@CosNotifyChannelAdmin@@@Z
??_2@YA_NAEBVAny@CORBA@@AEAPEAV_objref_TIO@CosTime@@@Z
??_2@YA_NAEBVAny@CORBA@@AEAPEAV_objref_TimeService@CosTime@@@Z
??_2@YA_NAEBVAny@CORBA@@AEAPEAV_objref_UTO@CosTime@@@Z
??_2@YA_NAEBVAny@CORBA@@AEAPEBUAdminLimit@CosNotifyChannelAdmin@@@Z
??_2@YA_NAEBVAny@CORBA@@AEAPEBUConstraintExp@CosNotifyFilter@@@Z
??_2@YA_NAEBVAny@CORBA@@AEAPEBUConstraintInfo@CosNotifyFilter@@@Z
??_2@YA_NAEBVAny@CORBA@@AEAPEBUEventHeader@CosNotification@@@Z
??_2@YA_NAEBVAny@CORBA@@AEAPEBUEventType@CosNotification@@@Z
??_2@YA_NAEBVAny@CORBA@@AEAPEBUFixedEventHeader@CosNotification@@@Z
??_2@YA_NAEBVAny@CORBA@@AEAPEBUIntervalT@TimeBase@@@Z
??_2@YA_NAEBVAny@CORBA@@AEAPEBUMappingConstraintInfo@CosNotifyFilter@@@Z
??_2@YA_NAEBVAny@CORBA@@AEAPEBUMappingConstraintPair@CosNotifyFilter@@@Z
??_2@YA_NAEBVAny@CORBA@@AEAPEBUNVP@CosLifeCycle@@@Z
??_2@YA_NAEBVAny@CORBA@@AEAPEBUNamedPropertyRange@CosNotification@@@Z
??_2@YA_NAEBVAny@CORBA@@AEAPEBUProperty@CosNotification@@@Z
??_2@YA_NAEBVAny@CORBA@@AEAPEBUPropertyError@CosNotification@@@Z
??_2@YA_NAEBVAny@CORBA@@AEAPEBUPropertyRange@CosNotification@@@Z
??_2@YA_NAEBVAny@CORBA@@AEAPEBUStructuredEvent@CosNotification@@@Z
??_2@YA_NAEBVAny@CORBA@@AEAPEBUUtcT@TimeBase@@@Z
??_2@YA_NAEBVAny@CORBA@@AEAPEBVAdminIDSeq@CosNotifyChannelAdmin@@@Z
??_2@YA_NAEBVAny@CORBA@@AEAPEBVAdminLimitExceeded@CosNotifyChannelAdmin@@@Z
??_2@YA_NAEBVAny@CORBA@@AEAPEBVAdminNotFound@CosNotifyChannelAdmin@@@Z
??_2@YA_NAEBVAny@CORBA@@AEAPEBVAlreadyConnected@CosEventChannelAdmin@@@Z
??_2@YA_NAEBVAny@CORBA@@AEAPEBVCallbackIDSeq@CosNotifyFilter@@@Z
??_2@YA_NAEBVAny@CORBA@@AEAPEBVCallbackNotFound@CosNotifyFilter@@@Z
??_2@YA_NAEBVAny@CORBA@@AEAPEBVCannotMeetCriteria@CosLifeCycle@@@Z
??_2@YA_NAEBVAny@CORBA@@AEAPEBVChannelIDSeq@CosNotifyChannelAdmin@@@Z
??_2@YA_NAEBVAny@CORBA@@AEAPEBVChannelNotFound@CosNotifyChannelAdmin@@@Z
??_2@YA_NAEBVAny@CORBA@@AEAPEBVConnectionAlreadyActive@CosNotifyChannelAdmin@@@Z
??_2@YA_NAEBVAny@CORBA@@AEAPEBVConnectionAlreadyInactive@CosNotifyChannelAdmin@@@Z
??_2@YA_NAEBVAny@CORBA@@AEAPEBVConstraintExpSeq@CosNotifyFilter@@@Z
??_2@YA_NAEBVAny@CORBA@@AEAPEBVConstraintIDSeq@CosNotifyFilter@@@Z
??_2@YA_NAEBVAny@CORBA@@AEAPEBVConstraintInfoSeq@CosNotifyFilter@@@Z
??_2@YA_NAEBVAny@CORBA@@AEAPEBVConstraintNotFound@CosNotifyFilter@@@Z
??_2@YA_NAEBVAny@CORBA@@AEAPEBVCriteria@CosLifeCycle@@@Z
??_2@YA_NAEBVAny@CORBA@@AEAPEBVDisconnected@CosEventComm@@@Z
??_2@YA_NAEBVAny@CORBA@@AEAPEBVDuplicateConstraintID@CosNotifyFilter@@@Z
??_2@YA_NAEBVAny@CORBA@@AEAPEBVEventBatch@CosNotification@@@Z
??_2@YA_NAEBVAny@CORBA@@AEAPEBVEventTypeSeq@CosNotification@@@Z
??_2@YA_NAEBVAny@CORBA@@AEAPEBVFactories@CosLifeCycle@@@Z
??_2@YA_NAEBVAny@CORBA@@AEAPEBVFilterIDSeq@CosNotifyFilter@@@Z
??_2@YA_NAEBVAny@CORBA@@AEAPEBVFilterNotFound@CosNotifyFilter@@@Z
??_2@YA_NAEBVAny@CORBA@@AEAPEBVInvalidConstraint@CosNotifyFilter@@@Z
??_2@YA_NAEBVAny@CORBA@@AEAPEBVInvalidCriteria@CosLifeCycle@@@Z
??_2@YA_NAEBVAny@CORBA@@AEAPEBVInvalidEventType@CosNotifyComm@@@Z
??_2@YA_NAEBVAny@CORBA@@AEAPEBVInvalidGrammar@CosNotifyFilter@@@Z
??_2@YA_NAEBVAny@CORBA@@AEAPEBVInvalidValue@CosNotifyFilter@@@Z
??_2@YA_NAEBVAny@CORBA@@AEAPEBVMappingConstraintInfoSeq@CosNotifyFilter@@@Z
??_2@YA_NAEBVAny@CORBA@@AEAPEBVMappingConstraintPairSeq@CosNotifyFilter@@@Z
??_2@YA_NAEBVAny@CORBA@@AEAPEBVNamedPropertyRangeSeq@CosNotification@@@Z
??_2@YA_NAEBVAny@CORBA@@AEAPEBVNoFactory@CosLifeCycle@@@Z
??_2@YA_NAEBVAny@CORBA@@AEAPEBVNotConnected@CosNotifyChannelAdmin@@@Z
??_2@YA_NAEBVAny@CORBA@@AEAPEBVNotCopyable@CosLifeCycle@@@Z
??_2@YA_NAEBVAny@CORBA@@AEAPEBVNotMovable@CosLifeCycle@@@Z
??_2@YA_NAEBVAny@CORBA@@AEAPEBVNotRemovable@CosLifeCycle@@@Z
??_2@YA_NAEBVAny@CORBA@@AEAPEBVPropertyErrorSeq@CosNotification@@@Z
??_2@YA_NAEBVAny@CORBA@@AEAPEBVPropertySeq@CosNotification@@@Z
??_2@YA_NAEBVAny@CORBA@@AEAPEBVProxyIDSeq@CosNotifyChannelAdmin@@@Z
??_2@YA_NAEBVAny@CORBA@@AEAPEBVProxyNotFound@CosNotifyChannelAdmin@@@Z
??_2@YA_NAEBVAny@CORBA@@AEAPEBVTimeUnavailable@CosTime@@@Z
??_2@YA_NAEBVAny@CORBA@@AEAPEBVTypeError@CosEventChannelAdmin@@@Z
??_2@YA_NAEBVAny@CORBA@@AEAPEBVUnsupportedAdmin@CosNotification@@@Z
??_2@YA_NAEBVAny@CORBA@@AEAPEBVUnsupportedFilterableData@CosNotifyFilter@@@Z
??_2@YA_NAEBVAny@CORBA@@AEAPEBVUnsupportedQoS@CosNotification@@@Z
??_2@YA_NAEBVAny@CORBA@@AEAW4ClientType@CosNotifyChannelAdmin@@@Z
??_2@YA_NAEBVAny@CORBA@@AEAW4ComparisonType@CosTime@@@Z
??_2@YA_NAEBVAny@CORBA@@AEAW4InterFilterGroupOperator@CosNotifyChannelAdmin@@@Z
??_2@YA_NAEBVAny@CORBA@@AEAW4ObtainInfoMode@CosNotifyChannelAdmin@@@Z
??_2@YA_NAEBVAny@CORBA@@AEAW4OverlapType@CosTime@@@Z
??_2@YA_NAEBVAny@CORBA@@AEAW4ProxyType@CosNotifyChannelAdmin@@@Z
??_2@YA_NAEBVAny@CORBA@@AEAW4QoSError_code@CosNotification@@@Z
??_2@YA_NAEBVAny@CORBA@@AEAW4TimeComparison@CosTime@@@Z
??_2AdminNotFound@CosNotifyChannelAdmin@@QEBAXAEAVcdrStream@@@Z
??_2AlreadyConnected@CosEventChannelAdmin@@QEBAXAEAVcdrStream@@@Z
??_2CallbackNotFound@CosNotifyFilter@@QEBAXAEAVcdrStream@@@Z
??_2ChannelNotFound@CosNotifyChannelAdmin@@QEBAXAEAVcdrStream@@@Z
??_2ConnectionAlreadyActive@CosNotifyChannelAdmin@@QEBAXAEAVcdrStream@@@Z
??_2ConnectionAlreadyInactive@CosNotifyChannelAdmin@@QEBAXAEAVcdrStream@@@Z
??_2Disconnected@CosEventComm@@QEBAXAEAVcdrStream@@@Z
??_2FilterNotFound@CosNotifyFilter@@QEBAXAEAVcdrStream@@@Z
??_2InvalidGrammar@CosNotifyFilter@@QEBAXAEAVcdrStream@@@Z
??_2NotConnected@CosNotifyChannelAdmin@@QEBAXAEAVcdrStream@@@Z
??_2ProxyNotFound@CosNotifyChannelAdmin@@QEBAXAEAVcdrStream@@@Z
??_2TimeUnavailable@CosTime@@QEBAXAEAVcdrStream@@@Z
??_2TypeError@CosEventChannelAdmin@@QEBAXAEAVcdrStream@@@Z
??_2UnsupportedFilterableData@CosNotifyFilter@@QEBAXAEAVcdrStream@@@Z
??_3?$_CORBA_Sequence_ObjRef@VObject@CORBA@@VObject_Element@2@VObject_Helper@2@@@QEAAXAEAVcdrStream@@@Z
??_3?$_CORBA_Unbounded_Sequence@UConstraintExp@CosNotifyFilter@@@@QEAAXAEAVcdrStream@@@Z
??_3?$_CORBA_Unbounded_Sequence@UConstraintInfo@CosNotifyFilter@@@@QEAAXAEAVcdrStream@@@Z
??_3?$_CORBA_Unbounded_Sequence@UEventType@CosNotification@@@@QEAAXAEAVcdrStream@@@Z
??_3?$_CORBA_Unbounded_Sequence@UMappingConstraintInfo@CosNotifyFilter@@@@QEAAXAEAVcdrStream@@@Z
??_3?$_CORBA_Unbounded_Sequence@UMappingConstraintPair@CosNotifyFilter@@@@QEAAXAEAVcdrStream@@@Z
??_3?$_CORBA_Unbounded_Sequence@UNVP@CosLifeCycle@@@@QEAAXAEAVcdrStream@@@Z
??_3?$_CORBA_Unbounded_Sequence@UNamedPropertyRange@CosNotification@@@@QEAAXAEAVcdrStream@@@Z
??_3?$_CORBA_Unbounded_Sequence@UProperty@CosNotification@@@@QEAAXAEAVcdrStream@@@Z
??_3?$_CORBA_Unbounded_Sequence@UPropertyError@CosNotification@@@@QEAAXAEAVcdrStream@@@Z
??_3?$_CORBA_Unbounded_Sequence@UStructuredEvent@CosNotification@@@@QEAAXAEAVcdrStream@@@Z
??_3?$_CORBA_Unbounded_Sequence_w_FixSizeElement@J$03$03@@QEAAXAEAVcdrStream@@@Z
??_3@YAXAEAKAEAVcdrStream@@@Z
??_3@YAXAEAVAny@CORBA@@AEBUAdminLimit@CosNotifyChannelAdmin@@@Z
??_3@YAXAEAVAny@CORBA@@AEBUConstraintExp@CosNotifyFilter@@@Z
??_3@YAXAEAVAny@CORBA@@AEBUConstraintInfo@CosNotifyFilter@@@Z
??_3@YAXAEAVAny@CORBA@@AEBUEventHeader@CosNotification@@@Z
??_3@YAXAEAVAny@CORBA@@AEBUEventType@CosNotification@@@Z
??_3@YAXAEAVAny@CORBA@@AEBUFixedEventHeader@CosNotification@@@Z
??_3@YAXAEAVAny@CORBA@@AEBUIntervalT@TimeBase@@@Z
??_3@YAXAEAVAny@CORBA@@AEBUMappingConstraintInfo@CosNotifyFilter@@@Z
??_3@YAXAEAVAny@CORBA@@AEBUMappingConstraintPair@CosNotifyFilter@@@Z
??_3@YAXAEAVAny@CORBA@@AEBUNVP@CosLifeCycle@@@Z
??_3@YAXAEAVAny@CORBA@@AEBUNamedPropertyRange@CosNotification@@@Z
??_3@YAXAEAVAny@CORBA@@AEBUProperty@CosNotification@@@Z
??_3@YAXAEAVAny@CORBA@@AEBUPropertyError@CosNotification@@@Z
??_3@YAXAEAVAny@CORBA@@AEBUPropertyRange@CosNotification@@@Z
??_3@YAXAEAVAny@CORBA@@AEBUStructuredEvent@CosNotification@@@Z
??_3@YAXAEAVAny@CORBA@@AEBUUtcT@TimeBase@@@Z
??_3@YAXAEAVAny@CORBA@@AEBVAdminIDSeq@CosNotifyChannelAdmin@@@Z
??_3@YAXAEAVAny@CORBA@@AEBVAdminLimitExceeded@CosNotifyChannelAdmin@@@Z
??_3@YAXAEAVAny@CORBA@@AEBVAdminNotFound@CosNotifyChannelAdmin@@@Z
??_3@YAXAEAVAny@CORBA@@AEBVAlreadyConnected@CosEventChannelAdmin@@@Z
??_3@YAXAEAVAny@CORBA@@AEBVCallbackIDSeq@CosNotifyFilter@@@Z
??_3@YAXAEAVAny@CORBA@@AEBVCallbackNotFound@CosNotifyFilter@@@Z
??_3@YAXAEAVAny@CORBA@@AEBVCannotMeetCriteria@CosLifeCycle@@@Z
??_3@YAXAEAVAny@CORBA@@AEBVChannelIDSeq@CosNotifyChannelAdmin@@@Z
??_3@YAXAEAVAny@CORBA@@AEBVChannelNotFound@CosNotifyChannelAdmin@@@Z
??_3@YAXAEAVAny@CORBA@@AEBVConnectionAlreadyActive@CosNotifyChannelAdmin@@@Z
??_3@YAXAEAVAny@CORBA@@AEBVConnectionAlreadyInactive@CosNotifyChannelAdmin@@@Z
??_3@YAXAEAVAny@CORBA@@AEBVConstraintExpSeq@CosNotifyFilter@@@Z
??_3@YAXAEAVAny@CORBA@@AEBVConstraintIDSeq@CosNotifyFilter@@@Z
??_3@YAXAEAVAny@CORBA@@AEBVConstraintInfoSeq@CosNotifyFilter@@@Z
??_3@YAXAEAVAny@CORBA@@AEBVConstraintNotFound@CosNotifyFilter@@@Z
??_3@YAXAEAVAny@CORBA@@AEBVCriteria@CosLifeCycle@@@Z
??_3@YAXAEAVAny@CORBA@@AEBVDisconnected@CosEventComm@@@Z
??_3@YAXAEAVAny@CORBA@@AEBVDuplicateConstraintID@CosNotifyFilter@@@Z
??_3@YAXAEAVAny@CORBA@@AEBVEventBatch@CosNotification@@@Z
??_3@YAXAEAVAny@CORBA@@AEBVEventTypeSeq@CosNotification@@@Z
??_3@YAXAEAVAny@CORBA@@AEBVFactories@CosLifeCycle@@@Z
??_3@YAXAEAVAny@CORBA@@AEBVFilterIDSeq@CosNotifyFilter@@@Z
??_3@YAXAEAVAny@CORBA@@AEBVFilterNotFound@CosNotifyFilter@@@Z
??_3@YAXAEAVAny@CORBA@@AEBVInvalidConstraint@CosNotifyFilter@@@Z
??_3@YAXAEAVAny@CORBA@@AEBVInvalidCriteria@CosLifeCycle@@@Z
??_3@YAXAEAVAny@CORBA@@AEBVInvalidEventType@CosNotifyComm@@@Z
??_3@YAXAEAVAny@CORBA@@AEBVInvalidGrammar@CosNotifyFilter@@@Z
??_3@YAXAEAVAny@CORBA@@AEBVInvalidValue@CosNotifyFilter@@@Z
??_3@YAXAEAVAny@CORBA@@AEBVMappingConstraintInfoSeq@CosNotifyFilter@@@Z
??_3@YAXAEAVAny@CORBA@@AEBVMappingConstraintPairSeq@CosNotifyFilter@@@Z
??_3@YAXAEAVAny@CORBA@@AEBVNamedPropertyRangeSeq@CosNotification@@@Z
??_3@YAXAEAVAny@CORBA@@AEBVNoFactory@CosLifeCycle@@@Z
??_3@YAXAEAVAny@CORBA@@AEBVNotConnected@CosNotifyChannelAdmin@@@Z
??_3@YAXAEAVAny@CORBA@@AEBVNotCopyable@CosLifeCycle@@@Z
??_3@YAXAEAVAny@CORBA@@AEBVNotMovable@CosLifeCycle@@@Z
??_3@YAXAEAVAny@CORBA@@AEBVNotRemovable@CosLifeCycle@@@Z
??_3@YAXAEAVAny@CORBA@@AEBVPropertyErrorSeq@CosNotification@@@Z
??_3@YAXAEAVAny@CORBA@@AEBVPropertySeq@CosNotification@@@Z
??_3@YAXAEAVAny@CORBA@@AEBVProxyIDSeq@CosNotifyChannelAdmin@@@Z
??_3@YAXAEAVAny@CORBA@@AEBVProxyNotFound@CosNotifyChannelAdmin@@@Z
??_3@YAXAEAVAny@CORBA@@AEBVTimeUnavailable@CosTime@@@Z
??_3@YAXAEAVAny@CORBA@@AEBVTypeError@CosEventChannelAdmin@@@Z
??_3@YAXAEAVAny@CORBA@@AEBVUnsupportedAdmin@CosNotification@@@Z
??_3@YAXAEAVAny@CORBA@@AEBVUnsupportedFilterableData@CosNotifyFilter@@@Z
??_3@YAXAEAVAny@CORBA@@AEBVUnsupportedQoS@CosNotification@@@Z
??_3@YAXAEAVAny@CORBA@@PEAPEAV_objref_AdminPropertiesAdmin@CosNotification@@@Z
??_3@YAXAEAVAny@CORBA@@PEAPEAV_objref_ConsumerAdmin@CosEventChannelAdmin@@@Z
??_3@YAXAEAVAny@CORBA@@PEAPEAV_objref_ConsumerAdmin@CosNotifyChannelAdmin@@@Z
??_3@YAXAEAVAny@CORBA@@PEAPEAV_objref_EventChannel@CosEventChannelAdmin@@@Z
??_3@YAXAEAVAny@CORBA@@PEAPEAV_objref_EventChannel@CosNotifyChannelAdmin@@@Z
??_3@YAXAEAVAny@CORBA@@PEAPEAV_objref_EventChannelFactory@CosNotifyChannelAdmin@@@Z
??_3@YAXAEAVAny@CORBA@@PEAPEAV_objref_FactoryFinder@CosLifeCycle@@@Z
??_3@YAXAEAVAny@CORBA@@PEAPEAV_objref_Filter@CosNotifyFilter@@@Z
??_3@YAXAEAVAny@CORBA@@PEAPEAV_objref_FilterAdmin@CosNotifyFilter@@@Z
??_3@YAXAEAVAny@CORBA@@PEAPEAV_objref_FilterFactory@CosNotifyFilter@@@Z
??_3@YAXAEAVAny@CORBA@@PEAPEAV_objref_GenericFactory@CosLifeCycle@@@Z
??_3@YAXAEAVAny@CORBA@@PEAPEAV_objref_LifeCycleObject@CosLifeCycle@@@Z
??_3@YAXAEAVAny@CORBA@@PEAPEAV_objref_MappingFilter@CosNotifyFilter@@@Z
??_3@YAXAEAVAny@CORBA@@PEAPEAV_objref_NotifyPublish@CosNotifyComm@@@Z
??_3@YAXAEAVAny@CORBA@@PEAPEAV_objref_NotifySubscribe@CosNotifyComm@@@Z
??_3@YAXAEAVAny@CORBA@@PEAPEAV_objref_ProxyConsumer@CosNotifyChannelAdmin@@@Z
??_3@YAXAEAVAny@CORBA@@PEAPEAV_objref_ProxyPullConsumer@CosEventChannelAdmin@@@Z
??_3@YAXAEAVAny@CORBA@@PEAPEAV_objref_ProxyPullConsumer@CosNotifyChannelAdmin@@@Z
??_3@YAXAEAVAny@CORBA@@PEAPEAV_objref_ProxyPullSupplier@CosEventChannelAdmin@@@Z
??_3@YAXAEAVAny@CORBA@@PEAPEAV_objref_ProxyPullSupplier@CosNotifyChannelAdmin@@@Z
??_3@YAXAEAVAny@CORBA@@PEAPEAV_objref_ProxyPushConsumer@CosEventChannelAdmin@@@Z
??_3@YAXAEAVAny@CORBA@@PEAPEAV_objref_ProxyPushConsumer@CosNotifyChannelAdmin@@@Z
??_3@YAXAEAVAny@CORBA@@PEAPEAV_objref_ProxyPushSupplier@CosEventChannelAdmin@@@Z
??_3@YAXAEAVAny@CORBA@@PEAPEAV_objref_ProxyPushSupplier@CosNotifyChannelAdmin@@@Z
??_3@YAXAEAVAny@CORBA@@PEAPEAV_objref_ProxySupplier@CosNotifyChannelAdmin@@@Z
??_3@YAXAEAVAny@CORBA@@PEAPEAV_objref_PullConsumer@CosEventComm@@@Z
??_3@YAXAEAVAny@CORBA@@PEAPEAV_objref_PullConsumer@CosNotifyComm@@@Z
??_3@YAXAEAVAny@CORBA@@PEAPEAV_objref_PullSupplier@CosEventComm@@@Z
??_3@YAXAEAVAny@CORBA@@PEAPEAV_objref_PullSupplier@CosNotifyComm@@@Z
??_3@YAXAEAVAny@CORBA@@PEAPEAV_objref_PushConsumer@CosEventComm@@@Z
??_3@YAXAEAVAny@CORBA@@PEAPEAV_objref_PushConsumer@CosNotifyComm@@@Z
??_3@YAXAEAVAny@CORBA@@PEAPEAV_objref_PushSupplier@CosEventComm@@@Z
??_3@YAXAEAVAny@CORBA@@PEAPEAV_objref_PushSupplier@CosNotifyComm@@@Z
??_3@YAXAEAVAny@CORBA@@PEAPEAV_objref_QoSAdmin@CosNotification@@@Z
??_3@YAXAEAVAny@CORBA@@PEAPEAV_objref_SequenceProxyPullConsumer@CosNotifyChannelAdmin@@@Z
??_3@YAXAEAVAny@CORBA@@PEAPEAV_objref_SequenceProxyPullSupplier@CosNotifyChannelAdmin@@@Z
??_3@YAXAEAVAny@CORBA@@PEAPEAV_objref_SequenceProxyPushConsumer@CosNotifyChannelAdmin@@@Z
??_3@YAXAEAVAny@CORBA@@PEAPEAV_objref_SequenceProxyPushSupplier@CosNotifyChannelAdmin@@@Z
??_3@YAXAEAVAny@CORBA@@PEAPEAV_objref_SequencePullConsumer@CosNotifyComm@@@Z
??_3@YAXAEAVAny@CORBA@@PEAPEAV_objref_SequencePullSupplier@CosNotifyComm@@@Z
??_3@YAXAEAVAny@CORBA@@PEAPEAV_objref_SequencePushConsumer@CosNotifyComm@@@Z
??_3@YAXAEAVAny@CORBA@@PEAPEAV_objref_SequencePushSupplier@CosNotifyComm@@@Z
??_3@YAXAEAVAny@CORBA@@PEAPEAV_objref_StructuredProxyPullConsumer@CosNotifyChannelAdmin@@@Z
??_3@YAXAEAVAny@CORBA@@PEAPEAV_objref_StructuredProxyPullSupplier@CosNotifyChannelAdmin@@@Z
??_3@YAXAEAVAny@CORBA@@PEAPEAV_objref_StructuredProxyPushConsumer@CosNotifyChannelAdmin@@@Z
??_3@YAXAEAVAny@CORBA@@PEAPEAV_objref_StructuredProxyPushSupplier@CosNotifyChannelAdmin@@@Z
??_3@YAXAEAVAny@CORBA@@PEAPEAV_objref_StructuredPullConsumer@CosNotifyComm@@@Z
??_3@YAXAEAVAny@CORBA@@PEAPEAV_objref_StructuredPullSupplier@CosNotifyComm@@@Z
??_3@YAXAEAVAny@CORBA@@PEAPEAV_objref_StructuredPushConsumer@CosNotifyComm@@@Z
??_3@YAXAEAVAny@CORBA@@PEAPEAV_objref_StructuredPushSupplier@CosNotifyComm@@@Z
??_3@YAXAEAVAny@CORBA@@PEAPEAV_objref_SupplierAdmin@CosEventChannelAdmin@@@Z
??_3@YAXAEAVAny@CORBA@@PEAPEAV_objref_SupplierAdmin@CosNotifyChannelAdmin@@@Z
??_3@YAXAEAVAny@CORBA@@PEAPEAV_objref_TIO@CosTime@@@Z
??_3@YAXAEAVAny@CORBA@@PEAPEAV_objref_TimeService@CosTime@@@Z
??_3@YAXAEAVAny@CORBA@@PEAPEAV_objref_UTO@CosTime@@@Z
??_3@YAXAEAVAny@CORBA@@PEAUAdminLimit@CosNotifyChannelAdmin@@@Z
??_3@YAXAEAVAny@CORBA@@PEAUConstraintExp@CosNotifyFilter@@@Z
??_3@YAXAEAVAny@CORBA@@PEAUConstraintInfo@CosNotifyFilter@@@Z
??_3@YAXAEAVAny@CORBA@@PEAUEventHeader@CosNotification@@@Z
??_3@YAXAEAVAny@CORBA@@PEAUEventType@CosNotification@@@Z
??_3@YAXAEAVAny@CORBA@@PEAUFixedEventHeader@CosNotification@@@Z
??_3@YAXAEAVAny@CORBA@@PEAUIntervalT@TimeBase@@@Z
??_3@YAXAEAVAny@CORBA@@PEAUMappingConstraintInfo@CosNotifyFilter@@@Z
??_3@YAXAEAVAny@CORBA@@PEAUMappingConstraintPair@CosNotifyFilter@@@Z
??_3@YAXAEAVAny@CORBA@@PEAUNVP@CosLifeCycle@@@Z
??_3@YAXAEAVAny@CORBA@@PEAUNamedPropertyRange@CosNotification@@@Z
??_3@YAXAEAVAny@CORBA@@PEAUProperty@CosNotification@@@Z
??_3@YAXAEAVAny@CORBA@@PEAUPropertyError@CosNotification@@@Z
??_3@YAXAEAVAny@CORBA@@PEAUPropertyRange@CosNotification@@@Z
??_3@YAXAEAVAny@CORBA@@PEAUStructuredEvent@CosNotification@@@Z
??_3@YAXAEAVAny@CORBA@@PEAUUtcT@TimeBase@@@Z
??_3@YAXAEAVAny@CORBA@@PEAVAdminIDSeq@CosNotifyChannelAdmin@@@Z
??_3@YAXAEAVAny@CORBA@@PEAVCallbackIDSeq@CosNotifyFilter@@@Z
??_3@YAXAEAVAny@CORBA@@PEAVChannelIDSeq@CosNotifyChannelAdmin@@@Z
??_3@YAXAEAVAny@CORBA@@PEAVConstraintExpSeq@CosNotifyFilter@@@Z
??_3@YAXAEAVAny@CORBA@@PEAVConstraintIDSeq@CosNotifyFilter@@@Z
??_3@YAXAEAVAny@CORBA@@PEAVConstraintInfoSeq@CosNotifyFilter@@@Z
??_3@YAXAEAVAny@CORBA@@PEAVCriteria@CosLifeCycle@@@Z
??_3@YAXAEAVAny@CORBA@@PEAVEventBatch@CosNotification@@@Z
??_3@YAXAEAVAny@CORBA@@PEAVEventTypeSeq@CosNotification@@@Z
??_3@YAXAEAVAny@CORBA@@PEAVFactories@CosLifeCycle@@@Z
??_3@YAXAEAVAny@CORBA@@PEAVFilterIDSeq@CosNotifyFilter@@@Z
??_3@YAXAEAVAny@CORBA@@PEAVMappingConstraintInfoSeq@CosNotifyFilter@@@Z
??_3@YAXAEAVAny@CORBA@@PEAVMappingConstraintPairSeq@CosNotifyFilter@@@Z
??_3@YAXAEAVAny@CORBA@@PEAVNamedPropertyRangeSeq@CosNotification@@@Z
??_3@YAXAEAVAny@CORBA@@PEAVPropertyErrorSeq@CosNotification@@@Z
??_3@YAXAEAVAny@CORBA@@PEAVPropertySeq@CosNotification@@@Z
??_3@YAXAEAVAny@CORBA@@PEAVProxyIDSeq@CosNotifyChannelAdmin@@@Z
??_3@YAXAEAVAny@CORBA@@PEAV_objref_AdminPropertiesAdmin@CosNotification@@@Z
??_3@YAXAEAVAny@CORBA@@PEAV_objref_ConsumerAdmin@CosEventChannelAdmin@@@Z
??_3@YAXAEAVAny@CORBA@@PEAV_objref_ConsumerAdmin@CosNotifyChannelAdmin@@@Z
??_3@YAXAEAVAny@CORBA@@PEAV_objref_EventChannel@CosEventChannelAdmin@@@Z
??_3@YAXAEAVAny@CORBA@@PEAV_objref_EventChannel@CosNotifyChannelAdmin@@@Z
??_3@YAXAEAVAny@CORBA@@PEAV_objref_EventChannelFactory@CosNotifyChannelAdmin@@@Z
??_3@YAXAEAVAny@CORBA@@PEAV_objref_FactoryFinder@CosLifeCycle@@@Z
??_3@YAXAEAVAny@CORBA@@PEAV_objref_Filter@CosNotifyFilter@@@Z
??_3@YAXAEAVAny@CORBA@@PEAV_objref_FilterAdmin@CosNotifyFilter@@@Z
??_3@YAXAEAVAny@CORBA@@PEAV_objref_FilterFactory@CosNotifyFilter@@@Z
??_3@YAXAEAVAny@CORBA@@PEAV_objref_GenericFactory@CosLifeCycle@@@Z
??_3@YAXAEAVAny@CORBA@@PEAV_objref_LifeCycleObject@CosLifeCycle@@@Z
??_3@YAXAEAVAny@CORBA@@PEAV_objref_MappingFilter@CosNotifyFilter@@@Z
??_3@YAXAEAVAny@CORBA@@PEAV_objref_NotifyPublish@CosNotifyComm@@@Z
??_3@YAXAEAVAny@CORBA@@PEAV_objref_NotifySubscribe@CosNotifyComm@@@Z
??_3@YAXAEAVAny@CORBA@@PEAV_objref_ProxyConsumer@CosNotifyChannelAdmin@@@Z
??_3@YAXAEAVAny@CORBA@@PEAV_objref_ProxyPullConsumer@CosEventChannelAdmin@@@Z
??_3@YAXAEAVAny@CORBA@@PEAV_objref_ProxyPullConsumer@CosNotifyChannelAdmin@@@Z
??_3@YAXAEAVAny@CORBA@@PEAV_objref_ProxyPullSupplier@CosEventChannelAdmin@@@Z
??_3@YAXAEAVAny@CORBA@@PEAV_objref_ProxyPullSupplier@CosNotifyChannelAdmin@@@Z
??_3@YAXAEAVAny@CORBA@@PEAV_objref_ProxyPushConsumer@CosEventChannelAdmin@@@Z
??_3@YAXAEAVAny@CORBA@@PEAV_objref_ProxyPushConsumer@CosNotifyChannelAdmin@@@Z
??_3@YAXAEAVAny@CORBA@@PEAV_objref_ProxyPushSupplier@CosEventChannelAdmin@@@Z
??_3@YAXAEAVAny@CORBA@@PEAV_objref_ProxyPushSupplier@CosNotifyChannelAdmin@@@Z
??_3@YAXAEAVAny@CORBA@@PEAV_objref_ProxySupplier@CosNotifyChannelAdmin@@@Z
??_3@YAXAEAVAny@CORBA@@PEAV_objref_PullConsumer@CosEventComm@@@Z
??_3@YAXAEAVAny@CORBA@@PEAV_objref_PullConsumer@CosNotifyComm@@@Z
??_3@YAXAEAVAny@CORBA@@PEAV_objref_PullSupplier@CosEventComm@@@Z
??_3@YAXAEAVAny@CORBA@@PEAV_objref_PullSupplier@CosNotifyComm@@@Z
??_3@YAXAEAVAny@CORBA@@PEAV_objref_PushConsumer@CosEventComm@@@Z
??_3@YAXAEAVAny@CORBA@@PEAV_objref_PushConsumer@CosNotifyComm@@@Z
??_3@YAXAEAVAny@CORBA@@PEAV_objref_PushSupplier@CosEventComm@@@Z
??_3@YAXAEAVAny@CORBA@@PEAV_objref_PushSupplier@CosNotifyComm@@@Z
??_3@YAXAEAVAny@CORBA@@PEAV_objref_QoSAdmin@CosNotification@@@Z
??_3@YAXAEAVAny@CORBA@@PEAV_objref_SequenceProxyPullConsumer@CosNotifyChannelAdmin@@@Z
??_3@YAXAEAVAny@CORBA@@PEAV_objref_SequenceProxyPullSupplier@CosNotifyChannelAdmin@@@Z
??_3@YAXAEAVAny@CORBA@@PEAV_objref_SequenceProxyPushConsumer@CosNotifyChannelAdmin@@@Z
??_3@YAXAEAVAny@CORBA@@PEAV_objref_SequenceProxyPushSupplier@CosNotifyChannelAdmin@@@Z
??_3@YAXAEAVAny@CORBA@@PEAV_objref_SequencePullConsumer@CosNotifyComm@@@Z
??_3@YAXAEAVAny@CORBA@@PEAV_objref_SequencePullSupplier@CosNotifyComm@@@Z
??_3@YAXAEAVAny@CORBA@@PEAV_objref_SequencePushConsumer@CosNotifyComm@@@Z
??_3@YAXAEAVAny@CORBA@@PEAV_objref_SequencePushSupplier@CosNotifyComm@@@Z
??_3@YAXAEAVAny@CORBA@@PEAV_objref_StructuredProxyPullConsumer@CosNotifyChannelAdmin@@@Z
??_3@YAXAEAVAny@CORBA@@PEAV_objref_StructuredProxyPullSupplier@CosNotifyChannelAdmin@@@Z
??_3@YAXAEAVAny@CORBA@@PEAV_objref_StructuredProxyPushConsumer@CosNotifyChannelAdmin@@@Z
??_3@YAXAEAVAny@CORBA@@PEAV_objref_StructuredProxyPushSupplier@CosNotifyChannelAdmin@@@Z
??_3@YAXAEAVAny@CORBA@@PEAV_objref_StructuredPullConsumer@CosNotifyComm@@@Z
??_3@YAXAEAVAny@CORBA@@PEAV_objref_StructuredPullSupplier@CosNotifyComm@@@Z
??_3@YAXAEAVAny@CORBA@@PEAV_objref_StructuredPushConsumer@CosNotifyComm@@@Z
??_3@YAXAEAVAny@CORBA@@PEAV_objref_StructuredPushSupplier@CosNotifyComm@@@Z
??_3@YAXAEAVAny@CORBA@@PEAV_objref_SupplierAdmin@CosEventChannelAdmin@@@Z
??_3@YAXAEAVAny@CORBA@@PEAV_objref_SupplierAdmin@CosNotifyChannelAdmin@@@Z
??_3@YAXAEAVAny@CORBA@@PEAV_objref_TIO@CosTime@@@Z
??_3@YAXAEAVAny@CORBA@@PEAV_objref_TimeService@CosTime@@@Z
??_3@YAXAEAVAny@CORBA@@PEAV_objref_UTO@CosTime@@@Z
??_3@YAXAEAVAny@CORBA@@PEBVAdminLimitExceeded@CosNotifyChannelAdmin@@@Z
??_3@YAXAEAVAny@CORBA@@PEBVAdminNotFound@CosNotifyChannelAdmin@@@Z
??_3@YAXAEAVAny@CORBA@@PEBVAlreadyConnected@CosEventChannelAdmin@@@Z
??_3@YAXAEAVAny@CORBA@@PEBVCallbackNotFound@CosNotifyFilter@@@Z
??_3@YAXAEAVAny@CORBA@@PEBVCannotMeetCriteria@CosLifeCycle@@@Z
??_3@YAXAEAVAny@CORBA@@PEBVChannelNotFound@CosNotifyChannelAdmin@@@Z
??_3@YAXAEAVAny@CORBA@@PEBVConnectionAlreadyActive@CosNotifyChannelAdmin@@@Z
??_3@YAXAEAVAny@CORBA@@PEBVConnectionAlreadyInactive@CosNotifyChannelAdmin@@@Z
??_3@YAXAEAVAny@CORBA@@PEBVConstraintNotFound@CosNotifyFilter@@@Z
??_3@YAXAEAVAny@CORBA@@PEBVDisconnected@CosEventComm@@@Z
??_3@YAXAEAVAny@CORBA@@PEBVDuplicateConstraintID@CosNotifyFilter@@@Z
??_3@YAXAEAVAny@CORBA@@PEBVFilterNotFound@CosNotifyFilter@@@Z
??_3@YAXAEAVAny@CORBA@@PEBVInvalidConstraint@CosNotifyFilter@@@Z
??_3@YAXAEAVAny@CORBA@@PEBVInvalidCriteria@CosLifeCycle@@@Z
??_3@YAXAEAVAny@CORBA@@PEBVInvalidEventType@CosNotifyComm@@@Z
??_3@YAXAEAVAny@CORBA@@PEBVInvalidGrammar@CosNotifyFilter@@@Z
??_3@YAXAEAVAny@CORBA@@PEBVInvalidValue@CosNotifyFilter@@@Z
??_3@YAXAEAVAny@CORBA@@PEBVNoFactory@CosLifeCycle@@@Z
??_3@YAXAEAVAny@CORBA@@PEBVNotConnected@CosNotifyChannelAdmin@@@Z
??_3@YAXAEAVAny@CORBA@@PEBVNotCopyable@CosLifeCycle@@@Z
??_3@YAXAEAVAny@CORBA@@PEBVNotMovable@CosLifeCycle@@@Z
??_3@YAXAEAVAny@CORBA@@PEBVNotRemovable@CosLifeCycle@@@Z
??_3@YAXAEAVAny@CORBA@@PEBVProxyNotFound@CosNotifyChannelAdmin@@@Z
??_3@YAXAEAVAny@CORBA@@PEBVTimeUnavailable@CosTime@@@Z
??_3@YAXAEAVAny@CORBA@@PEBVTypeError@CosEventChannelAdmin@@@Z
??_3@YAXAEAVAny@CORBA@@PEBVUnsupportedAdmin@CosNotification@@@Z
??_3@YAXAEAVAny@CORBA@@PEBVUnsupportedFilterableData@CosNotifyFilter@@@Z
??_3@YAXAEAVAny@CORBA@@PEBVUnsupportedQoS@CosNotification@@@Z
??_3@YAXAEAVAny@CORBA@@W4ClientType@CosNotifyChannelAdmin@@@Z
??_3@YAXAEAVAny@CORBA@@W4ComparisonType@CosTime@@@Z
??_3@YAXAEAVAny@CORBA@@W4InterFilterGroupOperator@CosNotifyChannelAdmin@@@Z
??_3@YAXAEAVAny@CORBA@@W4ObtainInfoMode@CosNotifyChannelAdmin@@@Z
??_3@YAXAEAVAny@CORBA@@W4OverlapType@CosTime@@@Z
??_3@YAXAEAVAny@CORBA@@W4ProxyType@CosNotifyChannelAdmin@@@Z
??_3@YAXAEAVAny@CORBA@@W4QoSError_code@CosNotification@@@Z
??_3@YAXAEAVAny@CORBA@@W4TimeComparison@CosTime@@@Z
??_3@YAXAEAW4ClientType@CosNotifyChannelAdmin@@AEAVcdrStream@@@Z
??_3@YAXAEAW4ComparisonType@CosTime@@AEAVcdrStream@@@Z
??_3@YAXAEAW4InterFilterGroupOperator@CosNotifyChannelAdmin@@AEAVcdrStream@@@Z
??_3@YAXAEAW4ObtainInfoMode@CosNotifyChannelAdmin@@AEAVcdrStream@@@Z
??_3@YAXAEAW4OverlapType@CosTime@@AEAVcdrStream@@@Z
??_3@YAXAEAW4ProxyType@CosNotifyChannelAdmin@@AEAVcdrStream@@@Z
??_3@YAXAEAW4QoSError_code@CosNotification@@AEAVcdrStream@@@Z
??_3@YAXAEAW4TimeComparison@CosTime@@AEAVcdrStream@@@Z
??_3AdminNotFound@CosNotifyChannelAdmin@@QEAAXAEAVcdrStream@@@Z
??_3AlreadyConnected@CosEventChannelAdmin@@QEAAXAEAVcdrStream@@@Z
??_3CallbackNotFound@CosNotifyFilter@@QEAAXAEAVcdrStream@@@Z
??_3ChannelNotFound@CosNotifyChannelAdmin@@QEAAXAEAVcdrStream@@@Z
??_3ConnectionAlreadyActive@CosNotifyChannelAdmin@@QEAAXAEAVcdrStream@@@Z
??_3ConnectionAlreadyInactive@CosNotifyChannelAdmin@@QEAAXAEAVcdrStream@@@Z
??_3Disconnected@CosEventComm@@QEAAXAEAVcdrStream@@@Z
??_3FilterNotFound@CosNotifyFilter@@QEAAXAEAVcdrStream@@@Z
??_3InvalidGrammar@CosNotifyFilter@@QEAAXAEAVcdrStream@@@Z
??_3NotConnected@CosNotifyChannelAdmin@@QEAAXAEAVcdrStream@@@Z
??_3ProxyNotFound@CosNotifyChannelAdmin@@QEAAXAEAVcdrStream@@@Z
??_3TimeUnavailable@CosTime@@QEAAXAEAVcdrStream@@@Z
??_3TypeError@CosEventChannelAdmin@@QEAAXAEAVcdrStream@@@Z
??_3UnsupportedFilterableData@CosNotifyFilter@@QEAAXAEAVcdrStream@@@Z
?NP_data@?$_CORBA_Sequence@J@@QEBAPEAJXZ
?_NP_is_nil@Object@CORBA@@QEBA_NXZ
?_NP_is_pseudo@Object@CORBA@@QEBA_NXZ
?_PR_getobj@Object@CORBA@@QEAAPEAVomniObjRef@@XZ
?_tc_AdminID@CosNotifyChannelAdmin@@3QEAVTypeCode@CORBA@@EA
?_tc_AdminIDSeq@CosNotifyChannelAdmin@@3QEAVTypeCode@CORBA@@EA
?_tc_AdminLimit@CosNotifyChannelAdmin@@3QEAVTypeCode@CORBA@@EA
?_tc_AdminLimitExceeded@CosNotifyChannelAdmin@@3QEAVTypeCode@CORBA@@EA
?_tc_AdminNotFound@CosNotifyChannelAdmin@@3QEAVTypeCode@CORBA@@EA
?_tc_AdminProperties@CosNotification@@3QEAVTypeCode@CORBA@@EA
?_tc_AdminPropertiesAdmin@CosNotification@@3QEAVTypeCode@CORBA@@EA
?_tc_AlreadyConnected@CosEventChannelAdmin@@3QEAVTypeCode@CORBA@@EA
?_tc_CallbackID@CosNotifyFilter@@3QEAVTypeCode@CORBA@@EA
?_tc_CallbackIDSeq@CosNotifyFilter@@3QEAVTypeCode@CORBA@@EA
?_tc_CallbackNotFound@CosNotifyFilter@@3QEAVTypeCode@CORBA@@EA
?_tc_CannotMeetCriteria@CosLifeCycle@@3QEAVTypeCode@CORBA@@EA
?_tc_ChannelID@CosNotifyChannelAdmin@@3QEAVTypeCode@CORBA@@EA
?_tc_ChannelIDSeq@CosNotifyChannelAdmin@@3QEAVTypeCode@CORBA@@EA
?_tc_ChannelNotFound@CosNotifyChannelAdmin@@3QEAVTypeCode@CORBA@@EA
?_tc_ClientType@CosNotifyChannelAdmin@@3QEAVTypeCode@CORBA@@EA
?_tc_ComparisonType@CosTime@@3QEAVTypeCode@CORBA@@EA
?_tc_ConnectionAlreadyActive@CosNotifyChannelAdmin@@3QEAVTypeCode@CORBA@@EA
?_tc_ConnectionAlreadyInactive@CosNotifyChannelAdmin@@3QEAVTypeCode@CORBA@@EA
?_tc_ConstraintExp@CosNotifyFilter@@3QEAVTypeCode@CORBA@@EA
?_tc_ConstraintExpSeq@CosNotifyFilter@@3QEAVTypeCode@CORBA@@EA
?_tc_ConstraintID@CosNotifyFilter@@3QEAVTypeCode@CORBA@@EA
?_tc_ConstraintIDSeq@CosNotifyFilter@@3QEAVTypeCode@CORBA@@EA
?_tc_ConstraintInfo@CosNotifyFilter@@3QEAVTypeCode@CORBA@@EA
?_tc_ConstraintInfoSeq@CosNotifyFilter@@3QEAVTypeCode@CORBA@@EA
?_tc_ConstraintNotFound@CosNotifyFilter@@3QEAVTypeCode@CORBA@@EA
?_tc_ConsumerAdmin@CosEventChannelAdmin@@3QEAVTypeCode@CORBA@@EA
?_tc_ConsumerAdmin@CosNotifyChannelAdmin@@3QEAVTypeCode@CORBA@@EA
?_tc_Criteria@CosLifeCycle@@3QEAVTypeCode@CORBA@@EA
?_tc_Disconnected@CosEventComm@@3QEAVTypeCode@CORBA@@EA
?_tc_DuplicateConstraintID@CosNotifyFilter@@3QEAVTypeCode@CORBA@@EA
?_tc_EventBatch@CosNotification@@3QEAVTypeCode@CORBA@@EA
?_tc_EventChannel@CosEventChannelAdmin@@3QEAVTypeCode@CORBA@@EA
?_tc_EventChannel@CosNotifyChannelAdmin@@3QEAVTypeCode@CORBA@@EA
?_tc_EventChannelFactory@CosNotifyChannelAdmin@@3QEAVTypeCode@CORBA@@EA
?_tc_EventHeader@CosNotification@@3QEAVTypeCode@CORBA@@EA
?_tc_EventType@CosNotification@@3QEAVTypeCode@CORBA@@EA
?_tc_EventTypeSeq@CosNotification@@3QEAVTypeCode@CORBA@@EA
?_tc_Factories@CosLifeCycle@@3QEAVTypeCode@CORBA@@EA
?_tc_Factory@CosLifeCycle@@3QEAVTypeCode@CORBA@@EA
?_tc_FactoryFinder@CosLifeCycle@@3QEAVTypeCode@CORBA@@EA
?_tc_Filter@CosNotifyFilter@@3QEAVTypeCode@CORBA@@EA
?_tc_FilterAdmin@CosNotifyFilter@@3QEAVTypeCode@CORBA@@EA
?_tc_FilterFactory@CosNotifyFilter@@3QEAVTypeCode@CORBA@@EA
?_tc_FilterID@CosNotifyFilter@@3QEAVTypeCode@CORBA@@EA
?_tc_FilterIDSeq@CosNotifyFilter@@3QEAVTypeCode@CORBA@@EA
?_tc_FilterNotFound@CosNotifyFilter@@3QEAVTypeCode@CORBA@@EA
?_tc_FilterableEventBody@CosNotification@@3QEAVTypeCode@CORBA@@EA
?_tc_FixedEventHeader@CosNotification@@3QEAVTypeCode@CORBA@@EA
?_tc_GenericFactory@CosLifeCycle@@3QEAVTypeCode@CORBA@@EA
?_tc_InaccuracyT@TimeBase@@3QEAVTypeCode@CORBA@@EA
?_tc_InterFilterGroupOperator@CosNotifyChannelAdmin@@3QEAVTypeCode@CORBA@@EA
?_tc_IntervalT@TimeBase@@3QEAVTypeCode@CORBA@@EA
?_tc_InvalidConstraint@CosNotifyFilter@@3QEAVTypeCode@CORBA@@EA
?_tc_InvalidCriteria@CosLifeCycle@@3QEAVTypeCode@CORBA@@EA
?_tc_InvalidEventType@CosNotifyComm@@3QEAVTypeCode@CORBA@@EA
?_tc_InvalidGrammar@CosNotifyFilter@@3QEAVTypeCode@CORBA@@EA
?_tc_InvalidValue@CosNotifyFilter@@3QEAVTypeCode@CORBA@@EA
?_tc_Istring@CosNotification@@3QEAVTypeCode@CORBA@@EA
?_tc_Key@CosLifeCycle@@3QEAVTypeCode@CORBA@@EA
?_tc_LifeCycleObject@CosLifeCycle@@3QEAVTypeCode@CORBA@@EA
?_tc_MappingConstraintInfo@CosNotifyFilter@@3QEAVTypeCode@CORBA@@EA
?_tc_MappingConstraintInfoSeq@CosNotifyFilter@@3QEAVTypeCode@CORBA@@EA
?_tc_MappingConstraintPair@CosNotifyFilter@@3QEAVTypeCode@CORBA@@EA
?_tc_MappingConstraintPairSeq@CosNotifyFilter@@3QEAVTypeCode@CORBA@@EA
?_tc_MappingFilter@CosNotifyFilter@@3QEAVTypeCode@CORBA@@EA
?_tc_NVP@CosLifeCycle@@3QEAVTypeCode@CORBA@@EA
?_tc_NameValuePair@CosLifeCycle@@3QEAVTypeCode@CORBA@@EA
?_tc_NamedPropertyRange@CosNotification@@3QEAVTypeCode@CORBA@@EA
?_tc_NamedPropertyRangeSeq@CosNotification@@3QEAVTypeCode@CORBA@@EA
?_tc_NoFactory@CosLifeCycle@@3QEAVTypeCode@CORBA@@EA
?_tc_NotConnected@CosNotifyChannelAdmin@@3QEAVTypeCode@CORBA@@EA
?_tc_NotCopyable@CosLifeCycle@@3QEAVTypeCode@CORBA@@EA
?_tc_NotMovable@CosLifeCycle@@3QEAVTypeCode@CORBA@@EA
?_tc_NotRemovable@CosLifeCycle@@3QEAVTypeCode@CORBA@@EA
?_tc_NotifyPublish@CosNotifyComm@@3QEAVTypeCode@CORBA@@EA
?_tc_NotifySubscribe@CosNotifyComm@@3QEAVTypeCode@CORBA@@EA
?_tc_ObtainInfoMode@CosNotifyChannelAdmin@@3QEAVTypeCode@CORBA@@EA
?_tc_OptionalHeaderFields@CosNotification@@3QEAVTypeCode@CORBA@@EA
?_tc_OverlapType@CosTime@@3QEAVTypeCode@CORBA@@EA
?_tc_Property@CosNotification@@3QEAVTypeCode@CORBA@@EA
?_tc_PropertyError@CosNotification@@3QEAVTypeCode@CORBA@@EA
?_tc_PropertyErrorSeq@CosNotification@@3QEAVTypeCode@CORBA@@EA
?_tc_PropertyName@CosNotification@@3QEAVTypeCode@CORBA@@EA
?_tc_PropertyRange@CosNotification@@3QEAVTypeCode@CORBA@@EA
?_tc_PropertySeq@CosNotification@@3QEAVTypeCode@CORBA@@EA
?_tc_PropertyValue@CosNotification@@3QEAVTypeCode@CORBA@@EA
?_tc_ProxyConsumer@CosNotifyChannelAdmin@@3QEAVTypeCode@CORBA@@EA
?_tc_ProxyID@CosNotifyChannelAdmin@@3QEAVTypeCode@CORBA@@EA
?_tc_ProxyIDSeq@CosNotifyChannelAdmin@@3QEAVTypeCode@CORBA@@EA
?_tc_ProxyNotFound@CosNotifyChannelAdmin@@3QEAVTypeCode@CORBA@@EA
?_tc_ProxyPullConsumer@CosEventChannelAdmin@@3QEAVTypeCode@CORBA@@EA
?_tc_ProxyPullConsumer@CosNotifyChannelAdmin@@3QEAVTypeCode@CORBA@@EA
?_tc_ProxyPullSupplier@CosEventChannelAdmin@@3QEAVTypeCode@CORBA@@EA
?_tc_ProxyPullSupplier@CosNotifyChannelAdmin@@3QEAVTypeCode@CORBA@@EA
?_tc_ProxyPushConsumer@CosEventChannelAdmin@@3QEAVTypeCode@CORBA@@EA
?_tc_ProxyPushConsumer@CosNotifyChannelAdmin@@3QEAVTypeCode@CORBA@@EA
?_tc_ProxyPushSupplier@CosEventChannelAdmin@@3QEAVTypeCode@CORBA@@EA
?_tc_ProxyPushSupplier@CosNotifyChannelAdmin@@3QEAVTypeCode@CORBA@@EA
?_tc_ProxySupplier@CosNotifyChannelAdmin@@3QEAVTypeCode@CORBA@@EA
?_tc_ProxyType@CosNotifyChannelAdmin@@3QEAVTypeCode@CORBA@@EA
?_tc_PullConsumer@CosEventComm@@3QEAVTypeCode@CORBA@@EA
?_tc_PullConsumer@CosNotifyComm@@3QEAVTypeCode@CORBA@@EA
?_tc_PullSupplier@CosEventComm@@3QEAVTypeCode@CORBA@@EA
?_tc_PullSupplier@CosNotifyComm@@3QEAVTypeCode@CORBA@@EA
?_tc_PushConsumer@CosEventComm@@3QEAVTypeCode@CORBA@@EA
?_tc_PushConsumer@CosNotifyComm@@3QEAVTypeCode@CORBA@@EA
?_tc_PushSupplier@CosEventComm@@3QEAVTypeCode@CORBA@@EA
?_tc_PushSupplier@CosNotifyComm@@3QEAVTypeCode@CORBA@@EA
?_tc_QoSAdmin@CosNotification@@3QEAVTypeCode@CORBA@@EA
?_tc_QoSError_code@CosNotification@@3QEAVTypeCode@CORBA@@EA
?_tc_QoSProperties@CosNotification@@3QEAVTypeCode@CORBA@@EA
?_tc_SequenceProxyPullConsumer@CosNotifyChannelAdmin@@3QEAVTypeCode@CORBA@@EA
?_tc_SequenceProxyPullSupplier@CosNotifyChannelAdmin@@3QEAVTypeCode@CORBA@@EA
?_tc_SequenceProxyPushConsumer@CosNotifyChannelAdmin@@3QEAVTypeCode@CORBA@@EA
?_tc_SequenceProxyPushSupplier@CosNotifyChannelAdmin@@3QEAVTypeCode@CORBA@@EA
?_tc_SequencePullConsumer@CosNotifyComm@@3QEAVTypeCode@CORBA@@EA
?_tc_SequencePullSupplier@CosNotifyComm@@3QEAVTypeCode@CORBA@@EA
?_tc_SequencePushConsumer@CosNotifyComm@@3QEAVTypeCode@CORBA@@EA
?_tc_SequencePushSupplier@CosNotifyComm@@3QEAVTypeCode@CORBA@@EA
?_tc_StructuredEvent@CosNotification@@3QEAVTypeCode@CORBA@@EA
?_tc_StructuredProxyPullConsumer@CosNotifyChannelAdmin@@3QEAVTypeCode@CORBA@@EA
?_tc_StructuredProxyPullSupplier@CosNotifyChannelAdmin@@3QEAVTypeCode@CORBA@@EA
?_tc_StructuredProxyPushConsumer@CosNotifyChannelAdmin@@3QEAVTypeCode@CORBA@@EA
?_tc_StructuredProxyPushSupplier@CosNotifyChannelAdmin@@3QEAVTypeCode@CORBA@@EA
?_tc_StructuredPullConsumer@CosNotifyComm@@3QEAVTypeCode@CORBA@@EA
?_tc_StructuredPullSupplier@CosNotifyComm@@3QEAVTypeCode@CORBA@@EA
?_tc_StructuredPushConsumer@CosNotifyComm@@3QEAVTypeCode@CORBA@@EA
?_tc_StructuredPushSupplier@CosNotifyComm@@3QEAVTypeCode@CORBA@@EA
?_tc_SupplierAdmin@CosEventChannelAdmin@@3QEAVTypeCode@CORBA@@EA
?_tc_SupplierAdmin@CosNotifyChannelAdmin@@3QEAVTypeCode@CORBA@@EA
?_tc_TIO@CosTime@@3QEAVTypeCode@CORBA@@EA
?_tc_TdfT@TimeBase@@3QEAVTypeCode@CORBA@@EA
?_tc_TimeComparison@CosTime@@3QEAVTypeCode@CORBA@@EA
?_tc_TimeService@CosTime@@3QEAVTypeCode@CORBA@@EA
?_tc_TimeT@TimeBase@@3QEAVTypeCode@CORBA@@EA
?_tc_TimeUnavailable@CosTime@@3QEAVTypeCode@CORBA@@EA
?_tc_TypeError@CosEventChannelAdmin@@3QEAVTypeCode@CORBA@@EA
?_tc_UTO@CosTime@@3QEAVTypeCode@CORBA@@EA
?_tc_UnsupportedAdmin@CosNotification@@3QEAVTypeCode@CORBA@@EA
?_tc_UnsupportedFilterableData@CosNotifyFilter@@3QEAVTypeCode@CORBA@@EA
?_tc_UnsupportedQoS@CosNotification@@3QEAVTypeCode@CORBA@@EA
?_tc_UtcT@TimeBase@@3QEAVTypeCode@CORBA@@EA
?align_to@omni@@YA_K_KW4alignment_t@1@@Z
?alloc@_CORBA_String_helper@@SAPEADH@Z
?allocbuf@?$_CORBA_Sequence@J@@SAPEAJK@Z
?allocbuf@?$_CORBA_Sequence@UConstraintExp@CosNotifyFilter@@@@SAPEAUConstraintExp@CosNotifyFilter@@K@Z
?allocbuf@?$_CORBA_Sequence@UConstraintInfo@CosNotifyFilter@@@@SAPEAUConstraintInfo@CosNotifyFilter@@K@Z
?allocbuf@?$_CORBA_Sequence@UEventType@CosNotification@@@@SAPEAUEventType@CosNotification@@K@Z
?allocbuf@?$_CORBA_Sequence@UMappingConstraintInfo@CosNotifyFilter@@@@SAPEAUMappingConstraintInfo@CosNotifyFilter@@K@Z
?allocbuf@?$_CORBA_Sequence@UMappingConstraintPair@CosNotifyFilter@@@@SAPEAUMappingConstraintPair@CosNotifyFilter@@K@Z
?allocbuf@?$_CORBA_Sequence@UNVP@CosLifeCycle@@@@SAPEAUNVP@CosLifeCycle@@K@Z
?allocbuf@?$_CORBA_Sequence@UNamedPropertyRange@CosNotification@@@@SAPEAUNamedPropertyRange@CosNotification@@K@Z
?allocbuf@?$_CORBA_Sequence@UProperty@CosNotification@@@@SAPEAUProperty@CosNotification@@K@Z
?allocbuf@?$_CORBA_Sequence@UPropertyError@CosNotification@@@@SAPEAUPropertyError@CosNotification@@K@Z
?allocbuf@?$_CORBA_Sequence@UStructuredEvent@CosNotification@@@@SAPEAUStructuredEvent@CosNotification@@K@Z
?allocbuf@?$_CORBA_Sequence_ObjRef@VObject@CORBA@@VObject_Element@2@VObject_Helper@2@@@SAPEAPEAVObject@CORBA@@K@Z
?byteSwap@cdrStream@@SAGG@Z
?byteSwap@cdrStream@@SAJJ@Z
?byteSwap@cdrStream@@SAKK@Z
?byteSwap@cdrStream@@SA_K_K@Z
?copybuffer@?$_CORBA_Sequence@J@@IEAAXK@Z
?copybuffer@?$_CORBA_Sequence@UConstraintExp@CosNotifyFilter@@@@IEAAXK@Z
?copybuffer@?$_CORBA_Sequence@UConstraintInfo@CosNotifyFilter@@@@IEAAXK@Z
?copybuffer@?$_CORBA_Sequence@UEventType@CosNotification@@@@IEAAXK@Z
?copybuffer@?$_CORBA_Sequence@UMappingConstraintInfo@CosNotifyFilter@@@@IEAAXK@Z
?copybuffer@?$_CORBA_Sequence@UMappingConstraintPair@CosNotifyFilter@@@@IEAAXK@Z
?copybuffer@?$_CORBA_Sequence@UNVP@CosLifeCycle@@@@IEAAXK@Z
?copybuffer@?$_CORBA_Sequence@UNamedPropertyRange@CosNotification@@@@IEAAXK@Z
?copybuffer@?$_CORBA_Sequence@UProperty@CosNotification@@@@IEAAXK@Z
?copybuffer@?$_CORBA_Sequence@UPropertyError@CosNotification@@@@IEAAXK@Z
?copybuffer@?$_CORBA_Sequence@UStructuredEvent@CosNotification@@@@IEAAXK@Z
?copybuffer@?$_CORBA_Sequence_ObjRef@VObject@CORBA@@VObject_Element@2@VObject_Helper@2@@@IEAAXK@Z
?dealloc@_CORBA_String_helper@@SAXPEAD@Z
?dup@_CORBA_String_helper@@SAPEADPEBD@Z
?freebuf@?$_CORBA_Sequence@E@@SAXPEAE@Z
?freebuf@?$_CORBA_Sequence@J@@SAXPEAJ@Z
?freebuf@?$_CORBA_Sequence@UConstraintExp@CosNotifyFilter@@@@SAXPEAUConstraintExp@CosNotifyFilter@@@Z
?freebuf@?$_CORBA_Sequence@UConstraintInfo@CosNotifyFilter@@@@SAXPEAUConstraintInfo@CosNotifyFilter@@@Z
?freebuf@?$_CORBA_Sequence@UEventType@CosNotification@@@@SAXPEAUEventType@CosNotification@@@Z
?freebuf@?$_CORBA_Sequence@UExceptionDescription@CORBA@@@@SAXPEAUExceptionDescription@CORBA@@@Z
?freebuf@?$_CORBA_Sequence@UMappingConstraintInfo@CosNotifyFilter@@@@SAXPEAUMappingConstraintInfo@CosNotifyFilter@@@Z
?freebuf@?$_CORBA_Sequence@UMappingConstraintPair@CosNotifyFilter@@@@SAXPEAUMappingConstraintPair@CosNotifyFilter@@@Z
?freebuf@?$_CORBA_Sequence@UNVP@CosLifeCycle@@@@SAXPEAUNVP@CosLifeCycle@@@Z
?freebuf@?$_CORBA_Sequence@UNameComponent@CosNaming@@@@SAXPEAUNameComponent@CosNaming@@@Z
?freebuf@?$_CORBA_Sequence@UNamedPropertyRange@CosNotification@@@@SAXPEAUNamedPropertyRange@CosNotification@@@Z
?freebuf@?$_CORBA_Sequence@UParameterDescription@CORBA@@@@SAXPEAUParameterDescription@CORBA@@@Z
?freebuf@?$_CORBA_Sequence@UProperty@CosNotification@@@@SAXPEAUProperty@CosNotification@@@Z
?freebuf@?$_CORBA_Sequence@UPropertyError@CosNotification@@@@SAXPEAUPropertyError@CosNotification@@@Z
?freebuf@?$_CORBA_Sequence@UStructMember@CORBA@@@@SAXPEAUStructMember@CORBA@@@Z
?freebuf@?$_CORBA_Sequence@UStructuredEvent@CosNotification@@@@SAXPEAUStructuredEvent@CosNotification@@@Z
?freebuf@?$_CORBA_Sequence_ObjRef@VObject@CORBA@@VObject_Element@2@VObject_Helper@2@@@SAXPEAPEAVObject@CORBA@@@Z
?freebuf@_CORBA_Sequence_String@@SAXPEAPEAD@Z
?get_large_octet_array@cdrStream@@QEAAXPEAE_KW4alignment_t@omni@@@Z
?inMkr@cdrStream@@IEBA_KW4alignment_t@omni@@@Z
?length@?$_CORBA_Sequence@J@@QEAAXK@Z
?length@?$_CORBA_Sequence@J@@QEBAKXZ
?length@?$_CORBA_Sequence@UConstraintExp@CosNotifyFilter@@@@QEAAXK@Z
?length@?$_CORBA_Sequence@UConstraintInfo@CosNotifyFilter@@@@QEAAXK@Z
?length@?$_CORBA_Sequence@UEventType@CosNotification@@@@QEAAXK@Z
?length@?$_CORBA_Sequence@UMappingConstraintInfo@CosNotifyFilter@@@@QEAAXK@Z
?length@?$_CORBA_Sequence@UMappingConstraintPair@CosNotifyFilter@@@@QEAAXK@Z
?length@?$_CORBA_Sequence@UNVP@CosLifeCycle@@@@QEAAXK@Z
?length@?$_CORBA_Sequence@UNamedPropertyRange@CosNotification@@@@QEAAXK@Z
?length@?$_CORBA_Sequence@UProperty@CosNotification@@@@QEAAXK@Z
?length@?$_CORBA_Sequence@UPropertyError@CosNotification@@@@QEAAXK@Z
?length@?$_CORBA_Sequence@UStructuredEvent@CosNotification@@@@QEAAXK@Z
?length@?$_CORBA_Sequence_ObjRef@VObject@CORBA@@VObject_Element@2@VObject_Helper@2@@@QEAAXK@Z
?marshalLong@cdrStream@@QEAAXJ@Z
?marshalULong@cdrStream@@QEAAXK@Z
?marshal_byte_swap@cdrStream@@QEBA_NXZ
?outMkr@cdrStream@@IEBA_KW4alignment_t@omni@@@Z
?put_large_octet_array@cdrStream@@QEAAXPEBE_KW4alignment_t@omni@@@Z
?release@CORBA@@YAXPEAVObject@1@@Z
?unmarshalULong@cdrStream@@QEAAKXZ
?unmarshal_byte_swap@cdrStream@@QEBA_NXZ
