LIBRARY shared/omniCodeSets433_vc17_rt.dll
VERSION 3.3
EXPORTS
??0BAD_INV_ORDER@CORBA@@QEAA@AEBV01@@Z
??0BAD_INV_ORDER@CORBA@@QEAA@KW4CompletionStatus@1@@Z
??0BufferC@omniCodeSetUtil@omni@@QEAA@K@Z
??0BufferU@omniCodeSetUtil@omni@@QEAA@K@Z
??0CS_037_init@omni@@QEAA@XZ
??0CS_500_init@omni@@QEAA@XZ
??0CS_8859_10_init@omni@@QEAA@XZ
??0CS_8859_11_init@omni@@QEAA@XZ
??0CS_8859_13_init@omni@@QEAA@XZ
??0CS_8859_14_init@omni@@QEAA@XZ
??0CS_8859_15_init@omni@@QEAA@XZ
??0CS_8859_16_init@omni@@QEAA@XZ
??0CS_8859_2_init@omni@@QEAA@XZ
??0CS_8859_3_init@omni@@QEAA@XZ
??0CS_8859_4_init@omni@@QEAA@XZ
??0CS_8859_5_init@omni@@QEAA@XZ
??0CS_8859_6_init@omni@@QEAA@XZ
??0CS_8859_7_init@omni@@QEAA@XZ
??0CS_8859_8_init@omni@@QEAA@XZ
??0CS_8859_9_init@omni@@QEAA@XZ
??0CS_CP1250_init@omni@@QEAA@XZ
??0CS_CP1251_init@omni@@QEAA@XZ
??0CS_CP1252_init@omni@@QEAA@XZ
??0CS_CP1253_init@omni@@QEAA@XZ
??0CS_CP1254_init@omni@@QEAA@XZ
??0CS_CP1255_init@omni@@QEAA@XZ
??0CS_CP1256_init@omni@@QEAA@XZ
??0CS_CP1257_init@omni@@QEAA@XZ
??0CS_CP1258_init@omni@@QEAA@XZ
??0CS_EDF_4_init@omni@@QEAA@XZ
??0CS_GBK_init@omni@@QEAA@XZ
??0DATA_CONVERSION@CORBA@@QEAA@AEBV01@@Z
??0DATA_CONVERSION@CORBA@@QEAA@KW4CompletionStatus@1@@Z
??0Exception@CORBA@@IEAA@XZ
??0Exception@CORBA@@QEAA@AEBV01@@Z
??0HolderC@omniCodeSetUtil@omni@@QEAA@PEAD@Z
??0MARSHAL@CORBA@@QEAA@AEBV01@@Z
??0MARSHAL@CORBA@@QEAA@KW4CompletionStatus@1@@Z
??0NCS_C_8bit@omniCodeSet@omni@@QEAA@KPEBDPEB_WPEAPEBE@Z
??0NCS_C_GBK@omni@@QEAA@XZ
??0NO_MEMORY@CORBA@@QEAA@AEBV01@@Z
??0NO_MEMORY@CORBA@@QEAA@KW4CompletionStatus@1@@Z
??0SystemException@CORBA@@QEAA@AEBV01@@Z
??0SystemException@CORBA@@QEAA@KW4CompletionStatus@1@@Z
??0TCS_C_8bit@omniCodeSet@omni@@QEAA@KPEBDUVersion@GIOP@@PEB_WPEAPEBE@Z
??0TCS_C_GBK@omni@@QEAA@UVersion@GIOP@@@Z
??1?$_CORBA_ObjRef_Member@V_objref_IDLType@CORBA@@VIDLType_Helper@2@@@QEAA@XZ
??1?$_CORBA_PseudoObj_Member@VDynAny@DynamicAny@@V?$_CORBA_PseudoObj_Var@VDynAny@DynamicAny@@@@@@QEAA@XZ
??1?$_CORBA_PseudoObj_Member@VPolicy@CORBA@@V?$_CORBA_PseudoObj_Var@VPolicy@CORBA@@@@@@QEAA@XZ
??1?$_CORBA_Sequence@E@@QEAA@XZ
??1?$_CORBA_Sequence@UNameComponent@CosNaming@@@@QEAA@XZ
??1?$_CORBA_Unbounded_Sequence@UNameComponent@CosNaming@@@@QEAA@XZ
??1Base@omniCodeSet@omni@@MEAA@XZ
??1Binding@CosNaming@@QEAA@XZ
??1BufferC@omniCodeSetUtil@omni@@QEAA@XZ
??1BufferU@omniCodeSetUtil@omni@@QEAA@XZ
??1HolderC@omniCodeSetUtil@omni@@QEAA@XZ
??1NCS_C@omniCodeSet@omni@@UEAA@XZ
??1NCS_C_8bit@omniCodeSet@omni@@UEAA@XZ
??1NCS_C_GBK@omni@@UEAA@XZ
??1Name@CosNaming@@QEAA@XZ
??1NameComponent@CosNaming@@QEAA@XZ
??1NameDynAnyPair@DynamicAny@@QEAA@XZ
??1NameValuePair@DynamicAny@@QEAA@XZ
??1ServiceContext@IOP@@QEAA@XZ
??1StructMember@CORBA@@QEAA@XZ
??1TCS_C@omniCodeSet@omni@@UEAA@XZ
??1TCS_C_8bit@omniCodeSet@omni@@UEAA@XZ
??1TCS_C_GBK@omni@@UEAA@XZ
??1TaggedComponent@IOP@@QEAA@XZ
??1TaggedProfile@IOP@@QEAA@XZ
??1UnionMember@CORBA@@QEAA@XZ
??1ValueMember@CORBA@@QEAA@XZ
??1_CORBA_Sequence_Octet@@IEAA@XZ
??1_CORBA_String_member@@QEAA@XZ
??1_CORBA_Unbounded_Sequence_Octet@@QEAA@XZ
??_2@YAXKAEAVcdrStream@@@Z
??_3@YAXAEAKAEAVcdrStream@@@Z
?_NP_is_nil@Object@CORBA@@QEBA_NXZ
?_NP_is_pseudo@Object@CORBA@@QEBA_NXZ
?_PR_getobj@Object@CORBA@@QEAAPEAVomniObjRef@@XZ
?_omni_CS_037_should_be_linked_but_is_not_@@3HA
?_omni_CS_500_should_be_linked_but_is_not_@@3HA
?_omni_CS_8859_10_should_be_linked_but_is_not_@@3HA
?_omni_CS_8859_11_should_be_linked_but_is_not_@@3HA
?_omni_CS_8859_13_should_be_linked_but_is_not_@@3HA
?_omni_CS_8859_14_should_be_linked_but_is_not_@@3HA
?_omni_CS_8859_15_should_be_linked_but_is_not_@@3HA
?_omni_CS_8859_16_should_be_linked_but_is_not_@@3HA
?_omni_CS_8859_2_should_be_linked_but_is_not_@@3HA
?_omni_CS_8859_3_should_be_linked_but_is_not_@@3HA
?_omni_CS_8859_4_should_be_linked_but_is_not_@@3HA
?_omni_CS_8859_5_should_be_linked_but_is_not_@@3HA
?_omni_CS_8859_6_should_be_linked_but_is_not_@@3HA
?_omni_CS_8859_7_should_be_linked_but_is_not_@@3HA
?_omni_CS_8859_8_should_be_linked_but_is_not_@@3HA
?_omni_CS_8859_9_should_be_linked_but_is_not_@@3HA
?_omni_CS_CP1250_should_be_linked_but_is_not_@@3HA
?_omni_CS_CP1251_should_be_linked_but_is_not_@@3HA
?_omni_CS_CP1252_should_be_linked_but_is_not_@@3HA
?_omni_CS_CP1253_should_be_linked_but_is_not_@@3HA
?_omni_CS_CP1254_should_be_linked_but_is_not_@@3HA
?_omni_CS_CP1255_should_be_linked_but_is_not_@@3HA
?_omni_CS_CP1256_should_be_linked_but_is_not_@@3HA
?_omni_CS_CP1257_should_be_linked_but_is_not_@@3HA
?_omni_CS_CP1258_should_be_linked_but_is_not_@@3HA
?_omni_CS_EDF_4_should_be_linked_but_is_not_@@3HA
?_omni_CS_GBK_should_be_linked_but_is_not_@@3HA
?_omni_CS_UCS_4_should_be_linked_but_is_not_@@3HA
?_omni_omniCodeSets_should_be_linked_but_is_not_@@3HA
?align_to@omni@@YA_K_KW4alignment_t@1@@Z
?alloc@_CORBA_String_helper@@SAPEADH@Z
?alloc@_CORBA_WString_helper@@SAPEA_WH@Z
?allocC@omniCodeSetUtil@omni@@SAPEADK@Z
?allocU@omniCodeSetUtil@omni@@SAPEA_WK@Z
?buffer@BufferC@omniCodeSetUtil@omni@@QEAAPEADXZ
?buffer@BufferU@omniCodeSetUtil@omni@@QEAAPEA_WXZ
?byteSwap@cdrStream@@SAKK@Z
?dealloc@_CORBA_String_helper@@SAXPEAD@Z
?dealloc@_CORBA_WString_helper@@SAXPEA_W@Z
?drop@HolderC@omniCodeSetUtil@omni@@QEAAXXZ
?extract@BufferC@omniCodeSetUtil@omni@@QEAAPEADXZ
?extract@BufferU@omniCodeSetUtil@omni@@QEAAPEA_WXZ
?fastMarshalChar@TCS_C_GBK@omni@@UEAA_NAEAVcdrStream@@PEAVNCS_C@omniCodeSet@2@E@Z
?fastMarshalString@TCS_C_GBK@omni@@UEAA_NAEAVcdrStream@@PEAVNCS_C@omniCodeSet@2@KKPEBD@Z
?fastUnmarshalChar@TCS_C_GBK@omni@@UEAA_NAEAVcdrStream@@PEAVNCS_C@omniCodeSet@2@AEAE@Z
?fastUnmarshalString@TCS_C_GBK@omni@@UEAA_NAEAVcdrStream@@PEAVNCS_C@omniCodeSet@2@KAEAKAEAPEAD@Z
?freeC@omniCodeSetUtil@omni@@SAXPEAD@Z
?freeU@omniCodeSetUtil@omni@@SAXPEA_W@Z
?freebuf@?$_CORBA_Sequence@E@@SAXPEAE@Z
?freebuf@?$_CORBA_Sequence@UNameComponent@CosNaming@@@@SAXPEAUNameComponent@CosNaming@@@Z
?fromU@NCS_C_8bit@omniCodeSet@omni@@QEBAPEAPEBEXZ
?id@Base@omniCodeSet@omni@@QEBAKXZ
?inMkr@cdrStream@@IEBA_KW4alignment_t@omni@@@Z
?inMkr@cdrStream@@IEBA_KXZ
?insert@BufferC@omniCodeSetUtil@omni@@QEAAXE@Z
?insert@BufferU@omniCodeSetUtil@omni@@QEAAX_W@Z
?kind@Base@omniCodeSet@omni@@QEBA?AW4Kind@23@XZ
?length@BufferC@omniCodeSetUtil@omni@@QEAAKXZ
?length@BufferU@omniCodeSetUtil@omni@@QEAAKXZ
?logs@omniORB@@YAXKPEBD@Z
?marshalChar@NCS_C_GBK@omni@@UEAAXAEAVcdrStream@@PEAVTCS_C@omniCodeSet@2@E@Z
?marshalChar@TCS_C_GBK@omni@@UEAAXAEAVcdrStream@@_W@Z
?marshalOctet@cdrStream@@QEAAXE@Z
?marshalString@NCS_C_GBK@omni@@UEAAXAEAVcdrStream@@PEAVTCS_C@omniCodeSet@2@KKPEBD@Z
?marshalString@TCS_C_GBK@omni@@UEAAXAEAVcdrStream@@KKPEB_W@Z
?marshalULong@cdrStream@@QEAAXK@Z
?outMkr@cdrStream@@IEBA_KW4alignment_t@omni@@@Z
?outMkr@cdrStream@@IEBA_KXZ
?reallocC@omniCodeSetUtil@omni@@SAPEADPEADKK@Z
?reallocU@omniCodeSetUtil@omni@@SAPEA_WPEA_WKK@Z
?release@CORBA@@YAXPEAVObject@1@@Z
?toU@NCS_C_8bit@omniCodeSet@omni@@QEBAPEB_WXZ
?unmarshalChar@NCS_C_GBK@omni@@UEAAEAEAVcdrStream@@PEAVTCS_C@omniCodeSet@2@@Z
?unmarshalChar@TCS_C_GBK@omni@@UEAA_WAEAVcdrStream@@@Z
?unmarshalOctet@cdrStream@@QEAAEXZ
?unmarshalString@NCS_C_GBK@omni@@UEAAKAEAVcdrStream@@PEAVTCS_C@omniCodeSet@2@KAEAPEAD@Z
?unmarshalString@TCS_C_GBK@omni@@UEAAKAEAVcdrStream@@KAEAPEA_W@Z
?unmarshalULong@cdrStream@@QEAAKXZ
