LIBRARY shared/omniORB433_vc17_rt.dll
VERSION 3.3
EXPORTS
??$omnicopy@PEAKPEAK@@YAPEAKPEAK00@Z
??$omnicopy@PEAPEAUEndpointURI@Options@omniObjAdapter@omni@@PEAPEAU1234@@@YAPEAPEAUEndpointURI@Options@omniObjAdapter@omni@@PEAPEAU0123@00@Z
??$omnicopy@PEAPEAUHandlerValuePair@orbOptions@omni@@PEAPEAU123@@@YAPEAPEAUHandlerValuePair@orbOptions@omni@@PEAPEAU012@00@Z
??$omnicopy@PEAPEAURuleActionPair@transportRules@omni@@PEAPEAU123@@@YAPEAPEAURuleActionPair@transportRules@omni@@PEAPEAU012@00@Z
??$omnicopy@PEAPEAVHandler@orbOptions@omni@@PEAPEAV123@@@YAPEAPEAVHandler@orbOptions@omni@@PEAPEAV012@00@Z
??$omnicopy@PEAPEAVObject@CORBA@@PEAPEAV12@@@YAPEAPEAVObject@CORBA@@PEAPEAV01@00@Z
??$omnicopy@PEAPEAVRuleType@transportRules@omni@@PEAPEAV123@@@YAPEAPEAVRuleType@transportRules@omni@@PEAPEAV012@00@Z
??$omnicopy@PEAPEAVSocketHolder@omni@@PEAPEAV12@@@YAPEAPEAVSocketHolder@omni@@PEAPEAV01@00@Z
??$omnicopy@PEAPEAVURIHandler@omniURI@omni@@PEAPEAV123@@@YAPEAPEAVURIHandler@omniURI@omni@@PEAPEAV012@00@Z
??$omnicopy@PEAPEAVgiopActiveCollection@omni@@PEAPEAV12@@@YAPEAPEAVgiopActiveCollection@omni@@PEAPEAV01@00@Z
??$omnicopy@PEAPEAVgiopAddress@omni@@PEAPEAV12@@@YAPEAPEAVgiopAddress@omni@@PEAPEAV01@00@Z
??$omnicopy@PEAPEAVgiopEndpoint@omni@@PEAPEAV12@@@YAPEAPEAVgiopEndpoint@omni@@PEAPEAV01@00@Z
??$omnicopy@PEAPEAVgiopStrand@omni@@PEAPEAV12@@@YAPEAPEAVgiopStrand@omni@@PEAPEAV01@00@Z
??$omnicopy@PEAPEAVomniInitialiser@omni@@PEAPEAV12@@@YAPEAPEAVomniInitialiser@omni@@PEAPEAV01@00@Z
??$omnicopy@PEAPEAVomniObjRef@@PEAPEAV1@@@YAPEAPEAVomniObjRef@@PEAPEAV0@00@Z
??$omnicopy@PEAPEAVomniObjTableEntry@@PEAPEAV1@@@YAPEAPEAVomniObjTableEntry@@PEAPEAV0@00@Z
??$omnicopy@PEAPEAVomniTrackedObject@omni@@PEAPEAV12@@@YAPEAPEAVomniTrackedObject@omni@@PEAPEAV01@00@Z
??$omnicopy@PEAPEAVorbServer@omni@@PEAPEAV12@@@YAPEAPEAVorbServer@omni@@PEAPEAV01@00@Z
??$omnicopy@PEAPEBDPEAPEBD@@YAPEAPEBDPEAPEBD00@Z
??$omnicopy@PEAUresolvePseudoEntry@omni@@PEAU12@@@YAPEAUresolvePseudoEntry@omni@@PEAU01@00@Z
??0?$Servant_var@VServantBase@PortableServer@@@PortableServer@@QEAA@PEAVServantBase@1@@Z
??0?$_CORBA_ConstrType_Variable_OUT_arg@UBinding@CosNaming@@V?$_CORBA_ConstrType_Variable_Var@UBinding@CosNaming@@@@@@QEAA@AEAPEAUBinding@CosNaming@@@Z
??0?$_CORBA_ConstrType_Variable_Var@UBinding@CosNaming@@@@QEAA@XZ
??0?$_CORBA_ObjRef_Element@VPOA@PortableServer@@VPOA_Helper@2@@@QEAA@AEAPEAVPOA@PortableServer@@_N@Z
??0?$_CORBA_ObjRef_Member@V_objref_NamingContext@CosNaming@@VNamingContext_Helper@2@@@QEAA@XZ
??0?$_CORBA_ObjRef_OUT_arg@V_objref_BindingIterator@CosNaming@@VBindingIterator_Helper@2@@@QEAA@AEAPEAV_objref_BindingIterator@CosNaming@@@Z
??0?$_CORBA_ObjRef_Var@VServantActivator@PortableServer@@VServantActivator_Helper@2@@@QEAA@PEAVServantActivator@PortableServer@@@Z
??0?$_CORBA_ObjRef_Var@VServantLocator@PortableServer@@VServantLocator_Helper@2@@@QEAA@PEAVServantLocator@PortableServer@@@Z
??0?$_CORBA_ObjRef_Var@V_objref_BindingIterator@CosNaming@@VBindingIterator_Helper@2@@@QEAA@XZ
??0?$_CORBA_ObjRef_Var@V_objref_NamingContext@CosNaming@@VNamingContext_Helper@2@@@QEAA@PEAV_objref_NamingContext@CosNaming@@@Z
??0?$_CORBA_ObjRef_Var@V_objref_NamingContext@CosNaming@@VNamingContext_Helper@2@@@QEAA@XZ
??0?$_CORBA_PseudoObj_Member@VPolicy@CORBA@@V?$_CORBA_PseudoObj_Var@VPolicy@CORBA@@@@@@QEAA@XZ
??0?$_CORBA_PseudoObj_Var@VBidirectionalPolicy@BiDirPolicy@@@@QEAA@XZ
??0?$_CORBA_PseudoObj_Var@VEndPointPublishPolicy@omniPolicy@@@@QEAA@PEAVEndPointPublishPolicy@omniPolicy@@@Z
??0?$_CORBA_PseudoObj_Var@VIdAssignmentPolicy@PortableServer@@@@QEAA@XZ
??0?$_CORBA_PseudoObj_Var@VIdUniquenessPolicy@PortableServer@@@@QEAA@XZ
??0?$_CORBA_PseudoObj_Var@VImplicitActivationPolicy@PortableServer@@@@QEAA@XZ
??0?$_CORBA_PseudoObj_Var@VLifespanPolicy@PortableServer@@@@QEAA@XZ
??0?$_CORBA_PseudoObj_Var@VLocalShortcutPolicy@omniPolicy@@@@QEAA@XZ
??0?$_CORBA_PseudoObj_Var@VPOA@PortableServer@@@@QEAA@PEAVPOA@PortableServer@@@Z
??0?$_CORBA_PseudoObj_Var@VPOA@PortableServer@@@@QEAA@XZ
??0?$_CORBA_PseudoObj_Var@VPlainObjectKeysPolicy@omniPolicy@@@@QEAA@XZ
??0?$_CORBA_PseudoObj_Var@VRequestProcessingPolicy@PortableServer@@@@QEAA@XZ
??0?$_CORBA_PseudoObj_Var@VServantRetentionPolicy@PortableServer@@@@QEAA@XZ
??0?$_CORBA_PseudoObj_Var@VThreadPolicy@PortableServer@@@@QEAA@XZ
??0?$_CORBA_PseudoValue_Sequence@PEAVIORExtraInfo@omniIOR@@@@QEAA@XZ
??0?$_CORBA_PseudoValue_Sequence@PEAVomniOrbPOA@omni@@@@QEAA@XZ
??0?$_CORBA_PseudoValue_Sequence@UserviceRecord@omni@@@@QEAA@XZ
??0?$_CORBA_Pseudo_Unbounded_Sequence@VPolicy@CORBA@@V?$_CORBA_PseudoObj_Member@VPolicy@CORBA@@V?$_CORBA_PseudoObj_Var@VPolicy@CORBA@@@@@@@@QEAA@AEBV0@@Z
??0?$_CORBA_Pseudo_Unbounded_Sequence@VPolicy@CORBA@@V?$_CORBA_PseudoObj_Member@VPolicy@CORBA@@V?$_CORBA_PseudoObj_Var@VPolicy@CORBA@@@@@@@@QEAA@K@Z
??0?$_CORBA_Pseudo_Unbounded_Sequence@VPolicy@CORBA@@V?$_CORBA_PseudoObj_Member@VPolicy@CORBA@@V?$_CORBA_PseudoObj_Var@VPolicy@CORBA@@@@@@@@QEAA@XZ
??0?$_CORBA_Sequence@E@@IEAA@K_N@Z
??0?$_CORBA_Sequence@E@@IEAA@XZ
??0?$_CORBA_Sequence@K@@IEAA@XZ
??0?$_CORBA_Sequence@UAddress@IIOP@@@@IEAA@K_N@Z
??0?$_CORBA_Sequence@UAddress@IIOP@@@@IEAA@XZ
??0?$_CORBA_Sequence@UBinding@CosNaming@@@@IEAA@XZ
??0?$_CORBA_Sequence@UNameComponent@CosNaming@@@@IEAA@XZ
??0?$_CORBA_Sequence@UServiceContext@IOP@@@@IEAA@K_N@Z
??0?$_CORBA_Sequence@UServiceContext@IOP@@@@IEAA@XZ
??0?$_CORBA_Sequence@UTaggedComponent@IOP@@@@IEAA@K_N@Z
??0?$_CORBA_Sequence@UTaggedComponent@IOP@@@@IEAA@XZ
??0?$_CORBA_Sequence@UTaggedProfile@IOP@@@@IEAA@KKPEAUTaggedProfile@IOP@@_N1@Z
??0?$_CORBA_Sequence@UTaggedProfile@IOP@@@@IEAA@XZ
??0?$_CORBA_Sequence@V_CORBA_Unbounded_Sequence_Octet@@@@IEAA@XZ
??0?$_CORBA_Sequence_ObjRef@VPOA@PortableServer@@V?$_CORBA_ObjRef_Element@VPOA@PortableServer@@VPOA_Helper@2@@@VPOA_Helper@2@@@IEAA@XZ
??0?$_CORBA_Unbounded_Sequence@K@@QEAA@XZ
??0?$_CORBA_Unbounded_Sequence@UAddress@IIOP@@@@QEAA@K@Z
??0?$_CORBA_Unbounded_Sequence@UAddress@IIOP@@@@QEAA@XZ
??0?$_CORBA_Unbounded_Sequence@UBinding@CosNaming@@@@QEAA@XZ
??0?$_CORBA_Unbounded_Sequence@UNameComponent@CosNaming@@@@QEAA@XZ
??0?$_CORBA_Unbounded_Sequence@UServiceContext@IOP@@@@QEAA@K@Z
??0?$_CORBA_Unbounded_Sequence@UServiceContext@IOP@@@@QEAA@XZ
??0?$_CORBA_Unbounded_Sequence@UTaggedComponent@IOP@@@@QEAA@K@Z
??0?$_CORBA_Unbounded_Sequence@UTaggedComponent@IOP@@@@QEAA@XZ
??0?$_CORBA_Unbounded_Sequence@UTaggedProfile@IOP@@@@QEAA@KKPEAUTaggedProfile@IOP@@_N@Z
??0?$_CORBA_Unbounded_Sequence@UTaggedProfile@IOP@@@@QEAA@XZ
??0?$_CORBA_Unbounded_Sequence@V_CORBA_Unbounded_Sequence_Octet@@@@QEAA@XZ
??0?$_CORBA_Unbounded_Sequence_ObjRef@VPOA@PortableServer@@V?$_CORBA_ObjRef_Element@VPOA@PortableServer@@VPOA_Helper@2@@@VPOA_Helper@2@@@QEAA@XZ
??0?$_CORBA_Unbounded_Sequence_w_FixSizeElement@K$03$03@@QEAA@XZ
??0?$omnivector@K@@QEAA@XZ
??0?$omnivector@PEAUEndpointURI@Options@omniObjAdapter@omni@@@@QEAA@XZ
??0?$omnivector@PEAUHandlerValuePair@orbOptions@omni@@@@QEAA@XZ
??0?$omnivector@PEAURuleActionPair@transportRules@omni@@@@QEAA@XZ
??0?$omnivector@PEAVHandler@orbOptions@omni@@@@QEAA@XZ
??0?$omnivector@PEAVObject@CORBA@@@@QEAA@XZ
??0?$omnivector@PEAVRuleType@transportRules@omni@@@@QEAA@XZ
??0?$omnivector@PEAVSocketHolder@omni@@@@QEAA@XZ
??0?$omnivector@PEAVURIHandler@omniURI@omni@@@@QEAA@XZ
??0?$omnivector@PEAVgiopActiveCollection@omni@@@@QEAA@XZ
??0?$omnivector@PEAVgiopAddress@omni@@@@QEAA@XZ
??0?$omnivector@PEAVgiopEndpoint@omni@@@@QEAA@XZ
??0?$omnivector@PEAVgiopStrand@omni@@@@QEAA@XZ
??0?$omnivector@PEAVomniInitialiser@omni@@@@QEAA@XZ
??0?$omnivector@PEAVomniObjRef@@@@QEAA@XZ
??0?$omnivector@PEAVomniObjTableEntry@@@@QEAA@XZ
??0?$omnivector@PEAVomniTrackedObject@omni@@@@QEAA@XZ
??0?$omnivector@PEAVorbServer@omni@@@@QEAA@XZ
??0?$omnivector@PEBD@@QEAA@XZ
??0?$omnivector@UresolvePseudoEntry@omni@@@@QEAA@XZ
??0AdapterActivator@PortableServer@@IEAA@XZ
??0AdapterAlreadyExists@POA@PortableServer@@QEAA@AEBV012@@Z
??0AdapterAlreadyExists@POA@PortableServer@@QEAA@XZ
??0AdapterInactive@POA@PortableServer@@QEAA@AEBV012@@Z
??0AdapterInactive@POAManager@PortableServer@@QEAA@AEBV012@@Z
??0AdapterInactive@POAManager@PortableServer@@QEAA@XZ
??0AdapterNonExistent@POA@PortableServer@@QEAA@AEBV012@@Z
??0AdapterNonExistent@POA@PortableServer@@QEAA@XZ
??0AddrInfo@LibcWrapper@omni@@QEAA@XZ
??0AddrInfo_var@LibcWrapper@omni@@QEAA@PEAVAddrInfo@12@@Z
??0AddrInfo_var@LibcWrapper@omni@@QEAA@XZ
??0Address@IIOP@@QEAA@AEBU01@@Z
??0Address@IIOP@@QEAA@XZ
??0AlreadyBound@NamingContext@CosNaming@@QEAA@AEBV012@@Z
??0AlreadyBound@NamingContext@CosNaming@@QEAA@XZ
??0AsyncRequest@omni@@QEAA@PEAVomniObjRef@@PEAVomniAsyncCallDescriptor@@AEBUomni_time_t@@_N@Z
??0BAD_CONTEXT@CORBA@@QEAA@AEBV01@@Z
??0BAD_CONTEXT@CORBA@@QEAA@KW4CompletionStatus@1@@Z
??0BAD_INV_ORDER@CORBA@@QEAA@AEBV01@@Z
??0BAD_INV_ORDER@CORBA@@QEAA@KW4CompletionStatus@1@@Z
??0BAD_OPERATION@CORBA@@QEAA@AEBV01@@Z
??0BAD_OPERATION@CORBA@@QEAA@KW4CompletionStatus@1@@Z
??0BAD_PARAM@CORBA@@QEAA@AEBV01@@Z
??0BAD_PARAM@CORBA@@QEAA@KW4CompletionStatus@1@@Z
??0BAD_QOS@CORBA@@QEAA@AEBV01@@Z
??0BAD_QOS@CORBA@@QEAA@KW4CompletionStatus@1@@Z
??0BAD_TYPECODE@CORBA@@QEAA@AEBV01@@Z
??0BAD_TYPECODE@CORBA@@QEAA@KW4CompletionStatus@1@@Z
??0BOA@CORBA@@IEAA@H@Z
??0BOA_var@CORBA@@QEAA@PEAVBOA@1@@Z
??0BadParam@orbOptions@omni@@QEAA@AEBV012@@Z
??0BadParam@orbOptions@omni@@QEAA@PEBD00@Z
??0Base@omniCodeSet@omni@@IEAA@KPEBDW4Kind@12@@Z
??0BiDirClientRope@omni@@QEAA@AEBV?$omnivector@PEAVgiopAddress@omni@@@@PEAVIORInfo@omniIOR@@@Z
??0BiDirInfo@omni@@QEAA@PEAD@Z
??0BiDirServerRope@omni@@QEAA@PEAVgiopStrand@1@PEAVgiopAddress@1@@Z
??0BidirectionalPolicy@BiDirPolicy@@QEAA@G@Z
??0BidirectionalPolicy@BiDirPolicy@@QEAA@XZ
??0Binding@CosNaming@@QEAA@XZ
??0BindingList@CosNaming@@QEAA@XZ
??0BindingList_out@CosNaming@@QEAA@AEAPEAVBindingList@1@@Z
??0BindingList_var@CosNaming@@QEAA@XZ
??0BufferC@omniCodeSetUtil@omni@@QEAA@K@Z
??0BufferCompressor@omni@@QEAA@PEAVgiopStream@1@PEAVgiopCompressor@1@PEAUgiopStream_Buffer@1@@Z
??0BufferU@omniCodeSetUtil@omni@@QEAA@K@Z
??0CODESET_INCOMPATIBLE@CORBA@@QEAA@AEBV01@@Z
??0CODESET_INCOMPATIBLE@CORBA@@QEAA@KW4CompletionStatus@1@@Z
??0COMM_FAILURE@CORBA@@QEAA@AEBV01@@Z
??0COMM_FAILURE@CORBA@@QEAA@KW4CompletionStatus@1@@Z
??0CORBA_InitialReferences_i@omni@@QEAA@XZ
??0CS_8859_1_init@omni@@QEAA@XZ
??0CS_UTF_16_init@omni@@QEAA@XZ
??0CS_UTF_8_init@omni@@QEAA@XZ
??0CannotProceed@NamingContext@CosNaming@@QEAA@AEBV012@@Z
??0CannotProceed@NamingContext@CosNaming@@QEAA@PEAV_objref_NamingContext@2@VName@2@@Z
??0CannotProceed@NamingContext@CosNaming@@QEAA@XZ
??0CodeSetComponent@CONV_FRAME@omni@@QEAA@XZ
??0CodeSetComponentInfo@CONV_FRAME@omni@@QEAA@XZ
??0CommFailure@giopStream@omni@@QEAA@AEBV012@@Z
??0CommFailure@giopStream@omni@@QEAA@KW4CompletionStatus@CORBA@@_N@Z
??0Current@CORBA@@IEAA@H@Z
??0Current@PortableServer@@IEAA@H@Z
??0DATA_CONVERSION@CORBA@@QEAA@AEBV01@@Z
??0DATA_CONVERSION@CORBA@@QEAA@KW4CompletionStatus@1@@Z
??0DefaultInitRefHandler@omni@@QEAA@XZ
??0EndPointPublishPolicy@omniPolicy@@QEAA@AEBVStringSeq@CORBA@@@Z
??0EndPointPublishPolicy@omniPolicy@@QEAA@XZ
??0EndpointURI@Options@omniObjAdapter@omni@@QEAA@XZ
??0Exception@CORBA@@IEAA@XZ
??0Exception@CORBA@@QEAA@AEBV01@@Z
??0FREE_MEM@CORBA@@QEAA@AEBV01@@Z
??0FREE_MEM@CORBA@@QEAA@KW4CompletionStatus@1@@Z
??0Fixed@CORBA@@QEAA@AEBV01@@Z
??0Fixed@CORBA@@QEAA@H@Z
??0Fixed@CORBA@@QEAA@I@Z
??0Fixed@CORBA@@QEAA@J@Z
??0Fixed@CORBA@@QEAA@K@Z
??0Fixed@CORBA@@QEAA@N@Z
??0Fixed@CORBA@@QEAA@PEBD@Z
??0Fixed@CORBA@@QEAA@PEBEGG_N@Z
??0Fixed@CORBA@@QEAA@_J@Z
??0Fixed@CORBA@@QEAA@_K@Z
??0ForwardRequest@PortableServer@@QEAA@AEBV01@@Z
??0ForwardRequest@PortableServer@@QEAA@PEAVObject@CORBA@@@Z
??0FullAddrInfo@omni@@QEAA@PEAUaddrinfo@@_N@Z
??0GIOP_C@omni@@QEAA@PEAVgiopRope@1@PEAVgiopStrand@1@@Z
??0GIOP_S@omni@@QEAA@AEBV01@@Z
??0GIOP_S@omni@@QEAA@PEAVgiopStrand@1@@Z
??0GIOP_S_Holder@omni@@QEAA@PEAVgiopStrand@1@PEAVgiopWorker@1@@Z
??0Handler@orbOptions@omni@@IEAA@PEBD0_N01@Z
??0HandlerValuePair@orbOptions@omni@@QEAA@PEAVHandler@12@PEBDW4Source@12@@Z
??0HolderC@omniCodeSetUtil@omni@@QEAA@PEAD@Z
??0HolderU@omniCodeSetUtil@omni@@QEAA@PEA_W@Z
??0HolderW@omniCodeSetUtil@omni@@QEAA@PEA_W@Z
??0IMP_LIMIT@CORBA@@QEAA@AEBV01@@Z
??0IMP_LIMIT@CORBA@@QEAA@KW4CompletionStatus@1@@Z
??0INITIALIZE@CORBA@@QEAA@AEBV01@@Z
??0INITIALIZE@CORBA@@QEAA@KW4CompletionStatus@1@@Z
??0INTERNAL@CORBA@@QEAA@AEBV01@@Z
??0INTERNAL@CORBA@@QEAA@KW4CompletionStatus@1@@Z
??0INTF_REPOS@CORBA@@QEAA@AEBV01@@Z
??0INTF_REPOS@CORBA@@QEAA@KW4CompletionStatus@1@@Z
??0INVALID_TRANSACTION@CORBA@@QEAA@AEBV01@@Z
??0INVALID_TRANSACTION@CORBA@@QEAA@KW4CompletionStatus@1@@Z
??0INV_FLAG@CORBA@@QEAA@AEBV01@@Z
??0INV_FLAG@CORBA@@QEAA@KW4CompletionStatus@1@@Z
??0INV_IDENT@CORBA@@QEAA@AEBV01@@Z
??0INV_IDENT@CORBA@@QEAA@KW4CompletionStatus@1@@Z
??0INV_OBJREF@CORBA@@QEAA@AEBV01@@Z
??0INV_OBJREF@CORBA@@QEAA@KW4CompletionStatus@1@@Z
??0INV_POLICY@CORBA@@QEAA@AEBV01@@Z
??0INV_POLICY@CORBA@@QEAA@KW4CompletionStatus@1@@Z
??0IOP_C@omni@@QEAA@XZ
??0IOP_C_Holder@omni@@QEAA@PEBVomniIOR@@PEBEKPEAVRope@1@PEAVomniCallDescriptor@@@Z
??0IOP_S@omni@@QEAA@XZ
??0IOR@IOP@@QEAA@XZ
??0IORAddressingInfo@GIOP@@QEAA@XZ
??0IORExtraInfo@omniIOR@@QEAA@K@Z
??0IORInfo@omniIOR@@QEAA@XZ
??0IORPublish@omni@@QEAA@XZ
??0IdAssignmentPolicy@PortableServer@@QEAA@W4IdAssignmentPolicyValue@1@@Z
??0IdAssignmentPolicy@PortableServer@@QEAA@XZ
??0IdUniquenessPolicy@PortableServer@@QEAA@W4IdUniquenessPolicyValue@1@@Z
??0IdUniquenessPolicy@PortableServer@@QEAA@XZ
??0IiopObjAddr@corbalocURIHandler@omni@@QEAA@AEAPEBD@Z
??0ImplicitActivationPolicy@PortableServer@@QEAA@W4ImplicitActivationPolicyValue@1@@Z
??0ImplicitActivationPolicy@PortableServer@@QEAA@XZ
??0InitRefHandler@omni@@QEAA@XZ
??0InvalidAddress@NamingContextExt@CosNaming@@QEAA@AEBV012@@Z
??0InvalidAddress@NamingContextExt@CosNaming@@QEAA@XZ
??0InvalidName@NamingContext@CosNaming@@QEAA@AEBV012@@Z
??0InvalidName@NamingContext@CosNaming@@QEAA@XZ
??0InvalidName@ORB@CORBA@@QEAA@AEBV012@@Z
??0InvalidName@ORB@CORBA@@QEAA@XZ
??0InvalidPolicy@POA@PortableServer@@QEAA@AEBV012@@Z
??0InvalidPolicy@POA@PortableServer@@QEAA@G@Z
??0LOCATION_FORWARD@omniORB@@QEAA@AEBV01@@Z
??0LOCATION_FORWARD@omniORB@@QEAA@PEAVObject@CORBA@@_N@Z
??0LifespanPolicy@PortableServer@@QEAA@W4LifespanPolicyValue@1@@Z
??0LifespanPolicy@PortableServer@@QEAA@XZ
??0Link@giopServer@omni@@QEAA@XZ
??0LocalObject@CORBA@@IEAA@XZ
??0LocalShortcutPolicy@omniPolicy@@QEAA@G@Z
??0LocalShortcutPolicy@omniPolicy@@QEAA@XZ
??0MARSHAL@CORBA@@QEAA@AEBV01@@Z
??0MARSHAL@CORBA@@QEAA@KW4CompletionStatus@1@@Z
??0NCS_C@omniCodeSet@omni@@QEAA@KPEBDW4Kind@12@@Z
??0NCS_C_8bit@omniCodeSet@omni@@QEAA@KPEBDPEB_WPEAPEBE@Z
??0NCS_C_UTF_8@omni@@QEAA@XZ
??0NCS_W@omniCodeSet@omni@@QEAA@KPEBDW4Kind@12@@Z
??0NCS_W_UTF_16@omni@@QEAA@XZ
??0NO_IMPLEMENT@CORBA@@QEAA@AEBV01@@Z
??0NO_IMPLEMENT@CORBA@@QEAA@KW4CompletionStatus@1@@Z
??0NO_MEMORY@CORBA@@QEAA@AEBV01@@Z
??0NO_MEMORY@CORBA@@QEAA@KW4CompletionStatus@1@@Z
??0NO_PERMISSION@CORBA@@QEAA@AEBV01@@Z
??0NO_PERMISSION@CORBA@@QEAA@KW4CompletionStatus@1@@Z
??0NO_RESOURCES@CORBA@@QEAA@AEBV01@@Z
??0NO_RESOURCES@CORBA@@QEAA@KW4CompletionStatus@1@@Z
??0NO_RESPONSE@CORBA@@QEAA@AEBV01@@Z
??0NO_RESPONSE@CORBA@@QEAA@KW4CompletionStatus@1@@Z
??0Name@CosNaming@@QEAA@XZ
??0NameComponent@CosNaming@@QEAA@XZ
??0Name_var@CosNaming@@QEAA@PEAVName@1@@Z
??0Name_var@CosNaming@@QEAA@XZ
??0NoContext@Current@PortableServer@@QEAA@AEBV012@@Z
??0NoContext@Current@PortableServer@@QEAA@XZ
??0NoServant@POA@PortableServer@@QEAA@AEBV012@@Z
??0NoServant@POA@PortableServer@@QEAA@XZ
??0NotEmpty@NamingContext@CosNaming@@QEAA@AEBV012@@Z
??0NotEmpty@NamingContext@CosNaming@@QEAA@XZ
??0NotFound@NamingContext@CosNaming@@QEAA@AEBV012@@Z
??0NotFound@NamingContext@CosNaming@@QEAA@W4NotFoundReason@12@VName@2@@Z
??0NotFound@NamingContext@CosNaming@@QEAA@XZ
??0OBJECT_NOT_EXIST@CORBA@@QEAA@AEBV01@@Z
??0OBJECT_NOT_EXIST@CORBA@@QEAA@KW4CompletionStatus@1@@Z
??0OBJ_ADAPTER@CORBA@@QEAA@AEBV01@@Z
??0OBJ_ADAPTER@CORBA@@QEAA@KW4CompletionStatus@1@@Z
??0ORB@CORBA@@IEAA@H@Z
??0ObjAddr@corbalocURIHandler@omni@@QEAA@XZ
??0ObjAddrList@corbalocURIHandler@omni@@QEAA@XZ
??0ObjIdList@CORBA_InitialReferences@@QEAA@K@Z
??0ObjIdList@CORBA_InitialReferences@@QEAA@XZ
??0ObjIdList_var@CORBA_InitialReferences@@QEAA@XZ
??0Object@CORBA@@QEAA@XZ
??0ObjectAlreadyActive@POA@PortableServer@@QEAA@AEBV012@@Z
??0ObjectAlreadyActive@POA@PortableServer@@QEAA@XZ
??0ObjectId@PortableServer@@QEAA@K@Z
??0ObjectId@PortableServer@@QEAA@XZ
??0ObjectIdList@ORB@CORBA@@QEAA@K@Z
??0ObjectNotActive@POA@PortableServer@@QEAA@AEBV012@@Z
??0ObjectNotActive@POA@PortableServer@@QEAA@XZ
??0Object_Member@CORBA@@QEAA@XZ
??0Object_var@CORBA@@QEAA@PEAVObject@1@@Z
??0Object_var@CORBA@@QEAA@XZ
??0OctetSeq@CORBA@@QEAA@K@Z
??0Options@omniObjAdapter@omni@@QEAA@XZ
??0PERSIST_STORE@CORBA@@QEAA@AEBV01@@Z
??0PERSIST_STORE@CORBA@@QEAA@KW4CompletionStatus@1@@Z
??0POA@PortableServer@@IEAA@H@Z
??0POAList@PortableServer@@QEAA@XZ
??0POAManager@PortableServer@@IEAA@H@Z
??0POA_CORBA_InitialReferences@@QEAA@XZ
??0Parsed@corbalocURIHandler@omni@@QEAA@AEAPEBDPEBD@Z
??0PlainObjectKeysPolicy@omniPolicy@@QEAA@G@Z
??0PlainObjectKeysPolicy@omniPolicy@@QEAA@XZ
??0Policy@CORBA@@QEAA@K@Z
??0Policy@CORBA@@QEAA@XZ
??0PolicyError@CORBA@@QEAA@AEBV01@@Z
??0PolicyError@CORBA@@QEAA@F@Z
??0PostInvokeHook@omniCallHandle@@QEAA@XZ
??0ProfileBody@IIOP@@QEAA@XZ
??0REBIND@CORBA@@QEAA@AEBV01@@Z
??0REBIND@CORBA@@QEAA@KW4CompletionStatus@1@@Z
??0RequestProcessingPolicy@PortableServer@@QEAA@W4RequestProcessingPolicyValue@1@@Z
??0RequestProcessingPolicy@PortableServer@@QEAA@XZ
??0RirObjAddr@corbalocURIHandler@omni@@QEAA@AEAPEBD@Z
??0Rope@omni@@QEAA@XZ
??0RopeLink@omni@@QEAA@XZ
??0Rule@transportRules@omni@@QEAA@PEBD@Z
??0RuleActionPair@transportRules@omni@@QEAA@PEAVRule@12@AEBVStringSeq@CORBA@@@Z
??0RuleType@transportRules@omni@@QEAA@XZ
??0SLPostInvokeHook@omniOrbPOA@omni@@QEAA@PEAV12@PEAVServantLocator@PortableServer@@AEAVObjectId@4@PEBDPEAXPEAVServantBase@4@@Z
??0Scavenger@omni@@QEAA@XZ
??0ServantActivator@PortableServer@@IEAA@XZ
??0ServantAlreadyActive@POA@PortableServer@@QEAA@AEBV012@@Z
??0ServantAlreadyActive@POA@PortableServer@@QEAA@XZ
??0ServantBase@PortableServer@@IEAA@XZ
??0ServantLocator@PortableServer@@IEAA@XZ
??0ServantManager@PortableServer@@IEAA@XZ
??0ServantNotActive@POA@PortableServer@@QEAA@AEBV012@@Z
??0ServantNotActive@POA@PortableServer@@QEAA@XZ
??0ServantRetentionPolicy@PortableServer@@QEAA@W4ServantRetentionPolicyValue@1@@Z
??0ServantRetentionPolicy@PortableServer@@QEAA@XZ
??0ServiceContext@IOP@@QEAA@XZ
??0SocketCollection@omni@@QEAA@XZ
??0SocketHolder@omni@@QEAA@_K@Z
??0SsliopObjAddr@corbalocURIHandler@omni@@QEAA@AEAPEBD@Z
??0Strand@omni@@QEAA@XZ
??0StrandList@omni@@QEAA@XZ
??0StreamAdapterStateCopier@omni@@QEAA@PEAVcdrStreamAdapter@@@Z
??0StringSeq@CORBA@@QEAA@AEBV01@@Z
??0StringSeq@CORBA@@QEAA@K@Z
??0StringSeq@CORBA@@QEAA@XZ
??0StringSeq_var@CORBA@@QEAA@PEAVStringSeq@1@@Z
??0StringSeq_var@CORBA@@QEAA@XZ
??0SystemException@CORBA@@QEAA@AEBV01@@Z
??0SystemException@CORBA@@QEAA@KW4CompletionStatus@1@@Z
??0TCS_C@omniCodeSet@omni@@QEAA@KPEBDW4Kind@12@UVersion@GIOP@@@Z
??0TCS_C_8bit@omniCodeSet@omni@@QEAA@KPEBDUVersion@GIOP@@PEB_WPEAPEBE@Z
??0TCS_C_UTF_8@omni@@QEAA@UVersion@GIOP@@@Z
??0TCS_W@omniCodeSet@omni@@QEAA@KPEBDW4Kind@12@UVersion@GIOP@@@Z
??0TCS_W_UTF_16@omni@@QEAA@XZ
??0TIMEOUT@CORBA@@QEAA@AEBV01@@Z
??0TIMEOUT@CORBA@@QEAA@KW4CompletionStatus@1@@Z
??0TRANSACTION_MODE@CORBA@@QEAA@AEBV01@@Z
??0TRANSACTION_MODE@CORBA@@QEAA@KW4CompletionStatus@1@@Z
??0TRANSACTION_REQUIRED@CORBA@@QEAA@AEBV01@@Z
??0TRANSACTION_REQUIRED@CORBA@@QEAA@KW4CompletionStatus@1@@Z
??0TRANSACTION_ROLLEDBACK@CORBA@@QEAA@AEBV01@@Z
??0TRANSACTION_ROLLEDBACK@CORBA@@QEAA@KW4CompletionStatus@1@@Z
??0TRANSACTION_UNAVAILABLE@CORBA@@QEAA@AEBV01@@Z
??0TRANSACTION_UNAVAILABLE@CORBA@@QEAA@KW4CompletionStatus@1@@Z
??0TRANSIENT@CORBA@@QEAA@AEBV01@@Z
??0TRANSIENT@CORBA@@QEAA@KW4CompletionStatus@1@@Z
??0TaggedComponent@IOP@@QEAA@XZ
??0TaggedProfile@IOP@@QEAA@XZ
??0TaggedProfileList_var@IOP@@QEAA@PEAV?$_CORBA_Unbounded_Sequence@UTaggedProfile@IOP@@@@@Z
??0TaggedProfileList_var@IOP@@QEAA@XZ
??0Task@omniServantActivatorTaskQueue@omni@@QEAA@XZ
??0ThreadPolicy@PortableServer@@QEAA@W4ThreadPolicyValue@1@@Z
??0ThreadPolicy@PortableServer@@QEAA@XZ
??0UNKNOWN@CORBA@@QEAA@AEBV01@@Z
??0UNKNOWN@CORBA@@QEAA@KW4CompletionStatus@1@@Z
??0UiopObjAddr@corbalocURIHandler@omni@@QEAA@AEAPEBD@Z
??0Unknown@orbOptions@omni@@QEAA@AEBV012@@Z
??0Unknown@orbOptions@omni@@QEAA@PEBD0@Z
??0UserException@CORBA@@IEAA@XZ
??0UserException@CORBA@@QEAA@AEBV01@@Z
??0WrongAdapter@POA@PortableServer@@QEAA@AEBV012@@Z
??0WrongAdapter@POA@PortableServer@@QEAA@XZ
??0WrongPolicy@POA@PortableServer@@QEAA@AEBV012@@Z
??0WrongPolicy@POA@PortableServer@@QEAA@XZ
??0_0RL_cd_3c165f58b5a16b59_00000000@@QEAA@P6AXPEAVomniCallDescriptor@@PEAVomniServant@@@ZPEBD_K_NPEAVPOA@PortableServer@@3@Z
??0_0RL_cd_3c165f58b5a16b59_20000000@@QEAA@P6AXPEAVomniCallDescriptor@@PEAVomniServant@@@ZPEBD_K_NAEBVObjectId@PortableServer@@PEAVPOA@4@@Z
??0_0RL_cd_3c165f58b5a16b59_40000000@@QEAA@P6AXPEAVomniCallDescriptor@@PEAVomniServant@@@ZPEBD_K_NAEBVObjectId@PortableServer@@PEAVPOA@4@PEAVServantBase@4@55@Z
??0_0RL_cd_3c165f58b5a16b59_60000000@@QEAA@P6AXPEAVomniCallDescriptor@@PEAVomniServant@@@ZPEBD_K_NAEBVObjectId@PortableServer@@PEAVPOA@4@3AEAPEAX@Z
??0_0RL_cd_3c165f58b5a16b59_80000000@@QEAA@P6AXPEAVomniCallDescriptor@@PEAVomniServant@@@ZPEBD_K_NAEBVObjectId@PortableServer@@PEAVPOA@4@3PEAXPEAVServantBase@4@@Z
??0_0RL_cd_69ceca6a39f685b5_00000000@@QEAA@P6AXPEAVomniCallDescriptor@@PEAVomniServant@@@ZPEBD_K_N@Z
??0_0RL_cd_69ceca6a39f685b5_01000000@@QEAA@P6AXPEAVomniCallDescriptor@@PEAVomniServant@@@ZPEBD_K_N@Z
??0_0RL_cd_69ceca6a39f685b5_02000000@@QEAA@P6AXPEAVomniCallDescriptor@@PEAVomniServant@@@ZPEBD_K_N@Z
??0_0RL_cd_69ceca6a39f685b5_20000000@@QEAA@P6AXPEAVomniCallDescriptor@@PEAVomniServant@@@ZPEBD_K_N@Z
??0_0RL_cd_69ceca6a39f685b5_21000000@@QEAA@P6AXPEAVomniCallDescriptor@@PEAVomniServant@@@ZPEBD_K_N@Z
??0_0RL_cd_69ceca6a39f685b5_40000000@@QEAA@P6AXPEAVomniCallDescriptor@@PEAVomniServant@@@ZPEBD_K_N@Z
??0_0RL_cd_69ceca6a39f685b5_41000000@@QEAA@P6AXPEAVomniCallDescriptor@@PEAVomniServant@@@ZPEBD_K_N@Z
??0_0RL_cd_69ceca6a39f685b5_60000000@@QEAA@P6AXPEAVomniCallDescriptor@@PEAVomniServant@@@ZPEBD_K_N@Z
??0_0RL_cd_69ceca6a39f685b5_61000000@@QEAA@P6AXPEAVomniCallDescriptor@@PEAVomniServant@@@ZPEBD_K_N@Z
??0_0RL_cd_69ceca6a39f685b5_80000000@@QEAA@P6AXPEAVomniCallDescriptor@@PEAVomniServant@@@ZPEBD_K_N@Z
??0_0RL_cd_69ceca6a39f685b5_81000000@@QEAA@P6AXPEAVomniCallDescriptor@@PEAVomniServant@@@ZPEBD_K_N@Z
??0_0RL_cd_69ceca6a39f685b5_a0000000@@QEAA@P6AXPEAVomniCallDescriptor@@PEAVomniServant@@@ZPEBD_K_N@Z
??0_0RL_cd_69ceca6a39f685b5_a1000000@@QEAA@P6AXPEAVomniCallDescriptor@@PEAVomniServant@@@ZPEBD_K_N@Z
??0_0RL_cd_69ceca6a39f685b5_c0000000@@QEAA@P6AXPEAVomniCallDescriptor@@PEAVomniServant@@@ZPEBD_K_N@Z
??0_0RL_cd_69ceca6a39f685b5_c1000000@@QEAA@P6AXPEAVomniCallDescriptor@@PEAVomniServant@@@ZPEBD_K_N@Z
??0_0RL_cd_69ceca6a39f685b5_e0000000@@QEAA@P6AXPEAVomniCallDescriptor@@PEAVomniServant@@@ZPEBD_K_N@Z
??0_0RL_cd_69ceca6a39f685b5_e1000000@@QEAA@P6AXPEAVomniCallDescriptor@@PEAVomniServant@@@ZPEBD_K_N@Z
??0_0RL_cd_96f078e2247ab9da_00000000@@QEAA@P6AXPEAVomniCallDescriptor@@PEAVomniServant@@@ZPEBD_K_N@Z
??0_0RL_cd_96f078e2247ab9da_20000000@@QEAA@P6AXPEAVomniCallDescriptor@@PEAVomniServant@@@ZPEBD_K_N@Z
??0_CORBA_Sequence_Octet@@IEAA@K_N@Z
??0_CORBA_Sequence_Octet@@IEAA@XZ
??0_CORBA_Sequence_String@@IEAA@AEBV0@@Z
??0_CORBA_Sequence_String@@IEAA@K_N@Z
??0_CORBA_Sequence_String@@IEAA@XZ
??0_CORBA_String_element@@QEAA@AEAPEAD_N@Z
??0_CORBA_String_member@@QEAA@AEBV0@@Z
??0_CORBA_String_member@@QEAA@XZ
??0_CORBA_String_var@@QEAA@AEBV0@@Z
??0_CORBA_String_var@@QEAA@PEAD@Z
??0_CORBA_String_var@@QEAA@PEBD@Z
??0_CORBA_String_var@@QEAA@XZ
??0_CORBA_Unbounded_Sequence_Octet@@QEAA@K@Z
??0_CORBA_Unbounded_Sequence_Octet@@QEAA@XZ
??0_CORBA_Unbounded_Sequence_String@@QEAA@AEBV0@@Z
??0_CORBA_Unbounded_Sequence_String@@QEAA@K@Z
??0_CORBA_Unbounded_Sequence_String@@QEAA@XZ
??0_CORBA_WString_element@@QEAA@AEAPEA_W_N@Z
??0_cCORBA_mObject_i_cstring@omniStdCallDesc@@QEAA@P6AXPEAVomniCallDescriptor@@PEAVomniServant@@@ZPEBD_K3_N@Z
??0_impl_CORBA_InitialReferences@@QEAA@XZ
??0_objref_AdapterActivator@PortableServer@@QEAA@PEAVomniIOR@@PEAVomniIdentity@@@Z
??0_objref_AdapterActivator@PortableServer@@QEAA@XZ
??0_objref_BindingIterator@CosNaming@@QEAA@PEAVomniIOR@@PEAVomniIdentity@@@Z
??0_objref_BindingIterator@CosNaming@@QEAA@XZ
??0_objref_CORBA_InitialReferences@@QEAA@PEAVomniIOR@@PEAVomniIdentity@@@Z
??0_objref_CORBA_InitialReferences@@QEAA@XZ
??0_objref_NamingContext@CosNaming@@QEAA@PEAVomniIOR@@PEAVomniIdentity@@@Z
??0_objref_NamingContext@CosNaming@@QEAA@XZ
??0_objref_NamingContextExt@CosNaming@@QEAA@PEAVomniIOR@@PEAVomniIdentity@@@Z
??0_objref_NamingContextExt@CosNaming@@QEAA@XZ
??0_objref_ServantActivator@PortableServer@@QEAA@PEAVomniIOR@@PEAVomniIdentity@@@Z
??0_objref_ServantActivator@PortableServer@@QEAA@XZ
??0_objref_ServantLocator@PortableServer@@QEAA@PEAVomniIOR@@PEAVomniIdentity@@@Z
??0_objref_ServantLocator@PortableServer@@QEAA@XZ
??0_objref_ServantManager@PortableServer@@QEAA@PEAVomniIOR@@PEAVomniIdentity@@@Z
??0_objref_ServantManager@PortableServer@@QEAA@XZ
??0_omniFinalCleanup@@QEAA@XZ
??0_pof_AdapterActivator@PortableServer@@QEAA@XZ
??0_pof_BindingIterator@CosNaming@@QEAA@XZ
??0_pof_CORBA_InitialReferences@@QEAA@XZ
??0_pof_NamingContext@CosNaming@@QEAA@XZ
??0_pof_NamingContextExt@CosNaming@@QEAA@XZ
??0_pof_ServantActivator@PortableServer@@QEAA@XZ
??0_pof_ServantLocator@PortableServer@@QEAA@XZ
??0_pof_ServantManager@PortableServer@@QEAA@XZ
??0abortOnInternalErrorHandler@@QEAA@XZ
??0abortOnNativeExceptionHandler@@QEAA@XZ
??0acceptBiDirectionalGIOPHandler@omni@@QEAA@XZ
??0acceptMisalignedTcIndirectionsHandler@omni@@QEAA@XZ
??0bootstrapAgentHostnameHandler@omni@@QEAA@XZ
??0bootstrapAgentPortHandler@omni@@QEAA@XZ
??0builtinIPv4Rule@omni@@QEAA@PEBDKK@Z
??0builtinIPv6Rule@omni@@QEAA@PEBDAEAY0BA@$$CBEK@Z
??0builtinLocalHostRule@omni@@QEAA@PEBD@Z
??0builtinMatchAllRule@omni@@QEAA@PEBD@Z
??0builtinRuleType@omni@@QEAA@XZ
??0cdrCountingStream@@QEAA@PEAVTCS_C@omniCodeSet@omni@@PEAVTCS_W@23@_K@Z
??0cdrEncapsulationStream@@QEAA@AEAVcdrStream@@K@Z
??0cdrEncapsulationStream@@QEAA@AEBV_CORBA_Unbounded_Sequence_Octet@@_N@Z
??0cdrEncapsulationStream@@QEAA@K_N@Z
??0cdrEncapsulationStream@@QEAA@PEBEK_N@Z
??0cdrMemoryStream@@QEAA@AEBV0@_N@Z
??0cdrMemoryStream@@QEAA@K_N@Z
??0cdrMemoryStream@@QEAA@PEAX@Z
??0cdrMemoryStream@@QEAA@PEAX_K@Z
??0cdrStream@@QEAA@XZ
??0clientCallTimeOutPeriodHandler@omni@@QEAA@XZ
??0clientConnectTimeOutPeriodHandler@omni@@QEAA@XZ
??0clientTransportRuleHandler@omni@@QEAA@XZ
??0configFileHandler@omni@@QEAA@XZ
??0connectionState@giopServer@omni@@QEAA@PEAVgiopConnection@2@PEAVgiopStrand@2@@Z
??0connectionWatchImmediateHandler@omni@@QEAA@XZ
??0connectionWatchPeriodHandler@omni@@QEAA@XZ
??0copyValuesInLocalCallsHandler@omni@@QEAA@XZ
??0defaultCharCodeSetHandler@@QEAA@XZ
??0defaultWCharCodeSetHandler@@QEAA@XZ
??0diiThrowsSysExceptionsHandler@omni@@QEAA@XZ
??0dumpConfigurationHandler@omni@@QEAA@XZ
??0endpointHandler@omni@@QEAA@XZ
??0endpointNoListenHandler@omni@@QEAA@XZ
??0endpointNoPublishHandler@omni@@QEAA@XZ
??0endpointPublishAllIFsHandler@omni@@QEAA@XZ
??0endpointPublishHandler@omni@@QEAA@XZ
??0exceptionIdInAnyHandler@omni@@QEAA@XZ
??0exceptionStatus@logger@omniORB@@QEAA@W4CompletionStatus@CORBA@@K@Z
??0exceptionStatus@logger@omniORB@@QEAA@W4CompletionStatus@CORBA@@PEBD@Z
??0fatalException@omniORB@@QEAA@PEBDH0@Z
??0giopActiveCollection@omni@@QEAA@XZ
??0giopActiveConnection@omni@@QEAA@XZ
??0giopAddress@omni@@QEAA@XZ
??0giopBufferSizeHandler@omni@@QEAA@XZ
??0giopConnection@omni@@QEAA@XZ
??0giopDirectReceiveCutOffHandler@omni@@QEAA@XZ
??0giopDirectSendCutOffHandler@omni@@QEAA@XZ
??0giopEndpoint@omni@@QEAA@XZ
??0giopMaxMsgSizeHandler@omni@@QEAA@XZ
??0giopMinChunkBeforeDirectSendHandler@omni@@QEAA@XZ
??0giopMonitor@omni@@QEAA@PEAVgiopActiveCollection@1@PEAVgiopServer@1@@Z
??0giopRendezvouser@omni@@QEAA@PEAVgiopEndpoint@1@PEAVgiopServer@1@_N@Z
??0giopRope@omni@@QEAA@AEBV?$omnivector@PEAVgiopAddress@omni@@@@PEAVIORInfo@omniIOR@@@Z
??0giopRope@omni@@QEAA@PEAVgiopAddress@1@@Z
??0giopServer@omni@@AEAA@XZ
??0giopStrand@omni@@QEAA@PEAVgiopConnection@1@PEAVgiopServer@1@@Z
??0giopStrand@omni@@QEAA@PEBVgiopAddress@1@@Z
??0giopStream@omni@@QEAA@PEAVgiopStrand@1@@Z
??0giopStreamImpl@omni@@QEAA@AEBUVersion@GIOP@@@Z
??0giopStreamList@omni@@QEAA@XZ
??0giopTargetAddressModeHandler@omni@@QEAA@XZ
??0giopTransportImpl@omni@@QEAA@PEBD@Z
??0giopWorker@omni@@QEAA@PEAVgiopStrand@1@PEAVgiopServer@1@_N@Z
??0helpHandler@omni@@QEAA@XZ
??0idHandler@omni@@QEAA@XZ
??0idleThreadTimeoutHandler@omni@@QEAA@XZ
??0immediateRopeSwitchHandler@omni@@QEAA@XZ
??0inConScanPeriodHandler@omni@@QEAA@XZ
??0info_T@assignAMIThread_T@omniInterceptors@omni@@QEAA@XZ
??0info_T@assignUpcallThread_T@omniInterceptors@omni@@QEAA@XZ
??0info_T@clientOpenConnection_T@omniInterceptors@omni@@QEAA@AEAVGIOP_C@3@@Z
??0info_T@clientReceiveReply_T@omniInterceptors@omni@@QEAA@AEAVGIOP_C@3@AEAV?$_CORBA_Unbounded_Sequence@UServiceContext@IOP@@@@@Z
??0info_T@clientSendRequest_T@omniInterceptors@omni@@QEAA@AEAVGIOP_C@3@@Z
??0info_T@createIdentity_T@omniInterceptors@omni@@QEAA@PEAVomniIOR@@PEBDAEAPEAVomniIdentity@@_N@Z
??0info_T@createORBServer_T@omniInterceptors@omni@@QEAA@AEAV?$omnivector@PEAVorbServer@omni@@@@@Z
??0info_T@createRope_T@omniInterceptors@omni@@QEAA@AEBV?$omnivector@PEAVgiopAddress@omni@@@@PEAVIORInfo@omniIOR@@AEAPEAVgiopRope@3@@Z
??0info_T@createThread_T@omniInterceptors@omni@@QEAA@XZ
??0info_T@decodeIOR_T@omniInterceptors@omni@@QEAA@AEBUProfileBody@IIOP@@AEAVomniIOR@@_N@Z
??0info_T@encodeIOR_T@omniInterceptors@omni@@QEAA@AEAVomniIOR@@AEAUProfileBody@IIOP@@AEBVomniIORHints@@_N@Z
??0info_T@serverAcceptConnection_T@omniInterceptors@omni@@QEAA@AEAVgiopStrand@3@@Z
??0info_T@serverReceiveRequest_T@omniInterceptors@omni@@QEAA@AEAVGIOP_S@3@@Z
??0info_T@serverSendException_T@omniInterceptors@omni@@QEAA@AEAVGIOP_S@3@PEBVException@CORBA@@@Z
??0info_T@serverSendReply_T@omniInterceptors@omni@@QEAA@AEAVGIOP_S@3@@Z
??0lcdModeHandler@omni@@QEAA@XZ
??0listenBacklogHandler@omni@@QEAA@XZ
??0logger@omniORB@@QEAA@PEBD@Z
??0maxClientThreadPoolSizeHandler@omni@@QEAA@XZ
??0maxGIOPConnectionPerServerHandler@omni@@QEAA@XZ
??0maxGIOPVersionHandler@omni@@QEAA@XZ
??0maxInterleavedCallsPerConnectionHandler@omni@@QEAA@XZ
??0maxServerThreadPerConnectionHandler@omni@@QEAA@XZ
??0maxServerThreadPoolSizeHandler@omni@@QEAA@XZ
??0maxSocketRecvHandler@omni@@QEAA@XZ
??0maxSocketSendHandler@omni@@QEAA@XZ
??0nativeCharCodeSetHandler@@QEAA@XZ
??0nativeWCharCodeSetHandler@@QEAA@XZ
??0objectTableSizeHandler@@QEAA@XZ
??0offerBiDirectionalGIOPHandler@omni@@QEAA@XZ
??0omniAnonObjRef@omni@@QEAA@PEAVomniIOR@@PEAVomniIdentity@@@Z
??0omniAnonObjRef_pof@omni@@QEAA@XZ
??0omniAsyncDedicated@@QEAA@PEAVomniAsyncInvoker@@@Z
??0omniAsyncInvoker@@QEAA@XZ
??0omniAsyncPool@@QEAA@PEAVomniAsyncInvoker@@PEBDI@Z
??0omniAsyncPoolClient@@QEAA@PEAVomniAsyncInvoker@@@Z
??0omniAsyncPoolGeneral@@QEAA@PEAVomniAsyncInvoker@@@Z
??0omniAsyncPoolServer@@QEAA@PEAVomniAsyncInvoker@@@Z
??0omniAsyncWorker@@QEAA@PEAVomniAsyncInvoker@@@Z
??0omniAsyncWorkerInfo@@QEAA@PEAVomniAsyncWorker@@@Z
??0omniCallDescriptor@@QEAA@P6AXPEAV0@PEAVomniServant@@@ZPEBD_K_NPEBQEBDH5@Z
??0omniCallHandle@@QEAA@PEAVIOP_S@omni@@PEAVomni_thread@@@Z
??0omniCallHandle@@QEAA@PEAVomniCallDescriptor@@_N@Z
??0omniClientWorkerInfo@@QEAA@PEAVomniAsyncWorker@@@Z
??0omniCurrent@@QEAA@PEAVomni_thread@@@Z
??0omniEtherealiser@@QEAA@PEAVomniObjTableEntry@@PEAVServantActivator@PortableServer@@PEAVomniOrbPOA@omni@@PEBEH_N@Z
??0omniExHandlers@@AEAA@XZ
??0omniExHandlers_iterator@@QEAA@XZ
??0omniIOR@@QEAA@PEADPEAUTaggedProfile@IOP@@KK@Z
??0omniIOR@@QEAA@PEADPEAV?$_CORBA_Unbounded_Sequence@UTaggedProfile@IOP@@@@@Z
??0omniIOR@@QEAA@PEBDAEBV_CORBA_Unbounded_Sequence_Octet@@PEBUAddress@IIOP@@KUVersion@GIOP@@W4interceptorOption@0@PEBV?$_CORBA_Unbounded_Sequence@UTaggedComponent@IOP@@@@@Z
??0omniIOR@@QEAA@PEBDPEBEHAEBVomniIORHints@@@Z
??0omniIORHints@@QEAA@PEBV?$_CORBA_Pseudo_Unbounded_Sequence@VPolicy@CORBA@@V?$_CORBA_PseudoObj_Member@VPolicy@CORBA@@V?$_CORBA_PseudoObj_Var@VPolicy@CORBA@@@@@@@@@Z
??0omniIOR_var@@QEAA@PEAVomniIOR@@@Z
??0omniIOR_var@@QEAA@XZ
??0omniIdentity@@IEAA@AEAVomniObjKey@@@Z
??0omniIdentity@@IEAA@PEBEH@Z
??0omniIdentity@@IEAA@XZ
??0omniInProcessIdentity@@QEAA@PEBEH@Z
??0omniInProcessIdentity_RefHolder@omni@@QEAA@PEAVomniInProcessIdentity@@@Z
??0omniInitialiser@omni@@QEAA@XZ
??0omniInterceptors@omni@@AEAA@XZ
??0omniLocalIdentity@@QEAA@AEAVomniObjKey@@PEAVomniServant@@PEAVomniObjAdapter@omni@@@Z
??0omniLocalIdentity@@QEAA@PEBEHPEAVomniServant@@PEAVomniObjAdapter@omni@@@Z
??0omniLocalIdentity_RefHolder@omni@@QEAA@PEAVomniLocalIdentity@@@Z
??0omniLocalOnlyCallDescriptor@@QEAA@P6AXPEAVomniCallDescriptor@@PEAVomniServant@@@ZPEBD_K_N@Z
??0omniNilCurrent@@QEAA@XZ
??0omniObjAdapter@omni@@IEAA@H@Z
??0omniObjAdapter_var@omni@@QEAA@PEAVomniObjAdapter@1@@Z
??0omniObjKey@@QEAA@AEAV0@H@Z
??0omniObjKey@@QEAA@PEBEH@Z
??0omniObjKey@@QEAA@XZ
??0omniObjRef@@IEAA@PEBDPEAVomniIOR@@PEAVomniIdentity@@_N@Z
??0omniObjRef@@IEAA@XZ
??0omniObjTableEntry@@QEAA@AEAVomniObjKey@@@Z
??0omniOrbBOA@omni@@QEAA@H@Z
??0omniOrbBoaServant@@QEAA@XZ
??0omniOrbORB@@QEAA@H@Z
??0omniOrbPOA@omni@@QEAA@PEBDPEAVomniOrbPOAManager@1@AEBUPolicies@01@AEBV?$_CORBA_Pseudo_Unbounded_Sequence@VPolicy@CORBA@@V?$_CORBA_PseudoObj_Member@VPolicy@CORBA@@V?$_CORBA_PseudoObj_Var@VPolicy@CORBA@@@@@@@@PEAV01@@Z
??0omniOrbPOA@omni@@QEAA@XZ
??0omniOrbPOACurrent@omni@@QEAA@_N@Z
??0omniOrbPOAManager@omni@@QEAA@H@Z
??0omniRemoteIdentity@@QEAA@PEAVomniIOR@@PEBEKPEAVRope@omni@@@Z
??0omniRemoteIdentity_RefHolder@omni@@QEAA@PEAVomniRemoteIdentity@@@Z
??0omniServant@@IEAA@XZ
??0omniServantActivatorTaskQueue@omni@@QEAA@XZ
??0omniServerWorkerInfo@@QEAA@PEAVomniAsyncWorker@@@Z
??0omniShutdownIdentity@@AEAA@XZ
??0omniTask@@QEAA@W4Category@0@W4Purpose@0@@Z
??0omniTaskLink@@QEAA@XZ
??0omni_ObjRef_initialiser@omni@@QEAA@XZ
??0omni_codeSet_initialiser@omni@@QEAA@XZ
??0omni_corbaOrb_initialiser@omni@@QEAA@XZ
??0omni_dynamiclib_initialiser@omni@@QEAA@XZ
??0omni_giopEndpoint_initialiser@omni@@QEAA@XZ
??0omni_giopRope_initialiser@omni@@QEAA@XZ
??0omni_giopStrand_initialiser@omni@@QEAA@XZ
??0omni_giopStreamImpl_initialiser@omni@@QEAA@XZ
??0omni_giopbidir_initialiser@omni@@QEAA@XZ
??0omni_giopserver_initialiser@omni@@QEAA@XZ
??0omni_initRefs_initialiser@omni@@QEAA@XZ
??0omni_interceptor_initialiser@omni@@QEAA@XZ
??0omni_interface_CallDesc@omni@@QEAA@PEBDH_N@Z
??0omni_invoker_initialiser@omni@@QEAA@XZ
??0omni_ior_initialiser@omni@@QEAA@XZ
??0omni_is_a_CallDesc@omni@@QEAA@PEBDH0_N@Z
??0omni_mutex_lock@@QEAA@AEAVomni_mutex@@@Z
??0omni_non_existent_CallDesc@omni@@QEAA@PEBDH_N@Z
??0omni_objadpt_initialiser@omni@@QEAA@XZ
??0omni_omniCurrent_initialiser@omni@@QEAA@XZ
??0omni_omniInternal_initialiser@omni@@QEAA@XZ
??0omni_omniTransport_initialiser@omni@@QEAA@XZ
??0omni_optional_lock@@QEAA@AEAVomni_tracedmutex@@HH@Z
??0omni_optional_rlock@@QEAA@PEAVomni_rmutex@@HH@Z
??0omni_orbOptions_initialiser@omni@@QEAA@XZ
??0omni_poa_initialiser@omni@@QEAA@XZ
??0omni_refcount@@QEAA@H@Z
??0omni_rmutex@@QEAA@XZ
??0omni_time_t@@QEAA@KK@Z
??0omni_tracedcondition@@QEAA@PEAVomni_tracedmutex@@PEBD@Z
??0omni_tracedmutex@@QEAA@PEBD@Z
??0omni_tracedmutex_unlock@@QEAA@AEAVomni_tracedmutex@@@Z
??0omni_transportRules_initialiser@omni@@QEAA@XZ
??0omni_uri_initialiser@omni@@QEAA@XZ
??0oneCallPerConnectionHandler@omni@@QEAA@XZ
??0orbOptions@omni@@AEAA@XZ
??0orbServer@omni@@QEAA@XZ
??0outConScanPeriodHandler@omni@@QEAA@XZ
??0poaCurrentStackInsert@omni@@QEAA@PEAVomniCallDescriptor@@PEAVomni_thread@@@Z
??0poaHoldRequestTimeoutHandler@omni@@QEAA@XZ
??0poaUniquePersistentSystemIdsHandler@omni@@QEAA@XZ
??0principalHandler@omni@@QEAA@XZ
??0proxyObjectFactory@omni@@QEAA@PEBD@Z
??0resetTimeOutOnRetriesHandler@omni@@QEAA@XZ
??0resolveNamesForTransportRulesHandler@omni@@QEAA@XZ
??0resolvePseudoEntry@omni@@QEAA@PEBDP6APEAVObject@CORBA@@XZ@Z
??0resolvePseudoEntry@omni@@QEAA@XZ
??0retainAddressOrderHandler@omni@@QEAA@XZ
??0scanGranularityHandler@omni@@QEAA@XZ
??0serverCallTimeOutPeriodHandler@omni@@QEAA@XZ
??0serverTransportRuleHandler@omni@@QEAA@XZ
??0serviceRecord@omni@@QEAA@XZ
??0socketSendBufferHandler@omni@@QEAA@XZ
??0strictIIOPHandler@omni@@QEAA@XZ
??0supportBootstrapAgentHandler@omni@@QEAA@XZ
??0supportCurrentHandler@@QEAA@XZ
??0supportPerThreadTimeOutHandler@omni@@QEAA@XZ
??0tcAliasExpandHandler@omni@@QEAA@XZ
??0tcpActiveCollection@omni@@QEAA@XZ
??0tcpActiveConnection@omni@@QEAA@_K@Z
??0tcpAddress@omni@@QEAA@AEBUAddress@IIOP@@@Z
??0tcpConnection@omni@@QEAA@_KPEAVSocketCollection@1@@Z
??0tcpEndpoint@omni@@QEAA@PEBD@Z
??0tcpTransportImpl@omni@@QEAA@XZ
??0terminateProcessing@GIOP_S@omni@@QEAA@XZ
??0threadPerConnectionLowerLimitHandler@omni@@QEAA@XZ
??0threadPerConnectionPolicyHandler@omni@@QEAA@XZ
??0threadPerConnectionUpperLimitHandler@omni@@QEAA@XZ
??0threadPoolWatchConnectionHandler@omni@@QEAA@XZ
??0throwTransientOnTimeOutHandler@@QEAA@XZ
??0traceExceptionsHandler@@QEAA@XZ
??0traceFileHandler@@QEAA@XZ
??0traceInvocationReturnsHandler@@QEAA@XZ
??0traceInvocationsHandler@@QEAA@XZ
??0traceLevelHandler@@QEAA@XZ
??0traceLockingHandler@@QEAA@XZ
??0traceThreadIdHandler@@QEAA@XZ
??0traceTimeHandler@@QEAA@XZ
??0transportRules@omni@@QEAA@XZ
??0unixTransportDirectoryHandler@omni@@QEAA@XZ
??0unixTransportPermissionHandler@omni@@QEAA@XZ
??0useTypeCodeIndirectionsHandler@omni@@QEAA@XZ
??0validateUTF8Handler@omni@@QEAA@XZ
??0value_t@omni_thread@@QEAA@XZ
??0verifyObjectExistsAndTypeHandler@omni@@QEAA@XZ
??1?$Servant_var@VServantBase@PortableServer@@@PortableServer@@QEAA@XZ
??1?$_CORBA_ConstrType_Variable_Var@UBinding@CosNaming@@@@QEAA@XZ
??1?$_CORBA_ObjRef_Element@VPOA@PortableServer@@VPOA_Helper@2@@@QEAA@XZ
??1?$_CORBA_ObjRef_Member@V_objref_Contained@CORBA@@VContained_Helper@2@@@QEAA@XZ
??1?$_CORBA_ObjRef_Member@V_objref_IDLType@CORBA@@VIDLType_Helper@2@@@QEAA@XZ
??1?$_CORBA_ObjRef_Member@V_objref_NamingContext@CosNaming@@VNamingContext_Helper@2@@@QEAA@XZ
??1?$_CORBA_ObjRef_OUT_arg@V_objref_BindingIterator@CosNaming@@VBindingIterator_Helper@2@@@QEAA@XZ
??1?$_CORBA_ObjRef_Var@VServantActivator@PortableServer@@VServantActivator_Helper@2@@@QEAA@XZ
??1?$_CORBA_ObjRef_Var@VServantLocator@PortableServer@@VServantLocator_Helper@2@@@QEAA@XZ
??1?$_CORBA_ObjRef_Var@V_objref_BindingIterator@CosNaming@@VBindingIterator_Helper@2@@@QEAA@XZ
??1?$_CORBA_ObjRef_Var@V_objref_NamingContext@CosNaming@@VNamingContext_Helper@2@@@QEAA@XZ
??1?$_CORBA_PseudoObj_Member@VDynAny@DynamicAny@@V?$_CORBA_PseudoObj_Var@VDynAny@DynamicAny@@@@@@QEAA@XZ
??1?$_CORBA_PseudoObj_Member@VPolicy@CORBA@@V?$_CORBA_PseudoObj_Var@VPolicy@CORBA@@@@@@QEAA@XZ
??1?$_CORBA_PseudoObj_Var@VBidirectionalPolicy@BiDirPolicy@@@@QEAA@XZ
??1?$_CORBA_PseudoObj_Var@VEndPointPublishPolicy@omniPolicy@@@@QEAA@XZ
??1?$_CORBA_PseudoObj_Var@VIdAssignmentPolicy@PortableServer@@@@QEAA@XZ
??1?$_CORBA_PseudoObj_Var@VIdUniquenessPolicy@PortableServer@@@@QEAA@XZ
??1?$_CORBA_PseudoObj_Var@VImplicitActivationPolicy@PortableServer@@@@QEAA@XZ
??1?$_CORBA_PseudoObj_Var@VLifespanPolicy@PortableServer@@@@QEAA@XZ
??1?$_CORBA_PseudoObj_Var@VLocalShortcutPolicy@omniPolicy@@@@QEAA@XZ
??1?$_CORBA_PseudoObj_Var@VPOA@PortableServer@@@@QEAA@XZ
??1?$_CORBA_PseudoObj_Var@VPlainObjectKeysPolicy@omniPolicy@@@@QEAA@XZ
??1?$_CORBA_PseudoObj_Var@VRequestProcessingPolicy@PortableServer@@@@QEAA@XZ
??1?$_CORBA_PseudoObj_Var@VServantRetentionPolicy@PortableServer@@@@QEAA@XZ
??1?$_CORBA_PseudoObj_Var@VThreadPolicy@PortableServer@@@@QEAA@XZ
??1?$_CORBA_PseudoValue_Sequence@PEAVIORExtraInfo@omniIOR@@@@QEAA@XZ
??1?$_CORBA_PseudoValue_Sequence@PEAVomniOrbPOA@omni@@@@QEAA@XZ
??1?$_CORBA_PseudoValue_Sequence@UserviceRecord@omni@@@@QEAA@XZ
??1?$_CORBA_Pseudo_Unbounded_Sequence@VPolicy@CORBA@@V?$_CORBA_PseudoObj_Member@VPolicy@CORBA@@V?$_CORBA_PseudoObj_Var@VPolicy@CORBA@@@@@@@@QEAA@XZ
??1?$_CORBA_Sequence@E@@QEAA@XZ
??1?$_CORBA_Sequence@K@@QEAA@XZ
??1?$_CORBA_Sequence@UAddress@IIOP@@@@QEAA@XZ
??1?$_CORBA_Sequence@UBinding@CosNaming@@@@QEAA@XZ
??1?$_CORBA_Sequence@UExceptionDescription@CORBA@@@@QEAA@XZ
??1?$_CORBA_Sequence@UNameComponent@CosNaming@@@@QEAA@XZ
??1?$_CORBA_Sequence@UParameterDescription@CORBA@@@@QEAA@XZ
??1?$_CORBA_Sequence@UServiceContext@IOP@@@@QEAA@XZ
??1?$_CORBA_Sequence@UStructMember@CORBA@@@@QEAA@XZ
??1?$_CORBA_Sequence@UTaggedComponent@IOP@@@@QEAA@XZ
??1?$_CORBA_Sequence@UTaggedProfile@IOP@@@@QEAA@XZ
??1?$_CORBA_Sequence@V_CORBA_Unbounded_Sequence_Octet@@@@QEAA@XZ
??1?$_CORBA_Sequence_ObjRef@VPOA@PortableServer@@V?$_CORBA_ObjRef_Element@VPOA@PortableServer@@VPOA_Helper@2@@@VPOA_Helper@2@@@QEAA@XZ
??1?$_CORBA_Unbounded_Sequence@K@@QEAA@XZ
??1?$_CORBA_Unbounded_Sequence@UAddress@IIOP@@@@QEAA@XZ
??1?$_CORBA_Unbounded_Sequence@UBinding@CosNaming@@@@QEAA@XZ
??1?$_CORBA_Unbounded_Sequence@UExceptionDescription@CORBA@@@@QEAA@XZ
??1?$_CORBA_Unbounded_Sequence@UNameComponent@CosNaming@@@@QEAA@XZ
??1?$_CORBA_Unbounded_Sequence@UParameterDescription@CORBA@@@@QEAA@XZ
??1?$_CORBA_Unbounded_Sequence@UServiceContext@IOP@@@@QEAA@XZ
??1?$_CORBA_Unbounded_Sequence@UStructMember@CORBA@@@@QEAA@XZ
??1?$_CORBA_Unbounded_Sequence@UTaggedComponent@IOP@@@@QEAA@XZ
??1?$_CORBA_Unbounded_Sequence@UTaggedProfile@IOP@@@@QEAA@XZ
??1?$_CORBA_Unbounded_Sequence@V_CORBA_Unbounded_Sequence_Octet@@@@QEAA@XZ
??1?$_CORBA_Unbounded_Sequence_ObjRef@VPOA@PortableServer@@V?$_CORBA_ObjRef_Element@VPOA@PortableServer@@VPOA_Helper@2@@@VPOA_Helper@2@@@QEAA@XZ
??1?$_CORBA_Unbounded_Sequence_w_FixSizeElement@K$03$03@@QEAA@XZ
??1?$omnivector@K@@QEAA@XZ
??1?$omnivector@PEAUEndpointURI@Options@omniObjAdapter@omni@@@@QEAA@XZ
??1?$omnivector@PEAUHandlerValuePair@orbOptions@omni@@@@QEAA@XZ
??1?$omnivector@PEAURuleActionPair@transportRules@omni@@@@QEAA@XZ
??1?$omnivector@PEAVHandler@orbOptions@omni@@@@QEAA@XZ
??1?$omnivector@PEAVObject@CORBA@@@@QEAA@XZ
??1?$omnivector@PEAVRuleType@transportRules@omni@@@@QEAA@XZ
??1?$omnivector@PEAVSocketHolder@omni@@@@QEAA@XZ
??1?$omnivector@PEAVURIHandler@omniURI@omni@@@@QEAA@XZ
??1?$omnivector@PEAVgiopActiveCollection@omni@@@@QEAA@XZ
??1?$omnivector@PEAVgiopAddress@omni@@@@QEAA@XZ
??1?$omnivector@PEAVgiopEndpoint@omni@@@@QEAA@XZ
??1?$omnivector@PEAVgiopStrand@omni@@@@QEAA@XZ
??1?$omnivector@PEAVomniInitialiser@omni@@@@QEAA@XZ
??1?$omnivector@PEAVomniObjRef@@@@QEAA@XZ
??1?$omnivector@PEAVomniObjTableEntry@@@@QEAA@XZ
??1?$omnivector@PEAVomniTrackedObject@omni@@@@QEAA@XZ
??1?$omnivector@PEAVorbServer@omni@@@@QEAA@XZ
??1?$omnivector@PEBD@@QEAA@XZ
??1?$omnivector@UresolvePseudoEntry@omni@@@@QEAA@XZ
??1AdapterActivator@POA_PortableServer@@UEAA@XZ
??1AdapterActivator@PortableServer@@MEAA@XZ
??1AdapterAlreadyExists@POA@PortableServer@@UEAA@XZ
??1AdapterInactive@POA@PortableServer@@UEAA@XZ
??1AdapterInactive@POAManager@PortableServer@@UEAA@XZ
??1AdapterNonExistent@POA@PortableServer@@UEAA@XZ
??1AddrInfo@LibcWrapper@omni@@UEAA@XZ
??1AddrInfo_var@LibcWrapper@omni@@QEAA@XZ
??1Address@IIOP@@QEAA@XZ
??1AlreadyBound@NamingContext@CosNaming@@UEAA@XZ
??1AsyncRequest@omni@@MEAA@XZ
??1AttributeDescription@CORBA@@QEAA@XZ
??1BAD_CONTEXT@CORBA@@UEAA@XZ
??1BAD_INV_ORDER@CORBA@@UEAA@XZ
??1BAD_OPERATION@CORBA@@UEAA@XZ
??1BAD_PARAM@CORBA@@UEAA@XZ
??1BAD_QOS@CORBA@@UEAA@XZ
??1BAD_TYPECODE@CORBA@@UEAA@XZ
??1BOA@CORBA@@MEAA@XZ
??1BOA_var@CORBA@@QEAA@XZ
??1BadParam@orbOptions@omni@@QEAA@XZ
??1Base@omniCodeSet@omni@@MEAA@XZ
??1BiDirClientRope@omni@@UEAA@XZ
??1BiDirInfo@omni@@UEAA@XZ
??1BiDirServerRope@omni@@UEAA@XZ
??1BidirectionalPolicy@BiDirPolicy@@UEAA@XZ
??1Binding@CosNaming@@QEAA@XZ
??1BindingIterator@POA_CosNaming@@UEAA@XZ
??1BindingList@CosNaming@@QEAA@XZ
??1BindingList_var@CosNaming@@QEAA@XZ
??1BufferC@omniCodeSetUtil@omni@@QEAA@XZ
??1BufferCompressor@omni@@QEAA@XZ
??1BufferU@omniCodeSetUtil@omni@@QEAA@XZ
??1CODESET_INCOMPATIBLE@CORBA@@UEAA@XZ
??1COMM_FAILURE@CORBA@@UEAA@XZ
??1CORBA_InitialReferences_i@omni@@UEAA@XZ
??1CannotProceed@NamingContext@CosNaming@@UEAA@XZ
??1CodeSetComponent@CONV_FRAME@omni@@QEAA@XZ
??1CodeSetComponentInfo@CONV_FRAME@omni@@QEAA@XZ
??1CommFailure@giopStream@omni@@QEAA@XZ
??1ConnectionInfo@omni@@UEAA@XZ
??1ContextIdSeq@CORBA@@QEAA@XZ
??1Current@CORBA@@MEAA@XZ
??1Current@PortableServer@@MEAA@XZ
??1DATA_CONVERSION@CORBA@@UEAA@XZ
??1DefaultInitRefHandler@omni@@UEAA@XZ
??1Description@Container@CORBA@@QEAA@XZ
??1EndPointPublishPolicy@omniPolicy@@UEAA@XZ
??1EndpointURI@Options@omniObjAdapter@omni@@QEAA@XZ
??1ExcDescriptionSeq@CORBA@@QEAA@XZ
??1Exception@CORBA@@UEAA@XZ
??1ExceptionDescription@CORBA@@QEAA@XZ
??1FREE_MEM@CORBA@@UEAA@XZ
??1Fixed@CORBA@@QEAA@XZ
??1ForwardRequest@PortableServer@@UEAA@XZ
??1FullAddrInfo@omni@@UEAA@XZ
??1GIOP_C@omni@@UEAA@XZ
??1GIOP_S@omni@@UEAA@XZ
??1GIOP_S_Holder@omni@@QEAA@XZ
??1Handler@orbOptions@omni@@MEAA@XZ
??1HandlerValuePair@orbOptions@omni@@QEAA@XZ
??1HolderC@omniCodeSetUtil@omni@@QEAA@XZ
??1HolderU@omniCodeSetUtil@omni@@QEAA@XZ
??1HolderW@omniCodeSetUtil@omni@@QEAA@XZ
??1IMP_LIMIT@CORBA@@UEAA@XZ
??1INITIALIZE@CORBA@@UEAA@XZ
??1INTERNAL@CORBA@@UEAA@XZ
??1INTF_REPOS@CORBA@@UEAA@XZ
??1INVALID_TRANSACTION@CORBA@@UEAA@XZ
??1INV_FLAG@CORBA@@UEAA@XZ
??1INV_IDENT@CORBA@@UEAA@XZ
??1INV_OBJREF@CORBA@@UEAA@XZ
??1INV_POLICY@CORBA@@UEAA@XZ
??1IOP_C@omni@@UEAA@XZ
??1IOP_C_Holder@omni@@QEAA@XZ
??1IOP_S@omni@@UEAA@XZ
??1IOR@IOP@@QEAA@XZ
??1IORAddressingInfo@GIOP@@QEAA@XZ
??1IORExtraInfo@omniIOR@@UEAA@XZ
??1IORInfo@omniIOR@@QEAA@XZ
??1IORPublish@omni@@QEAA@XZ
??1IdAssignmentPolicy@PortableServer@@UEAA@XZ
??1IdUniquenessPolicy@PortableServer@@UEAA@XZ
??1IiopObjAddr@corbalocURIHandler@omni@@UEAA@XZ
??1ImplicitActivationPolicy@PortableServer@@UEAA@XZ
??1InitRefHandler@omni@@UEAA@XZ
??1Initializer@CORBA@@QEAA@XZ
??1InvalidAddress@NamingContextExt@CosNaming@@UEAA@XZ
??1InvalidName@NamingContext@CosNaming@@UEAA@XZ
??1InvalidName@ORB@CORBA@@UEAA@XZ
??1InvalidPolicy@POA@PortableServer@@UEAA@XZ
??1LifespanPolicy@PortableServer@@UEAA@XZ
??1LocalObject@CORBA@@UEAA@XZ
??1LocalShortcutPolicy@omniPolicy@@UEAA@XZ
??1MARSHAL@CORBA@@UEAA@XZ
??1NCS_C@omniCodeSet@omni@@UEAA@XZ
??1NCS_C_8bit@omniCodeSet@omni@@UEAA@XZ
??1NCS_C_UTF_8@omni@@UEAA@XZ
??1NCS_W@omniCodeSet@omni@@UEAA@XZ
??1NCS_W_UTF_16@omni@@UEAA@XZ
??1NO_IMPLEMENT@CORBA@@UEAA@XZ
??1NO_MEMORY@CORBA@@UEAA@XZ
??1NO_PERMISSION@CORBA@@UEAA@XZ
??1NO_RESOURCES@CORBA@@UEAA@XZ
??1NO_RESPONSE@CORBA@@UEAA@XZ
??1Name@CosNaming@@QEAA@XZ
??1NameComponent@CosNaming@@QEAA@XZ
??1NameDynAnyPair@DynamicAny@@QEAA@XZ
??1NameValuePair@DynamicAny@@QEAA@XZ
??1Name_var@CosNaming@@QEAA@XZ
??1NamingContext@POA_CosNaming@@UEAA@XZ
??1NamingContextExt@POA_CosNaming@@UEAA@XZ
??1NoContext@Current@PortableServer@@UEAA@XZ
??1NoServant@POA@PortableServer@@UEAA@XZ
??1NotEmpty@NamingContext@CosNaming@@UEAA@XZ
??1NotFound@NamingContext@CosNaming@@UEAA@XZ
??1OBJECT_NOT_EXIST@CORBA@@UEAA@XZ
??1OBJ_ADAPTER@CORBA@@UEAA@XZ
??1ORB@CORBA@@UEAA@XZ
??1ObjAddr@corbalocURIHandler@omni@@UEAA@XZ
??1ObjAddrList@corbalocURIHandler@omni@@QEAA@XZ
??1ObjIdList@CORBA_InitialReferences@@QEAA@XZ
??1ObjIdList_var@CORBA_InitialReferences@@QEAA@XZ
??1Object@CORBA@@UEAA@XZ
??1ObjectAlreadyActive@POA@PortableServer@@UEAA@XZ
??1ObjectId@PortableServer@@QEAA@XZ
??1ObjectNotActive@POA@PortableServer@@UEAA@XZ
??1Object_Member@CORBA@@QEAA@XZ
??1Object_var@CORBA@@QEAA@XZ
??1OperationDescription@CORBA@@QEAA@XZ
??1Options@omniObjAdapter@omni@@QEAA@XZ
??1PERSIST_STORE@CORBA@@UEAA@XZ
??1POA@PortableServer@@MEAA@XZ
??1POAManager@PortableServer@@MEAA@XZ
??1POA_CORBA_InitialReferences@@UEAA@XZ
??1ParDescriptionSeq@CORBA@@QEAA@XZ
??1ParameterDescription@CORBA@@QEAA@XZ
??1Parsed@corbalocURIHandler@omni@@QEAA@XZ
??1PlainObjectKeysPolicy@omniPolicy@@UEAA@XZ
??1Policy@CORBA@@UEAA@XZ
??1PolicyError@CORBA@@UEAA@XZ
??1PostInvokeHook@omniCallHandle@@UEAA@XZ
??1ProfileBody@IIOP@@QEAA@XZ
??1REBIND@CORBA@@UEAA@XZ
??1RequestProcessingPolicy@PortableServer@@UEAA@XZ
??1RirObjAddr@corbalocURIHandler@omni@@UEAA@XZ
??1Rope@omni@@UEAA@XZ
??1Rule@transportRules@omni@@UEAA@XZ
??1RuleActionPair@transportRules@omni@@QEAA@XZ
??1RuleType@transportRules@omni@@UEAA@XZ
??1SLPostInvokeHook@omniOrbPOA@omni@@UEAA@XZ
??1Scavenger@omni@@UEAA@XZ
??1ServantActivator@POA_PortableServer@@UEAA@XZ
??1ServantActivator@PortableServer@@MEAA@XZ
??1ServantAlreadyActive@POA@PortableServer@@UEAA@XZ
??1ServantBase@PortableServer@@UEAA@XZ
??1ServantLocator@POA_PortableServer@@UEAA@XZ
??1ServantLocator@PortableServer@@MEAA@XZ
??1ServantManager@POA_PortableServer@@UEAA@XZ
??1ServantManager@PortableServer@@MEAA@XZ
??1ServantNotActive@POA@PortableServer@@UEAA@XZ
??1ServantRetentionPolicy@PortableServer@@UEAA@XZ
??1ServiceContext@IOP@@QEAA@XZ
??1SocketCollection@omni@@UEAA@XZ
??1SocketHolder@omni@@UEAA@XZ
??1SsliopObjAddr@corbalocURIHandler@omni@@UEAA@XZ
??1Strand@omni@@UEAA@XZ
??1StreamAdapterStateCopier@omni@@QEAA@XZ
??1StringSeq@CORBA@@QEAA@XZ
??1StringSeq_var@CORBA@@QEAA@XZ
??1StructMember@CORBA@@QEAA@XZ
??1StructMemberSeq@CORBA@@QEAA@XZ
??1SystemException@CORBA@@UEAA@XZ
??1TCS_C@omniCodeSet@omni@@UEAA@XZ
??1TCS_C_8bit@omniCodeSet@omni@@UEAA@XZ
??1TCS_C_UTF_8@omni@@UEAA@XZ
??1TCS_W@omniCodeSet@omni@@UEAA@XZ
??1TCS_W_UTF_16@omni@@UEAA@XZ
??1TIMEOUT@CORBA@@UEAA@XZ
??1TRANSACTION_MODE@CORBA@@UEAA@XZ
??1TRANSACTION_REQUIRED@CORBA@@UEAA@XZ
??1TRANSACTION_ROLLEDBACK@CORBA@@UEAA@XZ
??1TRANSACTION_UNAVAILABLE@CORBA@@UEAA@XZ
??1TRANSIENT@CORBA@@UEAA@XZ
??1TaggedComponent@IOP@@QEAA@XZ
??1TaggedProfile@IOP@@QEAA@XZ
??1TaggedProfileList_var@IOP@@QEAA@XZ
??1Task@omniServantActivatorTaskQueue@omni@@UEAA@XZ
??1ThreadPolicy@PortableServer@@UEAA@XZ
??1UNKNOWN@CORBA@@UEAA@XZ
??1URIHandler@omniURI@omni@@UEAA@XZ
??1UiopObjAddr@corbalocURIHandler@omni@@UEAA@XZ
??1UnionMember@CORBA@@QEAA@XZ
??1Unknown@orbOptions@omni@@QEAA@XZ
??1UserException@CORBA@@UEAA@XZ
??1ValueIndirectionTracker@omni@@UEAA@XZ
??1ValueMember@CORBA@@QEAA@XZ
??1WrongAdapter@POA@PortableServer@@UEAA@XZ
??1WrongPolicy@POA@PortableServer@@UEAA@XZ
??1_0RL_cd_3c165f58b5a16b59_00000000@@UEAA@XZ
??1_0RL_cd_3c165f58b5a16b59_20000000@@UEAA@XZ
??1_0RL_cd_3c165f58b5a16b59_40000000@@UEAA@XZ
??1_0RL_cd_3c165f58b5a16b59_60000000@@UEAA@XZ
??1_0RL_cd_3c165f58b5a16b59_80000000@@UEAA@XZ
??1_0RL_cd_69ceca6a39f685b5_00000000@@UEAA@XZ
??1_0RL_cd_69ceca6a39f685b5_01000000@@UEAA@XZ
??1_0RL_cd_69ceca6a39f685b5_02000000@@UEAA@XZ
??1_0RL_cd_69ceca6a39f685b5_20000000@@UEAA@XZ
??1_0RL_cd_69ceca6a39f685b5_21000000@@UEAA@XZ
??1_0RL_cd_69ceca6a39f685b5_40000000@@UEAA@XZ
??1_0RL_cd_69ceca6a39f685b5_41000000@@UEAA@XZ
??1_0RL_cd_69ceca6a39f685b5_60000000@@UEAA@XZ
??1_0RL_cd_69ceca6a39f685b5_61000000@@UEAA@XZ
??1_0RL_cd_69ceca6a39f685b5_80000000@@UEAA@XZ
??1_0RL_cd_69ceca6a39f685b5_81000000@@UEAA@XZ
??1_0RL_cd_69ceca6a39f685b5_a0000000@@UEAA@XZ
??1_0RL_cd_69ceca6a39f685b5_a1000000@@UEAA@XZ
??1_0RL_cd_69ceca6a39f685b5_c0000000@@UEAA@XZ
??1_0RL_cd_69ceca6a39f685b5_c1000000@@UEAA@XZ
??1_0RL_cd_69ceca6a39f685b5_e0000000@@UEAA@XZ
??1_0RL_cd_69ceca6a39f685b5_e1000000@@UEAA@XZ
??1_0RL_cd_96f078e2247ab9da_00000000@@UEAA@XZ
??1_0RL_cd_96f078e2247ab9da_20000000@@UEAA@XZ
??1_CORBA_Sequence_Octet@@IEAA@XZ
??1_CORBA_Sequence_String@@QEAA@XZ
??1_CORBA_String_element@@QEAA@XZ
??1_CORBA_String_member@@QEAA@XZ
??1_CORBA_String_var@@QEAA@XZ
??1_CORBA_Unbounded_Sequence_Octet@@QEAA@XZ
??1_CORBA_Unbounded_Sequence_String@@QEAA@XZ
??1_CORBA_WString_element@@QEAA@XZ
??1_cCORBA_mObject_i_cstring@omniStdCallDesc@@UEAA@XZ
??1_impl_AdapterActivator@PortableServer@@UEAA@XZ
??1_impl_BindingIterator@CosNaming@@UEAA@XZ
??1_impl_CORBA_InitialReferences@@UEAA@XZ
??1_impl_NamingContext@CosNaming@@UEAA@XZ
??1_impl_NamingContextExt@CosNaming@@UEAA@XZ
??1_impl_ServantActivator@PortableServer@@UEAA@XZ
??1_impl_ServantLocator@PortableServer@@UEAA@XZ
??1_impl_ServantManager@PortableServer@@UEAA@XZ
??1_objref_AdapterActivator@PortableServer@@MEAA@XZ
??1_objref_BindingIterator@CosNaming@@MEAA@XZ
??1_objref_CORBA_InitialReferences@@MEAA@XZ
??1_objref_NamingContext@CosNaming@@MEAA@XZ
??1_objref_NamingContextExt@CosNaming@@MEAA@XZ
??1_objref_ServantActivator@PortableServer@@MEAA@XZ
??1_objref_ServantLocator@PortableServer@@MEAA@XZ
??1_objref_ServantManager@PortableServer@@MEAA@XZ
??1_omniFinalCleanup@@QEAA@XZ
??1_pof_AdapterActivator@PortableServer@@UEAA@XZ
??1_pof_BindingIterator@CosNaming@@UEAA@XZ
??1_pof_CORBA_InitialReferences@@UEAA@XZ
??1_pof_NamingContext@CosNaming@@UEAA@XZ
??1_pof_NamingContextExt@CosNaming@@UEAA@XZ
??1_pof_ServantActivator@PortableServer@@UEAA@XZ
??1_pof_ServantLocator@PortableServer@@UEAA@XZ
??1_pof_ServantManager@PortableServer@@UEAA@XZ
??1abortOnInternalErrorHandler@@UEAA@XZ
??1abortOnNativeExceptionHandler@@UEAA@XZ
??1acceptBiDirectionalGIOPHandler@omni@@UEAA@XZ
??1acceptMisalignedTcIndirectionsHandler@omni@@UEAA@XZ
??1bootstrapAgentHostnameHandler@omni@@UEAA@XZ
??1bootstrapAgentPortHandler@omni@@UEAA@XZ
??1builtinIPv4Rule@omni@@UEAA@XZ
??1builtinIPv6Rule@omni@@UEAA@XZ
??1builtinLocalHostRule@omni@@UEAA@XZ
??1builtinMatchAllRule@omni@@UEAA@XZ
??1builtinRuleType@omni@@UEAA@XZ
??1cdrCountingStream@@UEAA@XZ
??1cdrEncapsulationStream@@UEAA@XZ
??1cdrMemoryStream@@UEAA@XZ
??1cdrStream@@UEAA@XZ
??1cdrValueChunkStream@@UEAA@XZ
??1clientCallTimeOutPeriodHandler@omni@@UEAA@XZ
??1clientConnectTimeOutPeriodHandler@omni@@UEAA@XZ
??1clientTransportRuleHandler@omni@@UEAA@XZ
??1configFileHandler@omni@@UEAA@XZ
??1connectionState@giopServer@omni@@QEAA@XZ
??1connectionWatchImmediateHandler@omni@@UEAA@XZ
??1connectionWatchPeriodHandler@omni@@UEAA@XZ
??1copyValuesInLocalCallsHandler@omni@@UEAA@XZ
??1corbalocURIHandler@omni@@UEAA@XZ
??1corbanameURIHandler@omni@@UEAA@XZ
??1defaultCharCodeSetHandler@@UEAA@XZ
??1defaultWCharCodeSetHandler@@UEAA@XZ
??1diiThrowsSysExceptionsHandler@omni@@UEAA@XZ
??1dumpConfigurationHandler@omni@@UEAA@XZ
??1endpointHandler@omni@@UEAA@XZ
??1endpointNoListenHandler@omni@@UEAA@XZ
??1endpointNoPublishHandler@omni@@UEAA@XZ
??1endpointPublishAllIFsHandler@omni@@UEAA@XZ
??1endpointPublishHandler@omni@@UEAA@XZ
??1exceptionIdInAnyHandler@omni@@UEAA@XZ
??1fatalException@omniORB@@QEAA@XZ
??1giopActiveCollection@omni@@UEAA@XZ
??1giopActiveConnection@omni@@UEAA@XZ
??1giopAddress@omni@@UEAA@XZ
??1giopBufferSizeHandler@omni@@UEAA@XZ
??1giopCompressor@omni@@UEAA@XZ
??1giopCompressorFactory@omni@@UEAA@XZ
??1giopConnection@omni@@MEAA@XZ
??1giopDirectReceiveCutOffHandler@omni@@UEAA@XZ
??1giopDirectSendCutOffHandler@omni@@UEAA@XZ
??1giopEndpoint@omni@@UEAA@XZ
??1giopMaxMsgSizeHandler@omni@@UEAA@XZ
??1giopMinChunkBeforeDirectSendHandler@omni@@UEAA@XZ
??1giopMonitor@omni@@UEAA@XZ
??1giopRendezvouser@omni@@UEAA@XZ
??1giopRope@omni@@UEAA@XZ
??1giopServer@omni@@MEAA@XZ
??1giopStrand@omni@@EEAA@XZ
??1giopStream@omni@@UEAA@XZ
??1giopStreamImpl@omni@@QEAA@XZ
??1giopTargetAddressModeHandler@omni@@UEAA@XZ
??1giopTransportImpl@omni@@UEAA@XZ
??1giopWorker@omni@@UEAA@XZ
??1helpHandler@omni@@UEAA@XZ
??1idHandler@omni@@UEAA@XZ
??1idleThreadTimeoutHandler@omni@@UEAA@XZ
??1immediateRopeSwitchHandler@omni@@UEAA@XZ
??1inConScanPeriodHandler@omni@@UEAA@XZ
??1info_T@clientSendRequest_T@omniInterceptors@omni@@QEAA@XZ
??1iorURIHandler@omni@@UEAA@XZ
??1lcdModeHandler@omni@@UEAA@XZ
??1listenBacklogHandler@omni@@UEAA@XZ
??1logger@omniORB@@QEAA@XZ
??1maxClientThreadPoolSizeHandler@omni@@UEAA@XZ
??1maxGIOPConnectionPerServerHandler@omni@@UEAA@XZ
??1maxGIOPVersionHandler@omni@@UEAA@XZ
??1maxInterleavedCallsPerConnectionHandler@omni@@UEAA@XZ
??1maxServerThreadPerConnectionHandler@omni@@UEAA@XZ
??1maxServerThreadPoolSizeHandler@omni@@UEAA@XZ
??1maxSocketRecvHandler@omni@@UEAA@XZ
??1maxSocketSendHandler@omni@@UEAA@XZ
??1nativeCharCodeSetHandler@@UEAA@XZ
??1nativeWCharCodeSetHandler@@UEAA@XZ
??1objectTableSizeHandler@@UEAA@XZ
??1offerBiDirectionalGIOPHandler@omni@@UEAA@XZ
??1omniAnonObjRef@omni@@MEAA@XZ
??1omniAnonObjRef_pof@omni@@UEAA@XZ
??1omniAsyncCallDescriptor@@UEAA@XZ
??1omniAsyncDedicated@@QEAA@XZ
??1omniAsyncInvoker@@UEAA@XZ
??1omniAsyncPool@@UEAA@XZ
??1omniAsyncPoolClient@@UEAA@XZ
??1omniAsyncPoolGeneral@@UEAA@XZ
??1omniAsyncPoolServer@@UEAA@XZ
??1omniAsyncWorker@@UEAA@XZ
??1omniCallDescriptor@@UEAA@XZ
??1omniCurrent@@UEAA@XZ
??1omniEtherealiser@@UEAA@XZ
??1omniExHandlers_iterator@@QEAA@XZ
??1omniIOR@@QEAA@XZ
??1omniIOR_var@@QEAA@XZ
??1omniIdentity@@IEAA@XZ
??1omniInProcessIdentity@@QEAA@XZ
??1omniInProcessIdentity_RefHolder@omni@@QEAA@XZ
??1omniInterceptors@omni@@AEAA@XZ
??1omniLocalIdentity@@QEAA@XZ
??1omniLocalIdentity_RefHolder@omni@@QEAA@XZ
??1omniLocalOnlyCallDescriptor@@UEAA@XZ
??1omniNilCurrent@@UEAA@XZ
??1omniObjAdapter@omni@@UEAA@XZ
??1omniObjAdapter_var@omni@@QEAA@XZ
??1omniObjKey@@QEAA@XZ
??1omniObjRef@@MEAA@XZ
??1omniObjTableEntry@@QEAA@XZ
??1omniOrbBOA@omni@@UEAA@XZ
??1omniOrbBoaServant@@UEAA@XZ
??1omniOrbORB@@UEAA@XZ
??1omniOrbPOA@omni@@UEAA@XZ
??1omniOrbPOACurrent@omni@@UEAA@XZ
??1omniOrbPOAManager@omni@@UEAA@XZ
??1omniRemoteIdentity@@AEAA@XZ
??1omniRemoteIdentity_RefHolder@omni@@QEAA@XZ
??1omniServant@@UEAA@XZ
??1omniServantActivatorTaskQueue@omni@@UEAA@XZ
??1omniShutdownIdentity@@QEAA@XZ
??1omniTask@@UEAA@XZ
??1omni_hooked_initialiser@omni@@UEAA@XZ
??1omni_initRefs_initialiser@omni@@QEAA@XZ
??1omni_interface_CallDesc@omni@@UEAA@XZ
??1omni_is_a_CallDesc@omni@@UEAA@XZ
??1omni_mutex_lock@@QEAA@XZ
??1omni_non_existent_CallDesc@omni@@UEAA@XZ
??1omni_optional_lock@@QEAA@XZ
??1omni_optional_rlock@@QEAA@XZ
??1omni_orbOptions_initialiser@omni@@UEAA@XZ
??1omni_refcount@@QEAA@XZ
??1omni_rmutex@@QEAA@XZ
??1omni_tracedcondition@@QEAA@XZ
??1omni_tracedmutex@@QEAA@XZ
??1omni_tracedmutex_unlock@@QEAA@XZ
??1omni_transportRules_initialiser@omni@@UEAA@XZ
??1oneCallPerConnectionHandler@omni@@UEAA@XZ
??1orbOptions@omni@@AEAA@XZ
??1orbServer@omni@@MEAA@XZ
??1outConScanPeriodHandler@omni@@UEAA@XZ
??1poaCurrentStackInsert@omni@@QEAA@XZ
??1poaHoldRequestTimeoutHandler@omni@@UEAA@XZ
??1poaUniquePersistentSystemIdsHandler@omni@@UEAA@XZ
??1principalHandler@omni@@UEAA@XZ
??1proxyObjectFactory@omni@@UEAA@XZ
??1resetTimeOutOnRetriesHandler@omni@@UEAA@XZ
??1resolveNamesForTransportRulesHandler@omni@@UEAA@XZ
??1retainAddressOrderHandler@omni@@UEAA@XZ
??1scanGranularityHandler@omni@@UEAA@XZ
??1serverCallTimeOutPeriodHandler@omni@@UEAA@XZ
??1serverTransportRuleHandler@omni@@UEAA@XZ
??1serviceRecord@omni@@QEAA@XZ
??1socketSendBufferHandler@omni@@UEAA@XZ
??1strictIIOPHandler@omni@@UEAA@XZ
??1supportBootstrapAgentHandler@omni@@UEAA@XZ
??1supportCurrentHandler@@UEAA@XZ
??1supportPerThreadTimeOutHandler@omni@@UEAA@XZ
??1tcAliasExpandHandler@omni@@UEAA@XZ
??1tcpActiveCollection@omni@@UEAA@XZ
??1tcpActiveConnection@omni@@UEAA@XZ
??1tcpAddress@omni@@UEAA@XZ
??1tcpConnection@omni@@UEAA@XZ
??1tcpEndpoint@omni@@UEAA@XZ
??1tcpTransportImpl@omni@@UEAA@XZ
??1terminateProcessing@GIOP_S@omni@@QEAA@XZ
??1threadPerConnectionLowerLimitHandler@omni@@UEAA@XZ
??1threadPerConnectionPolicyHandler@omni@@UEAA@XZ
??1threadPerConnectionUpperLimitHandler@omni@@UEAA@XZ
??1threadPoolWatchConnectionHandler@omni@@UEAA@XZ
??1throwTransientOnTimeOutHandler@@UEAA@XZ
??1traceExceptionsHandler@@UEAA@XZ
??1traceFileHandler@@UEAA@XZ
??1traceInvocationReturnsHandler@@UEAA@XZ
??1traceInvocationsHandler@@UEAA@XZ
??1traceLevelHandler@@UEAA@XZ
??1traceLockingHandler@@UEAA@XZ
??1traceThreadIdHandler@@UEAA@XZ
??1traceTimeHandler@@UEAA@XZ
??1transportRules@omni@@QEAA@XZ
??1unixTransportDirectoryHandler@omni@@UEAA@XZ
??1unixTransportPermissionHandler@omni@@UEAA@XZ
??1useTypeCodeIndirectionsHandler@omni@@UEAA@XZ
??1validateUTF8Handler@omni@@UEAA@XZ
??1value_t@omni_thread@@UEAA@XZ
??1verifyObjectExistsAndTypeHandler@omni@@UEAA@XZ
??4?$_CORBA_ConstrType_Variable_OUT_arg@UBinding@CosNaming@@V?$_CORBA_ConstrType_Variable_Var@UBinding@CosNaming@@@@@@QEAAAEAV0@PEAUBinding@CosNaming@@@Z
??4?$_CORBA_ConstrType_Variable_Var@UBinding@CosNaming@@@@QEAAAEAV0@PEAUBinding@CosNaming@@@Z
??4?$_CORBA_ObjRef_Element@VPOA@PortableServer@@VPOA_Helper@2@@@QEAAAEAV0@PEAVPOA@PortableServer@@@Z
??4?$_CORBA_ObjRef_Member@V_objref_NamingContext@CosNaming@@VNamingContext_Helper@2@@@QEAAAEAV0@AEBV0@@Z
??4?$_CORBA_ObjRef_Member@V_objref_NamingContext@CosNaming@@VNamingContext_Helper@2@@@QEAAAEAV0@PEAV_objref_NamingContext@CosNaming@@@Z
??4?$_CORBA_ObjRef_OUT_arg@V_objref_BindingIterator@CosNaming@@VBindingIterator_Helper@2@@@QEAAAEAV0@PEAV_objref_BindingIterator@CosNaming@@@Z
??4?$_CORBA_ObjRef_Var@V_objref_BindingIterator@CosNaming@@VBindingIterator_Helper@2@@@QEAAAEAV0@PEAV_objref_BindingIterator@CosNaming@@@Z
??4?$_CORBA_ObjRef_Var@V_objref_NamingContext@CosNaming@@VNamingContext_Helper@2@@@QEAAAEAV0@PEAV_objref_NamingContext@CosNaming@@@Z
??4?$_CORBA_PseudoObj_Member@VPolicy@CORBA@@V?$_CORBA_PseudoObj_Var@VPolicy@CORBA@@@@@@QEAAAEAV0@AEBV0@@Z
??4?$_CORBA_PseudoObj_Member@VPolicy@CORBA@@V?$_CORBA_PseudoObj_Var@VPolicy@CORBA@@@@@@QEAAAEAV0@PEAVPolicy@CORBA@@@Z
??4?$_CORBA_PseudoObj_Var@VBidirectionalPolicy@BiDirPolicy@@@@QEAAAEAV0@PEAVBidirectionalPolicy@BiDirPolicy@@@Z
??4?$_CORBA_PseudoObj_Var@VIdAssignmentPolicy@PortableServer@@@@QEAAAEAV0@PEAVIdAssignmentPolicy@PortableServer@@@Z
??4?$_CORBA_PseudoObj_Var@VIdUniquenessPolicy@PortableServer@@@@QEAAAEAV0@PEAVIdUniquenessPolicy@PortableServer@@@Z
??4?$_CORBA_PseudoObj_Var@VImplicitActivationPolicy@PortableServer@@@@QEAAAEAV0@PEAVImplicitActivationPolicy@PortableServer@@@Z
??4?$_CORBA_PseudoObj_Var@VLifespanPolicy@PortableServer@@@@QEAAAEAV0@PEAVLifespanPolicy@PortableServer@@@Z
??4?$_CORBA_PseudoObj_Var@VLocalShortcutPolicy@omniPolicy@@@@QEAAAEAV0@PEAVLocalShortcutPolicy@omniPolicy@@@Z
??4?$_CORBA_PseudoObj_Var@VPOA@PortableServer@@@@QEAAAEAV0@PEAVPOA@PortableServer@@@Z
??4?$_CORBA_PseudoObj_Var@VPlainObjectKeysPolicy@omniPolicy@@@@QEAAAEAV0@PEAVPlainObjectKeysPolicy@omniPolicy@@@Z
??4?$_CORBA_PseudoObj_Var@VRequestProcessingPolicy@PortableServer@@@@QEAAAEAV0@PEAVRequestProcessingPolicy@PortableServer@@@Z
??4?$_CORBA_PseudoObj_Var@VServantRetentionPolicy@PortableServer@@@@QEAAAEAV0@PEAVServantRetentionPolicy@PortableServer@@@Z
??4?$_CORBA_PseudoObj_Var@VThreadPolicy@PortableServer@@@@QEAAAEAV0@PEAVThreadPolicy@PortableServer@@@Z
??4?$_CORBA_Sequence@E@@IEAAAEAV0@AEBV0@@Z
??4?$_CORBA_Sequence@UNameComponent@CosNaming@@@@IEAAAEAV0@AEBV0@@Z
??4?$_CORBA_Unbounded_Sequence@UNameComponent@CosNaming@@@@QEAAAEAV0@AEBV0@@Z
??4AddrInfo_var@LibcWrapper@omni@@QEAAAEAV012@PEAVAddrInfo@12@@Z
??4Address@IIOP@@QEAAAEAU01@AEBU01@@Z
??4AlreadyBound@NamingContext@CosNaming@@QEAAAEAV012@AEBV012@@Z
??4Binding@CosNaming@@QEAAAEAU01@AEBU01@@Z
??4BindingList_out@CosNaming@@QEAAAEAV01@PEAVBindingList@1@@Z
??4BindingList_var@CosNaming@@QEAAAEAV01@PEAVBindingList@1@@Z
??4CannotProceed@NamingContext@CosNaming@@QEAAAEAV012@AEBV012@@Z
??4Exception@CORBA@@IEAAAEAV01@AEBV01@@Z
??4Fixed@CORBA@@QEAAAEAV01@AEBV01@@Z
??4ForwardRequest@PortableServer@@QEAAAEAV01@AEBV01@@Z
??4InvalidAddress@NamingContextExt@CosNaming@@QEAAAEAV012@AEBV012@@Z
??4InvalidName@NamingContext@CosNaming@@QEAAAEAV012@AEBV012@@Z
??4InvalidPolicy@POA@PortableServer@@QEAAAEAV012@AEBV012@@Z
??4Name@CosNaming@@QEAAAEAV01@AEBV01@@Z
??4NameComponent@CosNaming@@QEAAAEAU01@AEBU01@@Z
??4Name_var@CosNaming@@QEAAAEAV01@PEAVName@1@@Z
??4NotEmpty@NamingContext@CosNaming@@QEAAAEAV012@AEBV012@@Z
??4NotFound@NamingContext@CosNaming@@QEAAAEAV012@AEBV012@@Z
??4ObjIdList_var@CORBA_InitialReferences@@QEAAAEAV01@PEAVObjIdList@1@@Z
??4Object_Member@CORBA@@QEAAAEAV01@AEBV01@@Z
??4Object_Member@CORBA@@QEAAAEAV01@PEAVObject@1@@Z
??4Object_var@CORBA@@QEAAAEAV01@PEAVObject@1@@Z
??4PolicyError@CORBA@@QEAAAEAV01@AEBV01@@Z
??4ServiceContext@IOP@@QEAAAEAU01@AEBU01@@Z
??4StringSeq@CORBA@@QEAAAEAV01@AEBV01@@Z
??4StringSeq_var@CORBA@@QEAAAEAV01@PEAVStringSeq@1@@Z
??4TaggedComponent@IOP@@QEAAAEAU01@AEBU01@@Z
??4TaggedProfile@IOP@@QEAAAEAU01@AEBU01@@Z
??4TaggedProfileList_var@IOP@@QEAAAEAV01@PEAV?$_CORBA_Unbounded_Sequence@UTaggedProfile@IOP@@@@@Z
??4UserException@CORBA@@QEAAAEAV01@AEBV01@@Z
??4_CORBA_Sequence_Octet@@IEAAAEAV0@AEBV0@@Z
??4_CORBA_Sequence_String@@IEAAAEAV0@AEBV0@@Z
??4_CORBA_String_element@@QEAAAEAV0@AEBV0@@Z
??4_CORBA_String_element@@QEAAAEAV0@PEAD@Z
??4_CORBA_String_element@@QEAAAEAV0@PEBD@Z
??4_CORBA_String_member@@QEAAAEAV0@AEBV0@@Z
??4_CORBA_String_member@@QEAAAEAV0@AEBV_CORBA_String_var@@@Z
??4_CORBA_String_member@@QEAAAEAV0@PEAD@Z
??4_CORBA_String_member@@QEAAAEAV0@PEBD@Z
??4_CORBA_String_var@@QEAAAEAV0@AEBV0@@Z
??4_CORBA_String_var@@QEAAAEAV0@PEAD@Z
??4_CORBA_String_var@@QEAAAEAV0@PEBD@Z
??4_CORBA_Unbounded_Sequence_Octet@@QEAAAEAV0@AEBV0@@Z
??4_CORBA_Unbounded_Sequence_String@@QEAAAEAV0@AEBV0@@Z
??4_CORBA_WString_element@@QEAAAEAV0@PEA_W@Z
??4cdrMemoryStream@@QEAAAEAV0@AEBV0@@Z
??4omniIOR_var@@QEAAAEAV0@PEAVomniIOR@@@Z
??4serviceRecord@omni@@QEAAAEAU01@AEBU01@@Z
??6logger@omniORB@@QEAAAEAV01@AEAVomniObjKey@@@Z
??6logger@omniORB@@QEAAAEAV01@AEBUunsafe@01@@Z
??6logger@omniORB@@QEAAAEAV01@AEBVSystemException@CORBA@@@Z
??6logger@omniORB@@QEAAAEAV01@AEBVexceptionStatus@01@@Z
??6logger@omniORB@@QEAAAEAV01@D@Z
??6logger@omniORB@@QEAAAEAV01@G@Z
??6logger@omniORB@@QEAAAEAV01@H@Z
??6logger@omniORB@@QEAAAEAV01@I@Z
??6logger@omniORB@@QEAAAEAV01@J@Z
??6logger@omniORB@@QEAAAEAV01@K@Z
??6logger@omniORB@@QEAAAEAV01@N@Z
??6logger@omniORB@@QEAAAEAV01@PEBD@Z
??6logger@omniORB@@QEAAAEAV01@PEBVomniIdentity@@@Z
??6logger@omniORB@@QEAAAEAV01@PEBVomniLocalIdentity@@@Z
??6logger@omniORB@@QEAAAEAV01@PEBX@Z
??6logger@omniORB@@QEAAAEAV01@_J@Z
??6logger@omniORB@@QEAAAEAV01@_K@Z
??7Fixed@CORBA@@QEBA_NXZ
??8@YA_NAEBVFixed@CORBA@@0@Z
??8omniORB@@YAHAEBUomniOrbBoaKey@@0@Z
??9@YA_NAEBVFixed@CORBA@@0@Z
??9omniORB@@YAHAEBUomniOrbBoaKey@@0@Z
??A?$_CORBA_PseudoValue_Sequence@PEAVIORExtraInfo@omniIOR@@@@QEAAAEAPEAVIORExtraInfo@omniIOR@@K@Z
??A?$_CORBA_PseudoValue_Sequence@PEAVomniOrbPOA@omni@@@@QEAAAEAPEAVomniOrbPOA@omni@@K@Z
??A?$_CORBA_PseudoValue_Sequence@UserviceRecord@omni@@@@QEAAAEAUserviceRecord@omni@@K@Z
??A?$_CORBA_Pseudo_Unbounded_Sequence@VPolicy@CORBA@@V?$_CORBA_PseudoObj_Member@VPolicy@CORBA@@V?$_CORBA_PseudoObj_Var@VPolicy@CORBA@@@@@@@@QEAAAEAV?$_CORBA_PseudoObj_Member@VPolicy@CORBA@@V?$_CORBA_PseudoObj_Var@VPolicy@CORBA@@@@@@K@Z
??A?$_CORBA_Pseudo_Unbounded_Sequence@VPolicy@CORBA@@V?$_CORBA_PseudoObj_Member@VPolicy@CORBA@@V?$_CORBA_PseudoObj_Var@VPolicy@CORBA@@@@@@@@QEBAAEBV?$_CORBA_PseudoObj_Member@VPolicy@CORBA@@V?$_CORBA_PseudoObj_Var@VPolicy@CORBA@@@@@@K@Z
??A?$_CORBA_Sequence@E@@QEAAAEAEK@Z
??A?$_CORBA_Sequence@E@@QEBAAEBEK@Z
??A?$_CORBA_Sequence@K@@QEAAAEAKK@Z
??A?$_CORBA_Sequence@UAddress@IIOP@@@@QEAAAEAUAddress@IIOP@@K@Z
??A?$_CORBA_Sequence@UNameComponent@CosNaming@@@@QEAAAEAUNameComponent@CosNaming@@K@Z
??A?$_CORBA_Sequence@UNameComponent@CosNaming@@@@QEBAAEBUNameComponent@CosNaming@@K@Z
??A?$_CORBA_Sequence@UServiceContext@IOP@@@@QEAAAEAUServiceContext@IOP@@K@Z
??A?$_CORBA_Sequence@UTaggedComponent@IOP@@@@QEAAAEAUTaggedComponent@IOP@@K@Z
??A?$_CORBA_Sequence@UTaggedComponent@IOP@@@@QEBAAEBUTaggedComponent@IOP@@K@Z
??A?$_CORBA_Sequence@UTaggedProfile@IOP@@@@QEAAAEAUTaggedProfile@IOP@@K@Z
??A?$_CORBA_Sequence@UTaggedProfile@IOP@@@@QEBAAEBUTaggedProfile@IOP@@K@Z
??A?$_CORBA_Sequence@V_CORBA_Unbounded_Sequence_Octet@@@@QEAAAEAV_CORBA_Unbounded_Sequence_Octet@@K@Z
??A?$_CORBA_Sequence_ObjRef@VPOA@PortableServer@@V?$_CORBA_ObjRef_Element@VPOA@PortableServer@@VPOA_Helper@2@@@VPOA_Helper@2@@@QEAA?AV?$_CORBA_ObjRef_Element@VPOA@PortableServer@@VPOA_Helper@2@@@K@Z
??A?$omnivector@K@@QEAAAEAK_K@Z
??A?$omnivector@PEAVHandler@orbOptions@omni@@@@QEAAAEAPEAVHandler@orbOptions@omni@@_K@Z
??A?$omnivector@PEAVgiopAddress@omni@@@@QEAAAEAPEAVgiopAddress@omni@@_K@Z
??A?$omnivector@PEAVomniObjTableEntry@@@@QEBAAEBQEAVomniObjTableEntry@@_K@Z
??AName_var@CosNaming@@QEAAAEAUNameComponent@1@K@Z
??AStringSeq_var@CORBA@@QEAA?AV_CORBA_String_element@@K@Z
??ATaggedProfileList_var@IOP@@QEAAAEAUTaggedProfile@1@K@Z
??A_CORBA_Sequence_String@@QEAA?AV_CORBA_String_element@@K@Z
??A_CORBA_Sequence_String@@QEBA?BV_CORBA_String_element@@K@Z
??A_CORBA_Sequence_WString@@QEAA?AV_CORBA_WString_element@@K@Z
??A_CORBA_String_var@@QEAAAEADK@Z
??B?$Servant_var@VServantBase@PortableServer@@@PortableServer@@QEBAPEAVServantBase@1@XZ
??B?$_CORBA_ConstrType_Variable_Var@UBinding@CosNaming@@@@QEAAAEAUBinding@CosNaming@@XZ
??B?$_CORBA_ObjRef_Member@V_objref_NamingContext@CosNaming@@VNamingContext_Helper@2@@@QEBAPEAV_objref_NamingContext@CosNaming@@XZ
??B?$_CORBA_ObjRef_Var@VServantActivator@PortableServer@@VServantActivator_Helper@2@@@QEBAPEAVServantActivator@PortableServer@@XZ
??B?$_CORBA_ObjRef_Var@VServantLocator@PortableServer@@VServantLocator_Helper@2@@@QEBAPEAVServantLocator@PortableServer@@XZ
??B?$_CORBA_ObjRef_Var@V_objref_BindingIterator@CosNaming@@VBindingIterator_Helper@2@@@QEBAPEAV_objref_BindingIterator@CosNaming@@XZ
??B?$_CORBA_ObjRef_Var@V_objref_NamingContext@CosNaming@@VNamingContext_Helper@2@@@QEBAPEAV_objref_NamingContext@CosNaming@@XZ
??B?$_CORBA_PseudoObj_Member@VPolicy@CORBA@@V?$_CORBA_PseudoObj_Var@VPolicy@CORBA@@@@@@QEBAPEAVPolicy@CORBA@@XZ
??B?$_CORBA_PseudoObj_Var@VEndPointPublishPolicy@omniPolicy@@@@QEBAPEAVEndPointPublishPolicy@omniPolicy@@XZ
??B?$_CORBA_PseudoObj_Var@VPOA@PortableServer@@@@QEBAPEAVPOA@PortableServer@@XZ
??BAddrInfo_var@LibcWrapper@omni@@QEBAPEAVAddrInfo@12@XZ
??BBindingList_var@CosNaming@@QEAAAEAVBindingList@1@XZ
??BFixed@CORBA@@QEBANXZ
??BFixed@CORBA@@QEBA_JXZ
??BIOP_C_Holder@omni@@QEAAAEAVIOP_C@1@XZ
??BName_var@CosNaming@@QEAAAEAVName@1@XZ
??BObjIdList_var@CORBA_InitialReferences@@QEAAAEAVObjIdList@1@XZ
??BObject_Member@CORBA@@QEBAPEAVObject@1@XZ
??BObject_var@CORBA@@QEBAPEAVObject@1@XZ
??BTaggedProfileList_var@IOP@@QEAAAEAV?$_CORBA_Unbounded_Sequence@UTaggedProfile@IOP@@@@XZ
??BTaggedProfileList_var@IOP@@QEBAAEBV?$_CORBA_Unbounded_Sequence@UTaggedProfile@IOP@@@@XZ
??B_CORBA_String_element@@QEAAPEADXZ
??B_CORBA_String_element@@QEBAPEBDXZ
??B_CORBA_String_member@@QEAAPEADXZ
??B_CORBA_String_member@@QEBAPEBDXZ
??B_CORBA_String_var@@QEAAPEADXZ
??B_CORBA_String_var@@QEBAPEBDXZ
??BomniIOR_var@@QEBAPEAVomniIOR@@XZ
??BomniObjAdapter_var@omni@@QEAAPEAVomniObjAdapter@1@XZ
??Bomni_time_t@@QEBAPEAXXZ
??C?$_CORBA_ObjRef_Var@VServantActivator@PortableServer@@VServantActivator_Helper@2@@@QEBAPEAVServantActivator@PortableServer@@XZ
??C?$_CORBA_ObjRef_Var@VServantLocator@PortableServer@@VServantLocator_Helper@2@@@QEBAPEAVServantLocator@PortableServer@@XZ
??C?$_CORBA_ObjRef_Var@V_objref_NamingContext@CosNaming@@VNamingContext_Helper@2@@@QEBAPEAV_objref_NamingContext@CosNaming@@XZ
??C?$_CORBA_PseudoObj_Member@VPolicy@CORBA@@V?$_CORBA_PseudoObj_Var@VPolicy@CORBA@@@@@@QEBAPEAVPolicy@CORBA@@XZ
??C?$_CORBA_PseudoObj_Var@VBidirectionalPolicy@BiDirPolicy@@@@QEBAPEAVBidirectionalPolicy@BiDirPolicy@@XZ
??C?$_CORBA_PseudoObj_Var@VEndPointPublishPolicy@omniPolicy@@@@QEBAPEAVEndPointPublishPolicy@omniPolicy@@XZ
??C?$_CORBA_PseudoObj_Var@VIdAssignmentPolicy@PortableServer@@@@QEBAPEAVIdAssignmentPolicy@PortableServer@@XZ
??C?$_CORBA_PseudoObj_Var@VIdUniquenessPolicy@PortableServer@@@@QEBAPEAVIdUniquenessPolicy@PortableServer@@XZ
??C?$_CORBA_PseudoObj_Var@VImplicitActivationPolicy@PortableServer@@@@QEBAPEAVImplicitActivationPolicy@PortableServer@@XZ
??C?$_CORBA_PseudoObj_Var@VLifespanPolicy@PortableServer@@@@QEBAPEAVLifespanPolicy@PortableServer@@XZ
??C?$_CORBA_PseudoObj_Var@VLocalShortcutPolicy@omniPolicy@@@@QEBAPEAVLocalShortcutPolicy@omniPolicy@@XZ
??C?$_CORBA_PseudoObj_Var@VPOA@PortableServer@@@@QEBAPEAVPOA@PortableServer@@XZ
??C?$_CORBA_PseudoObj_Var@VPlainObjectKeysPolicy@omniPolicy@@@@QEBAPEAVPlainObjectKeysPolicy@omniPolicy@@XZ
??C?$_CORBA_PseudoObj_Var@VRequestProcessingPolicy@PortableServer@@@@QEBAPEAVRequestProcessingPolicy@PortableServer@@XZ
??C?$_CORBA_PseudoObj_Var@VServantRetentionPolicy@PortableServer@@@@QEBAPEAVServantRetentionPolicy@PortableServer@@XZ
??C?$_CORBA_PseudoObj_Var@VThreadPolicy@PortableServer@@@@QEBAPEAVThreadPolicy@PortableServer@@XZ
??CAddrInfo_var@LibcWrapper@omni@@QEBAPEAVAddrInfo@12@XZ
??CGIOP_S_Holder@omni@@QEAAPEAVGIOP_S@1@XZ
??CIOP_C_Holder@omni@@QEAAPEAVIOP_C@1@XZ
??CName_var@CosNaming@@QEAAPEAVName@1@XZ
??CObject_var@CORBA@@QEBAPEAVObject@1@XZ
??CStringSeq_var@CORBA@@QEAAPEAVStringSeq@1@XZ
??CTaggedProfileList_var@IOP@@QEAAPEAV?$_CORBA_Unbounded_Sequence@UTaggedProfile@IOP@@@@XZ
??ComniIOR_var@@QEBAPEAVomniIOR@@XZ
??ComniObjAdapter_var@omni@@QEAAPEAVomniObjAdapter@1@XZ
??D@YA?AVFixed@CORBA@@AEBV01@0@Z
??EFixed@CORBA@@QEAA?AV01@H@Z
??EFixed@CORBA@@QEAAAEAV01@XZ
??FFixed@CORBA@@QEAA?AV01@H@Z
??FFixed@CORBA@@QEAAAEAV01@XZ
??G@YA?AVFixed@CORBA@@AEBV01@0@Z
??GFixed@CORBA@@QEBA?AV01@XZ
??H@YA?AVFixed@CORBA@@AEBV01@0@Z
??HFixed@CORBA@@QEBA?AV01@XZ
??K@YA?AVFixed@CORBA@@AEBV01@0@Z
??M@YA_NAEBVFixed@CORBA@@0@Z
??Momni_time_t@@QEBAHAEBU0@@Z
??N@YA_NAEBVFixed@CORBA@@0@Z
??Nomni_time_t@@QEBAHAEBU0@@Z
??O@YA_NAEBVFixed@CORBA@@0@Z
??P@YA_NAEBVFixed@CORBA@@0@Z
??XFixed@CORBA@@QEAAAEAV01@AEBV01@@Z
??YFixed@CORBA@@QEAAAEAV01@AEBV01@@Z
??ZFixed@CORBA@@QEAAAEAV01@AEBV01@@Z
??Zomni_time_t@@QEAAAEAU0@AEBU0@@Z
??_0Fixed@CORBA@@QEAAAEAV01@AEBV01@@Z
??_2?$_CORBA_Unbounded_Sequence@K@@QEBAXAEAVcdrStream@@@Z
??_2?$_CORBA_Unbounded_Sequence@UAddress@IIOP@@@@QEBAXAEAVcdrStream@@@Z
??_2?$_CORBA_Unbounded_Sequence@UBinding@CosNaming@@@@QEBAXAEAVcdrStream@@@Z
??_2?$_CORBA_Unbounded_Sequence@UNameComponent@CosNaming@@@@QEBAXAEAVcdrStream@@@Z
??_2?$_CORBA_Unbounded_Sequence@UServiceContext@IOP@@@@QEBAXAEAVcdrStream@@@Z
??_2?$_CORBA_Unbounded_Sequence@UTaggedProfile@IOP@@@@QEBAXAEAVcdrStream@@@Z
??_2?$_CORBA_Unbounded_Sequence_w_FixSizeElement@K$03$03@@QEBAXAEAVcdrStream@@@Z
??_2@YAXFAEAVcdrStream@@@Z
??_2@YAXGAEAVcdrStream@@@Z
??_2@YAXJAEAVcdrStream@@@Z
??_2@YAXKAEAVcdrStream@@@Z
??_2@YAXW4BindingType@CosNaming@@AEAVcdrStream@@@Z
??_2@YAXW4NotFoundReason@NamingContext@CosNaming@@AEAVcdrStream@@@Z
??_2AdapterAlreadyExists@POA@PortableServer@@QEBAXAEAVcdrStream@@@Z
??_2AdapterInactive@POA@PortableServer@@QEBAXAEAVcdrStream@@@Z
??_2AdapterInactive@POAManager@PortableServer@@QEBAXAEAVcdrStream@@@Z
??_2AdapterNonExistent@POA@PortableServer@@QEBAXAEAVcdrStream@@@Z
??_2Address@IIOP@@QEBAXAEAVcdrStream@@@Z
??_2AlreadyBound@NamingContext@CosNaming@@QEBAXAEAVcdrStream@@@Z
??_2Binding@CosNaming@@QEBAXAEAVcdrStream@@@Z
??_2CannotProceed@NamingContext@CosNaming@@QEBAXAEAVcdrStream@@@Z
??_2CodeSetComponent@CONV_FRAME@omni@@QEBAXAEAVcdrStream@@@Z
??_2CodeSetComponentInfo@CONV_FRAME@omni@@QEBAXAEAVcdrStream@@@Z
??_2Fixed@CORBA@@QEBAXAEAVcdrStream@@@Z
??_2ForwardRequest@PortableServer@@QEBAXAEAVcdrStream@@@Z
??_2IOR@IOP@@QEAAXAEAVcdrStream@@@Z
??_2InvalidAddress@NamingContextExt@CosNaming@@QEBAXAEAVcdrStream@@@Z
??_2InvalidName@NamingContext@CosNaming@@QEBAXAEAVcdrStream@@@Z
??_2InvalidName@ORB@CORBA@@QEBAXAEAVcdrStream@@@Z
??_2InvalidPolicy@POA@PortableServer@@QEBAXAEAVcdrStream@@@Z
??_2NameComponent@CosNaming@@QEBAXAEAVcdrStream@@@Z
??_2NoContext@Current@PortableServer@@QEBAXAEAVcdrStream@@@Z
??_2NoServant@POA@PortableServer@@QEBAXAEAVcdrStream@@@Z
??_2NotEmpty@NamingContext@CosNaming@@QEBAXAEAVcdrStream@@@Z
??_2NotFound@NamingContext@CosNaming@@QEBAXAEAVcdrStream@@@Z
??_2ObjectAlreadyActive@POA@PortableServer@@QEBAXAEAVcdrStream@@@Z
??_2ObjectNotActive@POA@PortableServer@@QEBAXAEAVcdrStream@@@Z
??_2PolicyError@CORBA@@QEBAXAEAVcdrStream@@@Z
??_2ServantAlreadyActive@POA@PortableServer@@QEBAXAEAVcdrStream@@@Z
??_2ServantNotActive@POA@PortableServer@@QEBAXAEAVcdrStream@@@Z
??_2ServiceContext@IOP@@QEBAXAEAVcdrStream@@@Z
??_2TaggedComponent@IOP@@QEBAXAEAVcdrStream@@@Z
??_2TaggedProfile@IOP@@QEBAXAEAVcdrStream@@@Z
??_2WrongAdapter@POA@PortableServer@@QEBAXAEAVcdrStream@@@Z
??_2WrongPolicy@POA@PortableServer@@QEBAXAEAVcdrStream@@@Z
??_2_CORBA_Sequence_Octet@@QEBAXAEAVcdrStream@@@Z
??_2_CORBA_Sequence_String@@QEBAXAEAVcdrStream@@@Z
??_2_CORBA_Sequence_WString@@QEBAXAEAVcdrStream@@@Z
??_2_CORBA_String_member@@QEBAXAEAVcdrStream@@@Z
??_2_CORBA_WString_member@@QEBAXAEAVcdrStream@@@Z
??_3?$_CORBA_Unbounded_Sequence@UAddress@IIOP@@@@QEAAXAEAVcdrStream@@@Z
??_3?$_CORBA_Unbounded_Sequence@UBinding@CosNaming@@@@QEAAXAEAVcdrStream@@@Z
??_3?$_CORBA_Unbounded_Sequence@UNameComponent@CosNaming@@@@QEAAXAEAVcdrStream@@@Z
??_3?$_CORBA_Unbounded_Sequence@UServiceContext@IOP@@@@QEAAXAEAVcdrStream@@@Z
??_3?$_CORBA_Unbounded_Sequence@UTaggedProfile@IOP@@@@QEAAXAEAVcdrStream@@@Z
??_3?$_CORBA_Unbounded_Sequence@V_CORBA_Unbounded_Sequence_Octet@@@@QEAAXAEAVcdrStream@@@Z
??_3?$_CORBA_Unbounded_Sequence_w_FixSizeElement@K$03$03@@QEAAXAEAVcdrStream@@@Z
??_3@YAXAEAFAEAVcdrStream@@@Z
??_3@YAXAEAGAEAVcdrStream@@@Z
??_3@YAXAEAJAEAVcdrStream@@@Z
??_3@YAXAEAKAEAVcdrStream@@@Z
??_3@YAXAEAW4BindingType@CosNaming@@AEAVcdrStream@@@Z
??_3@YAXAEAW4NotFoundReason@NamingContext@CosNaming@@AEAVcdrStream@@@Z
??_3Address@IIOP@@QEAAXAEAVcdrStream@@@Z
??_3AlreadyBound@NamingContext@CosNaming@@QEAAXAEAVcdrStream@@@Z
??_3Binding@CosNaming@@QEAAXAEAVcdrStream@@@Z
??_3CannotProceed@NamingContext@CosNaming@@QEAAXAEAVcdrStream@@@Z
??_3CodeSetComponent@CONV_FRAME@omni@@QEAAXAEAVcdrStream@@@Z
??_3CodeSetComponentInfo@CONV_FRAME@omni@@QEAAXAEAVcdrStream@@@Z
??_3Fixed@CORBA@@QEAAXAEAVcdrStream@@@Z
??_3ForwardRequest@PortableServer@@QEAAXAEAVcdrStream@@@Z
??_3IOR@IOP@@QEAAXAEAVcdrStream@@@Z
??_3InvalidAddress@NamingContextExt@CosNaming@@QEAAXAEAVcdrStream@@@Z
??_3InvalidName@NamingContext@CosNaming@@QEAAXAEAVcdrStream@@@Z
??_3InvalidPolicy@POA@PortableServer@@QEAAXAEAVcdrStream@@@Z
??_3NameComponent@CosNaming@@QEAAXAEAVcdrStream@@@Z
??_3NotEmpty@NamingContext@CosNaming@@QEAAXAEAVcdrStream@@@Z
??_3NotFound@NamingContext@CosNaming@@QEAAXAEAVcdrStream@@@Z
??_3PolicyError@CORBA@@QEAAXAEAVcdrStream@@@Z
??_3ServiceContext@IOP@@QEAAXAEAVcdrStream@@@Z
??_3TaggedComponent@IOP@@QEAAXAEAVcdrStream@@@Z
??_3TaggedProfile@IOP@@QEAAXAEAVcdrStream@@@Z
??_3_CORBA_Sequence_Octet@@QEAAXAEAVcdrStream@@@Z
??_3_CORBA_Sequence_String@@QEAAXAEAVcdrStream@@@Z
??_3_CORBA_Sequence_WString@@QEAAXAEAVcdrStream@@@Z
??_3_CORBA_String_member@@QEAAXAEAVcdrStream@@@Z
??_3_CORBA_WString_member@@QEAAXAEAVcdrStream@@@Z
??_DBidirectionalPolicy@BiDirPolicy@@QEAAXXZ
??_DCORBA_InitialReferences_i@omni@@QEAAXXZ
??_DEndPointPublishPolicy@omniPolicy@@QEAAXXZ
??_DIdAssignmentPolicy@PortableServer@@QEAAXXZ
??_DIdUniquenessPolicy@PortableServer@@QEAAXXZ
??_DImplicitActivationPolicy@PortableServer@@QEAAXXZ
??_DLifespanPolicy@PortableServer@@QEAAXXZ
??_DLocalObject@CORBA@@QEAAXXZ
??_DLocalShortcutPolicy@omniPolicy@@QEAAXXZ
??_DPlainObjectKeysPolicy@omniPolicy@@QEAAXXZ
??_DPolicy@CORBA@@QEAAXXZ
??_DRequestProcessingPolicy@PortableServer@@QEAAXXZ
??_DServantBase@PortableServer@@QEAAXXZ
??_DServantManager@POA_PortableServer@@QEAAXXZ
??_DServantManager@PortableServer@@IEAAXXZ
??_DServantRetentionPolicy@PortableServer@@QEAAXXZ
??_DThreadPolicy@PortableServer@@QEAAXXZ
??_D_objref_AdapterActivator@PortableServer@@IEAAXXZ
??_D_objref_BindingIterator@CosNaming@@IEAAXXZ
??_D_objref_CORBA_InitialReferences@@IEAAXXZ
??_D_objref_NamingContext@CosNaming@@IEAAXXZ
??_D_objref_NamingContextExt@CosNaming@@IEAAXXZ
??_D_objref_ServantActivator@PortableServer@@IEAAXXZ
??_D_objref_ServantLocator@PortableServer@@IEAAXXZ
??_D_objref_ServantManager@PortableServer@@IEAAXXZ
??_DomniAnonObjRef@omni@@IEAAXXZ
??_DomniOrbBoaServant@@QEAAXXZ
??_H@YAXPEAX_K1P6APEAX0@Z@Z
?AcceptAndMonitor@tcpEndpoint@omni@@UEAAPEAVgiopConnection@2@P6AXPEAXPEAV32@@Z0@Z
?BAD_CONTEXT@omniExHelper@omni@@SAXPEBDHKW4CompletionStatus@CORBA@@@Z
?BAD_CONTEXT_LookupTable@omni@@3PAUminorCodeLookup@1@A
?BAD_INV_ORDER@omniExHelper@omni@@SAXPEBDHKW4CompletionStatus@CORBA@@@Z
?BAD_INV_ORDER_LookupTable@omni@@3PAUminorCodeLookup@1@A
?BAD_OPERATION@omniExHelper@omni@@SAXPEBDHKW4CompletionStatus@CORBA@@@Z
?BAD_OPERATION_LookupTable@omni@@3PAUminorCodeLookup@1@A
?BAD_PARAM@omniExHelper@omni@@SAXPEBDHKW4CompletionStatus@CORBA@@@Z
?BAD_PARAM_LookupTable@omni@@3PAUminorCodeLookup@1@A
?BAD_QOS@omniExHelper@omni@@SAXPEBDHKW4CompletionStatus@CORBA@@@Z
?BAD_QOS_LookupTable@omni@@3PAUminorCodeLookup@1@A
?BAD_TYPECODE@omniExHelper@omni@@SAXPEBDHKW4CompletionStatus@CORBA@@@Z
?BAD_TYPECODE_LookupTable@omni@@3PAUminorCodeLookup@1@A
?BI_DIR_IIOP@IOP@@2KB
?BOA_init@ORB@CORBA@@QEAAPEAVBOA@2@AEAHPEAPEADPEBD@Z
?Bind@tcpEndpoint@omni@@UEAA_NXZ
?Bind@tcpSocket@omni@@SA_KPEBDGG0AEAPEADAEAGAEAV_CORBA_Unbounded_Sequence_String@@00@Z
?CODESET_INCOMPATIBLE@omniExHelper@omni@@SAXPEBDHKW4CompletionStatus@CORBA@@@Z
?CODESET_INCOMPATIBLE_LookupTable@omni@@3PAUminorCodeLookup@1@A
?COMM_FAILURE@omniExHelper@omni@@SAXPEBDHKW4CompletionStatus@CORBA@@@Z
?COMM_FAILURE_LookupTable@omni@@3PAUminorCodeLookup@1@A
?ChainBypassCheck@IOP@@2KB
?ChainBypassInfo@IOP@@2KB
?CodeSets@IOP@@2KB
?ComponentIDtoName@IOP@@SAPEBDK@Z
?Connect@tcpAddress@omni@@UEBAPEAVgiopActiveConnection@2@AEBUomni_time_t@@KAEA_N@Z
?Connect@tcpSocket@omni@@SA_KPEBDGAEBUomni_time_t@@K0AEA_N@Z
?DATA_CONVERSION@omniExHelper@omni@@SAXPEBDHKW4CompletionStatus@CORBA@@@Z
?DATA_CONVERSION_LookupTable@omni@@3PAUminorCodeLookup@1@A
?DEFAULT_CORBALOC_PORT@IIOP@@2GB
?FORWARDED_IDENTITY@IOP@@2KB
?FREE_MEM@omniExHelper@omni@@SAXPEBDHKW4CompletionStatus@CORBA@@@Z
?FREE_MEM_LookupTable@omni@@3PAUminorCodeLookup@1@A
?GIOP10@omniCodeSetUtil@omni@@2UVersion@GIOP@@B
?GIOP11@omniCodeSetUtil@omni@@2UVersion@GIOP@@B
?GIOP12@omniCodeSetUtil@omni@@2UVersion@GIOP@@B
?GROUP_VERSION@IOP@@2KB
?ID_037@omniCodeSet@omni@@2KB
?ID_500@omniCodeSet@omni@@2KB
?ID_8859_10@omniCodeSet@omni@@2KB
?ID_8859_11@omniCodeSet@omni@@2KB
?ID_8859_13@omniCodeSet@omni@@2KB
?ID_8859_14@omniCodeSet@omni@@2KB
?ID_8859_15@omniCodeSet@omni@@2KB
?ID_8859_16@omniCodeSet@omni@@2KB
?ID_8859_1@omniCodeSet@omni@@2KB
?ID_8859_2@omniCodeSet@omni@@2KB
?ID_8859_3@omniCodeSet@omni@@2KB
?ID_8859_4@omniCodeSet@omni@@2KB
?ID_8859_5@omniCodeSet@omni@@2KB
?ID_8859_6@omniCodeSet@omni@@2KB
?ID_8859_7@omniCodeSet@omni@@2KB
?ID_8859_8@omniCodeSet@omni@@2KB
?ID_8859_9@omniCodeSet@omni@@2KB
?ID_CP1250@omniCodeSet@omni@@2KB
?ID_CP1251@omniCodeSet@omni@@2KB
?ID_CP1252@omniCodeSet@omni@@2KB
?ID_CP1253@omniCodeSet@omni@@2KB
?ID_CP1254@omniCodeSet@omni@@2KB
?ID_CP1255@omniCodeSet@omni@@2KB
?ID_CP1256@omniCodeSet@omni@@2KB
?ID_CP1257@omniCodeSet@omni@@2KB
?ID_CP1258@omniCodeSet@omni@@2KB
?ID_EDF_4@omniCodeSet@omni@@2KB
?ID_UCS_2@omniCodeSet@omni@@2KB
?ID_UCS_4@omniCodeSet@omni@@2KB
?ID_UTF_16@omniCodeSet@omni@@2KB
?ID_UTF_8@omniCodeSet@omni@@2KB
?IMP_LIMIT@omniExHelper@omni@@SAXPEBDHKW4CompletionStatus@CORBA@@@Z
?IMP_LIMIT_LookupTable@omni@@3PAUminorCodeLookup@1@A
?INITIALIZE@omniExHelper@omni@@SAXPEBDHKW4CompletionStatus@CORBA@@@Z
?INITIALIZE_LookupTable@omni@@3PAUminorCodeLookup@1@A
?INTERNAL@omniExHelper@omni@@SAXPEBDHKW4CompletionStatus@CORBA@@@Z
?INTERNAL_LookupTable@omni@@3PAUminorCodeLookup@1@A
?INTF_REPOS@omniExHelper@omni@@SAXPEBDHKW4CompletionStatus@CORBA@@@Z
?INTF_REPOS_LookupTable@omni@@3PAUminorCodeLookup@1@A
?INVALID_TRANSACTION@omniExHelper@omni@@SAXPEBDHKW4CompletionStatus@CORBA@@@Z
?INVALID_TRANSACTION_LookupTable@omni@@3PAUminorCodeLookup@1@A
?INVOCATION_POLICIES@IOP@@2KB
?INV_FLAG@omniExHelper@omni@@SAXPEBDHKW4CompletionStatus@CORBA@@@Z
?INV_FLAG_LookupTable@omni@@3PAUminorCodeLookup@1@A
?INV_IDENT@omniExHelper@omni@@SAXPEBDHKW4CompletionStatus@CORBA@@@Z
?INV_IDENT_LookupTable@omni@@3PAUminorCodeLookup@1@A
?INV_OBJREF@omniExHelper@omni@@SAXPEBDHKW4CompletionStatus@CORBA@@@Z
?INV_OBJREF_LookupTable@omni@@3PAUminorCodeLookup@1@A
?INV_POLICY@omniExHelper@omni@@SAXPEBDHKW4CompletionStatus@CORBA@@@Z
?INV_POLICY_LookupTable@omni@@3PAUminorCodeLookup@1@A
?InitialiseRequest@GIOP_C@omni@@UEAAXXZ
?IssueLocateRequest@GIOP_C@omni@@UEAA?AW4LocateStatusType@GIOP@@XZ
?KeyAddr@GIOP@@2FB
?LogicalThreadId@IOP@@2KB
?MARSHAL@omniExHelper@omni@@SAXPEBDHKW4CompletionStatus@CORBA@@@Z
?MARSHAL_LookupTable@omni@@3PAUminorCodeLookup@1@A
?Monitor@tcpActiveCollection@omni@@UEAAXP6AXPEAXPEAVgiopConnection@2@@Z0@Z
?NO_IMPLEMENT@omniExHelper@omni@@SAXPEBDHKW4CompletionStatus@CORBA@@@Z
?NO_IMPLEMENT_LookupTable@omni@@3PAUminorCodeLookup@1@A
?NO_MEMORY@omniExHelper@omni@@SAXPEBDHKW4CompletionStatus@CORBA@@@Z
?NO_MEMORY_LookupTable@omni@@3PAUminorCodeLookup@1@A
?NO_PERMISSION@omniExHelper@omni@@SAXPEBDHKW4CompletionStatus@CORBA@@@Z
?NO_PERMISSION_LookupTable@omni@@3PAUminorCodeLookup@1@A
?NO_RESOURCES@omniExHelper@omni@@SAXPEBDHKW4CompletionStatus@CORBA@@@Z
?NO_RESOURCES_LookupTable@omni@@3PAUminorCodeLookup@1@A
?NO_RESPONSE@omniExHelper@omni@@SAXPEBDHKW4CompletionStatus@CORBA@@@Z
?NO_RESPONSE_LookupTable@omni@@3PAUminorCodeLookup@1@A
?NP_asString@Fixed@CORBA@@QEBAPEADXZ
?NP_cmp@Fixed@CORBA@@SAHAEBV12@0@Z
?NP_data@?$_CORBA_Sequence@E@@QEBAPEAEXZ
?NP_data@?$_CORBA_Sequence@K@@QEBAPEAKXZ
?NP_fromString@Fixed@CORBA@@QEAA_NPEBD_N@Z
?NP_minorString@BAD_CONTEXT@CORBA@@UEBAPEBDXZ
?NP_minorString@BAD_INV_ORDER@CORBA@@UEBAPEBDXZ
?NP_minorString@BAD_OPERATION@CORBA@@UEBAPEBDXZ
?NP_minorString@BAD_PARAM@CORBA@@UEBAPEBDXZ
?NP_minorString@BAD_QOS@CORBA@@UEBAPEBDXZ
?NP_minorString@BAD_TYPECODE@CORBA@@UEBAPEBDXZ
?NP_minorString@CODESET_INCOMPATIBLE@CORBA@@UEBAPEBDXZ
?NP_minorString@COMM_FAILURE@CORBA@@UEBAPEBDXZ
?NP_minorString@DATA_CONVERSION@CORBA@@UEBAPEBDXZ
?NP_minorString@FREE_MEM@CORBA@@UEBAPEBDXZ
?NP_minorString@IMP_LIMIT@CORBA@@UEBAPEBDXZ
?NP_minorString@INITIALIZE@CORBA@@UEBAPEBDXZ
?NP_minorString@INTERNAL@CORBA@@UEBAPEBDXZ
?NP_minorString@INTF_REPOS@CORBA@@UEBAPEBDXZ
?NP_minorString@INVALID_TRANSACTION@CORBA@@UEBAPEBDXZ
?NP_minorString@INV_FLAG@CORBA@@UEBAPEBDXZ
?NP_minorString@INV_IDENT@CORBA@@UEBAPEBDXZ
?NP_minorString@INV_OBJREF@CORBA@@UEBAPEBDXZ
?NP_minorString@INV_POLICY@CORBA@@UEBAPEBDXZ
?NP_minorString@MARSHAL@CORBA@@UEBAPEBDXZ
?NP_minorString@NO_IMPLEMENT@CORBA@@UEBAPEBDXZ
?NP_minorString@NO_MEMORY@CORBA@@UEBAPEBDXZ
?NP_minorString@NO_PERMISSION@CORBA@@UEBAPEBDXZ
?NP_minorString@NO_RESOURCES@CORBA@@UEBAPEBDXZ
?NP_minorString@NO_RESPONSE@CORBA@@UEBAPEBDXZ
?NP_minorString@OBJECT_NOT_EXIST@CORBA@@UEBAPEBDXZ
?NP_minorString@OBJ_ADAPTER@CORBA@@UEBAPEBDXZ
?NP_minorString@PERSIST_STORE@CORBA@@UEBAPEBDXZ
?NP_minorString@REBIND@CORBA@@UEBAPEBDXZ
?NP_minorString@TIMEOUT@CORBA@@UEBAPEBDXZ
?NP_minorString@TRANSACTION_MODE@CORBA@@UEBAPEBDXZ
?NP_minorString@TRANSACTION_REQUIRED@CORBA@@UEBAPEBDXZ
?NP_minorString@TRANSACTION_ROLLEDBACK@CORBA@@UEBAPEBDXZ
?NP_minorString@TRANSACTION_UNAVAILABLE@CORBA@@UEBAPEBDXZ
?NP_minorString@TRANSIENT@CORBA@@UEBAPEBDXZ
?NP_minorString@UNKNOWN@CORBA@@UEBAPEBDXZ
?OBJECT_NOT_EXIST@omniExHelper@omni@@SAXPEBDHKW4CompletionStatus@CORBA@@@Z
?OBJECT_NOT_EXIST_LookupTable@omni@@3PAUminorCodeLookup@1@A
?OBJ_ADAPTER@omniExHelper@omni@@SAXPEBDHKW4CompletionStatus@CORBA@@@Z
?OBJ_ADAPTER_LookupTable@omni@@3PAUminorCodeLookup@1@A
?OMNIORB_RESTRICTED_CONNECTION@IOP@@2KB
?ORB_init@CORBA@@YAPEAVORB@1@AEAHPEAPEADPEBDQEAY01PEBD@Z
?ObjectId_to_string@PortableServer@@YAPEADAEBVObjectId@1@@Z
?ObjectId_to_wstring@PortableServer@@YAPEA_WAEBVObjectId@1@@Z
?PERSIST_STORE@omniExHelper@omni@@SAXPEBDHKW4CompletionStatus@CORBA@@@Z
?PERSIST_STORE_LookupTable@omni@@3PAUminorCodeLookup@1@A
?PR_changeScale@Fixed@CORBA@@QEAAXG@Z
?PR_checkLimits@Fixed@CORBA@@QEAA_NXZ
?PR_magic@Exception@CORBA@@2KB
?PR_negative@Fixed@CORBA@@QEBA_NXZ
?PR_setLimits@Fixed@CORBA@@QEAAXGG@Z
?PR_val@Fixed@CORBA@@QEBAPEBEXZ
?Peek@SocketHolder@omni@@QEAA_NXZ
?Peek@tcpConnection@omni@@UEAA_NXZ
?Poke@tcpAddress@omni@@QEBA_NXZ
?Poke@tcpEndpoint@omni@@UEAAXXZ
?ProfileAddr@GIOP@@2FB
?REBIND@omniExHelper@omni@@SAXPEBDHKW4CompletionStatus@CORBA@@@Z
?REBIND_LookupTable@omni@@3PAUminorCodeLookup@1@A
?REQUEST@IOP@@2KB
?RTCorbaPriority@IOP@@2KB
?RTCorbaPriorityRange@IOP@@2KB
?Rand@LibcWrapper@omni@@SAIXZ
?RdLockIsHeld@giopStream@omni@@SA_NPEAVgiopStrand@2@@Z
?ReceiveReply@GIOP_C@omni@@UEAA?AW4ReplyStatusType@GIOP@@XZ
?ReceiveRequest@GIOP_S@omni@@UEAAXAEAVomniCallDescriptor@@@Z
?Recv@tcpConnection@omni@@UEAAHPEAX_KAEBUomni_time_t@@@Z
?ReferenceAddr@GIOP@@2FB
?RequestCompleted@GIOP_C@omni@@UEAAX_N@Z
?SRand@LibcWrapper@omni@@SAXI@Z
?Select@SocketCollection@omni@@QEAA_NXZ
?Send@tcpConnection@omni@@UEAAHPEAX_KAEBUomni_time_t@@@Z
?SendException@GIOP_S@omni@@UEAAXPEAVException@CORBA@@@Z
?SendReply@GIOP_S@omni@@UEAAXXZ
?SendingContextRunTime@IOP@@2KB
?ServiceIDtoName@IOP@@SAPEBDK@Z
?Shutdown@tcpConnection@omni@@UEAAXXZ
?Shutdown@tcpEndpoint@omni@@UEAAXXZ
?SkipRequestBody@GIOP_S@omni@@UEAAXXZ
?SkipRequestBody@omniCallHandle@@QEAAXXZ
?TAG_ALTERNATE_IIOP_ADDRESS@IOP@@2KB
?TAG_ASSOCIATION_OPTIONS@IOP@@2KB
?TAG_CODE_SETS@IOP@@2KB
?TAG_COMPLETE_OBJECT_KEY@IOP@@2KB
?TAG_CSI_ECMA_HYBRID_SEC_MECH@IOP@@2KB
?TAG_CSI_ECMA_PUBLIC_SEC_MECH@IOP@@2KB
?TAG_CSI_ECMA_SECRET_SEC_MECH@IOP@@2KB
?TAG_CSI_SEC_MECH_LIST@IOP@@2KB
?TAG_DCE_BINDING_NAME@IOP@@2KB
?TAG_DCE_NO_PIPES@IOP@@2KB
?TAG_DCE_SEC_MECH@IOP@@2KB
?TAG_DCE_STRING_BINDING@IOP@@2KB
?TAG_ENDPOINT_ID_POSITION@IOP@@2KB
?TAG_FIREWALL_TRANS@IOP@@2KB
?TAG_GENERIC_SEC_MECH@IOP@@2KB
?TAG_GROUP@IOP@@2KB
?TAG_HEARTBEAT_ENABLED@IOP@@2KB
?TAG_INET_SEC_TRANS@IOP@@2KB
?TAG_INTERNET_IOP@IOP@@2KB
?TAG_JAVA_CODEBASE@IOP@@2KB
?TAG_KERBEROSV5_SEC_MECH@IOP@@2KB
?TAG_LOCATION_POLICY@IOP@@2KB
?TAG_MULTIPLE_COMPONENTS@IOP@@2KB
?TAG_NULL_TAG@IOP@@2KB
?TAG_OMNIORB_BIDIR@IOP@@2KB
?TAG_OMNIORB_HTTP_TRANS@IOP@@2KB
?TAG_OMNIORB_PERSISTENT_ID@IOP@@2KB
?TAG_OMNIORB_RESTRICTED_CONNECTION@IOP@@2KB
?TAG_OMNIORB_UNIX_TRANS@IOP@@2KB
?TAG_ORB_TYPE@IOP@@2KB
?TAG_POLICIES@IOP@@2KB
?TAG_PRIMARY@IOP@@2KB
?TAG_SCCP_CONTACT_INFO@IOP@@2KB
?TAG_SCCP_IOP@IOP@@2KB
?TAG_SEC_NAME@IOP@@2KB
?TAG_SPKM_1_SEC_MECH@IOP@@2KB
?TAG_SPKM_2_SEC_MECH@IOP@@2KB
?TAG_SSL_SEC_TRANS@IOP@@2KB
?TAG_TLS_SEC_TRANS@IOP@@2KB
?TCS_C@IORInfo@omniIOR@@QEAAXPEAV0omniCodeSet@omni@@@Z
?TCS_C@IORInfo@omniIOR@@QEBAPEAV0omniCodeSet@omni@@XZ
?TCS_C@cdrStream@@QEAAXPEAV0omniCodeSet@omni@@@Z
?TCS_C@cdrStream@@QEBAPEAV0omniCodeSet@omni@@XZ
?TCS_W@IORInfo@omniIOR@@QEAAXPEAV0omniCodeSet@omni@@@Z
?TCS_W@IORInfo@omniIOR@@QEBAPEAV0omniCodeSet@omni@@XZ
?TCS_W@cdrStream@@QEAAXPEAV0omniCodeSet@omni@@@Z
?TCS_W@cdrStream@@QEBAPEAV0omniCodeSet@omni@@XZ
?TIMEOUT@omniExHelper@omni@@SAXPEBDHKW4CompletionStatus@CORBA@@@Z
?TIMEOUT_LookupTable@omni@@3PAUminorCodeLookup@1@A
?TRANSACTION_MODE@omniExHelper@omni@@SAXPEBDHKW4CompletionStatus@CORBA@@@Z
?TRANSACTION_MODE_LookupTable@omni@@3PAUminorCodeLookup@1@A
?TRANSACTION_REQUIRED@omniExHelper@omni@@SAXPEBDHKW4CompletionStatus@CORBA@@@Z
?TRANSACTION_REQUIRED_LookupTable@omni@@3PAUminorCodeLookup@1@A
?TRANSACTION_ROLLEDBACK@omniExHelper@omni@@SAXPEBDHKW4CompletionStatus@CORBA@@@Z
?TRANSACTION_ROLLEDBACK_LookupTable@omni@@3PAUminorCodeLookup@1@A
?TRANSACTION_UNAVAILABLE@omniExHelper@omni@@SAXPEBDHKW4CompletionStatus@CORBA@@@Z
?TRANSACTION_UNAVAILABLE_LookupTable@omni@@3PAUminorCodeLookup@1@A
?TRANSIENT@omniExHelper@omni@@SAXPEBDHKW4CompletionStatus@CORBA@@@Z
?TRANSIENT_LookupTable@omni@@3PAUminorCodeLookup@1@A
?Table@omniExHandlers@@2PEAPEAV1@EA
?TableLock@omniExHandlers@@2Vomni_tracedmutex@@A
?TransactionService@IOP@@2KB
?UNKNOWN@omniExHelper@omni@@SAXPEBDHKW4CompletionStatus@CORBA@@@Z
?UNKNOWN_LookupTable@omni@@3PAUminorCodeLookup@1@A
?UnMarshallSystemException@GIOP_C@omni@@AEAAXXZ
?UnknownExceptionInfo@IOP@@2KB
?_CORBA_bad_param_freebuf@@YAXXZ
?_CORBA_bound_check_error@@YAXXZ
?_CORBA_invoked_nil_objref@@YAXXZ
?_CORBA_invoked_nil_pseudo_ref@@YAXXZ
?_CORBA_marshal_sequence_range_check_error@@YAXAEAVcdrStream@@@Z
?_CORBA_new_operator_return_null@@YAXXZ
?_CORBA_use_nil_ptr_as_nil_objref@@YA_NXZ
?_CORBA_use_nil_ptr_as_nil_pseudo_objref@@YA_NPEBD@Z
?_NP_decrRefCount@AdapterActivator@PortableServer@@$4PPPPPPPM@A@EAAXXZ
?_NP_decrRefCount@AdapterActivator@PortableServer@@$R4BA@M@PPPPPPPM@BI@EAAXXZ
?_NP_decrRefCount@AdapterActivator@PortableServer@@UEAAXXZ
?_NP_decrRefCount@LocalObject@CORBA@@$4PPPPPPPM@A@EAAXXZ
?_NP_decrRefCount@LocalObject@CORBA@@UEAAXXZ
?_NP_decrRefCount@Object@CORBA@@UEAAXXZ
?_NP_decrRefCount@Policy@CORBA@@$4PPPPPPPM@7EAAXXZ
?_NP_decrRefCount@Policy@CORBA@@$4PPPPPPPM@A@EAAXXZ
?_NP_decrRefCount@Policy@CORBA@@$4PPPPPPPM@CA@EAAXXZ
?_NP_decrRefCount@Policy@CORBA@@UEAAXXZ
?_NP_decrRefCount@ServantManager@PortableServer@@$4PPPPPPPM@A@EAAXXZ
?_NP_decrRefCount@ServantManager@PortableServer@@$R4BA@M@PPPPPPPM@BA@EAAXXZ
?_NP_decrRefCount@ServantManager@PortableServer@@$R4CA@M@PPPPPPPM@BA@EAAXXZ
?_NP_decrRefCount@ServantManager@PortableServer@@UEAAXXZ
?_NP_decrRefCount@omniOrbBOA@omni@@UEAAXXZ
?_NP_decrRefCount@omniOrbORB@@UEAAXXZ
?_NP_decrRefCount@omniOrbPOA@omni@@UEAAXXZ
?_NP_decrRefCount@omniOrbPOACurrent@omni@@UEAAXXZ
?_NP_decrRefCount@omniOrbPOAManager@omni@@UEAAXXZ
?_NP_disconnect@omniObjRef@@QEAAXXZ
?_NP_duplicate@AdapterAlreadyExists@POA@PortableServer@@EEBAPEAVException@CORBA@@XZ
?_NP_duplicate@AdapterInactive@POA@PortableServer@@EEBAPEAVException@CORBA@@XZ
?_NP_duplicate@AdapterInactive@POAManager@PortableServer@@EEBAPEAVException@CORBA@@XZ
?_NP_duplicate@AdapterNonExistent@POA@PortableServer@@EEBAPEAVException@CORBA@@XZ
?_NP_duplicate@AlreadyBound@NamingContext@CosNaming@@UEBAPEAVException@CORBA@@XZ
?_NP_duplicate@BAD_CONTEXT@CORBA@@EEBAPEAVException@2@XZ
?_NP_duplicate@BAD_INV_ORDER@CORBA@@EEBAPEAVException@2@XZ
?_NP_duplicate@BAD_OPERATION@CORBA@@EEBAPEAVException@2@XZ
?_NP_duplicate@BAD_PARAM@CORBA@@EEBAPEAVException@2@XZ
?_NP_duplicate@BAD_QOS@CORBA@@EEBAPEAVException@2@XZ
?_NP_duplicate@BAD_TYPECODE@CORBA@@EEBAPEAVException@2@XZ
?_NP_duplicate@CODESET_INCOMPATIBLE@CORBA@@EEBAPEAVException@2@XZ
?_NP_duplicate@COMM_FAILURE@CORBA@@EEBAPEAVException@2@XZ
?_NP_duplicate@CannotProceed@NamingContext@CosNaming@@UEBAPEAVException@CORBA@@XZ
?_NP_duplicate@DATA_CONVERSION@CORBA@@EEBAPEAVException@2@XZ
?_NP_duplicate@FREE_MEM@CORBA@@EEBAPEAVException@2@XZ
?_NP_duplicate@ForwardRequest@PortableServer@@UEBAPEAVException@CORBA@@XZ
?_NP_duplicate@IMP_LIMIT@CORBA@@EEBAPEAVException@2@XZ
?_NP_duplicate@INITIALIZE@CORBA@@EEBAPEAVException@2@XZ
?_NP_duplicate@INTERNAL@CORBA@@EEBAPEAVException@2@XZ
?_NP_duplicate@INTF_REPOS@CORBA@@EEBAPEAVException@2@XZ
?_NP_duplicate@INVALID_TRANSACTION@CORBA@@EEBAPEAVException@2@XZ
?_NP_duplicate@INV_FLAG@CORBA@@EEBAPEAVException@2@XZ
?_NP_duplicate@INV_IDENT@CORBA@@EEBAPEAVException@2@XZ
?_NP_duplicate@INV_OBJREF@CORBA@@EEBAPEAVException@2@XZ
?_NP_duplicate@INV_POLICY@CORBA@@EEBAPEAVException@2@XZ
?_NP_duplicate@InvalidAddress@NamingContextExt@CosNaming@@UEBAPEAVException@CORBA@@XZ
?_NP_duplicate@InvalidName@NamingContext@CosNaming@@UEBAPEAVException@CORBA@@XZ
?_NP_duplicate@InvalidName@ORB@CORBA@@EEBAPEAVException@3@XZ
?_NP_duplicate@InvalidPolicy@POA@PortableServer@@EEBAPEAVException@CORBA@@XZ
?_NP_duplicate@MARSHAL@CORBA@@EEBAPEAVException@2@XZ
?_NP_duplicate@NO_IMPLEMENT@CORBA@@EEBAPEAVException@2@XZ
?_NP_duplicate@NO_MEMORY@CORBA@@EEBAPEAVException@2@XZ
?_NP_duplicate@NO_PERMISSION@CORBA@@EEBAPEAVException@2@XZ
?_NP_duplicate@NO_RESOURCES@CORBA@@EEBAPEAVException@2@XZ
?_NP_duplicate@NO_RESPONSE@CORBA@@EEBAPEAVException@2@XZ
?_NP_duplicate@NoContext@Current@PortableServer@@EEBAPEAVException@CORBA@@XZ
?_NP_duplicate@NoServant@POA@PortableServer@@EEBAPEAVException@CORBA@@XZ
?_NP_duplicate@NotEmpty@NamingContext@CosNaming@@UEBAPEAVException@CORBA@@XZ
?_NP_duplicate@NotFound@NamingContext@CosNaming@@UEBAPEAVException@CORBA@@XZ
?_NP_duplicate@OBJECT_NOT_EXIST@CORBA@@EEBAPEAVException@2@XZ
?_NP_duplicate@OBJ_ADAPTER@CORBA@@EEBAPEAVException@2@XZ
?_NP_duplicate@ObjectAlreadyActive@POA@PortableServer@@EEBAPEAVException@CORBA@@XZ
?_NP_duplicate@ObjectNotActive@POA@PortableServer@@EEBAPEAVException@CORBA@@XZ
?_NP_duplicate@PERSIST_STORE@CORBA@@EEBAPEAVException@2@XZ
?_NP_duplicate@PolicyError@CORBA@@EEBAPEAVException@2@XZ
?_NP_duplicate@REBIND@CORBA@@EEBAPEAVException@2@XZ
?_NP_duplicate@ServantAlreadyActive@POA@PortableServer@@EEBAPEAVException@CORBA@@XZ
?_NP_duplicate@ServantNotActive@POA@PortableServer@@EEBAPEAVException@CORBA@@XZ
?_NP_duplicate@TIMEOUT@CORBA@@EEBAPEAVException@2@XZ
?_NP_duplicate@TRANSACTION_MODE@CORBA@@EEBAPEAVException@2@XZ
?_NP_duplicate@TRANSACTION_REQUIRED@CORBA@@EEBAPEAVException@2@XZ
?_NP_duplicate@TRANSACTION_ROLLEDBACK@CORBA@@EEBAPEAVException@2@XZ
?_NP_duplicate@TRANSACTION_UNAVAILABLE@CORBA@@EEBAPEAVException@2@XZ
?_NP_duplicate@TRANSIENT@CORBA@@EEBAPEAVException@2@XZ
?_NP_duplicate@UNKNOWN@CORBA@@EEBAPEAVException@2@XZ
?_NP_duplicate@WrongAdapter@POA@PortableServer@@EEBAPEAVException@CORBA@@XZ
?_NP_duplicate@WrongPolicy@POA@PortableServer@@EEBAPEAVException@CORBA@@XZ
?_NP_incrRefCount@AdapterActivator@PortableServer@@$4PPPPPPPM@A@EAAXXZ
?_NP_incrRefCount@AdapterActivator@PortableServer@@$R4BA@M@PPPPPPPM@BI@EAAXXZ
?_NP_incrRefCount@AdapterActivator@PortableServer@@UEAAXXZ
?_NP_incrRefCount@LocalObject@CORBA@@$4PPPPPPPM@A@EAAXXZ
?_NP_incrRefCount@LocalObject@CORBA@@UEAAXXZ
?_NP_incrRefCount@Object@CORBA@@UEAAXXZ
?_NP_incrRefCount@Policy@CORBA@@$4PPPPPPPM@7EAAXXZ
?_NP_incrRefCount@Policy@CORBA@@$4PPPPPPPM@A@EAAXXZ
?_NP_incrRefCount@Policy@CORBA@@$4PPPPPPPM@CA@EAAXXZ
?_NP_incrRefCount@Policy@CORBA@@UEAAXXZ
?_NP_incrRefCount@ServantManager@PortableServer@@$4PPPPPPPM@A@EAAXXZ
?_NP_incrRefCount@ServantManager@PortableServer@@$R4BA@M@PPPPPPPM@BA@EAAXXZ
?_NP_incrRefCount@ServantManager@PortableServer@@$R4CA@M@PPPPPPPM@BA@EAAXXZ
?_NP_incrRefCount@ServantManager@PortableServer@@UEAAXXZ
?_NP_incrRefCount@omniOrbBOA@omni@@UEAAXXZ
?_NP_incrRefCount@omniOrbORB@@UEAAXXZ
?_NP_incrRefCount@omniOrbPOA@omni@@UEAAXXZ
?_NP_incrRefCount@omniOrbPOACurrent@omni@@UEAAXXZ
?_NP_incrRefCount@omniOrbPOAManager@omni@@UEAAXXZ
?_NP_is_a@Exception@CORBA@@KAPEAV12@PEBV12@PEBD@Z
?_NP_is_nil@Object@CORBA@@QEBA_NXZ
?_NP_is_pseudo@Object@CORBA@@QEBA_NXZ
?_NP_marshal@AdapterAlreadyExists@POA@PortableServer@@EEBAXAEAVcdrStream@@@Z
?_NP_marshal@AdapterInactive@POA@PortableServer@@EEBAXAEAVcdrStream@@@Z
?_NP_marshal@AdapterInactive@POAManager@PortableServer@@EEBAXAEAVcdrStream@@@Z
?_NP_marshal@AdapterNonExistent@POA@PortableServer@@EEBAXAEAVcdrStream@@@Z
?_NP_marshal@AlreadyBound@NamingContext@CosNaming@@EEBAXAEAVcdrStream@@@Z
?_NP_marshal@CannotProceed@NamingContext@CosNaming@@EEBAXAEAVcdrStream@@@Z
?_NP_marshal@ForwardRequest@PortableServer@@EEBAXAEAVcdrStream@@@Z
?_NP_marshal@InvalidAddress@NamingContextExt@CosNaming@@EEBAXAEAVcdrStream@@@Z
?_NP_marshal@InvalidName@NamingContext@CosNaming@@EEBAXAEAVcdrStream@@@Z
?_NP_marshal@InvalidName@ORB@CORBA@@EEBAXAEAVcdrStream@@@Z
?_NP_marshal@InvalidPolicy@POA@PortableServer@@EEBAXAEAVcdrStream@@@Z
?_NP_marshal@NoContext@Current@PortableServer@@EEBAXAEAVcdrStream@@@Z
?_NP_marshal@NoServant@POA@PortableServer@@EEBAXAEAVcdrStream@@@Z
?_NP_marshal@NotEmpty@NamingContext@CosNaming@@EEBAXAEAVcdrStream@@@Z
?_NP_marshal@NotFound@NamingContext@CosNaming@@EEBAXAEAVcdrStream@@@Z
?_NP_marshal@ObjectAlreadyActive@POA@PortableServer@@EEBAXAEAVcdrStream@@@Z
?_NP_marshal@ObjectNotActive@POA@PortableServer@@EEBAXAEAVcdrStream@@@Z
?_NP_marshal@PolicyError@CORBA@@EEBAXAEAVcdrStream@@@Z
?_NP_marshal@ServantAlreadyActive@POA@PortableServer@@EEBAXAEAVcdrStream@@@Z
?_NP_marshal@ServantNotActive@POA@PortableServer@@EEBAXAEAVcdrStream@@@Z
?_NP_marshal@SystemException@CORBA@@EEBAXAEAVcdrStream@@@Z
?_NP_marshal@WrongAdapter@POA@PortableServer@@EEBAXAEAVcdrStream@@@Z
?_NP_marshal@WrongPolicy@POA@PortableServer@@EEBAXAEAVcdrStream@@@Z
?_NP_repoId@AdapterAlreadyExists@POA@PortableServer@@EEBAPEBDPEAH@Z
?_NP_repoId@AdapterInactive@POA@PortableServer@@EEBAPEBDPEAH@Z
?_NP_repoId@AdapterInactive@POAManager@PortableServer@@EEBAPEBDPEAH@Z
?_NP_repoId@AdapterNonExistent@POA@PortableServer@@EEBAPEBDPEAH@Z
?_NP_repoId@AlreadyBound@NamingContext@CosNaming@@EEBAPEBDPEAH@Z
?_NP_repoId@BAD_CONTEXT@CORBA@@UEBAPEBDPEAH@Z
?_NP_repoId@BAD_INV_ORDER@CORBA@@UEBAPEBDPEAH@Z
?_NP_repoId@BAD_OPERATION@CORBA@@UEBAPEBDPEAH@Z
?_NP_repoId@BAD_PARAM@CORBA@@UEBAPEBDPEAH@Z
?_NP_repoId@BAD_QOS@CORBA@@UEBAPEBDPEAH@Z
?_NP_repoId@BAD_TYPECODE@CORBA@@UEBAPEBDPEAH@Z
?_NP_repoId@CODESET_INCOMPATIBLE@CORBA@@UEBAPEBDPEAH@Z
?_NP_repoId@COMM_FAILURE@CORBA@@UEBAPEBDPEAH@Z
?_NP_repoId@CannotProceed@NamingContext@CosNaming@@EEBAPEBDPEAH@Z
?_NP_repoId@DATA_CONVERSION@CORBA@@UEBAPEBDPEAH@Z
?_NP_repoId@FREE_MEM@CORBA@@UEBAPEBDPEAH@Z
?_NP_repoId@ForwardRequest@PortableServer@@EEBAPEBDPEAH@Z
?_NP_repoId@IMP_LIMIT@CORBA@@UEBAPEBDPEAH@Z
?_NP_repoId@INITIALIZE@CORBA@@UEBAPEBDPEAH@Z
?_NP_repoId@INTERNAL@CORBA@@UEBAPEBDPEAH@Z
?_NP_repoId@INTF_REPOS@CORBA@@UEBAPEBDPEAH@Z
?_NP_repoId@INVALID_TRANSACTION@CORBA@@UEBAPEBDPEAH@Z
?_NP_repoId@INV_FLAG@CORBA@@UEBAPEBDPEAH@Z
?_NP_repoId@INV_IDENT@CORBA@@UEBAPEBDPEAH@Z
?_NP_repoId@INV_OBJREF@CORBA@@UEBAPEBDPEAH@Z
?_NP_repoId@INV_POLICY@CORBA@@UEBAPEBDPEAH@Z
?_NP_repoId@InvalidAddress@NamingContextExt@CosNaming@@EEBAPEBDPEAH@Z
?_NP_repoId@InvalidName@NamingContext@CosNaming@@EEBAPEBDPEAH@Z
?_NP_repoId@InvalidName@ORB@CORBA@@EEBAPEBDPEAH@Z
?_NP_repoId@InvalidPolicy@POA@PortableServer@@EEBAPEBDPEAH@Z
?_NP_repoId@MARSHAL@CORBA@@UEBAPEBDPEAH@Z
?_NP_repoId@NO_IMPLEMENT@CORBA@@UEBAPEBDPEAH@Z
?_NP_repoId@NO_MEMORY@CORBA@@UEBAPEBDPEAH@Z
?_NP_repoId@NO_PERMISSION@CORBA@@UEBAPEBDPEAH@Z
?_NP_repoId@NO_RESOURCES@CORBA@@UEBAPEBDPEAH@Z
?_NP_repoId@NO_RESPONSE@CORBA@@UEBAPEBDPEAH@Z
?_NP_repoId@NoContext@Current@PortableServer@@EEBAPEBDPEAH@Z
?_NP_repoId@NoServant@POA@PortableServer@@EEBAPEBDPEAH@Z
?_NP_repoId@NotEmpty@NamingContext@CosNaming@@EEBAPEBDPEAH@Z
?_NP_repoId@NotFound@NamingContext@CosNaming@@EEBAPEBDPEAH@Z
?_NP_repoId@OBJECT_NOT_EXIST@CORBA@@UEBAPEBDPEAH@Z
?_NP_repoId@OBJ_ADAPTER@CORBA@@UEBAPEBDPEAH@Z
?_NP_repoId@ObjectAlreadyActive@POA@PortableServer@@EEBAPEBDPEAH@Z
?_NP_repoId@ObjectNotActive@POA@PortableServer@@EEBAPEBDPEAH@Z
?_NP_repoId@PERSIST_STORE@CORBA@@UEBAPEBDPEAH@Z
?_NP_repoId@PolicyError@CORBA@@EEBAPEBDPEAH@Z
?_NP_repoId@REBIND@CORBA@@UEBAPEBDPEAH@Z
?_NP_repoId@ServantAlreadyActive@POA@PortableServer@@EEBAPEBDPEAH@Z
?_NP_repoId@ServantNotActive@POA@PortableServer@@EEBAPEBDPEAH@Z
?_NP_repoId@TIMEOUT@CORBA@@UEBAPEBDPEAH@Z
?_NP_repoId@TRANSACTION_MODE@CORBA@@UEBAPEBDPEAH@Z
?_NP_repoId@TRANSACTION_REQUIRED@CORBA@@UEBAPEBDPEAH@Z
?_NP_repoId@TRANSACTION_ROLLEDBACK@CORBA@@UEBAPEBDPEAH@Z
?_NP_repoId@TRANSACTION_UNAVAILABLE@CORBA@@UEBAPEBDPEAH@Z
?_NP_repoId@TRANSIENT@CORBA@@UEBAPEBDPEAH@Z
?_NP_repoId@UNKNOWN@CORBA@@UEBAPEBDPEAH@Z
?_NP_repoId@WrongAdapter@POA@PortableServer@@EEBAPEBDPEAH@Z
?_NP_repoId@WrongPolicy@POA@PortableServer@@EEBAPEBDPEAH@Z
?_NP_typeId@AdapterAlreadyExists@POA@PortableServer@@EEBAPEBDXZ
?_NP_typeId@AdapterInactive@POA@PortableServer@@EEBAPEBDXZ
?_NP_typeId@AdapterInactive@POAManager@PortableServer@@EEBAPEBDXZ
?_NP_typeId@AdapterNonExistent@POA@PortableServer@@EEBAPEBDXZ
?_NP_typeId@AlreadyBound@NamingContext@CosNaming@@EEBAPEBDXZ
?_NP_typeId@BAD_CONTEXT@CORBA@@EEBAPEBDXZ
?_NP_typeId@BAD_INV_ORDER@CORBA@@EEBAPEBDXZ
?_NP_typeId@BAD_OPERATION@CORBA@@EEBAPEBDXZ
?_NP_typeId@BAD_PARAM@CORBA@@EEBAPEBDXZ
?_NP_typeId@BAD_QOS@CORBA@@EEBAPEBDXZ
?_NP_typeId@BAD_TYPECODE@CORBA@@EEBAPEBDXZ
?_NP_typeId@CODESET_INCOMPATIBLE@CORBA@@EEBAPEBDXZ
?_NP_typeId@COMM_FAILURE@CORBA@@EEBAPEBDXZ
?_NP_typeId@CannotProceed@NamingContext@CosNaming@@EEBAPEBDXZ
?_NP_typeId@DATA_CONVERSION@CORBA@@EEBAPEBDXZ
?_NP_typeId@FREE_MEM@CORBA@@EEBAPEBDXZ
?_NP_typeId@ForwardRequest@PortableServer@@EEBAPEBDXZ
?_NP_typeId@IMP_LIMIT@CORBA@@EEBAPEBDXZ
?_NP_typeId@INITIALIZE@CORBA@@EEBAPEBDXZ
?_NP_typeId@INTERNAL@CORBA@@EEBAPEBDXZ
?_NP_typeId@INTF_REPOS@CORBA@@EEBAPEBDXZ
?_NP_typeId@INVALID_TRANSACTION@CORBA@@EEBAPEBDXZ
?_NP_typeId@INV_FLAG@CORBA@@EEBAPEBDXZ
?_NP_typeId@INV_IDENT@CORBA@@EEBAPEBDXZ
?_NP_typeId@INV_OBJREF@CORBA@@EEBAPEBDXZ
?_NP_typeId@INV_POLICY@CORBA@@EEBAPEBDXZ
?_NP_typeId@InvalidAddress@NamingContextExt@CosNaming@@EEBAPEBDXZ
?_NP_typeId@InvalidName@NamingContext@CosNaming@@EEBAPEBDXZ
?_NP_typeId@InvalidName@ORB@CORBA@@EEBAPEBDXZ
?_NP_typeId@InvalidPolicy@POA@PortableServer@@EEBAPEBDXZ
?_NP_typeId@MARSHAL@CORBA@@EEBAPEBDXZ
?_NP_typeId@NO_IMPLEMENT@CORBA@@EEBAPEBDXZ
?_NP_typeId@NO_MEMORY@CORBA@@EEBAPEBDXZ
?_NP_typeId@NO_PERMISSION@CORBA@@EEBAPEBDXZ
?_NP_typeId@NO_RESOURCES@CORBA@@EEBAPEBDXZ
?_NP_typeId@NO_RESPONSE@CORBA@@EEBAPEBDXZ
?_NP_typeId@NoContext@Current@PortableServer@@EEBAPEBDXZ
?_NP_typeId@NoServant@POA@PortableServer@@EEBAPEBDXZ
?_NP_typeId@NotEmpty@NamingContext@CosNaming@@EEBAPEBDXZ
?_NP_typeId@NotFound@NamingContext@CosNaming@@EEBAPEBDXZ
?_NP_typeId@OBJECT_NOT_EXIST@CORBA@@EEBAPEBDXZ
?_NP_typeId@OBJ_ADAPTER@CORBA@@EEBAPEBDXZ
?_NP_typeId@ObjectAlreadyActive@POA@PortableServer@@EEBAPEBDXZ
?_NP_typeId@ObjectNotActive@POA@PortableServer@@EEBAPEBDXZ
?_NP_typeId@PERSIST_STORE@CORBA@@EEBAPEBDXZ
?_NP_typeId@PolicyError@CORBA@@EEBAPEBDXZ
?_NP_typeId@REBIND@CORBA@@EEBAPEBDXZ
?_NP_typeId@ServantAlreadyActive@POA@PortableServer@@EEBAPEBDXZ
?_NP_typeId@ServantNotActive@POA@PortableServer@@EEBAPEBDXZ
?_NP_typeId@TIMEOUT@CORBA@@EEBAPEBDXZ
?_NP_typeId@TRANSACTION_MODE@CORBA@@EEBAPEBDXZ
?_NP_typeId@TRANSACTION_REQUIRED@CORBA@@EEBAPEBDXZ
?_NP_typeId@TRANSACTION_ROLLEDBACK@CORBA@@EEBAPEBDXZ
?_NP_typeId@TRANSACTION_UNAVAILABLE@CORBA@@EEBAPEBDXZ
?_NP_typeId@TRANSIENT@CORBA@@EEBAPEBDXZ
?_NP_typeId@UNKNOWN@CORBA@@EEBAPEBDXZ
?_NP_typeId@WrongAdapter@POA@PortableServer@@EEBAPEBDXZ
?_NP_typeId@WrongPolicy@POA@PortableServer@@EEBAPEBDXZ
?_OptionsStorage@?1??__local_stdio_printf_options@@9@4_KA
?_OptionsStorage@?1??__local_stdio_scanf_options@@9@4_KA
?_PD_repoId@AdapterActivator@PortableServer@@2PEBDEB
?_PD_repoId@AdapterAlreadyExists@POA@PortableServer@@2PEBDEB
?_PD_repoId@AdapterInactive@POA@PortableServer@@2PEBDEB
?_PD_repoId@AdapterInactive@POAManager@PortableServer@@2PEBDEB
?_PD_repoId@AdapterNonExistent@POA@PortableServer@@2PEBDEB
?_PD_repoId@AlreadyBound@NamingContext@CosNaming@@2PEBDEB
?_PD_repoId@BOA@CORBA@@2PEBDEB
?_PD_repoId@BidirectionalPolicy@BiDirPolicy@@2PEBDEB
?_PD_repoId@BindingIterator@CosNaming@@2PEBDEB
?_PD_repoId@CORBA_InitialReferences@@2PEBDEB
?_PD_repoId@CannotProceed@NamingContext@CosNaming@@2PEBDEB
?_PD_repoId@Current@CORBA@@2PEBDEB
?_PD_repoId@Current@PortableServer@@2PEBDEB
?_PD_repoId@EndPointPublishPolicy@omniPolicy@@2PEBDEB
?_PD_repoId@ForwardRequest@PortableServer@@2PEBDEB
?_PD_repoId@IdAssignmentPolicy@PortableServer@@2PEBDEB
?_PD_repoId@IdUniquenessPolicy@PortableServer@@2PEBDEB
?_PD_repoId@ImplicitActivationPolicy@PortableServer@@2PEBDEB
?_PD_repoId@InvalidAddress@NamingContextExt@CosNaming@@2PEBDEB
?_PD_repoId@InvalidName@NamingContext@CosNaming@@2PEBDEB
?_PD_repoId@InvalidName@ORB@CORBA@@2PEBDEB
?_PD_repoId@InvalidPolicy@POA@PortableServer@@2PEBDEB
?_PD_repoId@LifespanPolicy@PortableServer@@2PEBDEB
?_PD_repoId@LocalObject@CORBA@@2PEBDEB
?_PD_repoId@LocalShortcutPolicy@omniPolicy@@2PEBDEB
?_PD_repoId@NamingContext@CosNaming@@2PEBDEB
?_PD_repoId@NamingContextExt@CosNaming@@2PEBDEB
?_PD_repoId@NoContext@Current@PortableServer@@2PEBDEB
?_PD_repoId@NoServant@POA@PortableServer@@2PEBDEB
?_PD_repoId@NotEmpty@NamingContext@CosNaming@@2PEBDEB
?_PD_repoId@NotFound@NamingContext@CosNaming@@2PEBDEB
?_PD_repoId@ORB@CORBA@@2PEBDEB
?_PD_repoId@Object@CORBA@@2PEBDEB
?_PD_repoId@ObjectAlreadyActive@POA@PortableServer@@2PEBDEB
?_PD_repoId@ObjectNotActive@POA@PortableServer@@2PEBDEB
?_PD_repoId@POA@PortableServer@@2PEBDEB
?_PD_repoId@POAManager@PortableServer@@2PEBDEB
?_PD_repoId@PlainObjectKeysPolicy@omniPolicy@@2PEBDEB
?_PD_repoId@Policy@CORBA@@2PEBDEB
?_PD_repoId@PolicyError@CORBA@@2PEBDEB
?_PD_repoId@RequestProcessingPolicy@PortableServer@@2PEBDEB
?_PD_repoId@ServantActivator@PortableServer@@2PEBDEB
?_PD_repoId@ServantAlreadyActive@POA@PortableServer@@2PEBDEB
?_PD_repoId@ServantLocator@PortableServer@@2PEBDEB
?_PD_repoId@ServantManager@PortableServer@@2PEBDEB
?_PD_repoId@ServantNotActive@POA@PortableServer@@2PEBDEB
?_PD_repoId@ServantRetentionPolicy@PortableServer@@2PEBDEB
?_PD_repoId@ThreadPolicy@PortableServer@@2PEBDEB
?_PD_repoId@WrongAdapter@POA@PortableServer@@2PEBDEB
?_PD_repoId@WrongPolicy@POA@PortableServer@@2PEBDEB
?_PD_typeId@AlreadyBound@NamingContext@CosNaming@@2PEBDEB
?_PD_typeId@CannotProceed@NamingContext@CosNaming@@2PEBDEB
?_PD_typeId@ForwardRequest@PortableServer@@2PEBDEB
?_PD_typeId@InvalidAddress@NamingContextExt@CosNaming@@2PEBDEB
?_PD_typeId@InvalidName@NamingContext@CosNaming@@2PEBDEB
?_PD_typeId@NotEmpty@NamingContext@CosNaming@@2PEBDEB
?_PD_typeId@NotFound@NamingContext@CosNaming@@2PEBDEB
?_PR_getobj@Object@CORBA@@QEAAPEAVomniObjRef@@XZ
?_PR_is_valid@Object@CORBA@@SA_NPEAV12@@Z
?_PR_magic@Object@CORBA@@2KB
?_PR_setobj@Object@CORBA@@QEAAXPEAVomniObjRef@@@Z
?__hash@omniObjRef@@QEAAKK@Z
?__is_equivalent@omniObjRef@@QEAA_NPEAV1@@Z
?_activations@omniServant@@QEBAAEBV?$omnivector@PEAVomniObjTableEntry@@@@XZ
?_addActivation@omniServant@@QEAAXPEAVomniObjTableEntry@@@Z
?_add_ref@LocalObject@CORBA@@UEAAXXZ
?_add_ref@ServantBase@PortableServer@@$4PPPPPPPM@A@EAAXXZ
?_add_ref@ServantBase@PortableServer@@$R4BA@BA@PPPPPPPM@CA@EAAXXZ
?_add_ref@ServantBase@PortableServer@@$R4BA@M@PPPPPPPM@CA@EAAXXZ
?_add_ref@ServantBase@PortableServer@@UEAAXXZ
?_add_ref@omniServant@@UEAAXXZ
?_assertExistsAndTypeVerified@omniObjRef@@QEAAXXZ
?_classid@GIOP_C@omni@@2HA
?_classid@GIOP_S@omni@@2HA
?_classid@cdrCountingStream@@2HA
?_classid@cdrEncapsulationStream@@2HA
?_classid@cdrMemoryStream@@2HA
?_classid@cdrStream@@2HA
?_classid@cdrStreamAdapter@@2HA
?_classid@cdrValueChunkStream@@2HA
?_classid@giopStream@omni@@2HA
?_classid@omniIdentity@@2HA
?_classid@omniInProcessIdentity@@2HA
?_classid@omniLocalIdentity@@2HA
?_classid@omniObjAdapter@omni@@2HA
?_classid@omniObjTableEntry@@2HA
?_classid@omniOrbBOA@omni@@2HA
?_classid@omniOrbPOA@omni@@2HA
?_classid@omniRemoteIdentity@@2HA
?_classid@omniShutdownIdentity@@2HA
?_commFailureExceptionHandler@omniObjRef@@QEAAPEAXAEAPEAXAEA_N@Z
?_commFailureExceptionHandler@omniObjRef@@QEAAXPEAX0_N@Z
?_default_POA@ServantBase@PortableServer@@UEAAPEAVPOA@2@XZ
?_disable@omniObjRef@@AEAAXXZ
?_dispatch@_impl_AdapterActivator@PortableServer@@$4PPPPPPPM@A@EAA_NAEAVomniCallHandle@@@Z
?_dispatch@_impl_AdapterActivator@PortableServer@@$R4BA@7PPPPPPPM@BI@EAA_NAEAVomniCallHandle@@@Z
?_dispatch@_impl_AdapterActivator@PortableServer@@UEAA_NAEAVomniCallHandle@@@Z
?_dispatch@_impl_BindingIterator@CosNaming@@$4PPPPPPPM@A@EAA_NAEAVomniCallHandle@@@Z
?_dispatch@_impl_BindingIterator@CosNaming@@$R4BA@7PPPPPPPM@BI@EAA_NAEAVomniCallHandle@@@Z
?_dispatch@_impl_BindingIterator@CosNaming@@UEAA_NAEAVomniCallHandle@@@Z
?_dispatch@_impl_CORBA_InitialReferences@@$4PPPPPPPM@A@EAA_NAEAVomniCallHandle@@@Z
?_dispatch@_impl_CORBA_InitialReferences@@$R4BA@7PPPPPPPM@BI@EAA_NAEAVomniCallHandle@@@Z
?_dispatch@_impl_CORBA_InitialReferences@@UEAA_NAEAVomniCallHandle@@@Z
?_dispatch@_impl_NamingContext@CosNaming@@$4PPPPPPPM@A@EAA_NAEAVomniCallHandle@@@Z
?_dispatch@_impl_NamingContext@CosNaming@@$R4BA@7PPPPPPPM@BI@EAA_NAEAVomniCallHandle@@@Z
?_dispatch@_impl_NamingContext@CosNaming@@UEAA_NAEAVomniCallHandle@@@Z
?_dispatch@_impl_NamingContextExt@CosNaming@@$4PPPPPPPM@A@EAA_NAEAVomniCallHandle@@@Z
?_dispatch@_impl_NamingContextExt@CosNaming@@$R4BA@M@PPPPPPPM@BI@EAA_NAEAVomniCallHandle@@@Z
?_dispatch@_impl_NamingContextExt@CosNaming@@UEAA_NAEAVomniCallHandle@@@Z
?_dispatch@_impl_ServantActivator@PortableServer@@$4PPPPPPPM@A@EAA_NAEAVomniCallHandle@@@Z
?_dispatch@_impl_ServantActivator@PortableServer@@$R4BA@M@PPPPPPPM@BI@EAA_NAEAVomniCallHandle@@@Z
?_dispatch@_impl_ServantActivator@PortableServer@@UEAA_NAEAVomniCallHandle@@@Z
?_dispatch@_impl_ServantLocator@PortableServer@@$2PPPPPPPM@A@EAA_NAEAVomniCallHandle@@@Z
?_dispatch@_impl_ServantLocator@PortableServer@@$R2BA@M@PPPPPPPM@BI@EAA_NAEAVomniCallHandle@@@Z
?_dispatch@_impl_ServantLocator@PortableServer@@MEAA_NAEAVomniCallHandle@@@Z
?_dispatch@_impl_ServantManager@PortableServer@@$4PPPPPPPM@A@EAA_NAEAVomniCallHandle@@@Z
?_dispatch@_impl_ServantManager@PortableServer@@$R4BA@7PPPPPPPM@BA@EAA_NAEAVomniCallHandle@@@Z
?_dispatch@_impl_ServantManager@PortableServer@@UEAA_NAEAVomniCallHandle@@@Z
?_dispatch@omniServant@@UEAA_NAEAVomniCallHandle@@@Z
?_dispose@omniOrbBoaServant@@QEAAXXZ
?_do_get_interface@ServantBase@PortableServer@@$0PPPPPPPM@A@EAAPEAVomniObjRef@@XZ
?_do_get_interface@ServantBase@PortableServer@@$R0BA@BA@PPPPPPPM@CA@EAAPEAVomniObjRef@@XZ
?_do_get_interface@ServantBase@PortableServer@@$R0BA@M@PPPPPPPM@CA@EAAPEAVomniObjRef@@XZ
?_do_get_interface@ServantBase@PortableServer@@EEAAPEAVomniObjRef@@XZ
?_do_get_interface@omniOrbBoaServant@@$0PPPPPPPM@A@EAAPEAVomniObjRef@@XZ
?_do_get_interface@omniOrbBoaServant@@EEAAPEAVomniObjRef@@XZ
?_do_this@ServantBase@PortableServer@@IEAAPEAXPEBD@Z
?_downcast@AdapterAlreadyExists@POA@PortableServer@@SAPEAV123@PEAVException@CORBA@@@Z
?_downcast@AdapterAlreadyExists@POA@PortableServer@@SAPEBV123@PEBVException@CORBA@@@Z
?_downcast@AdapterInactive@POA@PortableServer@@SAPEAV123@PEAVException@CORBA@@@Z
?_downcast@AdapterInactive@POA@PortableServer@@SAPEBV123@PEBVException@CORBA@@@Z
?_downcast@AdapterInactive@POAManager@PortableServer@@SAPEAV123@PEAVException@CORBA@@@Z
?_downcast@AdapterInactive@POAManager@PortableServer@@SAPEBV123@PEBVException@CORBA@@@Z
?_downcast@AdapterNonExistent@POA@PortableServer@@SAPEAV123@PEAVException@CORBA@@@Z
?_downcast@AdapterNonExistent@POA@PortableServer@@SAPEBV123@PEBVException@CORBA@@@Z
?_downcast@AlreadyBound@NamingContext@CosNaming@@SAPEAV123@PEAVException@CORBA@@@Z
?_downcast@AlreadyBound@NamingContext@CosNaming@@SAPEBV123@PEBVException@CORBA@@@Z
?_downcast@BAD_CONTEXT@CORBA@@SAPEAV12@PEAVException@2@@Z
?_downcast@BAD_CONTEXT@CORBA@@SAPEBV12@PEBVException@2@@Z
?_downcast@BAD_INV_ORDER@CORBA@@SAPEAV12@PEAVException@2@@Z
?_downcast@BAD_INV_ORDER@CORBA@@SAPEBV12@PEBVException@2@@Z
?_downcast@BAD_OPERATION@CORBA@@SAPEAV12@PEAVException@2@@Z
?_downcast@BAD_OPERATION@CORBA@@SAPEBV12@PEBVException@2@@Z
?_downcast@BAD_PARAM@CORBA@@SAPEAV12@PEAVException@2@@Z
?_downcast@BAD_PARAM@CORBA@@SAPEBV12@PEBVException@2@@Z
?_downcast@BAD_QOS@CORBA@@SAPEAV12@PEAVException@2@@Z
?_downcast@BAD_QOS@CORBA@@SAPEBV12@PEBVException@2@@Z
?_downcast@BAD_TYPECODE@CORBA@@SAPEAV12@PEAVException@2@@Z
?_downcast@BAD_TYPECODE@CORBA@@SAPEBV12@PEBVException@2@@Z
?_downcast@CODESET_INCOMPATIBLE@CORBA@@SAPEAV12@PEAVException@2@@Z
?_downcast@CODESET_INCOMPATIBLE@CORBA@@SAPEBV12@PEBVException@2@@Z
?_downcast@COMM_FAILURE@CORBA@@SAPEAV12@PEAVException@2@@Z
?_downcast@COMM_FAILURE@CORBA@@SAPEBV12@PEBVException@2@@Z
?_downcast@CannotProceed@NamingContext@CosNaming@@SAPEAV123@PEAVException@CORBA@@@Z
?_downcast@CannotProceed@NamingContext@CosNaming@@SAPEBV123@PEBVException@CORBA@@@Z
?_downcast@DATA_CONVERSION@CORBA@@SAPEAV12@PEAVException@2@@Z
?_downcast@DATA_CONVERSION@CORBA@@SAPEBV12@PEBVException@2@@Z
?_downcast@FREE_MEM@CORBA@@SAPEAV12@PEAVException@2@@Z
?_downcast@FREE_MEM@CORBA@@SAPEBV12@PEBVException@2@@Z
?_downcast@ForwardRequest@PortableServer@@SAPEAV12@PEAVException@CORBA@@@Z
?_downcast@ForwardRequest@PortableServer@@SAPEBV12@PEBVException@CORBA@@@Z
?_downcast@IMP_LIMIT@CORBA@@SAPEAV12@PEAVException@2@@Z
?_downcast@IMP_LIMIT@CORBA@@SAPEBV12@PEBVException@2@@Z
?_downcast@INITIALIZE@CORBA@@SAPEAV12@PEAVException@2@@Z
?_downcast@INITIALIZE@CORBA@@SAPEBV12@PEBVException@2@@Z
?_downcast@INTERNAL@CORBA@@SAPEAV12@PEAVException@2@@Z
?_downcast@INTERNAL@CORBA@@SAPEBV12@PEBVException@2@@Z
?_downcast@INTF_REPOS@CORBA@@SAPEAV12@PEAVException@2@@Z
?_downcast@INTF_REPOS@CORBA@@SAPEBV12@PEBVException@2@@Z
?_downcast@INVALID_TRANSACTION@CORBA@@SAPEAV12@PEAVException@2@@Z
?_downcast@INVALID_TRANSACTION@CORBA@@SAPEBV12@PEBVException@2@@Z
?_downcast@INV_FLAG@CORBA@@SAPEAV12@PEAVException@2@@Z
?_downcast@INV_FLAG@CORBA@@SAPEBV12@PEBVException@2@@Z
?_downcast@INV_IDENT@CORBA@@SAPEAV12@PEAVException@2@@Z
?_downcast@INV_IDENT@CORBA@@SAPEBV12@PEBVException@2@@Z
?_downcast@INV_OBJREF@CORBA@@SAPEAV12@PEAVException@2@@Z
?_downcast@INV_OBJREF@CORBA@@SAPEBV12@PEBVException@2@@Z
?_downcast@INV_POLICY@CORBA@@SAPEAV12@PEAVException@2@@Z
?_downcast@INV_POLICY@CORBA@@SAPEBV12@PEBVException@2@@Z
?_downcast@InvalidAddress@NamingContextExt@CosNaming@@SAPEAV123@PEAVException@CORBA@@@Z
?_downcast@InvalidAddress@NamingContextExt@CosNaming@@SAPEBV123@PEBVException@CORBA@@@Z
?_downcast@InvalidName@NamingContext@CosNaming@@SAPEAV123@PEAVException@CORBA@@@Z
?_downcast@InvalidName@NamingContext@CosNaming@@SAPEBV123@PEBVException@CORBA@@@Z
?_downcast@InvalidName@ORB@CORBA@@SAPEAV123@PEAVException@3@@Z
?_downcast@InvalidName@ORB@CORBA@@SAPEBV123@PEBVException@3@@Z
?_downcast@InvalidPolicy@POA@PortableServer@@SAPEAV123@PEAVException@CORBA@@@Z
?_downcast@InvalidPolicy@POA@PortableServer@@SAPEBV123@PEBVException@CORBA@@@Z
?_downcast@MARSHAL@CORBA@@SAPEAV12@PEAVException@2@@Z
?_downcast@MARSHAL@CORBA@@SAPEBV12@PEBVException@2@@Z
?_downcast@NO_IMPLEMENT@CORBA@@SAPEAV12@PEAVException@2@@Z
?_downcast@NO_IMPLEMENT@CORBA@@SAPEBV12@PEBVException@2@@Z
?_downcast@NO_MEMORY@CORBA@@SAPEAV12@PEAVException@2@@Z
?_downcast@NO_MEMORY@CORBA@@SAPEBV12@PEBVException@2@@Z
?_downcast@NO_PERMISSION@CORBA@@SAPEAV12@PEAVException@2@@Z
?_downcast@NO_PERMISSION@CORBA@@SAPEBV12@PEBVException@2@@Z
?_downcast@NO_RESOURCES@CORBA@@SAPEAV12@PEAVException@2@@Z
?_downcast@NO_RESOURCES@CORBA@@SAPEBV12@PEBVException@2@@Z
?_downcast@NO_RESPONSE@CORBA@@SAPEAV12@PEAVException@2@@Z
?_downcast@NO_RESPONSE@CORBA@@SAPEBV12@PEBVException@2@@Z
?_downcast@NoContext@Current@PortableServer@@SAPEAV123@PEAVException@CORBA@@@Z
?_downcast@NoContext@Current@PortableServer@@SAPEBV123@PEBVException@CORBA@@@Z
?_downcast@NoServant@POA@PortableServer@@SAPEAV123@PEAVException@CORBA@@@Z
?_downcast@NoServant@POA@PortableServer@@SAPEBV123@PEBVException@CORBA@@@Z
?_downcast@NotEmpty@NamingContext@CosNaming@@SAPEAV123@PEAVException@CORBA@@@Z
?_downcast@NotEmpty@NamingContext@CosNaming@@SAPEBV123@PEBVException@CORBA@@@Z
?_downcast@NotFound@NamingContext@CosNaming@@SAPEAV123@PEAVException@CORBA@@@Z
?_downcast@NotFound@NamingContext@CosNaming@@SAPEBV123@PEBVException@CORBA@@@Z
?_downcast@OBJECT_NOT_EXIST@CORBA@@SAPEAV12@PEAVException@2@@Z
?_downcast@OBJECT_NOT_EXIST@CORBA@@SAPEBV12@PEBVException@2@@Z
?_downcast@OBJ_ADAPTER@CORBA@@SAPEAV12@PEAVException@2@@Z
?_downcast@OBJ_ADAPTER@CORBA@@SAPEBV12@PEBVException@2@@Z
?_downcast@ObjectAlreadyActive@POA@PortableServer@@SAPEAV123@PEAVException@CORBA@@@Z
?_downcast@ObjectAlreadyActive@POA@PortableServer@@SAPEBV123@PEBVException@CORBA@@@Z
?_downcast@ObjectNotActive@POA@PortableServer@@SAPEAV123@PEAVException@CORBA@@@Z
?_downcast@ObjectNotActive@POA@PortableServer@@SAPEBV123@PEBVException@CORBA@@@Z
?_downcast@PERSIST_STORE@CORBA@@SAPEAV12@PEAVException@2@@Z
?_downcast@PERSIST_STORE@CORBA@@SAPEBV12@PEBVException@2@@Z
?_downcast@PolicyError@CORBA@@SAPEAV12@PEAVException@2@@Z
?_downcast@PolicyError@CORBA@@SAPEBV12@PEBVException@2@@Z
?_downcast@REBIND@CORBA@@SAPEAV12@PEAVException@2@@Z
?_downcast@REBIND@CORBA@@SAPEBV12@PEBVException@2@@Z
?_downcast@ServantAlreadyActive@POA@PortableServer@@SAPEAV123@PEAVException@CORBA@@@Z
?_downcast@ServantAlreadyActive@POA@PortableServer@@SAPEBV123@PEBVException@CORBA@@@Z
?_downcast@ServantBase@PortableServer@@$0PPPPPPPM@A@EAAPEAXXZ
?_downcast@ServantBase@PortableServer@@$R0BA@BA@PPPPPPPM@CA@EAAPEAXXZ
?_downcast@ServantBase@PortableServer@@$R0BA@M@PPPPPPPM@CA@EAAPEAXXZ
?_downcast@ServantBase@PortableServer@@EEAAPEAXXZ
?_downcast@ServantNotActive@POA@PortableServer@@SAPEAV123@PEAVException@CORBA@@@Z
?_downcast@ServantNotActive@POA@PortableServer@@SAPEBV123@PEBVException@CORBA@@@Z
?_downcast@SystemException@CORBA@@SAPEAV12@PEAVException@2@@Z
?_downcast@SystemException@CORBA@@SAPEBV12@PEBVException@2@@Z
?_downcast@TIMEOUT@CORBA@@SAPEAV12@PEAVException@2@@Z
?_downcast@TIMEOUT@CORBA@@SAPEBV12@PEBVException@2@@Z
?_downcast@TRANSACTION_MODE@CORBA@@SAPEAV12@PEAVException@2@@Z
?_downcast@TRANSACTION_MODE@CORBA@@SAPEBV12@PEBVException@2@@Z
?_downcast@TRANSACTION_REQUIRED@CORBA@@SAPEAV12@PEAVException@2@@Z
?_downcast@TRANSACTION_REQUIRED@CORBA@@SAPEBV12@PEBVException@2@@Z
?_downcast@TRANSACTION_ROLLEDBACK@CORBA@@SAPEAV12@PEAVException@2@@Z
?_downcast@TRANSACTION_ROLLEDBACK@CORBA@@SAPEBV12@PEBVException@2@@Z
?_downcast@TRANSACTION_UNAVAILABLE@CORBA@@SAPEAV12@PEAVException@2@@Z
?_downcast@TRANSACTION_UNAVAILABLE@CORBA@@SAPEBV12@PEBVException@2@@Z
?_downcast@TRANSIENT@CORBA@@SAPEAV12@PEAVException@2@@Z
?_downcast@TRANSIENT@CORBA@@SAPEBV12@PEBVException@2@@Z
?_downcast@UNKNOWN@CORBA@@SAPEAV12@PEAVException@2@@Z
?_downcast@UNKNOWN@CORBA@@SAPEBV12@PEBVException@2@@Z
?_downcast@UserException@CORBA@@SAPEAV12@PEAVException@2@@Z
?_downcast@UserException@CORBA@@SAPEBV12@PEBVException@2@@Z
?_downcast@WrongAdapter@POA@PortableServer@@SAPEAV123@PEAVException@CORBA@@@Z
?_downcast@WrongAdapter@POA@PortableServer@@SAPEBV123@PEBVException@CORBA@@@Z
?_downcast@WrongPolicy@POA@PortableServer@@SAPEAV123@PEAVException@CORBA@@@Z
?_downcast@WrongPolicy@POA@PortableServer@@SAPEBV123@PEBVException@CORBA@@@Z
?_downcast@omniOrbPOA@omni@@SAPEAV12@PEAVomniObjAdapter@2@@Z
?_downcast@omniServant@@UEAAPEAXXZ
?_duplicate@AdapterActivator@PortableServer@@SAPEAV12@PEAV12@@Z
?_duplicate@BOA@CORBA@@SAPEAV12@PEAV12@@Z
?_duplicate@BidirectionalPolicy@BiDirPolicy@@SAPEAV12@PEAV12@@Z
?_duplicate@BindingIterator@CosNaming@@SAPEAV_objref_BindingIterator@2@PEAV32@@Z
?_duplicate@CORBA_InitialReferences@@SAPEAV_objref_CORBA_InitialReferences@@PEAV2@@Z
?_duplicate@Current@CORBA@@SAPEAV12@PEAV12@@Z
?_duplicate@Current@PortableServer@@SAPEAV12@PEAV12@@Z
?_duplicate@EndPointPublishPolicy@omniPolicy@@SAPEAV12@PEAV12@@Z
?_duplicate@Exception@CORBA@@SAPEAV12@PEBV12@@Z
?_duplicate@IdAssignmentPolicy@PortableServer@@SAPEAV12@PEAV12@@Z
?_duplicate@IdUniquenessPolicy@PortableServer@@SAPEAV12@PEAV12@@Z
?_duplicate@ImplicitActivationPolicy@PortableServer@@SAPEAV12@PEAV12@@Z
?_duplicate@LifespanPolicy@PortableServer@@SAPEAV12@PEAV12@@Z
?_duplicate@LocalObject@CORBA@@SAPEAV12@PEAV12@@Z
?_duplicate@LocalShortcutPolicy@omniPolicy@@SAPEAV12@PEAV12@@Z
?_duplicate@NamingContext@CosNaming@@SAPEAV_objref_NamingContext@2@PEAV32@@Z
?_duplicate@NamingContextExt@CosNaming@@SAPEAV_objref_NamingContextExt@2@PEAV32@@Z
?_duplicate@ORB@CORBA@@SAPEAV12@PEAV12@@Z
?_duplicate@Object@CORBA@@SAPEAV12@PEAV12@@Z
?_duplicate@POA@PortableServer@@SAPEAV12@PEAV12@@Z
?_duplicate@POAManager@PortableServer@@SAPEAV12@PEAV12@@Z
?_duplicate@PlainObjectKeysPolicy@omniPolicy@@SAPEAV12@PEAV12@@Z
?_duplicate@Policy@CORBA@@SAPEAV12@PEAV12@@Z
?_duplicate@RequestProcessingPolicy@PortableServer@@SAPEAV12@PEAV12@@Z
?_duplicate@ServantActivator@PortableServer@@SAPEAV12@PEAV12@@Z
?_duplicate@ServantLocator@PortableServer@@SAPEAV12@PEAV12@@Z
?_duplicate@ServantManager@PortableServer@@SAPEAV12@PEAV12@@Z
?_duplicate@ServantRetentionPolicy@PortableServer@@SAPEAV12@PEAV12@@Z
?_duplicate@ThreadPolicy@PortableServer@@SAPEAV12@PEAV12@@Z
?_enableShortcut@_objref_ServantActivator@PortableServer@@$2PPPPPPPM@A@EAAXPEAVomniServant@@PEB_N@Z
?_enableShortcut@_objref_ServantActivator@PortableServer@@MEAAXPEAVomniServant@@PEB_N@Z
?_enableShortcut@_objref_ServantLocator@PortableServer@@$2PPPPPPPM@A@EAAXPEAVomniServant@@PEB_N@Z
?_enableShortcut@_objref_ServantLocator@PortableServer@@MEAAXPEAVomniServant@@PEB_N@Z
?_enableShortcut@omniObjRef@@UEAAXPEAVomniServant@@PEB_N@Z
?_fromString@omniObjRef@@SAPEAV1@PEBD@Z
?_getIOR@omniObjRef@@QEAAPEAVomniIOR@@XZ
?_get_interface@ServantBase@PortableServer@@UEAAPEAV_objref_InterfaceDef@CORBA@@XZ
?_hash@Object@CORBA@@QEAAKK@Z
?_identity@omniObjRef@@QEAAPEAVomniIdentity@@XZ
?_invoke@omniObjRef@@QEAAXAEAVomniCallDescriptor@@_N@Z
?_invoke_async@omniObjRef@@QEAAXPEAVomniAsyncCallDescriptor@@@Z
?_is_a@Object@CORBA@@QEAA_NPEBD@Z
?_is_a@omniServant@@UEAA_NPEBD@Z
?_is_equivalent@Object@CORBA@@QEAA_NPEAV12@@Z
?_is_nil@omniObjRef@@QEAA_NXZ
?_localServantTarget@omniObjRef@@UEAAPEBDXZ
?_locateRequest@omniObjRef@@IEAAXXZ
?_marshal@omniObjRef@@SAXPEAV1@AEAVcdrStream@@@Z
?_marshalObjRef@AdapterActivator@PortableServer@@SAXPEAV12@AEAVcdrStream@@@Z
?_marshalObjRef@BindingIterator@CosNaming@@SAXPEAV_objref_BindingIterator@2@AEAVcdrStream@@@Z
?_marshalObjRef@CORBA_InitialReferences@@SAXPEAV_objref_CORBA_InitialReferences@@AEAVcdrStream@@@Z
?_marshalObjRef@LocalObject@CORBA@@SAXPEAV12@AEAVcdrStream@@@Z
?_marshalObjRef@NamingContext@CosNaming@@SAXPEAV_objref_NamingContext@2@AEAVcdrStream@@@Z
?_marshalObjRef@NamingContextExt@CosNaming@@SAXPEAV_objref_NamingContextExt@2@AEAVcdrStream@@@Z
?_marshalObjRef@Object@CORBA@@SAXPEAV12@AEAVcdrStream@@@Z
?_marshalObjRef@ServantActivator@PortableServer@@SAXPEAV12@AEAVcdrStream@@@Z
?_marshalObjRef@ServantLocator@PortableServer@@SAXPEAV12@AEAVcdrStream@@@Z
?_marshalObjRef@ServantManager@PortableServer@@SAXPEAV12@AEAVcdrStream@@@Z
?_mostDerivedRepoId@_impl_AdapterActivator@PortableServer@@$0PPPPPPPM@A@EAAPEBDXZ
?_mostDerivedRepoId@_impl_AdapterActivator@PortableServer@@$R0BA@7PPPPPPPM@BI@EAAPEBDXZ
?_mostDerivedRepoId@_impl_AdapterActivator@PortableServer@@EEAAPEBDXZ
?_mostDerivedRepoId@_impl_BindingIterator@CosNaming@@$0PPPPPPPM@A@EAAPEBDXZ
?_mostDerivedRepoId@_impl_BindingIterator@CosNaming@@$R0BA@7PPPPPPPM@BI@EAAPEBDXZ
?_mostDerivedRepoId@_impl_BindingIterator@CosNaming@@EEAAPEBDXZ
?_mostDerivedRepoId@_impl_CORBA_InitialReferences@@$0PPPPPPPM@A@EAAPEBDXZ
?_mostDerivedRepoId@_impl_CORBA_InitialReferences@@$R0BA@7PPPPPPPM@BI@EAAPEBDXZ
?_mostDerivedRepoId@_impl_CORBA_InitialReferences@@EEAAPEBDXZ
?_mostDerivedRepoId@_impl_NamingContext@CosNaming@@$0PPPPPPPM@A@EAAPEBDXZ
?_mostDerivedRepoId@_impl_NamingContext@CosNaming@@$R0BA@7PPPPPPPM@BI@EAAPEBDXZ
?_mostDerivedRepoId@_impl_NamingContext@CosNaming@@EEAAPEBDXZ
?_mostDerivedRepoId@_impl_NamingContextExt@CosNaming@@$0PPPPPPPM@A@EAAPEBDXZ
?_mostDerivedRepoId@_impl_NamingContextExt@CosNaming@@$R0BA@M@PPPPPPPM@BI@EAAPEBDXZ
?_mostDerivedRepoId@_impl_NamingContextExt@CosNaming@@EEAAPEBDXZ
?_mostDerivedRepoId@_impl_ServantActivator@PortableServer@@$0PPPPPPPM@A@EAAPEBDXZ
?_mostDerivedRepoId@_impl_ServantActivator@PortableServer@@$R0BA@M@PPPPPPPM@BI@EAAPEBDXZ
?_mostDerivedRepoId@_impl_ServantActivator@PortableServer@@EEAAPEBDXZ
?_mostDerivedRepoId@_impl_ServantLocator@PortableServer@@$0PPPPPPPM@A@EAAPEBDXZ
?_mostDerivedRepoId@_impl_ServantLocator@PortableServer@@$R0BA@M@PPPPPPPM@BI@EAAPEBDXZ
?_mostDerivedRepoId@_impl_ServantLocator@PortableServer@@EEAAPEBDXZ
?_mostDerivedRepoId@_impl_ServantManager@PortableServer@@$0PPPPPPPM@A@EAAPEBDXZ
?_mostDerivedRepoId@_impl_ServantManager@PortableServer@@$R0BA@7PPPPPPPM@BA@EAAPEBDXZ
?_mostDerivedRepoId@_impl_ServantManager@PortableServer@@EEAAPEBDXZ
?_mostDerivedRepoId@omniObjRef@@QEBAPEBDXZ
?_mostDerivedRepoId@omniServant@@UEAAPEBDXZ
?_name@Exception@CORBA@@UEBAPEBDXZ
?_narrow@AdapterActivator@PortableServer@@SAPEAV12@PEAVObject@CORBA@@@Z
?_narrow@BOA@CORBA@@SAPEAV12@PEAVObject@2@@Z
?_narrow@BidirectionalPolicy@BiDirPolicy@@SAPEAV12@PEAVObject@CORBA@@@Z
?_narrow@BindingIterator@CosNaming@@SAPEAV_objref_BindingIterator@2@PEAVObject@CORBA@@@Z
?_narrow@CORBA_InitialReferences@@SAPEAV_objref_CORBA_InitialReferences@@PEAVObject@CORBA@@@Z
?_narrow@Current@CORBA@@SAPEAV12@PEAVObject@2@@Z
?_narrow@Current@PortableServer@@SAPEAV12@PEAVObject@CORBA@@@Z
?_narrow@EndPointPublishPolicy@omniPolicy@@SAPEAV12@PEAVObject@CORBA@@@Z
?_narrow@IdAssignmentPolicy@PortableServer@@SAPEAV12@PEAVObject@CORBA@@@Z
?_narrow@IdUniquenessPolicy@PortableServer@@SAPEAV12@PEAVObject@CORBA@@@Z
?_narrow@ImplicitActivationPolicy@PortableServer@@SAPEAV12@PEAVObject@CORBA@@@Z
?_narrow@LifespanPolicy@PortableServer@@SAPEAV12@PEAVObject@CORBA@@@Z
?_narrow@LocalObject@CORBA@@SAPEAV12@PEAVObject@2@@Z
?_narrow@LocalShortcutPolicy@omniPolicy@@SAPEAV12@PEAVObject@CORBA@@@Z
?_narrow@NamingContext@CosNaming@@SAPEAV_objref_NamingContext@2@PEAVObject@CORBA@@@Z
?_narrow@NamingContextExt@CosNaming@@SAPEAV_objref_NamingContextExt@2@PEAVObject@CORBA@@@Z
?_narrow@ORB@CORBA@@SAPEAV12@PEAVObject@2@@Z
?_narrow@POA@PortableServer@@SAPEAV12@PEAVObject@CORBA@@@Z
?_narrow@POAManager@PortableServer@@SAPEAV12@PEAVObject@CORBA@@@Z
?_narrow@PlainObjectKeysPolicy@omniPolicy@@SAPEAV12@PEAVObject@CORBA@@@Z
?_narrow@Policy@CORBA@@SAPEAV12@PEAVObject@2@@Z
?_narrow@RequestProcessingPolicy@PortableServer@@SAPEAV12@PEAVObject@CORBA@@@Z
?_narrow@ServantActivator@PortableServer@@SAPEAV12@PEAVObject@CORBA@@@Z
?_narrow@ServantLocator@PortableServer@@SAPEAV12@PEAVObject@CORBA@@@Z
?_narrow@ServantManager@PortableServer@@SAPEAV12@PEAVObject@CORBA@@@Z
?_narrow@ServantRetentionPolicy@PortableServer@@SAPEAV12@PEAVObject@CORBA@@@Z
?_narrow@ThreadPolicy@PortableServer@@SAPEAV12@PEAVObject@CORBA@@@Z
?_nil@AdapterActivator@PortableServer@@SAPEAV12@XZ
?_nil@AdapterActivator_Helper@PortableServer@@SAPEAVAdapterActivator@2@XZ
?_nil@BOA@CORBA@@SAPEAV12@XZ
?_nil@BidirectionalPolicy@BiDirPolicy@@SAPEAV12@XZ
?_nil@BindingIterator@CosNaming@@SAPEAV_objref_BindingIterator@2@XZ
?_nil@BindingIterator_Helper@CosNaming@@SAPEAV_objref_BindingIterator@2@XZ
?_nil@CORBA_InitialReferences@@SAPEAV_objref_CORBA_InitialReferences@@XZ
?_nil@CORBA_InitialReferences_Helper@@SAPEAV_objref_CORBA_InitialReferences@@XZ
?_nil@Current@CORBA@@SAPEAV12@XZ
?_nil@Current@PortableServer@@SAPEAV12@XZ
?_nil@EndPointPublishPolicy@omniPolicy@@SAPEAV12@XZ
?_nil@IdAssignmentPolicy@PortableServer@@SAPEAV12@XZ
?_nil@IdUniquenessPolicy@PortableServer@@SAPEAV12@XZ
?_nil@ImplicitActivationPolicy@PortableServer@@SAPEAV12@XZ
?_nil@LifespanPolicy@PortableServer@@SAPEAV12@XZ
?_nil@LocalObject@CORBA@@SAPEAV12@XZ
?_nil@LocalObject_Helper@CORBA@@SAPEAVLocalObject@2@XZ
?_nil@LocalShortcutPolicy@omniPolicy@@SAPEAV12@XZ
?_nil@NamingContext@CosNaming@@SAPEAV_objref_NamingContext@2@XZ
?_nil@NamingContextExt@CosNaming@@SAPEAV_objref_NamingContextExt@2@XZ
?_nil@NamingContextExt_Helper@CosNaming@@SAPEAV_objref_NamingContextExt@2@XZ
?_nil@NamingContext_Helper@CosNaming@@SAPEAV_objref_NamingContext@2@XZ
?_nil@ORB@CORBA@@SAPEAV12@XZ
?_nil@Object@CORBA@@SAPEAV12@XZ
?_nil@Object_Helper@CORBA@@SAPEAVObject@2@XZ
?_nil@POA@PortableServer@@SAPEAV12@XZ
?_nil@POAManager@PortableServer@@SAPEAV12@XZ
?_nil@POA_Helper@PortableServer@@SAPEAVPOA@2@XZ
?_nil@PlainObjectKeysPolicy@omniPolicy@@SAPEAV12@XZ
?_nil@Policy@CORBA@@SAPEAV12@XZ
?_nil@RequestProcessingPolicy@PortableServer@@SAPEAV12@XZ
?_nil@ServantActivator@PortableServer@@SAPEAV12@XZ
?_nil@ServantActivator_Helper@PortableServer@@SAPEAVServantActivator@2@XZ
?_nil@ServantLocator@PortableServer@@SAPEAV12@XZ
?_nil@ServantLocator_Helper@PortableServer@@SAPEAVServantLocator@2@XZ
?_nil@ServantManager@PortableServer@@SAPEAV12@XZ
?_nil@ServantManager_Helper@PortableServer@@SAPEAVServantManager@2@XZ
?_nil@ServantRetentionPolicy@PortableServer@@SAPEAV12@XZ
?_nil@ThreadPolicy@PortableServer@@SAPEAV12@XZ
?_noExistentCheck@omniObjRef@@QEAAXXZ
?_non_existent@LocalObject@CORBA@@$4PPPPPPPM@A@EAA_NXZ
?_non_existent@LocalObject@CORBA@@$R4BA@7PPPPPPPM@BI@EAA_NXZ
?_non_existent@LocalObject@CORBA@@$R4CA@7PPPPPPPM@BI@EAA_NXZ
?_non_existent@LocalObject@CORBA@@UEAA_NXZ
?_non_existent@Object@CORBA@@UEAA_NXZ
?_non_existent@omniOrbBOA@omni@@UEAA_NXZ
?_non_existent@omniOrbORB@@UEAA_NXZ
?_non_existent@omniOrbPOA@omni@@UEAA_NXZ
?_non_existent@omniServant@@UEAA_NXZ
?_obj_is_ready@omniOrbBoaServant@@QEAAXXZ
?_omni_CS_8859_1_should_be_linked_but_is_not_@@3HA
?_omni_CS_UTF_16_should_be_linked_but_is_not_@@3HA
?_omni_CS_UTF_8_should_be_linked_but_is_not_@@3HA
?_omni_callCommFailureExceptionHandler@@YA_NPEAVomniObjRef@@KAEBVCOMM_FAILURE@CORBA@@PEBD@Z
?_omni_callSystemExceptionHandler@@YA_NPEAVomniObjRef@@KAEBVSystemException@CORBA@@PEBD@Z
?_omni_callTimeoutExceptionHandler@@YA_NPEAVomniObjRef@@KAEBVTIMEOUT@CORBA@@PEBD@Z
?_omni_callTransientExceptionHandler@@YA_NPEAVomniObjRef@@KAEBVTRANSIENT@CORBA@@PEBD@Z
?_omni_set_NameService@@YAXPEAVObject@CORBA@@@Z
?_omni_tcpActive_should_be_linked_but_is_not_@@3HA
?_omni_tcpAddress_should_be_linked_but_is_not_@@3HA
?_omni_tcpConnection_should_be_linked_but_is_not_@@3HA
?_omni_tcpEndpoint_should_be_linked_but_is_not_@@3HA
?_omni_tcpTransportImpl_should_be_linked_but_is_not_@@3HA
?_ptrToClass@omniObjAdapter@omni@@UEAAPEAXPEAH@Z
?_ptrToClass@omniOrbBOA@omni@@UEAAPEAXPEAH@Z
?_ptrToClass@omniOrbPOA@omni@@UEAAPEAXPEAH@Z
?_ptrToInterface@_impl_AdapterActivator@PortableServer@@$0PPPPPPPM@A@EAAPEAXPEBD@Z
?_ptrToInterface@_impl_AdapterActivator@PortableServer@@$R0BA@7PPPPPPPM@BI@EAAPEAXPEBD@Z
?_ptrToInterface@_impl_AdapterActivator@PortableServer@@EEAAPEAXPEBD@Z
?_ptrToInterface@_impl_BindingIterator@CosNaming@@$0PPPPPPPM@A@EAAPEAXPEBD@Z
?_ptrToInterface@_impl_BindingIterator@CosNaming@@$R0BA@7PPPPPPPM@BI@EAAPEAXPEBD@Z
?_ptrToInterface@_impl_BindingIterator@CosNaming@@EEAAPEAXPEBD@Z
?_ptrToInterface@_impl_CORBA_InitialReferences@@$0PPPPPPPM@A@EAAPEAXPEBD@Z
?_ptrToInterface@_impl_CORBA_InitialReferences@@$R0BA@7PPPPPPPM@BI@EAAPEAXPEBD@Z
?_ptrToInterface@_impl_CORBA_InitialReferences@@EEAAPEAXPEBD@Z
?_ptrToInterface@_impl_NamingContext@CosNaming@@$0PPPPPPPM@A@EAAPEAXPEBD@Z
?_ptrToInterface@_impl_NamingContext@CosNaming@@$R0BA@7PPPPPPPM@BI@EAAPEAXPEBD@Z
?_ptrToInterface@_impl_NamingContext@CosNaming@@EEAAPEAXPEBD@Z
?_ptrToInterface@_impl_NamingContextExt@CosNaming@@$0PPPPPPPM@A@EAAPEAXPEBD@Z
?_ptrToInterface@_impl_NamingContextExt@CosNaming@@$R0BA@M@PPPPPPPM@BI@EAAPEAXPEBD@Z
?_ptrToInterface@_impl_NamingContextExt@CosNaming@@EEAAPEAXPEBD@Z
?_ptrToInterface@_impl_ServantActivator@PortableServer@@$0PPPPPPPM@A@EAAPEAXPEBD@Z
?_ptrToInterface@_impl_ServantActivator@PortableServer@@$R0BA@M@PPPPPPPM@BI@EAAPEAXPEBD@Z
?_ptrToInterface@_impl_ServantActivator@PortableServer@@EEAAPEAXPEBD@Z
?_ptrToInterface@_impl_ServantLocator@PortableServer@@$0PPPPPPPM@A@EAAPEAXPEBD@Z
?_ptrToInterface@_impl_ServantLocator@PortableServer@@$R0BA@M@PPPPPPPM@BI@EAAPEAXPEBD@Z
?_ptrToInterface@_impl_ServantLocator@PortableServer@@EEAAPEAXPEBD@Z
?_ptrToInterface@_impl_ServantManager@PortableServer@@$0PPPPPPPM@A@EAAPEAXPEBD@Z
?_ptrToInterface@_impl_ServantManager@PortableServer@@$R0BA@7PPPPPPPM@BA@EAAPEAXPEBD@Z
?_ptrToInterface@_impl_ServantManager@PortableServer@@EEAAPEAXPEBD@Z
?_ptrToInterface@omniServant@@UEAAPEAXPEBD@Z
?_ptrToObjRef@AdapterActivator@PortableServer@@$0PPPPPPPM@A@EAAPEAXPEBD@Z
?_ptrToObjRef@AdapterActivator@PortableServer@@EEAAPEAXPEBD@Z
?_ptrToObjRef@BidirectionalPolicy@BiDirPolicy@@$4PPPPPPPM@A@EAAPEAXPEBD@Z
?_ptrToObjRef@BidirectionalPolicy@BiDirPolicy@@UEAAPEAXPEBD@Z
?_ptrToObjRef@EndPointPublishPolicy@omniPolicy@@$4PPPPPPPM@A@EAAPEAXPEBD@Z
?_ptrToObjRef@EndPointPublishPolicy@omniPolicy@@UEAAPEAXPEBD@Z
?_ptrToObjRef@IdAssignmentPolicy@PortableServer@@$4PPPPPPPM@A@EAAPEAXPEBD@Z
?_ptrToObjRef@IdAssignmentPolicy@PortableServer@@UEAAPEAXPEBD@Z
?_ptrToObjRef@IdUniquenessPolicy@PortableServer@@$4PPPPPPPM@A@EAAPEAXPEBD@Z
?_ptrToObjRef@IdUniquenessPolicy@PortableServer@@UEAAPEAXPEBD@Z
?_ptrToObjRef@ImplicitActivationPolicy@PortableServer@@$4PPPPPPPM@A@EAAPEAXPEBD@Z
?_ptrToObjRef@ImplicitActivationPolicy@PortableServer@@UEAAPEAXPEBD@Z
?_ptrToObjRef@LifespanPolicy@PortableServer@@$4PPPPPPPM@A@EAAPEAXPEBD@Z
?_ptrToObjRef@LifespanPolicy@PortableServer@@UEAAPEAXPEBD@Z
?_ptrToObjRef@LocalObject@CORBA@@$4PPPPPPPM@A@EAAPEAXPEBD@Z
?_ptrToObjRef@LocalObject@CORBA@@UEAAPEAXPEBD@Z
?_ptrToObjRef@LocalShortcutPolicy@omniPolicy@@$4PPPPPPPM@A@EAAPEAXPEBD@Z
?_ptrToObjRef@LocalShortcutPolicy@omniPolicy@@UEAAPEAXPEBD@Z
?_ptrToObjRef@Object@CORBA@@UEAAPEAXPEBD@Z
?_ptrToObjRef@PlainObjectKeysPolicy@omniPolicy@@$4PPPPPPPM@A@EAAPEAXPEBD@Z
?_ptrToObjRef@PlainObjectKeysPolicy@omniPolicy@@UEAAPEAXPEBD@Z
?_ptrToObjRef@Policy@CORBA@@$4PPPPPPPM@A@EAAPEAXPEBD@Z
?_ptrToObjRef@Policy@CORBA@@UEAAPEAXPEBD@Z
?_ptrToObjRef@RequestProcessingPolicy@PortableServer@@$4PPPPPPPM@A@EAAPEAXPEBD@Z
?_ptrToObjRef@RequestProcessingPolicy@PortableServer@@UEAAPEAXPEBD@Z
?_ptrToObjRef@ServantActivator@PortableServer@@$0PPPPPPPM@A@EAAPEAXPEBD@Z
?_ptrToObjRef@ServantActivator@PortableServer@@EEAAPEAXPEBD@Z
?_ptrToObjRef@ServantLocator@PortableServer@@$0PPPPPPPM@A@EAAPEAXPEBD@Z
?_ptrToObjRef@ServantLocator@PortableServer@@EEAAPEAXPEBD@Z
?_ptrToObjRef@ServantManager@PortableServer@@$0PPPPPPPM@A@EAAPEAXPEBD@Z
?_ptrToObjRef@ServantManager@PortableServer@@EEAAPEAXPEBD@Z
?_ptrToObjRef@ServantRetentionPolicy@PortableServer@@$4PPPPPPPM@A@EAAPEAXPEBD@Z
?_ptrToObjRef@ServantRetentionPolicy@PortableServer@@UEAAPEAXPEBD@Z
?_ptrToObjRef@ThreadPolicy@PortableServer@@$4PPPPPPPM@A@EAAPEAXPEBD@Z
?_ptrToObjRef@ThreadPolicy@PortableServer@@UEAAPEAXPEBD@Z
?_ptrToObjRef@_objref_AdapterActivator@PortableServer@@$0PPPPPPPM@A@EAAPEAXPEBD@Z
?_ptrToObjRef@_objref_AdapterActivator@PortableServer@@$0PPPPPPPM@EI@EAAPEAXPEBD@Z
?_ptrToObjRef@_objref_AdapterActivator@PortableServer@@EEAAPEAXPEBD@Z
?_ptrToObjRef@_objref_BindingIterator@CosNaming@@$0PPPPPPPM@A@EAAPEAXPEBD@Z
?_ptrToObjRef@_objref_BindingIterator@CosNaming@@$0PPPPPPPM@CA@EAAPEAXPEBD@Z
?_ptrToObjRef@_objref_BindingIterator@CosNaming@@EEAAPEAXPEBD@Z
?_ptrToObjRef@_objref_CORBA_InitialReferences@@$0PPPPPPPM@A@EAAPEAXPEBD@Z
?_ptrToObjRef@_objref_CORBA_InitialReferences@@$0PPPPPPPM@CA@EAAPEAXPEBD@Z
?_ptrToObjRef@_objref_CORBA_InitialReferences@@EEAAPEAXPEBD@Z
?_ptrToObjRef@_objref_NamingContext@CosNaming@@$0PPPPPPPM@A@EAAPEAXPEBD@Z
?_ptrToObjRef@_objref_NamingContext@CosNaming@@$0PPPPPPPM@CA@EAAPEAXPEBD@Z
?_ptrToObjRef@_objref_NamingContext@CosNaming@@EEAAPEAXPEBD@Z
?_ptrToObjRef@_objref_NamingContextExt@CosNaming@@$0PPPPPPPM@A@EAAPEAXPEBD@Z
?_ptrToObjRef@_objref_NamingContextExt@CosNaming@@$0PPPPPPPM@CA@EAAPEAXPEBD@Z
?_ptrToObjRef@_objref_NamingContextExt@CosNaming@@EEAAPEAXPEBD@Z
?_ptrToObjRef@_objref_ServantActivator@PortableServer@@$0PPPPPPPM@A@EAAPEAXPEBD@Z
?_ptrToObjRef@_objref_ServantActivator@PortableServer@@$0PPPPPPPM@FA@EAAPEAXPEBD@Z
?_ptrToObjRef@_objref_ServantActivator@PortableServer@@EEAAPEAXPEBD@Z
?_ptrToObjRef@_objref_ServantLocator@PortableServer@@$0PPPPPPPM@A@EAAPEAXPEBD@Z
?_ptrToObjRef@_objref_ServantLocator@PortableServer@@$0PPPPPPPM@FA@EAAPEAXPEBD@Z
?_ptrToObjRef@_objref_ServantLocator@PortableServer@@EEAAPEAXPEBD@Z
?_ptrToObjRef@_objref_ServantManager@PortableServer@@$0PPPPPPPM@A@EAAPEAXPEBD@Z
?_ptrToObjRef@_objref_ServantManager@PortableServer@@$0PPPPPPPM@DI@EAAPEAXPEBD@Z
?_ptrToObjRef@_objref_ServantManager@PortableServer@@EEAAPEAXPEBD@Z
?_ptrToObjRef@omniAnonObjRef@omni@@$2PPPPPPPM@A@EAAPEAXPEBD@Z
?_ptrToObjRef@omniAnonObjRef@omni@@$2PPPPPPPM@FI@EAAPEAXPEBD@Z
?_ptrToObjRef@omniAnonObjRef@omni@@MEAAPEAXPEBD@Z
?_ptrToObjRef@omniOrbBOA@omni@@UEAAPEAXPEBD@Z
?_ptrToObjRef@omniOrbORB@@UEAAPEAXPEBD@Z
?_ptrToObjRef@omniOrbPOA@omni@@UEAAPEAXPEBD@Z
?_ptrToObjRef@omniOrbPOACurrent@omni@@UEAAPEAXPEBD@Z
?_ptrToObjRef@omniOrbPOAManager@omni@@UEAAPEAXPEBD@Z
?_raise@AdapterAlreadyExists@POA@PortableServer@@UEBAXXZ
?_raise@AdapterInactive@POA@PortableServer@@UEBAXXZ
?_raise@AdapterInactive@POAManager@PortableServer@@UEBAXXZ
?_raise@AdapterNonExistent@POA@PortableServer@@UEBAXXZ
?_raise@AlreadyBound@NamingContext@CosNaming@@UEBAXXZ
?_raise@BAD_CONTEXT@CORBA@@UEBAXXZ
?_raise@BAD_INV_ORDER@CORBA@@UEBAXXZ
?_raise@BAD_OPERATION@CORBA@@UEBAXXZ
?_raise@BAD_PARAM@CORBA@@UEBAXXZ
?_raise@BAD_QOS@CORBA@@UEBAXXZ
?_raise@BAD_TYPECODE@CORBA@@UEBAXXZ
?_raise@CODESET_INCOMPATIBLE@CORBA@@UEBAXXZ
?_raise@COMM_FAILURE@CORBA@@UEBAXXZ
?_raise@CannotProceed@NamingContext@CosNaming@@UEBAXXZ
?_raise@CommFailure@giopStream@omni@@SAXKW4CompletionStatus@CORBA@@_NPEBDK22@Z
?_raise@CommFailure@giopStream@omni@@SAXKW4CompletionStatus@CORBA@@_NPEBDK2PEAVgiopStrand@3@@Z
?_raise@DATA_CONVERSION@CORBA@@UEBAXXZ
?_raise@FREE_MEM@CORBA@@UEBAXXZ
?_raise@ForwardRequest@PortableServer@@UEBAXXZ
?_raise@IMP_LIMIT@CORBA@@UEBAXXZ
?_raise@INITIALIZE@CORBA@@UEBAXXZ
?_raise@INTERNAL@CORBA@@UEBAXXZ
?_raise@INTF_REPOS@CORBA@@UEBAXXZ
?_raise@INVALID_TRANSACTION@CORBA@@UEBAXXZ
?_raise@INV_FLAG@CORBA@@UEBAXXZ
?_raise@INV_IDENT@CORBA@@UEBAXXZ
?_raise@INV_OBJREF@CORBA@@UEBAXXZ
?_raise@INV_POLICY@CORBA@@UEBAXXZ
?_raise@InvalidAddress@NamingContextExt@CosNaming@@UEBAXXZ
?_raise@InvalidName@NamingContext@CosNaming@@UEBAXXZ
?_raise@InvalidName@ORB@CORBA@@UEBAXXZ
?_raise@InvalidPolicy@POA@PortableServer@@UEBAXXZ
?_raise@MARSHAL@CORBA@@UEBAXXZ
?_raise@NO_IMPLEMENT@CORBA@@UEBAXXZ
?_raise@NO_MEMORY@CORBA@@UEBAXXZ
?_raise@NO_PERMISSION@CORBA@@UEBAXXZ
?_raise@NO_RESOURCES@CORBA@@UEBAXXZ
?_raise@NO_RESPONSE@CORBA@@UEBAXXZ
?_raise@NoContext@Current@PortableServer@@UEBAXXZ
?_raise@NoServant@POA@PortableServer@@UEBAXXZ
?_raise@NotEmpty@NamingContext@CosNaming@@UEBAXXZ
?_raise@NotFound@NamingContext@CosNaming@@UEBAXXZ
?_raise@OBJECT_NOT_EXIST@CORBA@@UEBAXXZ
?_raise@OBJ_ADAPTER@CORBA@@UEBAXXZ
?_raise@ObjectAlreadyActive@POA@PortableServer@@UEBAXXZ
?_raise@ObjectNotActive@POA@PortableServer@@UEBAXXZ
?_raise@PERSIST_STORE@CORBA@@UEBAXXZ
?_raise@PolicyError@CORBA@@UEBAXXZ
?_raise@REBIND@CORBA@@UEBAXXZ
?_raise@ServantAlreadyActive@POA@PortableServer@@UEBAXXZ
?_raise@ServantNotActive@POA@PortableServer@@UEBAXXZ
?_raise@TIMEOUT@CORBA@@UEBAXXZ
?_raise@TRANSACTION_MODE@CORBA@@UEBAXXZ
?_raise@TRANSACTION_REQUIRED@CORBA@@UEBAXXZ
?_raise@TRANSACTION_ROLLEDBACK@CORBA@@UEBAXXZ
?_raise@TRANSACTION_UNAVAILABLE@CORBA@@UEBAXXZ
?_raise@TRANSIENT@CORBA@@UEBAXXZ
?_raise@UNKNOWN@CORBA@@UEBAXXZ
?_raise@WrongAdapter@POA@PortableServer@@UEBAXXZ
?_raise@WrongPolicy@POA@PortableServer@@UEBAXXZ
?_realNarrow@omniObjRef@@QEAAPEAXPEBD@Z
?_real_is_a@omniObjRef@@QEAA_NPEBD@Z
?_refcount_value@ServantBase@PortableServer@@UEAAKXZ
?_remote_is_a@omniObjRef@@QEAA_NPEBD@Z
?_remote_non_existent@omniObjRef@@QEAA_NXZ
?_removeActivation@omniServant@@QEAAXPEAVomniObjTableEntry@@@Z
?_remove_ref@LocalObject@CORBA@@UEAAXXZ
?_remove_ref@ServantBase@PortableServer@@$4PPPPPPPM@A@EAAXXZ
?_remove_ref@ServantBase@PortableServer@@$R4BA@BA@PPPPPPPM@CA@EAAXXZ
?_remove_ref@ServantBase@PortableServer@@$R4BA@M@PPPPPPPM@CA@EAAXXZ
?_remove_ref@ServantBase@PortableServer@@UEAAXXZ
?_remove_ref@omniServant@@UEAAXXZ
?_rep_id@Exception@CORBA@@UEBAPEBDXZ
?_retn@?$_CORBA_ConstrType_Variable_Var@UBinding@CosNaming@@@@QEAAPEAUBinding@CosNaming@@XZ
?_retn@?$_CORBA_ObjRef_Var@V_objref_BindingIterator@CosNaming@@VBindingIterator_Helper@2@@@QEAAPEAV_objref_BindingIterator@CosNaming@@XZ
?_retn@?$_CORBA_ObjRef_Var@V_objref_NamingContext@CosNaming@@VNamingContext_Helper@2@@@QEAAPEAV_objref_NamingContext@CosNaming@@XZ
?_retn@BindingList_var@CosNaming@@QEAAPEAVBindingList@2@XZ
?_retn@Name_var@CosNaming@@QEAAPEAVName@2@XZ
?_retn@ObjIdList_var@CORBA_InitialReferences@@QEAAPEAVObjIdList@2@XZ
?_retn@Object_var@CORBA@@QEAAPEAVObject@2@XZ
?_retn@StringSeq_var@CORBA@@QEAAPEAVStringSeq@2@XZ
?_retn@TaggedProfileList_var@IOP@@QEAAPEAV?$_CORBA_Unbounded_Sequence@UTaggedProfile@IOP@@@@XZ
?_retn@_CORBA_String_var@@QEAAPEADXZ
?_retn@omniIOR_var@@QEAAPEAVomniIOR@@XZ
?_setIdentity@omniObjRef@@QEAAXPEAVomniIdentity@@@Z
?_setTimeout@omniObjRef@@QEAAXKK@Z
?_shutdown@omniObjRef@@SAXXZ
?_systemExceptionHandler@omniObjRef@@QEAAPEAXAEAPEAXAEA_N@Z
?_systemExceptionHandler@omniObjRef@@QEAAXPEAX0_N@Z
?_the_root_poa@POA@PortableServer@@SAPEAV12@XZ
?_this@omniOrbBoaServant@@QEAAPEAXPEBD@Z
?_timeoutExceptionHandler@omniObjRef@@QEAAPEAXAEAPEAXAEA_N@Z
?_timeoutExceptionHandler@omniObjRef@@QEAAXPEAX0_N@Z
?_toString@omniObjRef@@SAPEADPEAV1@@Z
?_transientExceptionHandler@omniObjRef@@QEAAPEAXAEAPEAXAEA_N@Z
?_transientExceptionHandler@omniObjRef@@QEAAXPEAX0_N@Z
?_unMarshal@omniObjRef@@SAPEAV1@PEBDAEAVcdrStream@@@Z
?_uncheckedNarrow@omniObjRef@@QEAAPEAXPEBD@Z
?_unchecked_narrow@AdapterActivator@PortableServer@@SAPEAV12@PEAVObject@CORBA@@@Z
?_unchecked_narrow@BindingIterator@CosNaming@@SAPEAV_objref_BindingIterator@2@PEAVObject@CORBA@@@Z
?_unchecked_narrow@CORBA_InitialReferences@@SAPEAV_objref_CORBA_InitialReferences@@PEAVObject@CORBA@@@Z
?_unchecked_narrow@LocalObject@CORBA@@SAPEAV12@PEAVObject@2@@Z
?_unchecked_narrow@NamingContext@CosNaming@@SAPEAV_objref_NamingContext@2@PEAVObject@CORBA@@@Z
?_unchecked_narrow@NamingContextExt@CosNaming@@SAPEAV_objref_NamingContextExt@2@PEAVObject@CORBA@@@Z
?_unchecked_narrow@ServantActivator@PortableServer@@SAPEAV12@PEAVObject@CORBA@@@Z
?_unchecked_narrow@ServantLocator@PortableServer@@SAPEAV12@PEAVObject@CORBA@@@Z
?_unchecked_narrow@ServantManager@PortableServer@@SAPEAV12@PEAVObject@CORBA@@@Z
?_unmarshalObjRef@AdapterActivator@PortableServer@@SAPEAV12@AEAVcdrStream@@@Z
?_unmarshalObjRef@BindingIterator@CosNaming@@SAPEAV_objref_BindingIterator@2@AEAVcdrStream@@@Z
?_unmarshalObjRef@CORBA_InitialReferences@@SAPEAV_objref_CORBA_InitialReferences@@AEAVcdrStream@@@Z
?_unmarshalObjRef@LocalObject@CORBA@@SAPEAV12@AEAVcdrStream@@@Z
?_unmarshalObjRef@NamingContext@CosNaming@@SAPEAV_objref_NamingContext@2@AEAVcdrStream@@@Z
?_unmarshalObjRef@NamingContextExt@CosNaming@@SAPEAV_objref_NamingContextExt@2@AEAVcdrStream@@@Z
?_unmarshalObjRef@Object@CORBA@@SAPEAV12@AEAVcdrStream@@@Z
?_unmarshalObjRef@ServantActivator@PortableServer@@SAPEAV12@AEAVcdrStream@@@Z
?_unmarshalObjRef@ServantLocator@PortableServer@@SAPEAV12@AEAVcdrStream@@@Z
?_unmarshalObjRef@ServantManager@PortableServer@@SAPEAV12@AEAVcdrStream@@@Z
?_user_exns@_0RL_cd_69ceca6a39f685b5_00000000@@2QBQEBDB
?_user_exns@_0RL_cd_69ceca6a39f685b5_01000000@@2QBQEBDB
?_user_exns@_0RL_cd_69ceca6a39f685b5_02000000@@2QBQEBDB
?_user_exns@_0RL_cd_69ceca6a39f685b5_20000000@@2QBQEBDB
?_user_exns@_0RL_cd_69ceca6a39f685b5_21000000@@2QBQEBDB
?_user_exns@_0RL_cd_69ceca6a39f685b5_40000000@@2QBQEBDB
?_user_exns@_0RL_cd_69ceca6a39f685b5_41000000@@2QBQEBDB
?_user_exns@_0RL_cd_69ceca6a39f685b5_60000000@@2QBQEBDB
?_user_exns@_0RL_cd_69ceca6a39f685b5_61000000@@2QBQEBDB
?_user_exns@_0RL_cd_69ceca6a39f685b5_80000000@@2QBQEBDB
?_user_exns@_0RL_cd_69ceca6a39f685b5_81000000@@2QBQEBDB
?_user_exns@_0RL_cd_69ceca6a39f685b5_a0000000@@2QBQEBDB
?_user_exns@_0RL_cd_69ceca6a39f685b5_a1000000@@2QBQEBDB
?_user_exns@_0RL_cd_69ceca6a39f685b5_c0000000@@2QBQEBDB
?_user_exns@_0RL_cd_69ceca6a39f685b5_c1000000@@2QBQEBDB
?_user_exns@_0RL_cd_69ceca6a39f685b5_e0000000@@2QBQEBDB
?_user_exns@_0RL_cd_69ceca6a39f685b5_e1000000@@2QBQEBDB
?_user_exns@_0RL_cd_96f078e2247ab9da_00000000@@2QBQEBDB
?_user_exns@_0RL_cd_96f078e2247ab9da_20000000@@2QBQEBDB
?abortOnInternalError@orbParameters@omni@@3_NA
?acceptBiDirectional@omniOrbPOA@omni@@QEBA_NXZ
?acceptBiDirectionalGIOP@orbParameters@omni@@3_NA
?acceptMisalignedTcIndirections@orbParameters@omni@@3_NA
?acquireClient@BiDirClientRope@omni@@UEAAPEAVIOP_C@2@PEBVomniIOR@@PEBEKPEAVomniCallDescriptor@@@Z
?acquireClient@BiDirServerRope@omni@@UEAAPEAVIOP_C@2@PEBVomniIOR@@PEBEKPEAVomniCallDescriptor@@@Z
?acquireClient@giopRope@omni@@UEAAPEAVIOP_C@2@PEBVomniIOR@@PEBEKPEAVomniCallDescriptor@@@Z
?acquireServer@giopStrand@omni@@QEAAPEAVGIOP_S@2@PEAVgiopWorker@2@@Z
?activate@giopServer@omni@@AEAAXXZ
?activate@omniOrbPOAManager@omni@@UEAAXXZ
?activate_object@omniOrbPOA@omni@@UEAAPEAVObjectId@PortableServer@@PEAVServantBase@4@@Z
?activate_object_with_id@omniOrbPOA@omni@@UEAAXAEBVObjectId@PortableServer@@PEAVServantBase@4@@Z
?active@giopStrand@omni@@2VStrandList@2@A
?activeObjList@omniOrbBOA@omni@@QEAAPEAPEAVomniObjTableEntry@@XZ
?active_timedout@giopStrand@omni@@2VStrandList@2@A
?actual_shutdown@omniOrbORB@@QEAAXXZ
?adapter@omniLocalIdentity@@QEBAPEAVomniObjAdapter@omni@@XZ
?adapterActive@omniObjAdapter@omni@@QEAAXXZ
?adapterDestroyed@omniObjAdapter@omni@@IEAAXXZ
?adapterInactive@omniObjAdapter@omni@@QEAAXXZ
?adapter_name_is_valid@omniOrbPOA@omni@@AEAAHPEBD@Z
?add@assignAMIThread_T@omniInterceptors@omni@@QEAAXP6AXAEAVinfo_T@123@@Z@Z
?add@assignUpcallThread_T@omniInterceptors@omni@@QEAAXP6AXAEAVinfo_T@123@@Z@Z
?add@clientOpenConnection_T@omniInterceptors@omni@@QEAAXP6A_NAEAVinfo_T@123@@Z@Z
?add@clientReceiveReply_T@omniInterceptors@omni@@QEAAXP6A_NAEAVinfo_T@123@@Z@Z
?add@clientSendRequest_T@omniInterceptors@omni@@QEAAXP6A_NAEAVinfo_T@123@@Z@Z
?add@createIdentity_T@omniInterceptors@omni@@QEAAXP6A_NAEAVinfo_T@123@@Z@Z
?add@createORBServer_T@omniInterceptors@omni@@QEAAXP6A_NAEAVinfo_T@123@@Z@Z
?add@createPolicy_T@omniInterceptors@omni@@QEAAXP6A_NAEAVinfo_T@123@@Z@Z
?add@createRope_T@omniInterceptors@omni@@QEAAXP6A_NAEAVinfo_T@123@@Z@Z
?add@createThread_T@omniInterceptors@omni@@QEAAXP6AXAEAVinfo_T@123@@Z@Z
?add@decodeIOR_T@omniInterceptors@omni@@QEAAXP6A_NAEAVinfo_T@123@@Z@Z
?add@encodeIOR_T@omniInterceptors@omni@@QEAAXP6A_NAEAVinfo_T@123@@Z@Z
?add@invokeLocalCall_T@omniInterceptors@omni@@QEAAXP6AXPEAVomniCallDescriptor@@PEAVomniServant@@@Z@Z
?add@serverAcceptConnection_T@omniInterceptors@omni@@QEAAXP6A_NAEAVinfo_T@123@@Z@Z
?add@serverReceiveRequest_T@omniInterceptors@omni@@QEAAXP6A_NAEAVinfo_T@123@@Z@Z
?add@serverSendException_T@omniInterceptors@omni@@QEAAXP6A_NAEAVinfo_T@123@@Z@Z
?add@serverSendReply_T@omniInterceptors@omni@@QEAAXP6A_NAEAVinfo_T@123@@Z@Z
?addBiDirStrand@giopServer@omni@@QEAA_NPEAVgiopStrand@2@PEAVgiopActiveCollection@2@@Z
?addIdle@omniAsyncWorker@@QEAAXXZ
?addInterceptor@omniCallDescriptor@@SAXP6AXPEAV1@PEAVomniServant@@@Z@Z
?addKVBoolean@orbOptions@omni@@SAXPEBD_NAEAVStringSeq@CORBA@@@Z
?addKVLong@orbOptions@omni@@SAXPEBDJAEAVStringSeq@CORBA@@@Z
?addKVSizeT@orbOptions@omni@@SAXPEBD_KAEAVStringSeq@CORBA@@@Z
?addKVString@orbOptions@omni@@SAXPEBD0AEAVStringSeq@CORBA@@@Z
?addKVULong@orbOptions@omni@@SAXPEBDKAEAVStringSeq@CORBA@@@Z
?addMonitor@tcpActiveCollection@omni@@IEAAX_K@Z
?addOption@orbOptions@omni@@QEAAXPEBD0W4Source@12@@Z
?addOptions@orbOptions@omni@@QEAAXQEAY01PEBD@Z
?addRope@BiDirServerRope@omni@@SAPEAV12@PEAVgiopStrand@2@AEBV?$omnivector@PEAVgiopAddress@omni@@@@@Z
?addRule@transportRules@omni@@QEAAXPEAVRule@12@AEBVStringSeq@CORBA@@@Z
?addRuleType@transportRules@omni@@SAXPEAVRuleType@12@@Z
?addSocket@SocketCollection@omni@@QEAAXPEAVSocketHolder@2@@Z
?addToIOR@giopEndpoint@omni@@SA_NPEBDPEAVIORPublish@2@@Z
?addToIOR@tcpTransportImpl@omni@@UEAA_NPEBDPEAVIORPublish@2@@Z
?add_IIOP_ADDRESS@omniIOR@@SAXAEBUAddress@IIOP@@PEAVIORPublish@omni@@@Z
?add_TAG_ALTERNATE_IIOP_ADDRESS@omniIOR@@SAXAEBUAddress@IIOP@@PEAVIORPublish@omni@@@Z
?add_TAG_CODE_SETS@omniIOR@@SAXAEBUCodeSetComponentInfo@CONV_FRAME@omni@@@Z
?add_TAG_OMNIORB_BIDIR@omniIOR@@SAXPEBDAEAV1@@Z
?add_TAG_OMNIORB_HTTP_TRANS@omniIOR@@SAXPEBDPEAVIORPublish@omni@@@Z
?add_TAG_OMNIORB_UNIX_TRANS@omniIOR@@SAXPEBDPEAVIORPublish@omni@@@Z
?add_TAG_SSL_SEC_TRANS@omniIOR@@SAXAEBUAddress@IIOP@@GGPEAVIORPublish@omni@@@Z
?add_object_to_etherealisation_queue@omniOrbPOA@omni@@AEAAXPEAVomniObjTableEntry@@PEAVServantActivator@PortableServer@@HH@Z
?addr@FullAddrInfo@omni@@UEAAPEAUsockaddr@@XZ
?addrAndNameToURI@omniURI@omni@@SAPEADPEBD0@Z
?addrFamily@FullAddrInfo@omni@@UEAAHXZ
?addrOfNextInObjectTable@omniObjTableEntry@@QEAAPEAPEAV1@XZ
?addrSize@FullAddrInfo@omni@@UEAAHXZ
?addrToPort@tcpSocket@omni@@SAGPEAUsockaddr@@@Z
?addrToString@tcpSocket@omni@@SAPEADPEAUsockaddr@@@Z
?addrToURI@tcpSocket@omni@@SAPEADPEAUsockaddr@@PEBD@Z
?addr_mode@omniIOR@@QEAAXF@Z
?addr_mode@omniIOR@@QEBAFXZ
?addr_selected_profile_index@omniIOR@@QEAAXJ@Z
?addr_selected_profile_index@omniIOR@@QEBAJXZ
?address@tcpAddress@omni@@UEBAPEBDXZ
?address@tcpEndpoint@omni@@UEBAPEBDXZ
?addressMask@Rule@transportRules@omni@@QEAAPEBDXZ
?addresses@IORInfo@omniIOR@@QEAAAEAV?$omnivector@PEAVgiopAddress@omni@@@@XZ
?addresses@tcpEndpoint@omni@@UEBAPEBV_CORBA_Unbounded_Sequence_String@@XZ
?alignInput@cdrStream@@QEAAXW4alignment_t@omni@@@Z
?alignOutput@cdrStream@@QEAAXW4alignment_t@omni@@@Z
?alignStart@giopStream_Buffer@omni@@QEAAXW4alignment_t@2@@Z
?align_to@omni@@YA_K_KW4alignment_t@1@@Z
?all_destroyed@omniOrbORB@@SA_NXZ
?alloc@_CORBA_String_helper@@SAPEADH@Z
?alloc@_CORBA_WString_helper@@SAPEA_WH@Z
?allocC@omniCodeSetUtil@omni@@SAPEADK@Z
?allocU@omniCodeSetUtil@omni@@SAPEA_WK@Z
?allocW@omniCodeSetUtil@omni@@SAPEA_WK@Z
?allocate@?$omnivector@K@@AEAAPEAK_K@Z
?allocate@?$omnivector@PEAUEndpointURI@Options@omniObjAdapter@omni@@@@AEAAPEAPEAUEndpointURI@Options@omniObjAdapter@omni@@_K@Z
?allocate@?$omnivector@PEAUHandlerValuePair@orbOptions@omni@@@@AEAAPEAPEAUHandlerValuePair@orbOptions@omni@@_K@Z
?allocate@?$omnivector@PEAURuleActionPair@transportRules@omni@@@@AEAAPEAPEAURuleActionPair@transportRules@omni@@_K@Z
?allocate@?$omnivector@PEAVHandler@orbOptions@omni@@@@AEAAPEAPEAVHandler@orbOptions@omni@@_K@Z
?allocate@?$omnivector@PEAVObject@CORBA@@@@AEAAPEAPEAVObject@CORBA@@_K@Z
?allocate@?$omnivector@PEAVRuleType@transportRules@omni@@@@AEAAPEAPEAVRuleType@transportRules@omni@@_K@Z
?allocate@?$omnivector@PEAVSocketHolder@omni@@@@AEAAPEAPEAVSocketHolder@omni@@_K@Z
?allocate@?$omnivector@PEAVURIHandler@omniURI@omni@@@@AEAAPEAPEAVURIHandler@omniURI@omni@@_K@Z
?allocate@?$omnivector@PEAVgiopActiveCollection@omni@@@@AEAAPEAPEAVgiopActiveCollection@omni@@_K@Z
?allocate@?$omnivector@PEAVgiopAddress@omni@@@@AEAAPEAPEAVgiopAddress@omni@@_K@Z
?allocate@?$omnivector@PEAVgiopEndpoint@omni@@@@AEAAPEAPEAVgiopEndpoint@omni@@_K@Z
?allocate@?$omnivector@PEAVgiopStrand@omni@@@@AEAAPEAPEAVgiopStrand@omni@@_K@Z
?allocate@?$omnivector@PEAVomniInitialiser@omni@@@@AEAAPEAPEAVomniInitialiser@omni@@_K@Z
?allocate@?$omnivector@PEAVomniObjRef@@@@AEAAPEAPEAVomniObjRef@@_K@Z
?allocate@?$omnivector@PEAVomniObjTableEntry@@@@AEAAPEAPEAVomniObjTableEntry@@_K@Z
?allocate@?$omnivector@PEAVomniTrackedObject@omni@@@@AEAAPEAPEAVomniTrackedObject@omni@@_K@Z
?allocate@?$omnivector@PEAVorbServer@omni@@@@AEAAPEAPEAVorbServer@omni@@_K@Z
?allocate@?$omnivector@PEBD@@AEAAPEAPEBD_K@Z
?allocate@?$omnivector@UresolvePseudoEntry@omni@@@@AEAAPEAUresolvePseudoEntry@omni@@_K@Z
?allocbuf@?$_CORBA_PseudoValue_Sequence@PEAVIORExtraInfo@omniIOR@@@@SAPEAPEAVIORExtraInfo@omniIOR@@K@Z
?allocbuf@?$_CORBA_PseudoValue_Sequence@PEAVomniOrbPOA@omni@@@@SAPEAPEAVomniOrbPOA@omni@@K@Z
?allocbuf@?$_CORBA_PseudoValue_Sequence@UserviceRecord@omni@@@@SAPEAUserviceRecord@omni@@K@Z
?allocbuf@?$_CORBA_Sequence@E@@SAPEAEK@Z
?allocbuf@?$_CORBA_Sequence@K@@SAPEAKK@Z
?allocbuf@?$_CORBA_Sequence@UAddress@IIOP@@@@SAPEAUAddress@IIOP@@K@Z
?allocbuf@?$_CORBA_Sequence@UBinding@CosNaming@@@@SAPEAUBinding@CosNaming@@K@Z
?allocbuf@?$_CORBA_Sequence@UNameComponent@CosNaming@@@@SAPEAUNameComponent@CosNaming@@K@Z
?allocbuf@?$_CORBA_Sequence@UServiceContext@IOP@@@@SAPEAUServiceContext@IOP@@K@Z
?allocbuf@?$_CORBA_Sequence@UTaggedComponent@IOP@@@@SAPEAUTaggedComponent@IOP@@K@Z
?allocbuf@?$_CORBA_Sequence@UTaggedProfile@IOP@@@@SAPEAUTaggedProfile@IOP@@K@Z
?allocbuf@?$_CORBA_Sequence@V_CORBA_Unbounded_Sequence_Octet@@@@SAPEAV_CORBA_Unbounded_Sequence_Octet@@K@Z
?allocbuf@?$_CORBA_Sequence_ObjRef@VPOA@PortableServer@@V?$_CORBA_ObjRef_Element@VPOA@PortableServer@@VPOA_Helper@2@@@VPOA_Helper@2@@@SAPEAPEAVPOA@PortableServer@@K@Z
?allocbuf@_CORBA_Sequence_String@@SAPEAPEADK@Z
?allocbuf@_CORBA_Sequence_WString@@SAPEAPEA_WK@Z
?anyCharCodeSet@orbParameters@omni@@3PEAVTCS_C@omniCodeSet@2@EA
?anyWCharCodeSet@orbParameters@omni@@3PEAVTCS_W@omniCodeSet@2@EA
?append@ObjAddrList@corbalocURIHandler@omni@@QEAAXPEAVObjAddr@23@@Z
?argvHasNoValue@Handler@orbOptions@omni@@QEBA_NXZ
?argvYes@Handler@orbOptions@omni@@QEBA_NXZ
?asString@FullAddrInfo@omni@@UEAAPEADXZ
?assertFail@omni@@YAXPEBDH0@Z
?assign@omniAsyncWorker@@QEAAXPEAVomniAsyncPool@@@Z
?assign@omni_time_t@@QEAAXKK@Z
?assignAMIThread@omniInterceptorP@omni@@2PEAUelmT@12@EA
?assignUpcallThread@omniInterceptorP@omni@@2PEAUelmT@12@EA
?attach@omni_ObjRef_initialiser@omni@@UEAAXXZ
?attach@omni_cdrStream_initialiser@omni@@UEAAXXZ
?attach@omni_codeSet_initialiser@omni@@UEAAXXZ
?attach@omni_corbaOrb_initialiser@omni@@UEAAXXZ
?attach@omni_dynamiclib_initialiser@omni@@UEAAXXZ
?attach@omni_giopEndpoint_initialiser@omni@@UEAAXXZ
?attach@omni_giopImpl10_initialiser@omni@@UEAAXXZ
?attach@omni_giopImpl11_initialiser@omni@@UEAAXXZ
?attach@omni_giopImpl12_initialiser@omni@@UEAAXXZ
?attach@omni_giopRope_initialiser@omni@@UEAAXXZ
?attach@omni_giopStrand_initialiser@omni@@UEAAXXZ
?attach@omni_giopStreamImpl_initialiser@omni@@UEAAXXZ
?attach@omni_giopbidir_initialiser@omni@@UEAAXXZ
?attach@omni_giopserver_initialiser@omni@@UEAAXXZ
?attach@omni_hooked_initialiser@omni@@UEAAXXZ
?attach@omni_initRefs_initialiser@omni@@UEAAXXZ
?attach@omni_interceptor_initialiser@omni@@UEAAXXZ
?attach@omni_invoker_initialiser@omni@@UEAAXXZ
?attach@omni_ior_initialiser@omni@@UEAAXXZ
?attach@omni_objadpt_initialiser@omni@@UEAAXXZ
?attach@omni_omniCurrent_initialiser@omni@@UEAAXXZ
?attach@omni_omniIOR_initialiser@omni@@UEAAXXZ
?attach@omni_omniInternal_initialiser@omni@@UEAAXXZ
?attach@omni_omniTransport_initialiser@omni@@UEAAXXZ
?attach@omni_orbOptions_initialiser@omni@@UEAAXXZ
?attach@omni_poa_initialiser@omni@@UEAAXXZ
?attach@omni_transportRules_initialiser@omni@@UEAAXXZ
?attach@omni_uri_initialiser@omni@@UEAAXXZ
?attempt_to_activate_adapter@omniOrbPOA@omni@@AEAAPEAV12@PEBD@Z
?bInitialized@?1??WspiapiLoad@@9@4HA
?back@?$omnivector@PEAVgiopAddress@omni@@@@QEAAAEAPEAVgiopAddress@omni@@XZ
?begin@?$omnivector@PEAUEndpointURI@Options@omniObjAdapter@omni@@@@QEAAPEAPEAUEndpointURI@Options@omniObjAdapter@omni@@XZ
?begin@?$omnivector@PEAUHandlerValuePair@orbOptions@omni@@@@QEAAPEAPEAUHandlerValuePair@orbOptions@omni@@XZ
?begin@?$omnivector@PEAUHandlerValuePair@orbOptions@omni@@@@QEBAPEBQEAUHandlerValuePair@orbOptions@omni@@XZ
?begin@?$omnivector@PEAURuleActionPair@transportRules@omni@@@@QEAAPEAPEAURuleActionPair@transportRules@omni@@XZ
?begin@?$omnivector@PEAVHandler@orbOptions@omni@@@@QEAAPEAPEAVHandler@orbOptions@omni@@XZ
?begin@?$omnivector@PEAVHandler@orbOptions@omni@@@@QEBAPEBQEAVHandler@orbOptions@omni@@XZ
?begin@?$omnivector@PEAVObject@CORBA@@@@QEAAPEAPEAVObject@CORBA@@XZ
?begin@?$omnivector@PEAVRuleType@transportRules@omni@@@@QEAAPEAPEAVRuleType@transportRules@omni@@XZ
?begin@?$omnivector@PEAVSocketHolder@omni@@@@QEAAPEAPEAVSocketHolder@omni@@XZ
?begin@?$omnivector@PEAVURIHandler@omniURI@omni@@@@QEAAPEAPEAVURIHandler@omniURI@omni@@XZ
?begin@?$omnivector@PEAVgiopActiveCollection@omni@@@@QEAAPEAPEAVgiopActiveCollection@omni@@XZ
?begin@?$omnivector@PEAVgiopAddress@omni@@@@QEAAPEAPEAVgiopAddress@omni@@XZ
?begin@?$omnivector@PEAVgiopAddress@omni@@@@QEBAPEBQEAVgiopAddress@omni@@XZ
?begin@?$omnivector@PEAVgiopEndpoint@omni@@@@QEAAPEAPEAVgiopEndpoint@omni@@XZ
?begin@?$omnivector@PEAVgiopStrand@omni@@@@QEAAPEAPEAVgiopStrand@omni@@XZ
?begin@?$omnivector@PEAVomniInitialiser@omni@@@@QEAAPEAPEAVomniInitialiser@omni@@XZ
?begin@?$omnivector@PEAVomniObjRef@@@@QEAAPEAPEAVomniObjRef@@XZ
?begin@?$omnivector@PEAVomniObjTableEntry@@@@QEAAPEAPEAVomniObjTableEntry@@XZ
?begin@?$omnivector@PEAVomniObjTableEntry@@@@QEBAPEBQEAVomniObjTableEntry@@XZ
?begin@?$omnivector@PEAVomniTrackedObject@omni@@@@QEAAPEAPEAVomniTrackedObject@omni@@XZ
?begin@?$omnivector@PEAVorbServer@omni@@@@QEAAPEAPEAVorbServer@omni@@XZ
?begin@?$omnivector@PEBD@@QEAAPEAPEBDXZ
?begin@?$omnivector@PEBD@@QEBAPEBQEBDXZ
?begin@?$omnivector@UresolvePseudoEntry@omni@@@@QEAAPEAUresolvePseudoEntry@omni@@XZ
?bind@_objref_NamingContext@CosNaming@@QEAAXAEBVName@2@PEAVObject@CORBA@@@Z
?bind_context@_objref_NamingContext@CosNaming@@QEAAXAEBVName@2@PEAV12@@Z
?bind_new_context@_objref_NamingContext@CosNaming@@QEAAPEAV12@AEBVName@2@@Z
?bootstrapAgentHostname@orbParameters@omni@@3V_CORBA_String_var@@A
?bootstrapAgentPort@orbParameters@omni@@3GA
?buf@BufferCompressor@omni@@QEAAPEAUgiopStream_Buffer@2@XZ
?bufEnd@giopStream_Buffer@omni@@QEBA_KXZ
?bufLast@giopStream_Buffer@omni@@QEBA_KXZ
?bufPtr@cdrMemoryStream@@QEBAPEAXXZ
?bufSize@cdrMemoryStream@@QEBAKXZ
?bufStart@giopStream_Buffer@omni@@QEBA_KXZ
?buff@?1??gai_strerrorA@@9@4PADA
?buffer@BufferC@omniCodeSetUtil@omni@@QEAAPEADXZ
?buffer@BufferU@omniCodeSetUtil@omni@@QEAAPEA_WXZ
?bufferSize@giopStream@omni@@2KA
?bufferedOutputSize@giopStream@omni@@AEBAKXZ
?buildURI@omniURI@omni@@SAPEADPEBD0G0_N@Z
?byteSwap@cdrStream@@SAFF@Z
?byteSwap@cdrStream@@SAGG@Z
?byteSwap@cdrStream@@SAJJ@Z
?byteSwap@cdrStream@@SAKK@Z
?byteSwap@cdrStream@@SA_J_J@Z
?byteSwap@cdrStream@@SA_K_K@Z
?callDescriptor@omniCurrent@@QEAAPEAVomniCallDescriptor@@XZ
?callHandle@omniCallDescriptor@@QEAAXPEAVomniCallHandle@@@Z
?call_desc@omniCallHandle@@QEBAPEAVomniCallDescriptor@@XZ
?calldescriptor@GIOP_C@omni@@QEAAPEAVomniCallDescriptor@@XZ
?calldescriptor@GIOP_C@omni@@QEAAXPEAVomniCallDescriptor@@@Z
?calldescriptor@GIOP_S@omni@@QEAAPEAVomniCallDescriptor@@XZ
?calldescriptor@GIOP_S@omni@@QEAAXPEAVomniCallDescriptor@@@Z
?called@omniCallDescriptor@@QEAAX_N@Z
?capacity@?$omnivector@K@@QEBA_KXZ
?capacity@?$omnivector@PEAUEndpointURI@Options@omniObjAdapter@omni@@@@QEBA_KXZ
?capacity@?$omnivector@PEAUHandlerValuePair@orbOptions@omni@@@@QEBA_KXZ
?capacity@?$omnivector@PEAURuleActionPair@transportRules@omni@@@@QEBA_KXZ
?capacity@?$omnivector@PEAVHandler@orbOptions@omni@@@@QEBA_KXZ
?capacity@?$omnivector@PEAVObject@CORBA@@@@QEBA_KXZ
?capacity@?$omnivector@PEAVRuleType@transportRules@omni@@@@QEBA_KXZ
?capacity@?$omnivector@PEAVSocketHolder@omni@@@@QEBA_KXZ
?capacity@?$omnivector@PEAVURIHandler@omniURI@omni@@@@QEBA_KXZ
?capacity@?$omnivector@PEAVgiopActiveCollection@omni@@@@QEBA_KXZ
?capacity@?$omnivector@PEAVgiopAddress@omni@@@@QEBA_KXZ
?capacity@?$omnivector@PEAVgiopEndpoint@omni@@@@QEBA_KXZ
?capacity@?$omnivector@PEAVgiopStrand@omni@@@@QEBA_KXZ
?capacity@?$omnivector@PEAVomniInitialiser@omni@@@@QEBA_KXZ
?capacity@?$omnivector@PEAVomniObjRef@@@@QEBA_KXZ
?capacity@?$omnivector@PEAVomniObjTableEntry@@@@QEBA_KXZ
?capacity@?$omnivector@PEAVomniTrackedObject@omni@@@@QEBA_KXZ
?capacity@?$omnivector@PEAVorbServer@omni@@@@QEBA_KXZ
?capacity@?$omnivector@PEBD@@QEBA_KXZ
?capacity@?$omnivector@UresolvePseudoEntry@omni@@@@QEBA_KXZ
?category@omniTask@@QEAA?AW4Category@1@XZ
?change_implementation@omniOrbBOA@omni@@UEAAXPEAVObject@CORBA@@PEAVImplementationDef@4@@Z
?checkInputOverrun@cdrCountingStream@@UEAA_NKKW4alignment_t@omni@@@Z
?checkInputOverrun@cdrMemoryStream@@UEAA_NKKW4alignment_t@omni@@@Z
?checkInputOverrun@cdrStreamAdapter@@MEAA_NKKW4alignment_t@omni@@@Z
?checkInputOverrun@cdrValueChunkStream@@UEAA_NKKW4alignment_t@omni@@@Z
?checkInputOverrun@giopStream@omni@@UEAA_NKKW4alignment_t@2@@Z
?checkOutputOverrun@cdrCountingStream@@UEAA_NKKW4alignment_t@omni@@@Z
?checkOutputOverrun@cdrMemoryStream@@UEAA_NKKW4alignment_t@omni@@@Z
?checkOutputOverrun@cdrStreamAdapter@@MEAA_NKKW4alignment_t@omni@@@Z
?checkOutputOverrun@cdrValueChunkStream@@UEAA_NKKW4alignment_t@omni@@@Z
?checkOutputOverrun@giopStream@omni@@UEAA_NKKW4alignment_t@2@@Z
?cleanup@GIOP_C@omni@@QEAAXXZ
?clear@?$omnivector@K@@QEAAXXZ
?clear@?$omnivector@PEAVSocketHolder@omni@@@@QEAAXXZ
?clearDeadline@giopStream@omni@@QEAAXXZ
?clearSelectable@SocketHolder@omni@@QEAAXXZ
?clearSelectable@tcpConnection@omni@@UEAAXXZ
?clearValueTracker@cdrStream@@QEAAXXZ
?clientCallTimeOutPeriod@orbParameters@omni@@3Uomni_time_t@@A
?clientConnectTimeOutPeriod@orbParameters@omni@@3Uomni_time_t@@A
?clientOpenConnection@omniInterceptorP@omni@@2PEAUelmT@12@EA
?clientReceiveReply@omniInterceptorP@omni@@2PEAUelmT@12@EA
?clientRules@transportRules@omni@@SAAEAV12@XZ
?clientSendRequest@omniInterceptorP@omni@@2PEAUelmT@12@EA
?collection@giopMonitor@omni@@QEBAPEAVgiopActiveCollection@2@XZ
?completeCallback@omniAsyncCallDescriptor@@UEAAXXZ
?complete_object_deactivation@omniOrbPOA@omni@@AEAAXPEAVomniObjTableEntry@@@Z
?completed@CommFailure@giopStream@omni@@QEBA?AW4CompletionStatus@CORBA@@XZ
?completed@SystemException@CORBA@@QEBA?AW4CompletionStatus@2@XZ
?completion@GIOP_C@omni@@UEAAKXZ
?completion@GIOP_S@omni@@UEAAKXZ
?completion@cdrStream@@UEAAKXZ
?completion@cdrStreamAdapter@@MEAAKXZ
?completion@cdrValueChunkStream@@UEAAKXZ
?compressorFactory@giopStream@omni@@2PEAVgiopCompressorFactory@2@EA
?cond@Scavenger@omni@@0PEAVomni_tracedcondition@@EA
?connection@omniCallHandle@@QEAAPEAVgiopConnection@omni@@XZ
?connectionWatchImmediate@orbParameters@omni@@3_NA
?containsValues@omniCallDescriptor@@QEAA_NXZ
?copy@BidirectionalPolicy@BiDirPolicy@@UEAAPEAVPolicy@CORBA@@XZ
?copy@EndPointPublishPolicy@omniPolicy@@UEAAPEAVPolicy@CORBA@@XZ
?copy@IdAssignmentPolicy@PortableServer@@UEAAPEAVPolicy@CORBA@@XZ
?copy@IdUniquenessPolicy@PortableServer@@UEAAPEAVPolicy@CORBA@@XZ
?copy@ImplicitActivationPolicy@PortableServer@@UEAAPEAVPolicy@CORBA@@XZ
?copy@LifespanPolicy@PortableServer@@UEAAPEAVPolicy@CORBA@@XZ
?copy@LocalShortcutPolicy@omniPolicy@@UEAAPEAVPolicy@CORBA@@XZ
?copy@PlainObjectKeysPolicy@omniPolicy@@UEAAPEAVPolicy@CORBA@@XZ
?copy@Policy@CORBA@@UEAAPEAV12@XZ
?copy@RequestProcessingPolicy@PortableServer@@UEAAPEAVPolicy@CORBA@@XZ
?copy@ServantRetentionPolicy@PortableServer@@UEAAPEAVPolicy@CORBA@@XZ
?copy@ThreadPolicy@PortableServer@@UEAAPEAVPolicy@CORBA@@XZ
?copyInputData@giopImpl10@omni@@SAXPEAVgiopStream@2@PEAX_KW4alignment_t@2@@Z
?copyInputData@giopImpl11@omni@@SAXPEAVgiopStream@2@PEAX_KW4alignment_t@2@@Z
?copyInputData@giopImpl12@omni@@SAXPEAVgiopStream@2@PEAX_KW4alignment_t@2@@Z
?copyOutputData@giopImpl10@omni@@SAXPEAVgiopStream@2@PEAX_KW4alignment_t@2@@Z
?copyOutputData@giopImpl11@omni@@SAXPEAVgiopStream@2@PEAX_KW4alignment_t@2@@Z
?copyOutputData@giopImpl12@omni@@SAXPEAVgiopStream@2@PEAX_KW4alignment_t@2@@Z
?copyStateFromActual@cdrStreamAdapter@@QEAAXXZ
?copyStateFromActual@cdrValueChunkStream@@QEAAXXZ
?copyStateToActual@cdrStreamAdapter@@QEBAXXZ
?copyStateToActual@cdrValueChunkStream@@QEBAXXZ
?copyValuesInLocalCalls@orbParameters@omni@@3_NA
?copy_to@cdrCountingStream@@UEAAXAEAVcdrStream@@HW4alignment_t@omni@@@Z
?copy_to@cdrMemoryStream@@UEAAXAEAVcdrStream@@HW4alignment_t@omni@@@Z
?copy_to@cdrStream@@UEAAXAEAV1@HW4alignment_t@omni@@@Z
?copy_to@cdrStreamAdapter@@MEAAXAEAVcdrStream@@HW4alignment_t@omni@@@Z
?copybuffer@?$_CORBA_Sequence@E@@IEAAXK@Z
?copybuffer@?$_CORBA_Sequence@K@@IEAAXK@Z
?copybuffer@?$_CORBA_Sequence@UAddress@IIOP@@@@IEAAXK@Z
?copybuffer@?$_CORBA_Sequence@UBinding@CosNaming@@@@IEAAXK@Z
?copybuffer@?$_CORBA_Sequence@UNameComponent@CosNaming@@@@IEAAXK@Z
?copybuffer@?$_CORBA_Sequence@UServiceContext@IOP@@@@IEAAXK@Z
?copybuffer@?$_CORBA_Sequence@UTaggedComponent@IOP@@@@IEAAXK@Z
?copybuffer@?$_CORBA_Sequence@UTaggedProfile@IOP@@@@IEAAXK@Z
?copybuffer@?$_CORBA_Sequence@V_CORBA_Unbounded_Sequence_Octet@@@@IEAAXK@Z
?copybuffer@?$_CORBA_Sequence_ObjRef@VPOA@PortableServer@@V?$_CORBA_ObjRef_Element@VPOA@PortableServer@@VPOA_Helper@2@@@VPOA_Helper@2@@@IEAAXK@Z
?copybuffer@_CORBA_Sequence_String@@AEAAXK@Z
?copybuffer@_CORBA_Sequence_WString@@AEAAXK@Z
?cpy@_CORBA_WString_helper@@SAXPEA_WPEB_W@Z
?create@omniOrbBOA@omni@@UEAAPEAVObject@CORBA@@AEBVReferenceData@4@PEAV_objref_InterfaceDef@4@PEAVImplementationDef@4@@Z
?createIdentity@omni@@YAPEAVomniIdentity@@PEAVomniIOR@@PEBD_N@Z
?createIdentity@omniInterceptorP@omni@@2PEAUelmT@12@EA
?createInProcessIdentity@omni@@YAPEAVomniIdentity@@PEBEH@Z
?createLocalObjRef@omni@@YAPEAVomniObjRef@@PEBD0PEAVomniObjTableEntry@@AEBVomniIORHints@@@Z
?createLocalObjRef@omni@@YAPEAVomniObjRef@@PEBD0PEBEHAEBVomniIORHints@@@Z
?createORBServer@omniInterceptorP@omni@@2PEAUelmT@12@EA
?createObjRef@omni@@YAPEAVomniObjRef@@PEBDPEAVomniIOR@@_NPEAVomniIdentity@@@Z
?createPolicy@omniInterceptorP@omni@@2PEAUelmT@12@EA
?createRope@omniInterceptorP@omni@@2PEAUelmT@12@EA
?createRules@builtinRuleType@omni@@UEAA_NPEBDAEBVStringSeq@CORBA@@AEAVtransportRules@2@@Z
?createThread@omniInterceptorP@omni@@2PEAUelmT@12@EA
?create_POA@omniOrbPOA@omni@@UEAAPEAVPOA@PortableServer@@PEBDPEAVPOAManager@4@AEBV?$_CORBA_Pseudo_Unbounded_Sequence@VPolicy@CORBA@@V?$_CORBA_PseudoObj_Member@VPolicy@CORBA@@V?$_CORBA_PseudoObj_Var@VPolicy@CORBA@@@@@@@@@Z
?create_endpoint_publish_policy@omniPolicy@@YAPEAVEndPointPublishPolicy@1@AEBVStringSeq@CORBA@@@Z
?create_id_assignment_policy@POA@PortableServer@@UEAAPEAVIdAssignmentPolicy@2@W4IdAssignmentPolicyValue@2@@Z
?create_id_uniqueness_policy@POA@PortableServer@@UEAAPEAVIdUniquenessPolicy@2@W4IdUniquenessPolicyValue@2@@Z
?create_implicit_activation_policy@POA@PortableServer@@UEAAPEAVImplicitActivationPolicy@2@W4ImplicitActivationPolicyValue@2@@Z
?create_key@omniOrbPOA@omni@@AEAAXAEAVomniObjKey@@PEBEH@Z
?create_lifespan_policy@POA@PortableServer@@UEAAPEAVLifespanPolicy@2@W4LifespanPolicyValue@2@@Z
?create_local_shortcut_policy@omniPolicy@@YAPEAVLocalShortcutPolicy@1@G@Z
?create_new_key@omniOrbPOA@omni@@AEAAXAEAVomniObjKey@@PEAPEBEPEAH@Z
?create_plain_object_keys_policy@omniPolicy@@YAPEAVPlainObjectKeysPolicy@1@G@Z
?create_reference@omniOrbPOA@omni@@UEAAPEAVObject@CORBA@@PEBD@Z
?create_reference_with_id@omniOrbPOA@omni@@UEAAPEAVObject@CORBA@@AEBVObjectId@PortableServer@@PEBD@Z
?create_request_processing_policy@POA@PortableServer@@UEAAPEAVRequestProcessingPolicy@2@W4RequestProcessingPolicyValue@2@@Z
?create_servant_retention_policy@POA@PortableServer@@UEAAPEAVServantRetentionPolicy@2@W4ServantRetentionPolicyValue@2@@Z
?create_thread_policy@POA@PortableServer@@UEAAPEAVThreadPolicy@2@W4ThreadPolicyValue@2@@Z
?csInsert@giopServer@omni@@AEAAPEAUconnectionState@12@PEAVgiopConnection@2@@Z
?csInsert@giopServer@omni@@AEAAPEAUconnectionState@12@PEAVgiopStrand@2@@Z
?csLocate@giopServer@omni@@AEAAPEAUconnectionState@12@PEAVgiopConnection@2@@Z
?csRemove@giopServer@omni@@AEAAPEAUconnectionState@12@PEAVgiopConnection@2@@Z
?current@omniCallDescriptor@@SAPEAV1@XZ
?currentAddress@omniCallDescriptor@@QEAAPEBVgiopAddress@omni@@XZ
?currentAddress@omniCallDescriptor@@QEAAXPEBVgiopAddress@omni@@@Z
?currentInputPtr@cdrCountingStream@@UEBA_KXZ
?currentInputPtr@cdrMemoryStream@@UEBA_KXZ
?currentInputPtr@cdrStreamAdapter@@MEBA_KXZ
?currentInputPtr@cdrValueChunkStream@@UEBA_KXZ
?currentInputPtr@giopImpl10@omni@@SA_KPEBVgiopStream@2@@Z
?currentInputPtr@giopImpl11@omni@@SA_KPEBVgiopStream@2@@Z
?currentInputPtr@giopImpl12@omni@@SA_KPEBVgiopStream@2@@Z
?currentInputPtr@giopStream@omni@@UEBA_KXZ
?currentOutputPtr@cdrCountingStream@@UEBA_KXZ
?currentOutputPtr@cdrMemoryStream@@UEBA_KXZ
?currentOutputPtr@cdrStreamAdapter@@MEBA_KXZ
?currentOutputPtr@cdrValueChunkStream@@UEBA_KXZ
?currentOutputPtr@giopImpl10@omni@@SA_KPEBVgiopStream@2@@Z
?currentOutputPtr@giopImpl11@omni@@SA_KPEBVgiopStream@2@@Z
?currentOutputPtr@giopImpl12@omni@@SA_KPEBVgiopStream@2@@Z
?currentOutputPtr@giopStream@omni@@UEBA_KXZ
?dataSize@giopStream_Buffer@omni@@QEBAKXZ
?deactivate@giopMonitor@omni@@QEAAXXZ
?deactivate@giopServer@omni@@AEAAXXZ
?deactivate@omniOrbPOAManager@omni@@UEAAX_N0@Z
?deactivate@tcpActiveCollection@omni@@UEAAXXZ
?deactivate_impl@omniOrbBOA@omni@@UEAAXPEAVImplementationDef@CORBA@@@Z
?deactivate_obj@omniOrbBOA@omni@@UEAAXPEAVObject@CORBA@@@Z
?deactivate_object@omniOrbPOA@omni@@UEAAXAEBVObjectId@PortableServer@@@Z
?deactivate_objects@omniOrbPOA@omni@@AEAAXPEAVomniObjTableEntry@@@Z
?deactivated@omniLocalIdentity@@QEBA_NXZ
?dealloc@_CORBA_String_helper@@SAXPEAD@Z
?dealloc@_CORBA_WString_helper@@SAXPEA_W@Z
?deallocate@?$omnivector@K@@AEAAXXZ
?deallocate@?$omnivector@PEAUEndpointURI@Options@omniObjAdapter@omni@@@@AEAAXXZ
?deallocate@?$omnivector@PEAUHandlerValuePair@orbOptions@omni@@@@AEAAXXZ
?deallocate@?$omnivector@PEAURuleActionPair@transportRules@omni@@@@AEAAXXZ
?deallocate@?$omnivector@PEAVHandler@orbOptions@omni@@@@AEAAXXZ
?deallocate@?$omnivector@PEAVObject@CORBA@@@@AEAAXXZ
?deallocate@?$omnivector@PEAVRuleType@transportRules@omni@@@@AEAAXXZ
?deallocate@?$omnivector@PEAVSocketHolder@omni@@@@AEAAXXZ
?deallocate@?$omnivector@PEAVURIHandler@omniURI@omni@@@@AEAAXXZ
?deallocate@?$omnivector@PEAVgiopActiveCollection@omni@@@@AEAAXXZ
?deallocate@?$omnivector@PEAVgiopAddress@omni@@@@AEAAXXZ
?deallocate@?$omnivector@PEAVgiopEndpoint@omni@@@@AEAAXXZ
?deallocate@?$omnivector@PEAVgiopStrand@omni@@@@AEAAXXZ
?deallocate@?$omnivector@PEAVomniInitialiser@omni@@@@AEAAXXZ
?deallocate@?$omnivector@PEAVomniObjRef@@@@AEAAXXZ
?deallocate@?$omnivector@PEAVomniObjTableEntry@@@@AEAAXXZ
?deallocate@?$omnivector@PEAVomniTrackedObject@omni@@@@AEAAXXZ
?deallocate@?$omnivector@PEAVorbServer@omni@@@@AEAAXXZ
?deallocate@?$omnivector@PEBD@@AEAAXXZ
?deallocate@?$omnivector@UresolvePseudoEntry@omni@@@@AEAAXXZ
?dec@omni_refcount@@QEAAHXZ
?declareArrayLength@cdrStream@@UEAAXW4alignment_t@omni@@_K@Z
?declareArrayLength@cdrValueChunkStream@@UEAAXW4alignment_t@omni@@_K@Z
?decodeIOPprofile@omniIOR@@QEAAXAEBUProfileBody@IIOP@@@Z
?decodeIOR@omniInterceptorP@omni@@2PEAUelmT@12@EA
?decrRefCount@BiDirServerRope@omni@@UEAAXXZ
?decrRefCount@SocketCollection@omni@@QEAAXXZ
?decrRefCount@giopConnection@omni@@QEAAH_N@Z
?decrRefCount@giopRope@omni@@UEAAXXZ
?decrRefCount@omniOrbBOA@omni@@UEAAXXZ
?decrRefCount@omniOrbPOA@omni@@UEAAXXZ
?defaultCharCodeSet@orbParameters@omni@@3PEAVTCS_C@omniCodeSet@2@EA
?defaultWCharCodeSet@orbParameters@omni@@3PEAVTCS_W@omniCodeSet@2@EA
?deleteBuffer@giopStream_Buffer@omni@@SAXPEAU12@@Z
?deleteDeadAddresses@giopRope@omni@@IEAAXPEAVgiopStrand@2@@Z
?deletePending@giopStrand@omni@@QEAA_NXZ
?deleteStrandAndConnection@giopStrand@omni@@QEAAX_N@Z
?deq@omniTaskLink@@QEAAXXZ
?destroy@Policy@CORBA@@UEAAXXZ
?destroy@_objref_BindingIterator@CosNaming@@QEAAXXZ
?destroy@_objref_NamingContext@CosNaming@@QEAAXXZ
?destroy@omniOrbBOA@omni@@UEAAXXZ
?destroy@omniOrbORB@@UEAAXXZ
?destroy@omniOrbPOA@omni@@UEAAX_N0@Z
?detach@omni_ObjRef_initialiser@omni@@UEAAXXZ
?detach@omni_cdrStream_initialiser@omni@@UEAAXXZ
?detach@omni_codeSet_initialiser@omni@@UEAAXXZ
?detach@omni_corbaOrb_initialiser@omni@@UEAAXXZ
?detach@omni_dynamiclib_initialiser@omni@@UEAAXXZ
?detach@omni_giopEndpoint_initialiser@omni@@UEAAXXZ
?detach@omni_giopImpl10_initialiser@omni@@UEAAXXZ
?detach@omni_giopImpl11_initialiser@omni@@UEAAXXZ
?detach@omni_giopImpl12_initialiser@omni@@UEAAXXZ
?detach@omni_giopRope_initialiser@omni@@UEAAXXZ
?detach@omni_giopStrand_initialiser@omni@@UEAAXXZ
?detach@omni_giopStreamImpl_initialiser@omni@@UEAAXXZ
?detach@omni_giopbidir_initialiser@omni@@UEAAXXZ
?detach@omni_giopserver_initialiser@omni@@UEAAXXZ
?detach@omni_hooked_initialiser@omni@@UEAAXXZ
?detach@omni_initRefs_initialiser@omni@@UEAAXXZ
?detach@omni_interceptor_initialiser@omni@@UEAAXXZ
?detach@omni_invoker_initialiser@omni@@UEAAXXZ
?detach@omni_ior_initialiser@omni@@UEAAXXZ
?detach@omni_objadpt_initialiser@omni@@UEAAXXZ
?detach@omni_omniCurrent_initialiser@omni@@UEAAXXZ
?detach@omni_omniIOR_initialiser@omni@@UEAAXXZ
?detach@omni_omniInternal_initialiser@omni@@UEAAXXZ
?detach@omni_omniTransport_initialiser@omni@@UEAAXXZ
?detach@omni_orbOptions_initialiser@omni@@UEAAXXZ
?detach@omni_poa_initialiser@omni@@UEAAXXZ
?detach@omni_transportRules_initialiser@omni@@UEAAXXZ
?detach@omni_uri_initialiser@omni@@UEAAXXZ
?detached_object@omniObjAdapter@omni@@QEAAXXZ
?die@omniServantActivatorTaskQueue@omni@@QEAAXXZ
?diiThrowsSysExceptions@orbParameters@omni@@3_NA
?directReceiveCutOff@giopStream@omni@@2KA
?directSendCutOff@giopStream@omni@@2KA
?discard_requests@omniOrbPOAManager@omni@@UEAAX_N@Z
?disconnect@giopRope@omni@@UEAAXXZ
?disconnect@omniIdentity@@UEAAXXZ
?disconnect@omniRemoteIdentity@@UEAAXXZ
?dispatch@omniInProcessIdentity@@UEAAXAEAVomniCallDescriptor@@@Z
?dispatch@omniLocalIdentity@@QEAAXAEAVomniCallHandle@@@Z
?dispatch@omniLocalIdentity@@UEAAXAEAVomniCallDescriptor@@@Z
?dispatch@omniOrbBOA@omni@@UEAAXAEAVomniCallDescriptor@@PEAVomniLocalIdentity@@@Z
?dispatch@omniOrbBOA@omni@@UEAAXAEAVomniCallHandle@@PEAVomniLocalIdentity@@@Z
?dispatch@omniOrbBOA@omni@@UEAAXAEAVomniCallHandle@@PEBEH@Z
?dispatch@omniOrbPOA@omni@@UEAAXAEAVomniCallDescriptor@@PEAVomniLocalIdentity@@@Z
?dispatch@omniOrbPOA@omni@@UEAAXAEAVomniCallHandle@@PEAVomniLocalIdentity@@@Z
?dispatch@omniOrbPOA@omni@@UEAAXAEAVomniCallHandle@@PEBEH@Z
?dispatch@omniRemoteIdentity@@UEAAXAEAVomniCallDescriptor@@@Z
?dispatch@omniShutdownIdentity@@UEAAXAEAVomniCallDescriptor@@@Z
?dispatch_to_ds@omniOrbPOA@omni@@AEAAXAEAVomniCallHandle@@PEBEH@Z
?dispatch_to_sa@omniOrbPOA@omni@@AEAAXAEAVomniCallHandle@@PEBEH@Z
?dispatch_to_sl@omniOrbPOA@omni@@AEAAXAEAVomniCallHandle@@PEBEH@Z
?dispatcher@GIOP_S@omni@@QEAA_NXZ
?dispose@omniOrbBOA@omni@@QEAAXPEAVomniIdentity@@@Z
?dispose@omniOrbBOA@omni@@UEAAXPEAVObject@CORBA@@@Z
?doLocalCall@omniCallDescriptor@@QEAAXPEAVomniServant@@@Z
?do_destroy@omniOrbPOA@omni@@QEAAX_N@Z
?do_logs@omniORB@@YAXPEBD@Z
?do_shutdown@omniOrbORB@@AEAAX_N@Z
?doit@omniEtherealiser@@UEAAXXZ
?downcast@GIOP_C@omni@@SAPEAV12@PEAVcdrStream@@@Z
?downcast@GIOP_S@omni@@SAPEAV12@PEAVcdrStream@@@Z
?downcast@giopStream@omni@@SAPEAV12@PEAVcdrStream@@@Z
?downcast@omniInProcessIdentity@@SAPEAV1@PEAVomniIdentity@@@Z
?downcast@omniLocalIdentity@@SAPEAV1@PEAVomniIdentity@@@Z
?downcast@omniObjTableEntry@@SAPEAV1@PEAVomniIdentity@@@Z
?downcast@omniRemoteIdentity@@SAPEAV1@PEAVomniIdentity@@@Z
?drop@HolderC@omniCodeSetUtil@omni@@QEAAXXZ
?drop@HolderU@omniCodeSetUtil@omni@@QEAAXXZ
?drop@HolderW@omniCodeSetUtil@omni@@QEAAXXZ
?dump@DefaultInitRefHandler@omni@@UEAAXAEAVStringSeq@CORBA@@@Z
?dump@InitRefHandler@omni@@UEAAXAEAVStringSeq@CORBA@@@Z
?dump@abortOnInternalErrorHandler@@UEAAXAEAVStringSeq@CORBA@@@Z
?dump@abortOnNativeExceptionHandler@@UEAAXAEAVStringSeq@CORBA@@@Z
?dump@acceptBiDirectionalGIOPHandler@omni@@UEAAXAEAVStringSeq@CORBA@@@Z
?dump@acceptMisalignedTcIndirectionsHandler@omni@@UEAAXAEAVStringSeq@CORBA@@@Z
?dump@bootstrapAgentHostnameHandler@omni@@UEAAXAEAVStringSeq@CORBA@@@Z
?dump@bootstrapAgentPortHandler@omni@@UEAAXAEAVStringSeq@CORBA@@@Z
?dump@clientCallTimeOutPeriodHandler@omni@@UEAAXAEAVStringSeq@CORBA@@@Z
?dump@clientConnectTimeOutPeriodHandler@omni@@UEAAXAEAVStringSeq@CORBA@@@Z
?dump@clientTransportRuleHandler@omni@@UEAAXAEAVStringSeq@CORBA@@@Z
?dump@configFileHandler@omni@@UEAAXAEAVStringSeq@CORBA@@@Z
?dump@connectionWatchImmediateHandler@omni@@UEAAXAEAVStringSeq@CORBA@@@Z
?dump@connectionWatchPeriodHandler@omni@@UEAAXAEAVStringSeq@CORBA@@@Z
?dump@copyValuesInLocalCallsHandler@omni@@UEAAXAEAVStringSeq@CORBA@@@Z
?dump@defaultCharCodeSetHandler@@UEAAXAEAVStringSeq@CORBA@@@Z
?dump@defaultWCharCodeSetHandler@@UEAAXAEAVStringSeq@CORBA@@@Z
?dump@diiThrowsSysExceptionsHandler@omni@@UEAAXAEAVStringSeq@CORBA@@@Z
?dump@dumpConfigurationHandler@omni@@UEAAXAEAVStringSeq@CORBA@@@Z
?dump@endpointHandler@omni@@UEAAXAEAVStringSeq@CORBA@@@Z
?dump@endpointNoListenHandler@omni@@UEAAXAEAVStringSeq@CORBA@@@Z
?dump@endpointNoPublishHandler@omni@@UEAAXAEAVStringSeq@CORBA@@@Z
?dump@endpointPublishAllIFsHandler@omni@@UEAAXAEAVStringSeq@CORBA@@@Z
?dump@endpointPublishHandler@omni@@UEAAXAEAVStringSeq@CORBA@@@Z
?dump@exceptionIdInAnyHandler@omni@@UEAAXAEAVStringSeq@CORBA@@@Z
?dump@giopBufferSizeHandler@omni@@UEAAXAEAVStringSeq@CORBA@@@Z
?dump@giopDirectReceiveCutOffHandler@omni@@UEAAXAEAVStringSeq@CORBA@@@Z
?dump@giopDirectSendCutOffHandler@omni@@UEAAXAEAVStringSeq@CORBA@@@Z
?dump@giopMaxMsgSizeHandler@omni@@UEAAXAEAVStringSeq@CORBA@@@Z
?dump@giopMinChunkBeforeDirectSendHandler@omni@@UEAAXAEAVStringSeq@CORBA@@@Z
?dump@giopTargetAddressModeHandler@omni@@UEAAXAEAVStringSeq@CORBA@@@Z
?dump@helpHandler@omni@@UEAAXAEAVStringSeq@CORBA@@@Z
?dump@idHandler@omni@@UEAAXAEAVStringSeq@CORBA@@@Z
?dump@idleThreadTimeoutHandler@omni@@UEAAXAEAVStringSeq@CORBA@@@Z
?dump@immediateRopeSwitchHandler@omni@@UEAAXAEAVStringSeq@CORBA@@@Z
?dump@inConScanPeriodHandler@omni@@UEAAXAEAVStringSeq@CORBA@@@Z
?dump@lcdModeHandler@omni@@UEAAXAEAVStringSeq@CORBA@@@Z
?dump@listenBacklogHandler@omni@@UEAAXAEAVStringSeq@CORBA@@@Z
?dump@maxClientThreadPoolSizeHandler@omni@@UEAAXAEAVStringSeq@CORBA@@@Z
?dump@maxGIOPConnectionPerServerHandler@omni@@UEAAXAEAVStringSeq@CORBA@@@Z
?dump@maxGIOPVersionHandler@omni@@UEAAXAEAVStringSeq@CORBA@@@Z
?dump@maxInterleavedCallsPerConnectionHandler@omni@@UEAAXAEAVStringSeq@CORBA@@@Z
?dump@maxServerThreadPerConnectionHandler@omni@@UEAAXAEAVStringSeq@CORBA@@@Z
?dump@maxServerThreadPoolSizeHandler@omni@@UEAAXAEAVStringSeq@CORBA@@@Z
?dump@maxSocketRecvHandler@omni@@UEAAXAEAVStringSeq@CORBA@@@Z
?dump@maxSocketSendHandler@omni@@UEAAXAEAVStringSeq@CORBA@@@Z
?dump@nativeCharCodeSetHandler@@UEAAXAEAVStringSeq@CORBA@@@Z
?dump@nativeWCharCodeSetHandler@@UEAAXAEAVStringSeq@CORBA@@@Z
?dump@objectTableSizeHandler@@UEAAXAEAVStringSeq@CORBA@@@Z
?dump@offerBiDirectionalGIOPHandler@omni@@UEAAXAEAVStringSeq@CORBA@@@Z
?dump@oneCallPerConnectionHandler@omni@@UEAAXAEAVStringSeq@CORBA@@@Z
?dump@outConScanPeriodHandler@omni@@UEAAXAEAVStringSeq@CORBA@@@Z
?dump@poaHoldRequestTimeoutHandler@omni@@UEAAXAEAVStringSeq@CORBA@@@Z
?dump@poaUniquePersistentSystemIdsHandler@omni@@UEAAXAEAVStringSeq@CORBA@@@Z
?dump@principalHandler@omni@@UEAAXAEAVStringSeq@CORBA@@@Z
?dump@resetTimeOutOnRetriesHandler@omni@@UEAAXAEAVStringSeq@CORBA@@@Z
?dump@resolveNamesForTransportRulesHandler@omni@@UEAAXAEAVStringSeq@CORBA@@@Z
?dump@retainAddressOrderHandler@omni@@UEAAXAEAVStringSeq@CORBA@@@Z
?dump@scanGranularityHandler@omni@@UEAAXAEAVStringSeq@CORBA@@@Z
?dump@serverCallTimeOutPeriodHandler@omni@@UEAAXAEAVStringSeq@CORBA@@@Z
?dump@serverTransportRuleHandler@omni@@UEAAXAEAVStringSeq@CORBA@@@Z
?dump@socketSendBufferHandler@omni@@UEAAXAEAVStringSeq@CORBA@@@Z
?dump@strictIIOPHandler@omni@@UEAAXAEAVStringSeq@CORBA@@@Z
?dump@supportBootstrapAgentHandler@omni@@UEAAXAEAVStringSeq@CORBA@@@Z
?dump@supportCurrentHandler@@UEAAXAEAVStringSeq@CORBA@@@Z
?dump@supportPerThreadTimeOutHandler@omni@@UEAAXAEAVStringSeq@CORBA@@@Z
?dump@tcAliasExpandHandler@omni@@UEAAXAEAVStringSeq@CORBA@@@Z
?dump@threadPerConnectionLowerLimitHandler@omni@@UEAAXAEAVStringSeq@CORBA@@@Z
?dump@threadPerConnectionPolicyHandler@omni@@UEAAXAEAVStringSeq@CORBA@@@Z
?dump@threadPerConnectionUpperLimitHandler@omni@@UEAAXAEAVStringSeq@CORBA@@@Z
?dump@threadPoolWatchConnectionHandler@omni@@UEAAXAEAVStringSeq@CORBA@@@Z
?dump@throwTransientOnTimeOutHandler@@UEAAXAEAVStringSeq@CORBA@@@Z
?dump@traceExceptionsHandler@@UEAAXAEAVStringSeq@CORBA@@@Z
?dump@traceFileHandler@@UEAAXAEAVStringSeq@CORBA@@@Z
?dump@traceInvocationReturnsHandler@@UEAAXAEAVStringSeq@CORBA@@@Z
?dump@traceInvocationsHandler@@UEAAXAEAVStringSeq@CORBA@@@Z
?dump@traceLevelHandler@@UEAAXAEAVStringSeq@CORBA@@@Z
?dump@traceLockingHandler@@UEAAXAEAVStringSeq@CORBA@@@Z
?dump@traceThreadIdHandler@@UEAAXAEAVStringSeq@CORBA@@@Z
?dump@traceTimeHandler@@UEAAXAEAVStringSeq@CORBA@@@Z
?dump@unixTransportDirectoryHandler@omni@@UEAAXAEAVStringSeq@CORBA@@@Z
?dump@unixTransportPermissionHandler@omni@@UEAAXAEAVStringSeq@CORBA@@@Z
?dump@useTypeCodeIndirectionsHandler@omni@@UEAAXAEAVStringSeq@CORBA@@@Z
?dump@validateUTF8Handler@omni@@UEAAXAEAVStringSeq@CORBA@@@Z
?dump@verifyObjectExistsAndTypeHandler@omni@@UEAAXAEAVStringSeq@CORBA@@@Z
?dumpConfiguration@orbParameters@omni@@3_NA
?dumpCurrentSet@orbOptions@omni@@QEBAPEAVStringSeq@CORBA@@XZ
?dumpRecord@InitRefHandler@omni@@QEAAXAEAUserviceRecord@2@AEAVStringSeq@CORBA@@@Z
?dumpRule@transportRules@omni@@QEAAPEADK@Z
?dumpSpecified@orbOptions@omni@@QEBAPEAVStringSeq@CORBA@@XZ
?dumpbuf@giopStream@omni@@SAXPEAE_K@Z
?dup@_CORBA_String_helper@@SAPEADPEBD@Z
?dup@_CORBA_WString_helper@@SAPEA_WPEB_W@Z
?duplicate@BindingIterator_Helper@CosNaming@@SAXPEAV_objref_BindingIterator@2@@Z
?duplicate@CORBA_InitialReferences_Helper@@SAXPEAV_objref_CORBA_InitialReferences@@@Z
?duplicate@LocalObject_Helper@CORBA@@SAXPEAVLocalObject@2@@Z
?duplicate@NamingContextExt_Helper@CosNaming@@SAXPEAV_objref_NamingContextExt@2@@Z
?duplicate@NamingContext_Helper@CosNaming@@SAXPEAV_objref_NamingContext@2@@Z
?duplicate@Object_Helper@CORBA@@SAXPEAVObject@2@@Z
?duplicate@POA_Helper@PortableServer@@SAXPEAVPOA@2@@Z
?duplicate@ServantActivator_Helper@PortableServer@@SAXPEAVServantActivator@2@@Z
?duplicate@ServantLocator_Helper@PortableServer@@SAXPEAVServantLocator@2@@Z
?duplicate@ServantManager_Helper@PortableServer@@SAXPEAVServantManager@2@@Z
?duplicate@giopAddress@omni@@UEBAPEAV12@PEBD@Z
?duplicate@omniIOR@@QEAAPEAV1@XZ
?duplicate@tcpAddress@omni@@UEBAPEAVgiopAddress@2@PEBD@Z
?duplicate@tcpAddress@omni@@UEBAPEAVgiopAddress@2@XZ
?duplicateNoLock@omniIOR@@QEAAPEAV1@XZ
?duplicateObjRef@omni@@YAXPEAVomniObjRef@@@Z
?empty16BitTable@omniCodeSet@omni@@2QBGB
?empty8BitTable@omniCodeSet@omni@@2QBEB
?empty@?$omnivector@K@@QEBAHXZ
?empty@?$omnivector@PEAUEndpointURI@Options@omniObjAdapter@omni@@@@QEBAHXZ
?empty@?$omnivector@PEAVgiopAddress@omni@@@@QEBAHXZ
?empty@?$omnivector@PEAVomniObjRef@@@@QEBAHXZ
?empty@?$omnivector@PEAVomniObjTableEntry@@@@QEBAHXZ
?empty@?$omnivector@PEAVorbServer@omni@@@@QEBAHXZ
?empty@?$omnivector@PEBD@@QEBAHXZ
?empty_string@_CORBA_String_helper@@2QEBDEB
?empty_wstring@_CORBA_WString_helper@@2QEB_WEB
?encodeIOR@omniInterceptorP@omni@@2PEAUelmT@12@EA
?encodeMultiComponentProfile@IIOP@@SAXAEBV?$_CORBA_Unbounded_Sequence@UTaggedComponent@IOP@@@@AEAUTaggedProfile@IOP@@@Z
?encodeProfile@IIOP@@SAXAEBUProfileBody@1@AEAUTaggedProfile@IOP@@@Z
?end@?$omnivector@PEAUEndpointURI@Options@omniObjAdapter@omni@@@@QEAAPEAPEAUEndpointURI@Options@omniObjAdapter@omni@@XZ
?end@?$omnivector@PEAUHandlerValuePair@orbOptions@omni@@@@QEAAPEAPEAUHandlerValuePair@orbOptions@omni@@XZ
?end@?$omnivector@PEAUHandlerValuePair@orbOptions@omni@@@@QEBAPEBQEAUHandlerValuePair@orbOptions@omni@@XZ
?end@?$omnivector@PEAURuleActionPair@transportRules@omni@@@@QEAAPEAPEAURuleActionPair@transportRules@omni@@XZ
?end@?$omnivector@PEAVHandler@orbOptions@omni@@@@QEAAPEAPEAVHandler@orbOptions@omni@@XZ
?end@?$omnivector@PEAVHandler@orbOptions@omni@@@@QEBAPEBQEAVHandler@orbOptions@omni@@XZ
?end@?$omnivector@PEAVObject@CORBA@@@@QEAAPEAPEAVObject@CORBA@@XZ
?end@?$omnivector@PEAVRuleType@transportRules@omni@@@@QEAAPEAPEAVRuleType@transportRules@omni@@XZ
?end@?$omnivector@PEAVSocketHolder@omni@@@@QEAAPEAPEAVSocketHolder@omni@@XZ
?end@?$omnivector@PEAVURIHandler@omniURI@omni@@@@QEAAPEAPEAVURIHandler@omniURI@omni@@XZ
?end@?$omnivector@PEAVgiopActiveCollection@omni@@@@QEAAPEAPEAVgiopActiveCollection@omni@@XZ
?end@?$omnivector@PEAVgiopAddress@omni@@@@QEAAPEAPEAVgiopAddress@omni@@XZ
?end@?$omnivector@PEAVgiopAddress@omni@@@@QEBAPEBQEAVgiopAddress@omni@@XZ
?end@?$omnivector@PEAVgiopEndpoint@omni@@@@QEAAPEAPEAVgiopEndpoint@omni@@XZ
?end@?$omnivector@PEAVgiopStrand@omni@@@@QEAAPEAPEAVgiopStrand@omni@@XZ
?end@?$omnivector@PEAVomniInitialiser@omni@@@@QEAAPEAPEAVomniInitialiser@omni@@XZ
?end@?$omnivector@PEAVomniObjRef@@@@QEAAPEAPEAVomniObjRef@@XZ
?end@?$omnivector@PEAVomniObjTableEntry@@@@QEAAPEAPEAVomniObjTableEntry@@XZ
?end@?$omnivector@PEAVomniObjTableEntry@@@@QEBAPEBQEAVomniObjTableEntry@@XZ
?end@?$omnivector@PEAVomniTrackedObject@omni@@@@QEAAPEAPEAVomniTrackedObject@omni@@XZ
?end@?$omnivector@PEAVorbServer@omni@@@@QEAAPEAPEAVorbServer@omni@@XZ
?end@?$omnivector@PEBD@@QEAAPEAPEBDXZ
?end@?$omnivector@PEBD@@QEBAPEBQEBDXZ
?end@?$omnivector@UresolvePseudoEntry@omni@@@@QEAAPEAUresolvePseudoEntry@omni@@XZ
?endInputValue@cdrValueChunkStream@@AEAAXXZ
?endOutputChunk@cdrValueChunkStream@@AEAAXXZ
?endOutputValue@cdrValueChunkStream@@QEAAXXZ
?endpoint@giopRendezvouser@omni@@QEBAPEAVgiopEndpoint@2@XZ
?endpointInList@omniObjAdapter@omni@@SA_NPEBDAEBV_CORBA_Unbounded_Sequence_String@@@Z
?enq@omniTaskLink@@QEAAXAEAV1@@Z
?ensureNotInFlux@giopServer@omni@@AEAAXXZ
?ensureSaneHeader@giopStream@omni@@AEAAKPEBDKPEAUgiopStream_Buffer@2@K@Z
?enterAdapter@omniObjAdapter@omni@@QEAAXXZ
?erase@?$omnivector@PEAUEndpointURI@Options@omniObjAdapter@omni@@@@QEAAPEAPEAUEndpointURI@Options@omniObjAdapter@omni@@PEAPEAU2345@0@Z
?erase@?$omnivector@PEAUHandlerValuePair@orbOptions@omni@@@@QEAAPEAPEAUHandlerValuePair@orbOptions@omni@@PEAPEAU234@0@Z
?erase@?$omnivector@PEAURuleActionPair@transportRules@omni@@@@QEAAPEAPEAURuleActionPair@transportRules@omni@@PEAPEAU234@0@Z
?erase@?$omnivector@PEAVURIHandler@omniURI@omni@@@@QEAAPEAPEAVURIHandler@omniURI@omni@@PEAPEAV234@@Z
?erase@?$omnivector@PEAVgiopActiveCollection@omni@@@@QEAAPEAPEAVgiopActiveCollection@omni@@PEAPEAV23@@Z
?erase@?$omnivector@PEAVgiopEndpoint@omni@@@@QEAAPEAPEAVgiopEndpoint@omni@@PEAPEAV23@@Z
?erase@?$omnivector@PEAVgiopStrand@omni@@@@QEAAPEAPEAVgiopStrand@omni@@PEAPEAV23@@Z
?erase@?$omnivector@PEAVomniObjRef@@@@QEAAPEAPEAVomniObjRef@@PEAPEAV2@@Z
?erase@?$omnivector@PEAVomniObjTableEntry@@@@QEAAPEAPEAVomniObjTableEntry@@PEAPEAV2@@Z
?erase@?$omnivector@PEAVorbServer@omni@@@@QEAAPEAPEAVorbServer@omni@@PEAPEAV23@0@Z
?erase@?$omnivector@PEBD@@QEAAPEAPEBDPEAPEBD@Z
?errmsg@fatalException@omniORB@@QEBAPEBDXZ
?errorOnReceive@giopStream@omni@@AEAAXHPEBDKPEAUgiopStream_Buffer@2@_N0@Z
?errorOnSend@giopStream@omni@@AEAAXHPEBDK_N0@Z
?etherealise_objects@omniOrbPOA@omni@@AEAAXPEAVomniObjTableEntry@@_NPEAVServantActivator@PortableServer@@@Z
?etherealize@_objref_ServantActivator@PortableServer@@$4PPPPPPPM@A@EAAXAEBVObjectId@2@PEAVPOA@2@PEAVServantBase@2@_N3@Z
?etherealize@_objref_ServantActivator@PortableServer@@UEAAXAEBVObjectId@2@PEAVPOA@2@PEAVServantBase@2@_N3@Z
?event@LoggingConnectionInfo@omni@@UEAAXW4ConnectionEvent@ConnectionInfo@2@_NPEBD2@Z
?exceptionIdInAny@orbParameters@omni@@3_NA
?execute@AsyncRequest@omni@@UEAAXXZ
?execute@Scavenger@omni@@UEAAXXZ
?execute@giopMonitor@omni@@UEAAXXZ
?execute@giopRendezvouser@omni@@UEAAXXZ
?execute@giopWorker@omni@@UEAAXXZ
?execute@omniServantActivatorTaskQueue@omni@@UEAAXXZ
?exitAdapter@omniObjAdapter@omni@@QEAAXHH@Z
?expect_boolean_msg@orbOptions@omni@@2PEBDEB
?expect_greater_than_zero_ulong_msg@orbOptions@omni@@2PEBDEB
?expect_ulong_msg@orbOptions@omni@@2PEBDEB
?extraInfo@IORInfo@omniIOR@@QEAAAEAV?$_CORBA_PseudoValue_Sequence@PEAVIORExtraInfo@omniIOR@@@@XZ
?extract@BufferC@omniCodeSetUtil@omni@@QEAAPEADXZ
?extract@BufferU@omniCodeSetUtil@omni@@QEAAPEA_WXZ
?extractHostPort@omniURI@omni@@SAPEADPEBDAEAGPEAPEBD@Z
?extractHostPortRange@omniURI@omni@@SAPEADPEBDAEAG1@Z
?extractInitOptions@orbOptions@omni@@QEAAXAEAHPEAPEAD@Z
?extractURL@omniURI@omni@@SA_NPEBDAEAPEAD1AEAG11@Z
?fastMarshalChar@TCS_C@omniCodeSet@omni@@UEAA_NAEAVcdrStream@@PEAVNCS_C@23@E@Z
?fastMarshalChar@TCS_C_8bit@omniCodeSet@omni@@UEAA_NAEAVcdrStream@@PEAVNCS_C@23@E@Z
?fastMarshalChar@TCS_C_UTF_8@omni@@UEAA_NAEAVcdrStream@@PEAVNCS_C@omniCodeSet@2@E@Z
?fastMarshalString@TCS_C@omniCodeSet@omni@@UEAA_NAEAVcdrStream@@PEAVNCS_C@23@KKPEBD@Z
?fastMarshalString@TCS_C_8bit@omniCodeSet@omni@@UEAA_NAEAVcdrStream@@PEAVNCS_C@23@KKPEBD@Z
?fastMarshalString@TCS_C_UTF_8@omni@@UEAA_NAEAVcdrStream@@PEAVNCS_C@omniCodeSet@2@KKPEBD@Z
?fastMarshalWChar@TCS_W@omniCodeSet@omni@@UEAA_NAEAVcdrStream@@PEAVNCS_W@23@_W@Z
?fastMarshalWChar@TCS_W_16bit@omniCodeSet@omni@@UEAA_NAEAVcdrStream@@PEAVNCS_W@23@_W@Z
?fastMarshalWChar@TCS_W_UTF_16@omni@@UEAA_NAEAVcdrStream@@PEAVNCS_W@omniCodeSet@2@_W@Z
?fastMarshalWString@TCS_W@omniCodeSet@omni@@UEAA_NAEAVcdrStream@@PEAVNCS_W@23@KKPEB_W@Z
?fastMarshalWString@TCS_W_16bit@omniCodeSet@omni@@UEAA_NAEAVcdrStream@@PEAVNCS_W@23@KKPEB_W@Z
?fastMarshalWString@TCS_W_UTF_16@omni@@UEAA_NAEAVcdrStream@@PEAVNCS_W@omniCodeSet@2@KKPEB_W@Z
?fastUnmarshalChar@TCS_C@omniCodeSet@omni@@UEAA_NAEAVcdrStream@@PEAVNCS_C@23@AEAE@Z
?fastUnmarshalChar@TCS_C_8bit@omniCodeSet@omni@@UEAA_NAEAVcdrStream@@PEAVNCS_C@23@AEAE@Z
?fastUnmarshalChar@TCS_C_UTF_8@omni@@UEAA_NAEAVcdrStream@@PEAVNCS_C@omniCodeSet@2@AEAE@Z
?fastUnmarshalString@TCS_C@omniCodeSet@omni@@UEAA_NAEAVcdrStream@@PEAVNCS_C@23@KAEAKAEAPEAD@Z
?fastUnmarshalString@TCS_C_8bit@omniCodeSet@omni@@UEAA_NAEAVcdrStream@@PEAVNCS_C@23@KAEAKAEAPEAD@Z
?fastUnmarshalString@TCS_C_UTF_8@omni@@UEAA_NAEAVcdrStream@@PEAVNCS_C@omniCodeSet@2@KAEAKAEAPEAD@Z
?fastUnmarshalWChar@TCS_W@omniCodeSet@omni@@UEAA_NAEAVcdrStream@@PEAVNCS_W@23@AEA_W@Z
?fastUnmarshalWChar@TCS_W_16bit@omniCodeSet@omni@@UEAA_NAEAVcdrStream@@PEAVNCS_W@23@AEA_W@Z
?fastUnmarshalWChar@TCS_W_UTF_16@omni@@UEAA_NAEAVcdrStream@@PEAVNCS_W@omniCodeSet@2@AEA_W@Z
?fastUnmarshalWString@TCS_W@omniCodeSet@omni@@UEAA_NAEAVcdrStream@@PEAVNCS_W@23@KAEAKAEAPEA_W@Z
?fastUnmarshalWString@TCS_W_16bit@omniCodeSet@omni@@UEAA_NAEAVcdrStream@@PEAVNCS_W@23@KAEAKAEAPEA_W@Z
?fastUnmarshalWString@TCS_W_UTF_16@omni@@UEAA_NAEAVcdrStream@@PEAVNCS_W@omniCodeSet@2@KAEAKAEAPEA_W@Z
?fetchAndUnmarshalDouble@cdrStream@@AEAANXZ
?fetchAndUnmarshalLong@cdrStream@@AEAAJXZ
?fetchAndUnmarshalLongLong@cdrStream@@AEAA_JXZ
?fetchAndUnmarshalOctet@cdrStream@@AEAAEXZ
?fetchAndUnmarshalShort@cdrStream@@AEAAFXZ
?fetchAndUnmarshalULong@cdrStream@@AEAAKXZ
?fetchAndUnmarshalULongLong@cdrStream@@AEAA_KXZ
?fetchAndUnmarshalUShort@cdrStream@@AEAAGXZ
?fetchInputData@cdrCountingStream@@UEAAXW4alignment_t@omni@@_K@Z
?fetchInputData@cdrMemoryStream@@UEAAXW4alignment_t@omni@@_K@Z
?fetchInputData@cdrStreamAdapter@@MEAAXW4alignment_t@omni@@_K@Z
?fetchInputData@cdrValueChunkStream@@UEAAXW4alignment_t@omni@@_K@Z
?fetchInputData@giopStream@omni@@UEAAXW4alignment_t@2@_K@Z
?file@fatalException@omniORB@@QEBAPEBDXZ
?filename@UiopObjAddr@corbalocURIHandler@omni@@QEAAPEBDXZ
?filterAndSortAddressList@BiDirClientRope@omni@@MEAAXXZ
?filterAndSortAddressList@giopRope@omni@@MEAAXXZ
?find@omniExHandlers_iterator@@QEAAPEAVomniExHandlers@@PEAVomniObjRef@@@Z
?findHandler@orbOptions@omni@@AEAAPEAVHandler@12@PEBD@Z
?find_POA@omniOrbPOA@omni@@UEAAPEAVPOA@PortableServer@@PEBD_N@Z
?find_child@omniOrbPOA@omni@@AEAAPEAV12@PEBD0@Z
?find_child@omniOrbPOA@omni@@AEAAPEAV12@PEBD@Z
?find_or_create@omniExHandlers_iterator@@QEAAPEAVomniExHandlers@@PEAVomniObjRef@@@Z
?finish_adapteractivating_child@omniOrbPOA@omni@@AEAAXPEBD@Z
?firstAddressUsed@omniCallDescriptor@@QEAAPEBVgiopAddress@omni@@XZ
?firstAddressUsed@omniCallDescriptor@@QEAAXPEBVgiopAddress@omni@@@Z
?fixed_digits@Fixed@CORBA@@QEBAGXZ
?fixed_scale@Fixed@CORBA@@QEBAGXZ
?flags@IORInfo@omniIOR@@QEBAKXZ
?flush@logger@omniORB@@QEAAXXZ
?freeAddrInfo@LibcWrapper@omni@@SAXPEAVAddrInfo@12@@Z
?freeC@omniCodeSetUtil@omni@@SAXPEAD@Z
?freeU@omniCodeSetUtil@omni@@SAXPEA_W@Z
?freeW@omniCodeSetUtil@omni@@SAXPEA_W@Z
?freebuf@?$_CORBA_Sequence@E@@SAXPEAE@Z
?freebuf@?$_CORBA_Sequence@K@@SAXPEAK@Z
?freebuf@?$_CORBA_Sequence@UAddress@IIOP@@@@SAXPEAUAddress@IIOP@@@Z
?freebuf@?$_CORBA_Sequence@UBinding@CosNaming@@@@SAXPEAUBinding@CosNaming@@@Z
?freebuf@?$_CORBA_Sequence@UExceptionDescription@CORBA@@@@SAXPEAUExceptionDescription@CORBA@@@Z
?freebuf@?$_CORBA_Sequence@UNameComponent@CosNaming@@@@SAXPEAUNameComponent@CosNaming@@@Z
?freebuf@?$_CORBA_Sequence@UParameterDescription@CORBA@@@@SAXPEAUParameterDescription@CORBA@@@Z
?freebuf@?$_CORBA_Sequence@UServiceContext@IOP@@@@SAXPEAUServiceContext@IOP@@@Z
?freebuf@?$_CORBA_Sequence@UStructMember@CORBA@@@@SAXPEAUStructMember@CORBA@@@Z
?freebuf@?$_CORBA_Sequence@UTaggedComponent@IOP@@@@SAXPEAUTaggedComponent@IOP@@@Z
?freebuf@?$_CORBA_Sequence@UTaggedProfile@IOP@@@@SAXPEAUTaggedProfile@IOP@@@Z
?freebuf@?$_CORBA_Sequence@V_CORBA_Unbounded_Sequence_Octet@@@@SAXPEAV_CORBA_Unbounded_Sequence_Octet@@@Z
?freebuf@?$_CORBA_Sequence_ObjRef@VPOA@PortableServer@@V?$_CORBA_ObjRef_Element@VPOA@PortableServer@@VPOA_Helper@2@@@VPOA_Helper@2@@@SAXPEAPEAVPOA@PortableServer@@@Z
?freebuf@_CORBA_Sequence_String@@SAXPEAPEAD@Z
?freebuf@_CORBA_Sequence_WString@@SAXPEAPEA_W@Z
?fromSslAddress@giopAddress@omni@@SAPEAV12@AEBUAddress@IIOP@@@Z
?fromTcpAddress@giopAddress@omni@@SAPEAV12@AEBUAddress@IIOP@@@Z
?fromU@NCS_C_8bit@omniCodeSet@omni@@QEBAPEAPEBEXZ
?gainRef@omniInProcessIdentity@@UEAAXPEAVomniObjRef@@@Z
?gainRef@omniLocalIdentity@@UEAAXPEAVomniObjRef@@@Z
?gainRef@omniObjTableEntry@@UEAAXPEAVomniObjRef@@@Z
?gainRef@omniRemoteIdentity@@UEAAXPEAVomniObjRef@@@Z
?gainRef@omniShutdownIdentity@@UEAAXPEAVomniObjRef@@@Z
?gain_poa@omniOrbPOAManager@omni@@QEAAXPEAVomniOrbPOA@2@@Z
?gatekeeperCheck@giopConnection@omni@@QEAA_NPEAVgiopStrand@2@@Z
?gatekeeperCheckSpecific@giopConnection@omni@@UEAA_NPEAVgiopStrand@2@@Z
?generateNewKey@omniORB@@YAXAEAUomniOrbBoaKey@@@Z
?get@CORBA_InitialReferences_i@omni@@$4PPPPPPPM@A@EAAPEAVObject@CORBA@@PEBD@Z
?get@CORBA_InitialReferences_i@omni@@UEAAPEAVObject@CORBA@@PEBD@Z
?get@_objref_CORBA_InitialReferences@@QEAAPEAVObject@CORBA@@PEBD@Z
?get@omniCurrent@@SAPEAV1@PEAVomni_thread@@@Z
?get@omniCurrent@@SAPEAV1@XZ
?getAdapter@omniObjAdapter@omni@@SAPEAV12@PEBEH@Z
?getAdapter@omniOrbPOA@omni@@SAPEAV12@PEBEH@Z
?getAddrInfo@LibcWrapper@omni@@SAPEAVAddrInfo@12@PEBDG@Z
?getBOA@BOA@CORBA@@SAPEAV12@XZ
?getBoolean@orbOptions@omni@@SA_NPEBDAEA_N@Z
?getConfigFileName@orbOptions@omni@@QEAAPEBDHPEAPEADPEBD@Z
?getConnection@tcpActiveConnection@omni@@UEAAAEAVgiopConnection@2@XZ
?getDeadline@giopStream@omni@@QEBAAEBUomni_time_t@@XZ
?getDeadline@omniCallDescriptor@@QEBAAEBUomni_time_t@@XZ
?getEPs@EndPointPublishPolicy@omniPolicy@@QEAAPEAVIORPublish@omni@@XZ
?getHandler@omniAsyncCallDescriptor@@UEAAPEAVomniObjRef@@XZ
?getIORInfo@omniIOR@@QEBAPEAVIORInfo@1@XZ
?getInputData@giopImpl10@omni@@SAXPEAVgiopStream@2@W4alignment_t@2@_K@Z
?getInputData@giopImpl11@omni@@SAXPEAVgiopStream@2@W4alignment_t@2@_K@Z
?getInputData@giopImpl12@omni@@SAXPEAVgiopStream@2@W4alignment_t@2@_K@Z
?getInterceptors@omniORB@@YAPEAVomniInterceptors@omni@@XZ
?getInterfaceAddress@giopTransportImpl@omni@@SAPEBV?$omnivector@PEBD@@PEBD@Z
?getInterfaceAddress@tcpTransportImpl@omni@@UEAAPEBV?$omnivector@PEBD@@XZ
?getLength@cdrValueChunkStream@@AEAAKXZ
?getLogFilename@omniORB@@YAPEBDXZ
?getLong@orbOptions@omni@@SA_NPEBDAEAJ@Z
?getNCS_C@omniCodeSet@omni@@SAPEAVNCS_C@12@K@Z
?getNCS_C@omniCodeSet@omni@@SAPEAVNCS_C@12@PEBD@Z
?getNCS_W@omniCodeSet@omni@@SAPEAVNCS_W@12@K@Z
?getNCS_W@omniCodeSet@omni@@SAPEAVNCS_W@12@PEBD@Z
?getOctetStream@cdrEncapsulationStream@@QEAAXAEAPEAEAEAK1@Z
?getReserveSpace@giopImpl10@omni@@SAXPEAVgiopStream@2@W4alignment_t@2@_K@Z
?getReserveSpace@giopImpl11@omni@@SAXPEAVgiopStream@2@W4alignment_t@2@_K@Z
?getReserveSpace@giopImpl12@omni@@SAXPEAVgiopStream@2@W4alignment_t@2@_K@Z
?getSizeT@orbOptions@omni@@SA_NPEBDAEA_K@Z
?getStream@GIOP_C@omni@@UEAAAEAVcdrStream@@XZ
?getStream@GIOP_S@omni@@UEAAAEAVcdrStream@@XZ
?getTCS_C@omniCodeSet@omni@@SAPEAVTCS_C@12@KUVersion@GIOP@@@Z
?getTCS_C@omniCodeSet@omni@@SAPEAVTCS_C@12@PEBDUVersion@GIOP@@@Z
?getTCS_W@omniCodeSet@omni@@SAPEAVTCS_W@12@KUVersion@GIOP@@@Z
?getTCS_W@omniCodeSet@omni@@SAPEAVTCS_W@12@PEBDUVersion@GIOP@@@Z
?getTraceLevel@orbOptions@omni@@QEAAXHPEAPEAD@Z
?getULong@orbOptions@omni@@SA_NPEBDAEAK@Z
?getWorker@omniAsyncInvoker@@AEAAPEAVomniAsyncWorker@@PEAVomniAsyncPool@@@Z
?get_POA@omniOrbPOACurrent@omni@@UEAAPEAVPOA@PortableServer@@XZ
?get_buffer@?$_CORBA_PseudoValue_Sequence@UserviceRecord@omni@@@@QEAAPEAUserviceRecord@omni@@_N@Z
?get_buffer@?$_CORBA_Sequence@E@@QEAAPEAE_N@Z
?get_buffer@?$_CORBA_Sequence@E@@QEBAPEBEXZ
?get_buffer@?$_CORBA_Sequence@UTaggedProfile@IOP@@@@QEBAPEBUTaggedProfile@IOP@@XZ
?get_buffer@_CORBA_Sequence_String@@QEAAPEAPEAD_N@Z
?get_id@omniOrbBOA@omni@@UEAAPEAVReferenceData@CORBA@@PEAVObject@4@@Z
?get_large_octet_array@cdrStream@@QEAAXPEAE_KW4alignment_t@omni@@@Z
?get_obj@LOCATION_FORWARD@omniORB@@QEBAPEAVObject@CORBA@@XZ
?get_object_id@omniOrbPOACurrent@omni@@UEAAPEAVObjectId@PortableServer@@XZ
?get_octet_array@cdrCountingStream@@UEAAXPEAEHW4alignment_t@omni@@@Z
?get_octet_array@cdrMemoryStream@@UEAAXPEAEHW4alignment_t@omni@@@Z
?get_octet_array@cdrStreamAdapter@@MEAAXPEAEHW4alignment_t@omni@@@Z
?get_octet_array@cdrValueChunkStream@@UEAAXPEAEHW4alignment_t@omni@@@Z
?get_octet_array@giopStream@omni@@UEAAXPEAEHW4alignment_t@2@@Z
?get_principal@omniOrbBOA@omni@@UEAAPEAVPrincipal@CORBA@@PEAVObject@4@PEAVEnvironment@4@@Z
?get_real_is_equivalent@omniInProcessIdentity@@UEBAP6A_NPEBVomniIdentity@@0@ZXZ
?get_real_is_equivalent@omniLocalIdentity@@MEBAP6A_NPEBVomniIdentity@@0@ZXZ
?get_real_is_equivalent@omniRemoteIdentity@@UEBAP6A_NPEBVomniIdentity@@0@ZXZ
?get_real_is_equivalent@omniShutdownIdentity@@UEBAP6A_NPEBVomniIdentity@@0@ZXZ
?get_reference@omniOrbPOACurrent@omni@@UEAAPEAVObject@CORBA@@XZ
?get_servant@omniOrbPOA@omni@@UEAAPEAVServantBase@PortableServer@@XZ
?get_servant@omniOrbPOACurrent@omni@@UEAAPEAVServantBase@PortableServer@@XZ
?get_servant_manager@omniOrbPOA@omni@@UEAAPEAVServantManager@PortableServer@@XZ
?get_state@omniOrbPOAManager@omni@@UEAA?AW4State@POAManager@PortableServer@@XZ
?get_time@omni_thread@@SAXAEAUomni_time_t@@@Z
?get_time@omni_thread@@SAXAEAUomni_time_t@@AEBU2@@Z
?get_time@omni_thread@@SAXAEAUomni_time_t@@K@Z
?giopMaxMsgSize@omniORB@@YAKXZ
?giopMaxMsgSize@orbParameters@omni@@3_KA
?giopTargetAddressMode@orbParameters@omni@@3FA
?giopVersion@TCS_C@omniCodeSet@omni@@QEBA?AUVersion@GIOP@@XZ
?giopVersion@TCS_W@omniCodeSet@omni@@QEBA?AUVersion@GIOP@@XZ
?handle@omniAsyncWorker@@QEAAXPEAVomniTask@@@Z
?handleCancelRequest@GIOP_S@omni@@QEAA_NXZ
?handleLocateRequest@GIOP_S@omni@@AEAA_NXZ
?handleRequest@GIOP_S@omni@@AEAA_NXZ
?hasAddress@giopRope@omni@@QEAA_NPEBVgiopAddress@2@@Z
?hash@omni@@YAKPEBEH@Z
?hashsize@connectionState@giopServer@omni@@2KA
?haslocalCallFn@omniCallDescriptor@@QEBA_NXZ
?hold_requests@omniOrbPOAManager@omni@@UEAAX_N@Z
?hook@omniDynamicLib@omni@@2PEAV12@EA
?host@IiopObjAddr@corbalocURIHandler@omni@@QEAAPEBDXZ
?host@giopAddress@omni@@UEBAPEBDXZ
?host@tcpAddress@omni@@UEBAPEBDXZ
?id@Base@omniCodeSet@omni@@QEBAKXZ
?id@omniOrbORB@@UEAAPEADXZ
?id@omniOrbPOA@omni@@UEAAPEAVOctetSeq@CORBA@@XZ
?id@omni_thread@@QEAAHXZ
?id_to_reference@omniOrbPOA@omni@@UEAAPEAVObject@CORBA@@AEBVObjectId@PortableServer@@@Z
?id_to_servant@omniOrbPOA@omni@@UEAAPEAVServantBase@PortableServer@@AEBVObjectId@4@@Z
?identity_count@omniIdentity@@1HA
?idleIncomingBeats@giopStrand@omni@@2KA
?idleOutgoingBeats@giopStrand@omni@@2KA
?idle_scans@SocketCollection@omni@@2IA
?idle_timeout@omniAsyncInvoker@@2IA
?immediateRopeSwitch@orbParameters@omni@@3_NA
?impl@giopStream@omni@@QEAAXPEAVgiopStreamImpl@2@@Z
?impl@giopStream@omni@@QEBAPEAVgiopStreamImpl@2@XZ
?impl_is_ready@omniOrbBOA@omni@@UEAAXPEAVImplementationDef@CORBA@@_N@Z
?impl_shutdown@omniOrbBOA@omni@@UEAAXXZ
?importFromEnv@orbOptions@omni@@QEAAXXZ
?importFromFile@orbOptions@omni@@QEAA_NPEBD@Z
?importFromRegistry@orbOptions@omni@@QEAA_NXZ
?in@?$_CORBA_ObjRef_Var@V_objref_NamingContext@CosNaming@@VNamingContext_Helper@2@@@QEBAPEAV_objref_NamingContext@CosNaming@@XZ
?in@AddrInfo_var@LibcWrapper@omni@@QEBAPEAVAddrInfo@23@XZ
?in@Name_var@CosNaming@@QEBAAEBVName@2@XZ
?in@Object_var@CORBA@@QEBAPEAVObject@2@XZ
?in@_CORBA_String_var@@QEBAPEBDXZ
?inConScanPeriod@orbParameters@omni@@3KA
?inEnd@cdrStream@@IEBA_KXZ
?inMkr@cdrStream@@IEBA_KW4alignment_t@omni@@@Z
?inMkr@cdrStream@@IEBA_KXZ
?inThisAddressSpace@omniInProcessIdentity@@UEAA_NXZ
?inThisAddressSpace@omniLocalIdentity@@UEAA_NXZ
?inThisAddressSpace@omniRemoteIdentity@@UEAA_NXZ
?inThisAddressSpace@omniShutdownIdentity@@UEAA_NXZ
?inc@omni_refcount@@QEAAHXZ
?incarnate@_objref_ServantActivator@PortableServer@@$4PPPPPPPM@A@EAAPEAVServantBase@2@AEBVObjectId@2@PEAVPOA@2@@Z
?incarnate@_objref_ServantActivator@PortableServer@@UEAAPEAVServantBase@2@AEBVObjectId@2@PEAVPOA@2@@Z
?incrRefCount@SocketCollection@omni@@QEAAXXZ
?incrRefCount@giopConnection@omni@@QEAAXXZ
?incrRefCount@giopRope@omni@@UEAAXXZ
?incrRefCount@omniOrbBOA@omni@@UEAAXXZ
?incrRefCount@omniOrbPOA@omni@@UEAAXXZ
?incrRefCount_locked@omniOrbBOA@omni@@QEAAXXZ
?init@omniCurrent@@SAXXZ
?initialise@GIOP_C@omni@@QEAAXPEBVomniIOR@@PEBEHPEAVomniCallDescriptor@@@Z
?initialise@Scavenger@omni@@SAXXZ
?initialise@giopTransportImpl@omni@@UEAAXXZ
?initialise@omniObjAdapter@omni@@SAXXZ
?initialise@tcpTransportImpl@omni@@UEAAXXZ
?initialiseCall@omniCallDescriptor@@UEAAXAEAVcdrStream@@@Z
?initialiseInput@cdrValueChunkStream@@QEAAXXZ
?initialise_bootstrap_agent@omniInitialReferences@omni@@SAXPEBDG@Z
?initialise_bootstrap_agentImpl@omniInitialReferences@omni@@SAXXZ
?inout@StringSeq_var@CORBA@@QEAAAEAVStringSeq@2@XZ
?inout@_CORBA_String_var@@QEAAAEAPEADXZ
?inputBufferDataSize@giopStream@omni@@AEAAKXZ
?inputBufferLast@giopStream@omni@@AEAA_KXZ
?inputBufferMsgSize@giopStream@omni@@AEAAKXZ
?inputBufferStart@giopStream@omni@@AEAA_KXZ
?inputChunk@giopStream@omni@@AEAAPEAUgiopStream_Buffer@2@K@Z
?inputCopyChunk@giopStream@omni@@AEAAXPEAXK@Z
?inputExpectAnotherFragment@giopStream@omni@@AEAAX_N@Z
?inputExpectAnotherFragment@giopStream@omni@@AEBA_NXZ
?inputFragmentToCome@giopStream@omni@@AEAAX_K@Z
?inputFragmentToCome@giopStream@omni@@AEBA_KXZ
?inputFullyBuffered@giopStream@omni@@AEAAX_N@Z
?inputFullyBuffered@giopStream@omni@@AEBA_NXZ
?inputMatchedId@giopStream@omni@@AEAAX_N@Z
?inputMatchedId@giopStream@omni@@AEBA_NXZ
?inputMessage@giopStream@omni@@AEAAPEAUgiopStream_Buffer@2@XZ
?inputMessageBegin@giopImpl10@omni@@SAXPEAVgiopStream@2@P6AX0@Z@Z
?inputMessageBegin@giopImpl11@omni@@SAXPEAVgiopStream@2@P6AX0@Z@Z
?inputMessageBegin@giopImpl12@omni@@SAXPEAVgiopStream@2@P6AX0@Z@Z
?inputMessageEnd@giopImpl10@omni@@SAXPEAVgiopStream@2@_N@Z
?inputMessageEnd@giopImpl11@omni@@SAXPEAVgiopStream@2@_N@Z
?inputMessageEnd@giopImpl12@omni@@SAXPEAVgiopStream@2@_N@Z
?inputMessageSize@giopStream@omni@@AEAAX_K@Z
?inputMessageSize@giopStream@omni@@AEBA_KXZ
?inputNewFragment@giopImpl11@omni@@SAXPEAVgiopStream@2@@Z
?inputNewFragment@giopImpl12@omni@@SAXPEAVgiopStream@2@@Z
?inputNewServerMessage@giopImpl12@omni@@SAXPEAVgiopStream@2@@Z
?inputQueueMessage@giopImpl12@omni@@SAXPEAVgiopStream@2@PEAUgiopStream_Buffer@2@@Z
?inputRaiseCommFailure@giopImpl10@omni@@SAXPEAVgiopStream@2@PEBD@Z
?inputRaiseCommFailure@giopImpl11@omni@@SAXPEAVgiopStream@2@PEBD@Z
?inputRaiseCommFailure@giopImpl12@omni@@SAXPEAVgiopStream@2@PEBD@Z
?inputRemaining@giopImpl10@omni@@SA_KPEAVgiopStream@2@@Z
?inputRemaining@giopImpl11@omni@@SA_KPEAVgiopStream@2@@Z
?inputRemaining@giopImpl12@omni@@SA_KPEAVgiopStream@2@@Z
?inputReplyBegin@giopImpl10@omni@@SA_NPEAVgiopStream@2@P6AX0@Z@Z
?inputReplyBegin@giopImpl11@omni@@SA_NPEAVgiopStream@2@P6AX0@Z@Z
?inputReplyBegin@giopImpl12@omni@@SAXPEAVgiopStream@2@P6AX0@Z@Z
?inputSkipWholeMessage@giopImpl11@omni@@SAXPEAVgiopStream@2@@Z
?inputSkipWholeMessage@giopImpl12@omni@@SAXPEAVgiopStream@2@@Z
?inputTerminalProtocolError@giopImpl10@omni@@SAXPEAVgiopStream@2@PEBDH1@Z
?inputTerminalProtocolError@giopImpl11@omni@@SAXPEAVgiopStream@2@PEBDH1@Z
?inputTerminalProtocolError@giopImpl12@omni@@SAXPEAVgiopStream@2@PEBDH1@Z
?insert@BufferC@omniCodeSetUtil@omni@@QEAAXE@Z
?insert@BufferU@omniCodeSetUtil@omni@@QEAAX_W@Z
?insert@Link@giopServer@omni@@QEAAXAEAV123@@Z
?insert@RopeLink@omni@@QEAAXAEAV12@@Z
?insert@StrandList@omni@@QEAAXAEAV12@@Z
?insert@giopStreamList@omni@@QEAAXAEAV12@@Z
?insert@omniAsyncDedicated@@QEAA_NPEAVomniTask@@@Z
?insert@omniAsyncInvoker@@QEAA_NPEAVomniTask@@@Z
?insert@omniAsyncPool@@QEAA_NPEAVomniTask@@@Z
?insert@omniServantActivatorTaskQueue@omni@@QEAAXPEAVTask@12@@Z
?insertIntoOAObjList@omniObjTableEntry@@QEAAXPEAPEAV1@@Z
?insertToAnyFn@AdapterAlreadyExists@POA@PortableServer@@2P6AXAEAVAny@CORBA@@AEBVException@5@@ZEA
?insertToAnyFn@AdapterInactive@POA@PortableServer@@2P6AXAEAVAny@CORBA@@AEBVException@5@@ZEA
?insertToAnyFn@AdapterInactive@POAManager@PortableServer@@2P6AXAEAVAny@CORBA@@AEBVException@5@@ZEA
?insertToAnyFn@AdapterNonExistent@POA@PortableServer@@2P6AXAEAVAny@CORBA@@AEBVException@5@@ZEA
?insertToAnyFn@AlreadyBound@NamingContext@CosNaming@@2P6AXAEAVAny@CORBA@@AEBVException@5@@ZEA
?insertToAnyFn@BAD_CONTEXT@CORBA@@2P6AXAEAVAny@2@AEBVException@2@@ZEA
?insertToAnyFn@BAD_INV_ORDER@CORBA@@2P6AXAEAVAny@2@AEBVException@2@@ZEA
?insertToAnyFn@BAD_OPERATION@CORBA@@2P6AXAEAVAny@2@AEBVException@2@@ZEA
?insertToAnyFn@BAD_PARAM@CORBA@@2P6AXAEAVAny@2@AEBVException@2@@ZEA
?insertToAnyFn@BAD_QOS@CORBA@@2P6AXAEAVAny@2@AEBVException@2@@ZEA
?insertToAnyFn@BAD_TYPECODE@CORBA@@2P6AXAEAVAny@2@AEBVException@2@@ZEA
?insertToAnyFn@CODESET_INCOMPATIBLE@CORBA@@2P6AXAEAVAny@2@AEBVException@2@@ZEA
?insertToAnyFn@COMM_FAILURE@CORBA@@2P6AXAEAVAny@2@AEBVException@2@@ZEA
?insertToAnyFn@CannotProceed@NamingContext@CosNaming@@2P6AXAEAVAny@CORBA@@AEBVException@5@@ZEA
?insertToAnyFn@DATA_CONVERSION@CORBA@@2P6AXAEAVAny@2@AEBVException@2@@ZEA
?insertToAnyFn@FREE_MEM@CORBA@@2P6AXAEAVAny@2@AEBVException@2@@ZEA
?insertToAnyFn@ForwardRequest@PortableServer@@2P6AXAEAVAny@CORBA@@AEBVException@4@@ZEA
?insertToAnyFn@IMP_LIMIT@CORBA@@2P6AXAEAVAny@2@AEBVException@2@@ZEA
?insertToAnyFn@INITIALIZE@CORBA@@2P6AXAEAVAny@2@AEBVException@2@@ZEA
?insertToAnyFn@INTERNAL@CORBA@@2P6AXAEAVAny@2@AEBVException@2@@ZEA
?insertToAnyFn@INTF_REPOS@CORBA@@2P6AXAEAVAny@2@AEBVException@2@@ZEA
?insertToAnyFn@INVALID_TRANSACTION@CORBA@@2P6AXAEAVAny@2@AEBVException@2@@ZEA
?insertToAnyFn@INV_FLAG@CORBA@@2P6AXAEAVAny@2@AEBVException@2@@ZEA
?insertToAnyFn@INV_IDENT@CORBA@@2P6AXAEAVAny@2@AEBVException@2@@ZEA
?insertToAnyFn@INV_OBJREF@CORBA@@2P6AXAEAVAny@2@AEBVException@2@@ZEA
?insertToAnyFn@INV_POLICY@CORBA@@2P6AXAEAVAny@2@AEBVException@2@@ZEA
?insertToAnyFn@InvalidAddress@NamingContextExt@CosNaming@@2P6AXAEAVAny@CORBA@@AEBVException@5@@ZEA
?insertToAnyFn@InvalidName@NamingContext@CosNaming@@2P6AXAEAVAny@CORBA@@AEBVException@5@@ZEA
?insertToAnyFn@InvalidName@ORB@CORBA@@2P6AXAEAVAny@3@AEBVException@3@@ZEA
?insertToAnyFn@InvalidPolicy@POA@PortableServer@@2P6AXAEAVAny@CORBA@@AEBVException@5@@ZEA
?insertToAnyFn@MARSHAL@CORBA@@2P6AXAEAVAny@2@AEBVException@2@@ZEA
?insertToAnyFn@NO_IMPLEMENT@CORBA@@2P6AXAEAVAny@2@AEBVException@2@@ZEA
?insertToAnyFn@NO_MEMORY@CORBA@@2P6AXAEAVAny@2@AEBVException@2@@ZEA
?insertToAnyFn@NO_PERMISSION@CORBA@@2P6AXAEAVAny@2@AEBVException@2@@ZEA
?insertToAnyFn@NO_RESOURCES@CORBA@@2P6AXAEAVAny@2@AEBVException@2@@ZEA
?insertToAnyFn@NO_RESPONSE@CORBA@@2P6AXAEAVAny@2@AEBVException@2@@ZEA
?insertToAnyFn@NoContext@Current@PortableServer@@2P6AXAEAVAny@CORBA@@AEBVException@5@@ZEA
?insertToAnyFn@NoServant@POA@PortableServer@@2P6AXAEAVAny@CORBA@@AEBVException@5@@ZEA
?insertToAnyFn@NotEmpty@NamingContext@CosNaming@@2P6AXAEAVAny@CORBA@@AEBVException@5@@ZEA
?insertToAnyFn@NotFound@NamingContext@CosNaming@@2P6AXAEAVAny@CORBA@@AEBVException@5@@ZEA
?insertToAnyFn@OBJECT_NOT_EXIST@CORBA@@2P6AXAEAVAny@2@AEBVException@2@@ZEA
?insertToAnyFn@OBJ_ADAPTER@CORBA@@2P6AXAEAVAny@2@AEBVException@2@@ZEA
?insertToAnyFn@ObjectAlreadyActive@POA@PortableServer@@2P6AXAEAVAny@CORBA@@AEBVException@5@@ZEA
?insertToAnyFn@ObjectNotActive@POA@PortableServer@@2P6AXAEAVAny@CORBA@@AEBVException@5@@ZEA
?insertToAnyFn@PERSIST_STORE@CORBA@@2P6AXAEAVAny@2@AEBVException@2@@ZEA
?insertToAnyFn@PolicyError@CORBA@@2P6AXAEAVAny@2@AEBVException@2@@ZEA
?insertToAnyFn@REBIND@CORBA@@2P6AXAEAVAny@2@AEBVException@2@@ZEA
?insertToAnyFn@ServantAlreadyActive@POA@PortableServer@@2P6AXAEAVAny@CORBA@@AEBVException@5@@ZEA
?insertToAnyFn@ServantNotActive@POA@PortableServer@@2P6AXAEAVAny@CORBA@@AEBVException@5@@ZEA
?insertToAnyFn@TIMEOUT@CORBA@@2P6AXAEAVAny@2@AEBVException@2@@ZEA
?insertToAnyFn@TRANSACTION_MODE@CORBA@@2P6AXAEAVAny@2@AEBVException@2@@ZEA
?insertToAnyFn@TRANSACTION_REQUIRED@CORBA@@2P6AXAEAVAny@2@AEBVException@2@@ZEA
?insertToAnyFn@TRANSACTION_ROLLEDBACK@CORBA@@2P6AXAEAVAny@2@AEBVException@2@@ZEA
?insertToAnyFn@TRANSACTION_UNAVAILABLE@CORBA@@2P6AXAEAVAny@2@AEBVException@2@@ZEA
?insertToAnyFn@TRANSIENT@CORBA@@2P6AXAEAVAny@2@AEBVException@2@@ZEA
?insertToAnyFn@UNKNOWN@CORBA@@2P6AXAEAVAny@2@AEBVException@2@@ZEA
?insertToAnyFn@WrongAdapter@POA@PortableServer@@2P6AXAEAVAny@CORBA@@AEBVException@5@@ZEA
?insertToAnyFn@WrongPolicy@POA@PortableServer@@2P6AXAEAVAny@CORBA@@AEBVException@5@@ZEA
?insertToAnyFnNCP@AdapterAlreadyExists@POA@PortableServer@@2P6AXAEAVAny@CORBA@@PEBVException@5@@ZEA
?insertToAnyFnNCP@AdapterInactive@POA@PortableServer@@2P6AXAEAVAny@CORBA@@PEBVException@5@@ZEA
?insertToAnyFnNCP@AdapterInactive@POAManager@PortableServer@@2P6AXAEAVAny@CORBA@@PEBVException@5@@ZEA
?insertToAnyFnNCP@AdapterNonExistent@POA@PortableServer@@2P6AXAEAVAny@CORBA@@PEBVException@5@@ZEA
?insertToAnyFnNCP@AlreadyBound@NamingContext@CosNaming@@2P6AXAEAVAny@CORBA@@PEBVException@5@@ZEA
?insertToAnyFnNCP@BAD_CONTEXT@CORBA@@2P6AXAEAVAny@2@PEBVException@2@@ZEA
?insertToAnyFnNCP@BAD_INV_ORDER@CORBA@@2P6AXAEAVAny@2@PEBVException@2@@ZEA
?insertToAnyFnNCP@BAD_OPERATION@CORBA@@2P6AXAEAVAny@2@PEBVException@2@@ZEA
?insertToAnyFnNCP@BAD_PARAM@CORBA@@2P6AXAEAVAny@2@PEBVException@2@@ZEA
?insertToAnyFnNCP@BAD_QOS@CORBA@@2P6AXAEAVAny@2@PEBVException@2@@ZEA
?insertToAnyFnNCP@BAD_TYPECODE@CORBA@@2P6AXAEAVAny@2@PEBVException@2@@ZEA
?insertToAnyFnNCP@CODESET_INCOMPATIBLE@CORBA@@2P6AXAEAVAny@2@PEBVException@2@@ZEA
?insertToAnyFnNCP@COMM_FAILURE@CORBA@@2P6AXAEAVAny@2@PEBVException@2@@ZEA
?insertToAnyFnNCP@CannotProceed@NamingContext@CosNaming@@2P6AXAEAVAny@CORBA@@PEBVException@5@@ZEA
?insertToAnyFnNCP@DATA_CONVERSION@CORBA@@2P6AXAEAVAny@2@PEBVException@2@@ZEA
?insertToAnyFnNCP@FREE_MEM@CORBA@@2P6AXAEAVAny@2@PEBVException@2@@ZEA
?insertToAnyFnNCP@ForwardRequest@PortableServer@@2P6AXAEAVAny@CORBA@@PEBVException@4@@ZEA
?insertToAnyFnNCP@IMP_LIMIT@CORBA@@2P6AXAEAVAny@2@PEBVException@2@@ZEA
?insertToAnyFnNCP@INITIALIZE@CORBA@@2P6AXAEAVAny@2@PEBVException@2@@ZEA
?insertToAnyFnNCP@INTERNAL@CORBA@@2P6AXAEAVAny@2@PEBVException@2@@ZEA
?insertToAnyFnNCP@INTF_REPOS@CORBA@@2P6AXAEAVAny@2@PEBVException@2@@ZEA
?insertToAnyFnNCP@INVALID_TRANSACTION@CORBA@@2P6AXAEAVAny@2@PEBVException@2@@ZEA
?insertToAnyFnNCP@INV_FLAG@CORBA@@2P6AXAEAVAny@2@PEBVException@2@@ZEA
?insertToAnyFnNCP@INV_IDENT@CORBA@@2P6AXAEAVAny@2@PEBVException@2@@ZEA
?insertToAnyFnNCP@INV_OBJREF@CORBA@@2P6AXAEAVAny@2@PEBVException@2@@ZEA
?insertToAnyFnNCP@INV_POLICY@CORBA@@2P6AXAEAVAny@2@PEBVException@2@@ZEA
?insertToAnyFnNCP@InvalidAddress@NamingContextExt@CosNaming@@2P6AXAEAVAny@CORBA@@PEBVException@5@@ZEA
?insertToAnyFnNCP@InvalidName@NamingContext@CosNaming@@2P6AXAEAVAny@CORBA@@PEBVException@5@@ZEA
?insertToAnyFnNCP@InvalidName@ORB@CORBA@@2P6AXAEAVAny@3@PEBVException@3@@ZEA
?insertToAnyFnNCP@InvalidPolicy@POA@PortableServer@@2P6AXAEAVAny@CORBA@@PEBVException@5@@ZEA
?insertToAnyFnNCP@MARSHAL@CORBA@@2P6AXAEAVAny@2@PEBVException@2@@ZEA
?insertToAnyFnNCP@NO_IMPLEMENT@CORBA@@2P6AXAEAVAny@2@PEBVException@2@@ZEA
?insertToAnyFnNCP@NO_MEMORY@CORBA@@2P6AXAEAVAny@2@PEBVException@2@@ZEA
?insertToAnyFnNCP@NO_PERMISSION@CORBA@@2P6AXAEAVAny@2@PEBVException@2@@ZEA
?insertToAnyFnNCP@NO_RESOURCES@CORBA@@2P6AXAEAVAny@2@PEBVException@2@@ZEA
?insertToAnyFnNCP@NO_RESPONSE@CORBA@@2P6AXAEAVAny@2@PEBVException@2@@ZEA
?insertToAnyFnNCP@NoContext@Current@PortableServer@@2P6AXAEAVAny@CORBA@@PEBVException@5@@ZEA
?insertToAnyFnNCP@NoServant@POA@PortableServer@@2P6AXAEAVAny@CORBA@@PEBVException@5@@ZEA
?insertToAnyFnNCP@NotEmpty@NamingContext@CosNaming@@2P6AXAEAVAny@CORBA@@PEBVException@5@@ZEA
?insertToAnyFnNCP@NotFound@NamingContext@CosNaming@@2P6AXAEAVAny@CORBA@@PEBVException@5@@ZEA
?insertToAnyFnNCP@OBJECT_NOT_EXIST@CORBA@@2P6AXAEAVAny@2@PEBVException@2@@ZEA
?insertToAnyFnNCP@OBJ_ADAPTER@CORBA@@2P6AXAEAVAny@2@PEBVException@2@@ZEA
?insertToAnyFnNCP@ObjectAlreadyActive@POA@PortableServer@@2P6AXAEAVAny@CORBA@@PEBVException@5@@ZEA
?insertToAnyFnNCP@ObjectNotActive@POA@PortableServer@@2P6AXAEAVAny@CORBA@@PEBVException@5@@ZEA
?insertToAnyFnNCP@PERSIST_STORE@CORBA@@2P6AXAEAVAny@2@PEBVException@2@@ZEA
?insertToAnyFnNCP@PolicyError@CORBA@@2P6AXAEAVAny@2@PEBVException@2@@ZEA
?insertToAnyFnNCP@REBIND@CORBA@@2P6AXAEAVAny@2@PEBVException@2@@ZEA
?insertToAnyFnNCP@ServantAlreadyActive@POA@PortableServer@@2P6AXAEAVAny@CORBA@@PEBVException@5@@ZEA
?insertToAnyFnNCP@ServantNotActive@POA@PortableServer@@2P6AXAEAVAny@CORBA@@PEBVException@5@@ZEA
?insertToAnyFnNCP@TIMEOUT@CORBA@@2P6AXAEAVAny@2@PEBVException@2@@ZEA
?insertToAnyFnNCP@TRANSACTION_MODE@CORBA@@2P6AXAEAVAny@2@PEBVException@2@@ZEA
?insertToAnyFnNCP@TRANSACTION_REQUIRED@CORBA@@2P6AXAEAVAny@2@PEBVException@2@@ZEA
?insertToAnyFnNCP@TRANSACTION_ROLLEDBACK@CORBA@@2P6AXAEAVAny@2@PEBVException@2@@ZEA
?insertToAnyFnNCP@TRANSACTION_UNAVAILABLE@CORBA@@2P6AXAEAVAny@2@PEBVException@2@@ZEA
?insertToAnyFnNCP@TRANSIENT@CORBA@@2P6AXAEAVAny@2@PEBVException@2@@ZEA
?insertToAnyFnNCP@UNKNOWN@CORBA@@2P6AXAEAVAny@2@PEBVException@2@@ZEA
?insertToAnyFnNCP@WrongAdapter@POA@PortableServer@@2P6AXAEAVAny@CORBA@@PEBVException@5@@ZEA
?insertToAnyFnNCP@WrongPolicy@POA@PortableServer@@2P6AXAEAVAny@CORBA@@PEBVException@5@@ZEA
?insert_child@omniOrbPOA@omni@@AEAAXPEAV12@@Z
?install@omniInitialiser@omni@@SAXPEAV12@@Z
?installCommFailureExceptionHandler@omniORB@@YAXPEAVObject@CORBA@@PEAXP6A_N1KAEBVCOMM_FAILURE@3@@Z@Z
?installCommFailureExceptionHandler@omniORB@@YAXPEAXP6A_N0KAEBVCOMM_FAILURE@CORBA@@@Z@Z
?installCommFailureExceptionHandlerExt@omniORB@@YAXPEAVObject@CORBA@@PEAXP6A_N1KAEBVCOMM_FAILURE@3@0PEBD@Z@Z
?installCommFailureExceptionHandlerExt@omniORB@@YAXPEAXP6A_N0KAEBVCOMM_FAILURE@CORBA@@PEAVObject@3@PEBD@Z@Z
?installSystemExceptionHandler@omniORB@@YAXPEAVObject@CORBA@@PEAXP6A_N1KAEBVSystemException@3@@Z@Z
?installSystemExceptionHandler@omniORB@@YAXPEAXP6A_N0KAEBVSystemException@CORBA@@@Z@Z
?installSystemExceptionHandlerExt@omniORB@@YAXPEAVObject@CORBA@@PEAXP6A_N1KAEBVSystemException@3@0PEBD@Z@Z
?installSystemExceptionHandlerExt@omniORB@@YAXPEAXP6A_N0KAEBVSystemException@CORBA@@PEAVObject@3@PEBD@Z@Z
?installTimeoutExceptionHandler@omniORB@@YAXPEAVObject@CORBA@@PEAXP6A_N1KAEBVTIMEOUT@3@@Z@Z
?installTimeoutExceptionHandler@omniORB@@YAXPEAXP6A_N0KAEBVTIMEOUT@CORBA@@@Z@Z
?installTimeoutExceptionHandlerExt@omniORB@@YAXPEAVObject@CORBA@@PEAXP6A_N1KAEBVTIMEOUT@3@0PEBD@Z@Z
?installTimeoutExceptionHandlerExt@omniORB@@YAXPEAXP6A_N0KAEBVTIMEOUT@CORBA@@PEAVObject@3@PEBD@Z@Z
?installTransientExceptionHandler@omniORB@@YAXPEAVObject@CORBA@@PEAXP6A_N1KAEBVTRANSIENT@3@@Z@Z
?installTransientExceptionHandler@omniORB@@YAXPEAXP6A_N0KAEBVTRANSIENT@CORBA@@@Z@Z
?installTransientExceptionHandlerExt@omniORB@@YAXPEAVObject@CORBA@@PEAXP6A_N1KAEBVTRANSIENT@3@0PEBD@Z@Z
?installTransientExceptionHandlerExt@omniORB@@YAXPEAXP6A_N0KAEBVTRANSIENT@CORBA@@PEAVObject@3@PEBD@Z@Z
?instantiate@giopServer@omni@@UEAA_NPEBD_NAEAV_CORBA_Unbounded_Sequence_String@@@Z
?interceptedCall@omniCallDescriptor@@QEAAXPEAVomniServant@@@Z
?internalLock@omni@@3PEAVomni_tracedmutex@@EA
?invoke_bootstrap_agentImpl@omniInitialReferences@omni@@SAHAEAVomniCallHandle@@@Z
?iopProfiles@omniIOR@@QEBAAEBV?$_CORBA_Unbounded_Sequence@UTaggedProfile@IOP@@@@XZ
?ior@GIOP_C@omni@@QEAAXPEBVomniIOR@@@Z
?ior@GIOP_C@omni@@QEBAPEBVomniIOR@@XZ
?isBiDir@giopStrand@omni@@QEAA_NXZ
?isClient@giopStrand@omni@@QEAA_NXZ
?isDeactivating@omniObjAdapter@omni@@SA_NXZ
?isEmpty@tcpActiveCollection@omni@@UEBA_NXZ
?isInitialised@omniObjAdapter@omni@@SA_NXZ
?isSelectable@SocketCollection@omni@@QEAA_N_K@Z
?isSelectable@tcpConnection@omni@@UEAA_NXZ
?isValid@tcpTransportImpl@omni@@UEAA_NPEBD@Z
?is_COMM_FAILURE_minor@omni@@YA_NK@Z
?is_OMG_minor@omni@@YA_NK@Z
?is_a@_pof_AdapterActivator@PortableServer@@UEBA_NPEBD@Z
?is_a@_pof_BindingIterator@CosNaming@@UEBA_NPEBD@Z
?is_a@_pof_CORBA_InitialReferences@@UEBA_NPEBD@Z
?is_a@_pof_NamingContext@CosNaming@@UEBA_NPEBD@Z
?is_a@_pof_NamingContextExt@CosNaming@@UEBA_NPEBD@Z
?is_a@_pof_ServantActivator@PortableServer@@UEBA_NPEBD@Z
?is_a@_pof_ServantLocator@PortableServer@@UEBA_NPEBD@Z
?is_a@_pof_ServantManager@PortableServer@@UEBA_NPEBD@Z
?is_a@omniAnonObjRef_pof@omni@@UEBA_NPEBD@Z
?is_adapteractivating_child@omniOrbPOA@omni@@AEAAHPEBD@Z
?is_bootstrap_agentImpl_initialised@omniInitialReferences@omni@@SAHXZ
?is_empty@Link@giopServer@omni@@SA_NAEAV123@@Z
?is_empty@RopeLink@omni@@SA_NAEAV12@@Z
?is_empty@StrandList@omni@@SA_NAEAV12@@Z
?is_empty@giopStreamList@omni@@SA_NAEAV12@@Z
?is_empty@omniTaskLink@@SAIAEAV1@@Z
?is_equal@omniIdentity@@QEBAHPEBEH@Z
?is_equal@omniObjKey@@QEBAHPEBEH@Z
?is_equivalent@omniIdentity@@QEAA_NPEBV1@@Z
?is_idle@omniLocalIdentity@@QEBAHXZ
?is_nil@AdapterActivator_Helper@PortableServer@@SA_NPEAVAdapterActivator@2@@Z
?is_nil@BindingIterator_Helper@CosNaming@@SA_NPEAV_objref_BindingIterator@2@@Z
?is_nil@CORBA@@YA_NPEAVObject@1@@Z
?is_nil@CORBA_InitialReferences_Helper@@SA_NPEAV_objref_CORBA_InitialReferences@@@Z
?is_nil@LocalObject_Helper@CORBA@@SA_NPEAVLocalObject@2@@Z
?is_nil@NamingContextExt_Helper@CosNaming@@SA_NPEAV_objref_NamingContextExt@2@@Z
?is_nil@NamingContext_Helper@CosNaming@@SA_NPEAV_objref_NamingContext@2@@Z
?is_nil@Object_Helper@CORBA@@SA_NPEAVObject@2@@Z
?is_nil@POA_Helper@PortableServer@@SA_NPEAVPOA@2@@Z
?is_nil@ServantActivator_Helper@PortableServer@@SA_NPEAVServantActivator@2@@Z
?is_nil@ServantLocator_Helper@PortableServer@@SA_NPEAVServantLocator@2@@Z
?is_nil@ServantManager_Helper@PortableServer@@SA_NPEAVServantManager@2@@Z
?is_omniORB_minor@omni@@YA_NK@Z
?is_oneway@omniCallDescriptor@@QEBA_NXZ
?is_permanent@LOCATION_FORWARD@omniORB@@QEBA_NXZ
?is_upcall@omniCallDescriptor@@QEBA_NXZ
?isip4addr@LibcWrapper@omni@@SA_NPEBD@Z
?isip6addr@LibcWrapper@omni@@SA_NPEBD@Z
?isipaddr@LibcWrapper@omni@@SA_NPEBD@Z
?key@GIOP_C@omni@@QEAAXPEBE@Z
?key@GIOP_C@omni@@QEBAPEBEXZ
?key@GIOP_S@omni@@QEBAPEAEXZ
?key@Handler@orbOptions@omni@@QEBAPEBDXZ
?key@omniIdentity@@QEBAPEBEXZ
?key@omniObjKey@@QEBAPEBEXZ
?keyToOctetSequence@omniORB@@YAPEAV_CORBA_Unbounded_Sequence_Octet@@AEBUomniOrbBoaKey@@@Z
?keysize@GIOP_C@omni@@QEAAXK@Z
?keysize@GIOP_C@omni@@QEBAKXZ
?keysize@GIOP_S@omni@@QEAAXH@Z
?keysize@GIOP_S@omni@@QEBAHXZ
?keysize@omniIdentity@@QEBAHXZ
?kind@Base@omniCodeSet@omni@@QEBA?AW4Kind@23@XZ
?kind@IiopObjAddr@corbalocURIHandler@omni@@UEAA?AW4AddrKind@ObjAddr@23@XZ
?kind@RirObjAddr@corbalocURIHandler@omni@@UEAA?AW4AddrKind@ObjAddr@23@XZ
?kind@SsliopObjAddr@corbalocURIHandler@omni@@UEAA?AW4AddrKind@ObjAddr@23@XZ
?kind@UiopObjAddr@corbalocURIHandler@omni@@UEAA?AW4AddrKind@ObjAddr@23@XZ
?lastIdentityHasBeenDeleted@omniIdentity@@KAXXZ
?lastInvocationHasCompleted@omniOrbBOA@omni@@UEAAXPEAVomniLocalIdentity@@@Z
?lastInvocationHasCompleted@omniOrbPOA@omni@@UEAAXPEAVomniLocalIdentity@@@Z
?lcdMode@orbParameters@omni@@3_NA
?lcfn@omni_interface_CallDesc@omni@@SAXPEAVomniCallDescriptor@@PEAVomniServant@@@Z
?lcfn@omni_is_a_CallDesc@omni@@SAXPEAVomniCallDescriptor@@PEAVomniServant@@@Z
?lcfn@omni_non_existent_CallDesc@omni@@SAXPEAVomniCallDescriptor@@PEAVomniServant@@@Z
?leaveAdapter@omniObjAdapter@omni@@QEAAXXZ
?len@_CORBA_WString_helper@@SAHPEB_W@Z
?length@?$_CORBA_PseudoValue_Sequence@PEAVIORExtraInfo@omniIOR@@@@QEAAXK@Z
?length@?$_CORBA_PseudoValue_Sequence@PEAVIORExtraInfo@omniIOR@@@@QEBAKXZ
?length@?$_CORBA_PseudoValue_Sequence@PEAVomniOrbPOA@omni@@@@QEAAXK@Z
?length@?$_CORBA_PseudoValue_Sequence@PEAVomniOrbPOA@omni@@@@QEBAKXZ
?length@?$_CORBA_PseudoValue_Sequence@UserviceRecord@omni@@@@QEAAXK@Z
?length@?$_CORBA_PseudoValue_Sequence@UserviceRecord@omni@@@@QEBAKXZ
?length@?$_CORBA_Pseudo_Unbounded_Sequence@VPolicy@CORBA@@V?$_CORBA_PseudoObj_Member@VPolicy@CORBA@@V?$_CORBA_PseudoObj_Var@VPolicy@CORBA@@@@@@@@QEAAXK@Z
?length@?$_CORBA_Pseudo_Unbounded_Sequence@VPolicy@CORBA@@V?$_CORBA_PseudoObj_Member@VPolicy@CORBA@@V?$_CORBA_PseudoObj_Var@VPolicy@CORBA@@@@@@@@QEBAKXZ
?length@?$_CORBA_Sequence@E@@QEAAXK@Z
?length@?$_CORBA_Sequence@E@@QEBAKXZ
?length@?$_CORBA_Sequence@K@@QEAAXK@Z
?length@?$_CORBA_Sequence@K@@QEBAKXZ
?length@?$_CORBA_Sequence@UAddress@IIOP@@@@QEAAXK@Z
?length@?$_CORBA_Sequence@UAddress@IIOP@@@@QEBAKXZ
?length@?$_CORBA_Sequence@UBinding@CosNaming@@@@QEAAXK@Z
?length@?$_CORBA_Sequence@UNameComponent@CosNaming@@@@QEAAXK@Z
?length@?$_CORBA_Sequence@UNameComponent@CosNaming@@@@QEBAKXZ
?length@?$_CORBA_Sequence@UServiceContext@IOP@@@@QEAAXK@Z
?length@?$_CORBA_Sequence@UServiceContext@IOP@@@@QEBAKXZ
?length@?$_CORBA_Sequence@UTaggedComponent@IOP@@@@QEAAXK@Z
?length@?$_CORBA_Sequence@UTaggedComponent@IOP@@@@QEBAKXZ
?length@?$_CORBA_Sequence@UTaggedProfile@IOP@@@@QEAAXK@Z
?length@?$_CORBA_Sequence@UTaggedProfile@IOP@@@@QEBAKXZ
?length@?$_CORBA_Sequence@V_CORBA_Unbounded_Sequence_Octet@@@@QEAAXK@Z
?length@?$_CORBA_Sequence@V_CORBA_Unbounded_Sequence_Octet@@@@QEBAKXZ
?length@?$_CORBA_Sequence_ObjRef@VPOA@PortableServer@@V?$_CORBA_ObjRef_Element@VPOA@PortableServer@@VPOA_Helper@2@@@VPOA_Helper@2@@@QEAAXK@Z
?length@BufferC@omniCodeSetUtil@omni@@QEAAKXZ
?length@BufferU@omniCodeSetUtil@omni@@QEAAKXZ
?length@_CORBA_Sequence_String@@QEAAXK@Z
?length@_CORBA_Sequence_String@@QEBAKXZ
?length@_CORBA_Sequence_WString@@QEAAXK@Z
?line@fatalException@omniORB@@QEBAHXZ
?list@CORBA_InitialReferences_i@omni@@$4PPPPPPPM@A@EAAPEAVObjIdList@CORBA_InitialReferences@@XZ
?list@CORBA_InitialReferences_i@omni@@UEAAPEAVObjIdList@CORBA_InitialReferences@@XZ
?list@_objref_CORBA_InitialReferences@@QEAAPEAVObjIdList@CORBA_InitialReferences@@XZ
?list@_objref_NamingContext@CosNaming@@QEAAXKVBindingList_out@2@V?$_CORBA_ObjRef_OUT_arg@V_objref_BindingIterator@CosNaming@@VBindingIterator_Helper@2@@@@Z
?list@omniInitialReferences@omni@@SAPEAVObjectIdList@ORB@CORBA@@XZ
?listMyEndpoints@omniObjAdapter@omni@@SAAEBV_CORBA_Unbounded_Sequence_String@@XZ
?list_initial_services@omniOrbORB@@UEAAPEAVObjectIdList@ORB@CORBA@@XZ
?listenBacklog@orbParameters@omni@@3KA
?locToObject@corbalocURIHandler@omni@@SAPEAVObject@CORBA@@AEAPEBDIPEBD@Z
?localId@omniCallDescriptor@@QEAAPEAVomniLocalIdentity@@XZ
?localId@omniCallDescriptor@@QEAAXPEAVomniLocalIdentity@@@Z
?localId@omniCallHandle@@QEAAXPEAVomniLocalIdentity@@@Z
?localId_to_ObjectId@omniOrbPOA@omni@@QEAAPEAVObjectId@PortableServer@@PEAVomniIdentity@@@Z
?localId_to_ObjectId@omniOrbPOA@omni@@QEAAXPEAVomniIdentity@@AEAVObjectId@PortableServer@@@Z
?localInvocationCount@omni@@3HA
?locate@omniObjTable@@SAPEAVomniObjTableEntry@@PEBEHKK@Z
?locateActive@omniObjTable@@SAPEAVomniObjTableEntry@@PEBEHK_N@Z
?locateRequest@omniInProcessIdentity@@UEAAXAEAVomniCallDescriptor@@@Z
?locateRequest@omniRemoteIdentity@@UEAAXAEAVomniCallDescriptor@@@Z
?locateRequest@omniShutdownIdentity@@UEAAXAEAVomniCallDescriptor@@@Z
?locateStatus@GIOP_C@omni@@QEAAXW4LocateStatusType@GIOP@@@Z
?locateStatus@GIOP_C@omni@@QEBA?AW4LocateStatusType@GIOP@@XZ
?locationForward@omni@@YAXPEAVomniObjRef@@0_N@Z
?lock@omniIOR@@2PEAVomni_tracedmutex@@EA
?lock@omniServantActivatorTaskQueue@omni@@QEAAXXZ
?lock@omni_mutex@@QEAAXXZ
?lock@omni_rmutex@@QEAAXXZ
?logCodeSets@omniCodeSet@omni@@SAXXZ
?logConnectFailure@tcpSocket@omni@@SAXPEBDPEAVAddrInfo@LibcWrapper@2@@Z
?logs@omniORB@@YAXKPEBD@Z
?lookup@proxyObjectFactory@omni@@SAPEAV12@PEBD@Z
?loseRef@omniInProcessIdentity@@UEAAXPEAVomniObjRef@@@Z
?loseRef@omniLocalIdentity@@UEAAXPEAVomniObjRef@@@Z
?loseRef@omniObjTableEntry@@UEAAXPEAVomniObjRef@@@Z
?loseRef@omniRemoteIdentity@@UEAAXPEAVomniObjRef@@@Z
?loseRef@omniShutdownIdentity@@UEAAXPEAVomniObjRef@@@Z
?lose_child@omniOrbPOA@omni@@AEAAXPEAV12@@Z
?lose_poa@omniOrbPOAManager@omni@@QEAAXPEAVomniOrbPOA@2@@Z
?mainThread@omniCallHandle@@QEAAXPEAVomni_tracedmutex@@PEAVomni_tracedcondition@@@Z
?mainThreadId@omni@@3HA
?majver@IiopObjAddr@corbalocURIHandler@omni@@QEAAEXZ
?markRdLock@giopStream@omni@@QEAAXXZ
?marshalArguments@_0RL_cd_69ceca6a39f685b5_00000000@@UEAAXAEAVcdrStream@@@Z
?marshalArguments@_0RL_cd_69ceca6a39f685b5_02000000@@UEAAXAEAVcdrStream@@@Z
?marshalArguments@_0RL_cd_69ceca6a39f685b5_20000000@@UEAAXAEAVcdrStream@@@Z
?marshalArguments@_0RL_cd_69ceca6a39f685b5_21000000@@UEAAXAEAVcdrStream@@@Z
?marshalArguments@_0RL_cd_69ceca6a39f685b5_40000000@@UEAAXAEAVcdrStream@@@Z
?marshalArguments@_0RL_cd_69ceca6a39f685b5_60000000@@UEAAXAEAVcdrStream@@@Z
?marshalArguments@_0RL_cd_69ceca6a39f685b5_61000000@@UEAAXAEAVcdrStream@@@Z
?marshalArguments@_0RL_cd_69ceca6a39f685b5_80000000@@UEAAXAEAVcdrStream@@@Z
?marshalArguments@_0RL_cd_69ceca6a39f685b5_a0000000@@UEAAXAEAVcdrStream@@@Z
?marshalArguments@_0RL_cd_69ceca6a39f685b5_a1000000@@UEAAXAEAVcdrStream@@@Z
?marshalArguments@_0RL_cd_69ceca6a39f685b5_c1000000@@UEAAXAEAVcdrStream@@@Z
?marshalArguments@_0RL_cd_69ceca6a39f685b5_e0000000@@UEAAXAEAVcdrStream@@@Z
?marshalArguments@_0RL_cd_69ceca6a39f685b5_e1000000@@UEAAXAEAVcdrStream@@@Z
?marshalArguments@_0RL_cd_96f078e2247ab9da_00000000@@UEAAXAEAVcdrStream@@@Z
?marshalArguments@_cCORBA_mObject_i_cstring@omniStdCallDesc@@UEAAXAEAVcdrStream@@@Z
?marshalArguments@omniCallDescriptor@@UEAAXAEAVcdrStream@@@Z
?marshalArguments@omniLocalOnlyCallDescriptor@@UEAAXAEAVcdrStream@@@Z
?marshalArguments@omni_is_a_CallDesc@omni@@UEAAXAEAVcdrStream@@@Z
?marshalBoolean@cdrStream@@QEAAX_N@Z
?marshalChar@NCS_C_8bit@omniCodeSet@omni@@UEAAXAEAVcdrStream@@PEAVTCS_C@23@E@Z
?marshalChar@NCS_C_UTF_8@omni@@UEAAXAEAVcdrStream@@PEAVTCS_C@omniCodeSet@2@E@Z
?marshalChar@TCS_C_8bit@omniCodeSet@omni@@UEAAXAEAVcdrStream@@_W@Z
?marshalChar@TCS_C_UTF_8@omni@@UEAAXAEAVcdrStream@@_W@Z
?marshalDouble@cdrStream@@QEAAXN@Z
?marshalIORAddressingInfo@omniIOR@@QEBAXAEAVcdrStream@@@Z
?marshalLong@cdrStream@@QEAAXJ@Z
?marshalLongLong@cdrStream@@QEAAX_J@Z
?marshalObjRef@AdapterActivator_Helper@PortableServer@@SAXPEAVAdapterActivator@2@AEAVcdrStream@@@Z
?marshalObjRef@BindingIterator_Helper@CosNaming@@SAXPEAV_objref_BindingIterator@2@AEAVcdrStream@@@Z
?marshalObjRef@CORBA_InitialReferences_Helper@@SAXPEAV_objref_CORBA_InitialReferences@@AEAVcdrStream@@@Z
?marshalObjRef@LocalObject_Helper@CORBA@@SAXPEAVLocalObject@2@AEAVcdrStream@@@Z
?marshalObjRef@NamingContextExt_Helper@CosNaming@@SAXPEAV_objref_NamingContextExt@2@AEAVcdrStream@@@Z
?marshalObjRef@NamingContext_Helper@CosNaming@@SAXPEAV_objref_NamingContext@2@AEAVcdrStream@@@Z
?marshalObjRef@Object_Helper@CORBA@@SAXPEAVObject@2@AEAVcdrStream@@@Z
?marshalObjRef@ServantActivator_Helper@PortableServer@@SAXPEAVServantActivator@2@AEAVcdrStream@@@Z
?marshalObjRef@ServantLocator_Helper@PortableServer@@SAXPEAVServantLocator@2@AEAVcdrStream@@@Z
?marshalObjRef@ServantManager_Helper@PortableServer@@SAXPEAVServantManager@2@AEAVcdrStream@@@Z
?marshalOctet@cdrStream@@QEAAXE@Z
?marshalRawString@cdrStream@@QEAAKPEBD@Z
?marshalReplyHeader@giopImpl10@omni@@SAXPEAVgiopStream@2@@Z
?marshalReplyHeader@giopImpl11@omni@@SAXPEAVgiopStream@2@@Z
?marshalReplyHeader@giopImpl12@omni@@SAXPEAVgiopStream@2@@Z
?marshalRequestHeader@giopImpl10@omni@@SAXPEAVgiopStream@2@@Z
?marshalRequestHeader@giopImpl11@omni@@SAXPEAVgiopStream@2@@Z
?marshalRequestHeader@giopImpl12@omni@@SAXPEAVgiopStream@2@@Z
?marshalReturnedValues@_0RL_cd_69ceca6a39f685b5_02000000@@UEAAXAEAVcdrStream@@@Z
?marshalReturnedValues@_0RL_cd_69ceca6a39f685b5_21000000@@UEAAXAEAVcdrStream@@@Z
?marshalReturnedValues@_0RL_cd_69ceca6a39f685b5_41000000@@UEAAXAEAVcdrStream@@@Z
?marshalReturnedValues@_0RL_cd_69ceca6a39f685b5_61000000@@UEAAXAEAVcdrStream@@@Z
?marshalReturnedValues@_0RL_cd_69ceca6a39f685b5_80000000@@UEAAXAEAVcdrStream@@@Z
?marshalReturnedValues@_0RL_cd_69ceca6a39f685b5_a1000000@@UEAAXAEAVcdrStream@@@Z
?marshalReturnedValues@_0RL_cd_69ceca6a39f685b5_c0000000@@UEAAXAEAVcdrStream@@@Z
?marshalReturnedValues@_0RL_cd_69ceca6a39f685b5_c1000000@@UEAAXAEAVcdrStream@@@Z
?marshalReturnedValues@_0RL_cd_69ceca6a39f685b5_e0000000@@UEAAXAEAVcdrStream@@@Z
?marshalReturnedValues@_0RL_cd_69ceca6a39f685b5_e1000000@@UEAAXAEAVcdrStream@@@Z
?marshalReturnedValues@_0RL_cd_96f078e2247ab9da_00000000@@UEAAXAEAVcdrStream@@@Z
?marshalReturnedValues@_0RL_cd_96f078e2247ab9da_20000000@@UEAAXAEAVcdrStream@@@Z
?marshalReturnedValues@_cCORBA_mObject_i_cstring@omniStdCallDesc@@UEAAXAEAVcdrStream@@@Z
?marshalReturnedValues@omniCallDescriptor@@UEAAXAEAVcdrStream@@@Z
?marshalReturnedValues@omni_interface_CallDesc@omni@@UEAAXAEAVcdrStream@@@Z
?marshalReturnedValues@omni_is_a_CallDesc@omni@@UEAAXAEAVcdrStream@@@Z
?marshalReturnedValues@omni_non_existent_CallDesc@omni@@UEAAXAEAVcdrStream@@@Z
?marshalShort@cdrStream@@QEAAXF@Z
?marshalString@NCS_C_8bit@omniCodeSet@omni@@UEAAXAEAVcdrStream@@PEAVTCS_C@23@KKPEBD@Z
?marshalString@NCS_C_UTF_8@omni@@UEAAXAEAVcdrStream@@PEAVTCS_C@omniCodeSet@2@KKPEBD@Z
?marshalString@TCS_C_8bit@omniCodeSet@omni@@UEAAXAEAVcdrStream@@KKPEB_W@Z
?marshalString@TCS_C_UTF_8@omni@@UEAAXAEAVcdrStream@@KKPEB_W@Z
?marshalString@cdrStream@@QEAAXPEBDH@Z
?marshalULong@cdrStream@@QEAAXK@Z
?marshalULongLong@cdrStream@@QEAAX_K@Z
?marshalUShort@cdrStream@@QEAAXG@Z
?marshalWChar@NCS_W_16bit@omniCodeSet@omni@@UEAAXAEAVcdrStream@@PEAVTCS_W@23@_W@Z
?marshalWChar@NCS_W_UTF_16@omni@@UEAAXAEAVcdrStream@@PEAVTCS_W@omniCodeSet@2@_W@Z
?marshalWChar@TCS_W_16bit@omniCodeSet@omni@@UEAAXAEAVcdrStream@@_W@Z
?marshalWChar@TCS_W_UTF_16@omni@@UEAAXAEAVcdrStream@@_W@Z
?marshalWString@NCS_W_16bit@omniCodeSet@omni@@UEAAXAEAVcdrStream@@PEAVTCS_W@23@KKPEB_W@Z
?marshalWString@NCS_W_UTF_16@omni@@UEAAXAEAVcdrStream@@PEAVTCS_W@omniCodeSet@2@KKPEB_W@Z
?marshalWString@TCS_W_16bit@omniCodeSet@omni@@UEAAXAEAVcdrStream@@KKPEB_W@Z
?marshalWString@TCS_W_UTF_16@omni@@UEAAXAEAVcdrStream@@KKPEB_W@Z
?marshalWString@cdrStream@@QEAAXPEB_WH@Z
?marshal_byte_swap@cdrStream@@QEBA_NXZ
?match@BiDirServerRope@omni@@AEBA_NPEBDAEBV?$omnivector@PEAVgiopAddress@omni@@@@@Z
?match@builtinIPv4Rule@omni@@UEAA_NPEBD@Z
?match@builtinIPv6Rule@omni@@UEAA_NPEBD@Z
?match@builtinLocalHostRule@omni@@UEAA_NPEBD@Z
?match@builtinMatchAllRule@omni@@UEAA_NPEBD@Z
?match@giopRope@omni@@MEBA_NAEBV?$omnivector@PEAVgiopAddress@omni@@@@PEAVIORInfo@omniIOR@@@Z
?match@transportRules@omni@@QEAA_NPEBDAEAVStringSeq@CORBA@@AEAK@Z
?matchAddr@builtinIPv4Rule@omni@@QEAA_NPEBD@Z
?matchAddr@builtinIPv6Rule@omni@@QEAA_NPEBD@Z
?matchMyEndpoints@omniObjAdapter@omni@@SA_NPEBD@Z
?matchVersion@giopStreamImpl@omni@@SAPEAV12@AEBUVersion@GIOP@@@Z
?maxClientThreadPoolSize@orbParameters@omni@@3KA
?maxGIOPConnectionPerServer@orbParameters@omni@@3KA
?maxGIOPVersion@orbParameters@omni@@3UVersion@GIOP@@A
?maxInterleavedCallsPerConnection@orbParameters@omni@@3KA
?maxServerThreadPerConnection@orbParameters@omni@@3KA
?maxServerThreadPoolSize@orbParameters@omni@@3KA
?maxSocketRecv@orbParameters@omni@@3_KA
?maxSocketSend@orbParameters@omni@@3_KA
?maxVersion@giopStreamImpl@omni@@SAPEAV12@XZ
?max_alignment@omni@@3W4alignment_t@1@B
?maximum@?$_CORBA_Sequence@E@@QEBAKXZ
?maximum@?$_CORBA_Sequence@UTaggedComponent@IOP@@@@QEBAKXZ
?maximum@?$_CORBA_Sequence@UTaggedProfile@IOP@@@@QEBAKXZ
?maximum@_CORBA_Sequence_String@@QEBAKXZ
?maybeReserveOutputSpace@cdrCountingStream@@UEAA_NW4alignment_t@omni@@_K@Z
?maybeReserveOutputSpace@cdrMemoryStream@@UEAA_NW4alignment_t@omni@@_K@Z
?maybeReserveOutputSpace@cdrStreamAdapter@@MEAA_NW4alignment_t@omni@@_K@Z
?maybeReserveOutputSpace@cdrValueChunkStream@@UEAA_NW4alignment_t@omni@@_K@Z
?maybeReserveOutputSpace@giopStream@omni@@UEAA_NW4alignment_t@2@_K@Z
?maybeStartNewChunk@cdrValueChunkStream@@AEAAXW4alignment_t@omni@@_K@Z
?met_detached_object@omniObjAdapter@omni@@QEAAXXZ
?mid_run@omniAsyncWorker@@QEAAXXZ
?minChunkBeforeDirectSend@giopStream@omni@@2KA
?minor@CommFailure@giopStream@omni@@QEBAKXZ
?minor@SystemException@CORBA@@QEBAKXZ
?minorCode2String@omni@@YAPEBDQEBUminorCodeLookup@1@K@Z
?minver@IiopObjAddr@corbalocURIHandler@omni@@QEAAEXZ
?more@?$omnivector@K@@AEAAXXZ
?more@?$omnivector@PEAUEndpointURI@Options@omniObjAdapter@omni@@@@AEAAXXZ
?more@?$omnivector@PEAUHandlerValuePair@orbOptions@omni@@@@AEAAXXZ
?more@?$omnivector@PEAURuleActionPair@transportRules@omni@@@@AEAAXXZ
?more@?$omnivector@PEAVHandler@orbOptions@omni@@@@AEAAXXZ
?more@?$omnivector@PEAVObject@CORBA@@@@AEAAXXZ
?more@?$omnivector@PEAVRuleType@transportRules@omni@@@@AEAAXXZ
?more@?$omnivector@PEAVSocketHolder@omni@@@@AEAAXXZ
?more@?$omnivector@PEAVURIHandler@omniURI@omni@@@@AEAAXXZ
?more@?$omnivector@PEAVgiopActiveCollection@omni@@@@AEAAXXZ
?more@?$omnivector@PEAVgiopAddress@omni@@@@AEAAXXZ
?more@?$omnivector@PEAVgiopEndpoint@omni@@@@AEAAXXZ
?more@?$omnivector@PEAVgiopStrand@omni@@@@AEAAXXZ
?more@?$omnivector@PEAVomniInitialiser@omni@@@@AEAAXXZ
?more@?$omnivector@PEAVomniObjRef@@@@AEAAXXZ
?more@?$omnivector@PEAVomniObjTableEntry@@@@AEAAXXZ
?more@?$omnivector@PEAVomniTrackedObject@omni@@@@AEAAXXZ
?more@?$omnivector@PEAVorbServer@omni@@@@AEAAXXZ
?more@?$omnivector@PEBD@@AEAAXXZ
?more@?$omnivector@UresolvePseudoEntry@omni@@@@AEAAXXZ
?more@logger@omniORB@@AEAAXH@Z
?move_args@orbOptions@omni@@SAXAEAHPEAPEADHH@Z
?mutex@Scavenger@omni@@0PEAVomni_tracedmutex@@EA
?myByteOrder@omni@@3EB
?myPrincipalID@omni@@3V_CORBA_Unbounded_Sequence_Octet@@A
?myaddress@info_T@clientOpenConnection_T@omniInterceptors@omni@@QEAAPEBDXZ
?myaddress@info_T@clientReceiveReply_T@omniInterceptors@omni@@QEAAPEBDXZ
?myaddress@info_T@clientSendRequest_T@omniInterceptors@omni@@QEAAPEBDXZ
?myaddress@info_T@serverAcceptConnection_T@omniInterceptors@omni@@QEAAPEBDXZ
?myaddress@info_T@serverReceiveRequest_T@omniInterceptors@omni@@QEAAPEBDXZ
?myaddress@info_T@serverSendException_T@omniInterceptors@omni@@QEAAPEBDXZ
?myaddress@info_T@serverSendReply_T@omniInterceptors@omni@@QEAAPEBDXZ
?myaddress@omniCallHandle@@QEAAPEBDXZ
?myaddress@tcpConnection@omni@@UEAAPEBDXZ
?n_user_excns@omniCallDescriptor@@QEAAHXZ
?name@Base@omniCodeSet@omni@@QEBAPEBDXZ
?name@FullAddrInfo@omni@@UEAAPEADXZ
?nameToString@omniURI@omni@@SAPEADAEBVName@CosNaming@@@Z
?nativeCharCodeSet@orbParameters@omni@@3PEAVNCS_C@omniCodeSet@2@EA
?nativeWCharCodeSet@orbParameters@omni@@3PEAVNCS_W@omniCodeSet@2@EA
?newBuffer@giopStream_Buffer@omni@@SAPEAU12@K@Z
?newEntry@omniObjTable@@SAPEAVomniObjTableEntry@@AEAVomniObjKey@@@Z
?newEntry@omniObjTable@@SAPEAVomniObjTableEntry@@AEAVomniObjKey@@K@Z
?newIIOPtaggedComponent@omniIOR@@SAAEAUTaggedComponent@IOP@@AEAV?$_CORBA_Unbounded_Sequence@UTaggedComponent@IOP@@@@@Z
?newObjRef@_pof_AdapterActivator@PortableServer@@UEAAPEAVomniObjRef@@PEAVomniIOR@@PEAVomniIdentity@@@Z
?newObjRef@_pof_BindingIterator@CosNaming@@UEAAPEAVomniObjRef@@PEAVomniIOR@@PEAVomniIdentity@@@Z
?newObjRef@_pof_CORBA_InitialReferences@@UEAAPEAVomniObjRef@@PEAVomniIOR@@PEAVomniIdentity@@@Z
?newObjRef@_pof_NamingContext@CosNaming@@UEAAPEAVomniObjRef@@PEAVomniIOR@@PEAVomniIdentity@@@Z
?newObjRef@_pof_NamingContextExt@CosNaming@@UEAAPEAVomniObjRef@@PEAVomniIOR@@PEAVomniIdentity@@@Z
?newObjRef@_pof_ServantActivator@PortableServer@@UEAAPEAVomniObjRef@@PEAVomniIOR@@PEAVomniIdentity@@@Z
?newObjRef@_pof_ServantLocator@PortableServer@@UEAAPEAVomniObjRef@@PEAVomniIOR@@PEAVomniIdentity@@@Z
?newObjRef@_pof_ServantManager@PortableServer@@UEAAPEAVomniObjRef@@PEAVomniIOR@@PEAVomniIdentity@@@Z
?newObjRef@omniAnonObjRef_pof@omni@@UEAAPEAVomniObjRef@@PEAVomniIOR@@PEAVomniIdentity@@@Z
?newSeqNumber@giopStrand@omni@@QEAAKXZ
?new_context@_objref_NamingContext@CosNaming@@QEAAPEAV12@XZ
?next@FullAddrInfo@omni@@UEAAPEAVAddrInfo@LibcWrapper@2@XZ
?nextInOAObjList@omniObjTableEntry@@QEAAPEAV1@XZ
?nextInObjectTable@omniObjTableEntry@@QEAAPEAV1@XZ
?next_n@_objref_BindingIterator@CosNaming@@QEAA_NKVBindingList_out@2@@Z
?next_one@_objref_BindingIterator@CosNaming@@QEAA_NV?$_CORBA_ConstrType_Variable_OUT_arg@UBinding@CosNaming@@V?$_CORBA_ConstrType_Variable_Var@UBinding@CosNaming@@@@@@@Z
?nilRefLock@omni@@YAAEAVomni_tracedmutex@@XZ
?noLockWaiting@giopStream@omni@@SA_NPEAVgiopStrand@2@@Z
?no_publish@giopEndpoint@omni@@QEAA_NXZ
?notify@Scavenger@omni@@SAXXZ
?notifyCallFullyBuffered@giopServer@omni@@QEAAXPEAVgiopConnection@2@@Z
?notifyCommFailure@GIOP_C@omni@@UEAAX_NAEAKAEA_N@Z
?notifyCommFailure@GIOP_S@omni@@UEAAX_NAEAKAEA_N@Z
?notifyCommFailure@giopRope@omni@@UEAAPEBVgiopAddress@2@PEBV32@_N@Z
?notifyCommFailure@giopStream@omni@@UEAAX_NAEAKAEA_N@Z
?notifyMrDone@giopServer@omni@@QEAAXPEAVgiopMonitor@2@_N@Z
?notifyReadable@giopMonitor@omni@@SAXPEAXPEAVgiopConnection@2@@Z
?notifyReadable@giopRendezvouser@omni@@SAXPEAXPEAVgiopConnection@2@@Z
?notifyReadable@tcpActiveCollection@omni@@MEAA_NPEAVSocketHolder@2@@Z
?notifyReadable@tcpEndpoint@omni@@MEAA_NPEAVSocketHolder@2@@Z
?notifyRzDone@giopServer@omni@@AEAAXPEAVgiopRendezvouser@2@_N@Z
?notifyRzNewConnection@giopServer@omni@@AEAAXPEAVgiopRendezvouser@2@PEAVgiopConnection@2@@Z
?notifyRzReadable@giopServer@omni@@AEAAXPEAVgiopConnection@2@_N@Z
?notifySwitchToBiDirectional@giopServer@omni@@QEAA_NPEAVgiopConnection@2@@Z
?notifyWkDone@giopServer@omni@@AEAA_NPEAVgiopWorker@2@_N@Z
?notifyWkPreUpCall@giopServer@omni@@QEAAXPEAVgiopWorker@2@_N@Z
?objRefs@omniObjTableEntry@@QEAAAEAV?$omnivector@PEAVomniObjRef@@@@XZ
?obj_is_ready@omniOrbBOA@omni@@UEAAXPEAVObject@CORBA@@PEAVImplementationDef@4@@Z
?obj_is_ready@omniOrbBOA@omni@@UEAAXPEAVomniOrbBoaServant@@PEAVImplementationDef@CORBA@@@Z
?objectExists@omniOrbBOA@omni@@UEAAHPEBEH@Z
?objectExists@omniOrbPOA@omni@@UEAAHPEBEH@Z
?objectTableSize@orbParameters@omni@@3KA
?objectToString@omniURI@omni@@SAPEADPEAVObject@CORBA@@@Z
?object_to_string@omniOrbORB@@UEAAPEADPEAVObject@CORBA@@@Z
?objref@omniCallDescriptor@@QEAAPEAVomniObjRef@@XZ
?objref@omniCallDescriptor@@QEAAXPEAVomniObjRef@@@Z
?objref_rc_lock@omni@@3PEAVomni_tracedmutex@@EA
?octetSequenceToKey@omniORB@@YA?AUomniOrbBoaKey@@AEBV_CORBA_Unbounded_Sequence_Octet@@@Z
?offerBiDirectionalGIOP@orbParameters@omni@@3_NA
?omniINSPOA@omniOrbPOA@omni@@SAPEAVPOA@PortableServer@@XZ
?omniORB_4_3@omni@@3PEBDEB
?omniORB_TAG_ORB_TYPE@omni@@3KB
?omniTransportLock@omni@@3PEAVomni_tracedmutex@@EA
?omni_ObjRef_initialiser_@omni@@3AEAVomniInitialiser@1@EA
?omni_cdrStream_initialiser_@omni@@3AEAVomniInitialiser@1@EA
?omni_codeSet_initialiser_@omni@@3AEAVomniInitialiser@1@EA
?omni_corbaOrb_initialiser_@omni@@3AEAVomniInitialiser@1@EA
?omni_dynamiclib_initialiser_@omni@@3AEAVomniInitialiser@1@EA
?omni_giopEndpoint_initialiser_@omni@@3AEAVomniInitialiser@1@EA
?omni_giopImpl10_initialiser_@omni@@3AEAVomniInitialiser@1@EA
?omni_giopImpl11_initialiser_@omni@@3AEAVomniInitialiser@1@EA
?omni_giopImpl12_initialiser_@omni@@3AEAVomniInitialiser@1@EA
?omni_giopRope_initialiser_@omni@@3AEAVomniInitialiser@1@EA
?omni_giopStrand_initialiser_@omni@@3AEAVomniInitialiser@1@EA
?omni_giopStreamImpl_initialiser_@omni@@3AEAVomniInitialiser@1@EA
?omni_giopbidir_initialiser_@omni@@3AEAVomniInitialiser@1@EA
?omni_giopserver_initialiser_@omni@@3AEAVomniInitialiser@1@EA
?omni_hooked_initialiser_@omni@@3AEAVomniInitialiser@1@EA
?omni_initRefs_initialiser_@omni@@3AEAVomniInitialiser@1@EA
?omni_interceptor_initialiser_@omni@@3AEAVomniInitialiser@1@EA
?omni_invoker_initialiser_@omni@@3AEAVomniInitialiser@1@EA
?omni_ior_initialiser_@omni@@3AEAVomniInitialiser@1@EA
?omni_objadpt_initialiser_@omni@@3AEAVomniInitialiser@1@EA
?omni_omniCurrent_initialiser_@omni@@3AEAVomniInitialiser@1@EA
?omni_omniIOR_initialiser_@omni@@3AEAVomniInitialiser@1@EA
?omni_omniInternal_initialiser_@omni@@3AEAVomniInitialiser@1@EA
?omni_omniTransport_initialiser_@omni@@3AEAVomniInitialiser@1@EA
?omni_orbOptions_initialiser_@omni@@3AEAVomniInitialiser@1@EA
?omni_poa_initialiser_@omni@@3AEAVomniInitialiser@1@EA
?omni_transportRules_initialiser_@omni@@3AEAVomniInitialiser@1@EA
?omni_uri_initialiser_@omni@@3AEAVomniInitialiser@1@EA
?once@?1??attach@omni_giopEndpoint_initialiser@omni@@UEAAXXZ@4_NA
?oneCallPerConnection@orbParameters@omni@@3_NA
?op@omniCallDescriptor@@QEBAPEBDXZ
?op_len@omniCallDescriptor@@QEBA_KXZ
?openConnection@giopStream@omni@@QEAAPEAVgiopActiveConnection@2@XZ
?operation@GIOP_C@omni@@QEAAPEBDXZ
?operation@GIOP_S@omni@@QEBAPEADXZ
?operation@info_T@clientOpenConnection_T@omniInterceptors@omni@@QEAAPEBDXZ
?operation@info_T@clientReceiveReply_T@omniInterceptors@omni@@QEAAPEBDXZ
?operation@info_T@clientSendRequest_T@omniInterceptors@omni@@QEAAPEBDXZ
?operation@info_T@serverReceiveRequest_T@omniInterceptors@omni@@QEAAPEBDXZ
?operation@info_T@serverSendException_T@omniInterceptors@omni@@QEAAPEBDXZ
?operation@info_T@serverSendReply_T@omniInterceptors@omni@@QEAAPEBDXZ
?operation_name@GIOP_S@omni@@UEBAPEBDXZ
?operation_name@omniCallHandle@@QEBAPEBDXZ
?ops@omniDynamicLib@omni@@2PEAV12@EA
?options@omniObjAdapter@omni@@2UOptions@12@A
?orbAsyncInvoker@omni@@3PEAVomniAsyncInvoker@@EA
?orbType@IORInfo@omniIOR@@QEAAXK@Z
?out@?$_CORBA_ConstrType_Variable_Var@UBinding@CosNaming@@@@QEAAAEAPEAUBinding@CosNaming@@XZ
?out@?$_CORBA_ObjRef_Var@V_objref_BindingIterator@CosNaming@@VBindingIterator_Helper@2@@@QEAAAEAPEAV_objref_BindingIterator@CosNaming@@XZ
?out@BindingList_var@CosNaming@@QEAAAEAPEAVBindingList@2@XZ
?out@_CORBA_String_var@@QEAAAEAPEADXZ
?outConScanPeriod@orbParameters@omni@@3KA
?outEnd@cdrStream@@IEBA_KXZ
?outMkr@cdrStream@@IEBA_KW4alignment_t@omni@@@Z
?outMkr@cdrStream@@IEBA_KXZ
?outputBufferEnd@giopStream@omni@@AEBA_KXZ
?outputBufferStart@giopStream@omni@@AEBA_KXZ
?outputFlush@giopImpl10@omni@@SAXPEAVgiopStream@2@@Z
?outputFlush@giopImpl11@omni@@SAXPEAVgiopStream@2@_N@Z
?outputFlush@giopImpl12@omni@@SAXPEAVgiopStream@2@_N@Z
?outputFragmentSize@giopStream@omni@@AEAAX_K@Z
?outputFragmentSize@giopStream@omni@@AEBA_KXZ
?outputHasReachedLimit@giopImpl11@omni@@SA_NPEAVgiopStream@2@@Z
?outputHasReachedLimit@giopImpl12@omni@@SA_NPEAVgiopStream@2@@Z
?outputMessageBegin@giopImpl10@omni@@SAXPEAVgiopStream@2@P6AX0@Z@Z
?outputMessageBegin@giopImpl11@omni@@SAXPEAVgiopStream@2@P6AX0@Z@Z
?outputMessageBegin@giopImpl12@omni@@SAXPEAVgiopStream@2@P6AX0@Z@Z
?outputMessageEnd@giopImpl10@omni@@SAXPEAVgiopStream@2@@Z
?outputMessageEnd@giopImpl11@omni@@SAXPEAVgiopStream@2@@Z
?outputMessageEnd@giopImpl12@omni@@SAXPEAVgiopStream@2@@Z
?outputMessageSize@giopStream@omni@@AEAAX_K@Z
?outputMessageSize@giopStream@omni@@AEBA_KXZ
?outputNewMessage@giopImpl10@omni@@SAXPEAVgiopStream@2@@Z
?outputNewMessage@giopImpl11@omni@@SAXPEAVgiopStream@2@@Z
?outputNewMessage@giopImpl12@omni@@SAXPEAVgiopStream@2@@Z
?outputRemaining@giopImpl10@omni@@SA_KPEBVgiopStream@2@@Z
?outputRemaining@giopImpl11@omni@@SA_KPEBVgiopStream@2@@Z
?outputRemaining@giopImpl12@omni@@SA_KPEBVgiopStream@2@@Z
?outputSetFragmentSize@giopImpl11@omni@@SAXPEAVgiopStream@2@_K@Z
?outputSetFragmentSize@giopImpl12@omni@@SAXPEAVgiopStream@2@_K@Z
?outputSetMessageSize@giopImpl10@omni@@SAXPEAVgiopStream@2@_K@Z
?p_deactivated@omniLocalIdentity@@QEBAPEB_NXZ
?parse@ObjAddr@corbalocURIHandler@omni@@SAPEAV123@AEAPEBD@Z
?parseAddress@tcpTransportImpl@omni@@SA_NPEBDAEAUAddress@IIOP@@@Z
?parseIPv4AddressMask@builtinRuleType@omni@@SA_NPEBDAEAK1@Z
?parseIPv6AddressMask@builtinRuleType@omni@@SA_NPEBDAEAY0BA@EAEAK@Z
?passive@giopStrand@omni@@2VStrandList@2@A
?peekCallBack@giopServer@omni@@SAXPEAXPEAVgiopConnection@2@@Z
?peekChunkTag@cdrValueChunkStream@@AEAAJXZ
?peerToURI@tcpSocket@omni@@SAPEAD_KPEBD@Z
?peeraddress@info_T@clientOpenConnection_T@omniInterceptors@omni@@QEAAPEBDXZ
?peeraddress@info_T@clientReceiveReply_T@omniInterceptors@omni@@QEAAPEBDXZ
?peeraddress@info_T@clientSendRequest_T@omniInterceptors@omni@@QEAAPEBDXZ
?peeraddress@info_T@serverAcceptConnection_T@omniInterceptors@omni@@QEAAPEBDXZ
?peeraddress@info_T@serverReceiveRequest_T@omniInterceptors@omni@@QEAAPEBDXZ
?peeraddress@info_T@serverSendException_T@omniInterceptors@omni@@QEAAPEBDXZ
?peeraddress@info_T@serverSendReply_T@omniInterceptors@omni@@QEAAPEBDXZ
?peeraddress@omniCallHandle@@QEAAPEBDXZ
?peeraddress@tcpConnection@omni@@UEAAPEBDXZ
?peerdetails@giopConnection@omni@@UEAAPEAXXZ
?peerdetails@info_T@clientOpenConnection_T@omniInterceptors@omni@@QEAAPEAXXZ
?peerdetails@info_T@clientReceiveReply_T@omniInterceptors@omni@@QEAAPEAXXZ
?peerdetails@info_T@clientSendRequest_T@omniInterceptors@omni@@QEAAPEAXXZ
?peerdetails@info_T@serverAcceptConnection_T@omniInterceptors@omni@@QEAAPEAXXZ
?peerdetails@info_T@serverReceiveRequest_T@omniInterceptors@omni@@QEAAPEAXXZ
?peerdetails@info_T@serverSendException_T@omniInterceptors@omni@@QEAAPEAXXZ
?peerdetails@info_T@serverSendReply_T@omniInterceptors@omni@@QEAAPEAXXZ
?peerdetails@omniCallHandle@@QEAAPEAXXZ
?peeridentity@giopConnection@omni@@UEAAPEBDXZ
?peeridentity@info_T@clientOpenConnection_T@omniInterceptors@omni@@QEAAPEBDXZ
?peeridentity@info_T@clientReceiveReply_T@omniInterceptors@omni@@QEAAPEBDXZ
?peeridentity@info_T@clientSendRequest_T@omniInterceptors@omni@@QEAAPEBDXZ
?peeridentity@info_T@serverAcceptConnection_T@omniInterceptors@omni@@QEAAPEBDXZ
?peeridentity@info_T@serverReceiveRequest_T@omniInterceptors@omni@@QEAAPEBDXZ
?peeridentity@info_T@serverSendException_T@omniInterceptors@omni@@QEAAPEBDXZ
?peeridentity@info_T@serverSendReply_T@omniInterceptors@omni@@QEAAPEBDXZ
?peeridentity@omniCallHandle@@QEAAPEBDXZ
?perform@omniAsyncDedicated@@QEAAXKK@Z
?perform@omniAsyncInvoker@@QEAAXKK@Z
?perform_work@omniOrbORB@@UEAAXXZ
?persistentId@orbParameters@omni@@3V_CORBA_Unbounded_Sequence_Octet@@A
?pfFreeAddrInfo@?1??WspiapiFreeAddrInfo@@9@4P6AXPEAUaddrinfo@@@ZEA
?pfGetAddrInfo@?1??WspiapiGetAddrInfo@@9@4P6AHPEBD0PEBUaddrinfo@@PEAPEAU2@@ZEA
?pfGetNameInfo@?1??WspiapiGetNameInfo@@9@4P6AHPEBUsockaddr@@HPEAD_K12H@ZEA
?pm_change_state@omniOrbPOA@omni@@QEAAXW4State@POAManager@PortableServer@@@Z
?pm_deactivate@omniOrbPOA@omni@@QEAAX_N@Z
?pm_waitForReqCmpltnOrSttChnge@omniOrbPOA@omni@@QEAAXW4State@POAManager@PortableServer@@@Z
?poRcLock@omni@@3PEAVomni_tracedmutex@@EA
?poa@omniCallDescriptor@@QEAAPEAVomniOrbPOA@omni@@XZ
?poa@omniCallDescriptor@@QEAAXPEAVomniOrbPOA@omni@@@Z
?poa@omniCallHandle@@QEAAXPEAVomniOrbPOA@omni@@@Z
?poaHoldRequestTimeout@orbParameters@omni@@3KA
?policy_list@omniOrbPOA@omni@@QEBAPEBV?$_CORBA_Pseudo_Unbounded_Sequence@VPolicy@CORBA@@V?$_CORBA_PseudoObj_Member@VPolicy@CORBA@@V?$_CORBA_PseudoObj_Var@VPolicy@CORBA@@@@@@@@XZ
?policy_type@Policy@CORBA@@UEAAKXZ
?pop_back@?$omnivector@PEAVgiopAddress@omni@@@@QEAAXXZ
?port@IiopObjAddr@corbalocURIHandler@omni@@QEAAGXZ
?postinvoke@SLPostInvokeHook@omniOrbPOA@omni@@UEAAXXZ
?postinvoke@_objref_ServantLocator@PortableServer@@$4PPPPPPPM@A@EAAXAEBVObjectId@2@PEAVPOA@2@PEBDPEAXPEAVServantBase@2@@Z
?postinvoke@_objref_ServantLocator@PortableServer@@UEAAXAEBVObjectId@2@PEAVPOA@2@PEBDPEAXPEAVServantBase@2@@Z
?postinvoke_hook@omniCallHandle@@QEAAXPEAVPostInvokeHook@1@@Z
?preinvoke@_objref_ServantLocator@PortableServer@@$4PPPPPPPM@A@EAAPEAVServantBase@2@AEBVObjectId@2@PEAVPOA@2@PEBDAEAPEAX@Z
?preinvoke@_objref_ServantLocator@PortableServer@@UEAAPEAVServantBase@2@AEBVObjectId@2@PEAVPOA@2@PEBDAEAPEAX@Z
?principal@GIOP_S@omni@@QEBAPEAEXZ
?ptrStrMatch@omni@@YA_NPEBD0@Z
?ptrToClass@GIOP_C@omni@@UEAAPEAXPEAH@Z
?ptrToClass@GIOP_S@omni@@UEAAPEAXPEAH@Z
?ptrToClass@cdrCountingStream@@UEAAPEAXPEAH@Z
?ptrToClass@cdrEncapsulationStream@@UEAAPEAXPEAH@Z
?ptrToClass@cdrMemoryStream@@UEAAPEAXPEAH@Z
?ptrToClass@cdrStream@@UEAAPEAXPEAH@Z
?ptrToClass@cdrStreamAdapter@@UEAAPEAXPEAH@Z
?ptrToClass@cdrValueChunkStream@@UEAAPEAXPEAH@Z
?ptrToClass@giopStream@omni@@UEAAPEAXPEAH@Z
?ptrToClass@omniIdentity@@UEAAPEAXPEAH@Z
?ptrToClass@omniInProcessIdentity@@UEAAPEAXPEAH@Z
?ptrToClass@omniLocalIdentity@@UEAAPEAXPEAH@Z
?ptrToClass@omniObjTableEntry@@UEAAPEAXPEAH@Z
?ptrToClass@omniRemoteIdentity@@UEAAPEAXPEAH@Z
?ptrToClass@omniShutdownIdentity@@UEAAPEAXPEAH@Z
?publish@giopServer@omni@@UEAA_NAEBV_CORBA_Unbounded_Sequence_String@@_N1AEAV3@@Z
?publish@tcpEndpoint@omni@@UEAA_NAEBV_CORBA_Unbounded_Sequence_String@@_N1AEAV3@@Z
?purpose@omniAsyncPool@@QEAAPEBDXZ
?purpose@omniTask@@QEAA?AW4Purpose@1@XZ
?push_back@?$omnivector@K@@QEAAXAEBK@Z
?push_back@?$omnivector@PEAUEndpointURI@Options@omniObjAdapter@omni@@@@QEAAXAEBQEAUEndpointURI@Options@omniObjAdapter@omni@@@Z
?push_back@?$omnivector@PEAUHandlerValuePair@orbOptions@omni@@@@QEAAXAEBQEAUHandlerValuePair@orbOptions@omni@@@Z
?push_back@?$omnivector@PEAURuleActionPair@transportRules@omni@@@@QEAAXAEBQEAURuleActionPair@transportRules@omni@@@Z
?push_back@?$omnivector@PEAVHandler@orbOptions@omni@@@@QEAAXAEBQEAVHandler@orbOptions@omni@@@Z
?push_back@?$omnivector@PEAVObject@CORBA@@@@QEAAXAEBQEAVObject@CORBA@@@Z
?push_back@?$omnivector@PEAVRuleType@transportRules@omni@@@@QEAAXAEBQEAVRuleType@transportRules@omni@@@Z
?push_back@?$omnivector@PEAVSocketHolder@omni@@@@QEAAXAEBQEAVSocketHolder@omni@@@Z
?push_back@?$omnivector@PEAVURIHandler@omniURI@omni@@@@QEAAXAEBQEAVURIHandler@omniURI@omni@@@Z
?push_back@?$omnivector@PEAVgiopActiveCollection@omni@@@@QEAAXAEBQEAVgiopActiveCollection@omni@@@Z
?push_back@?$omnivector@PEAVgiopAddress@omni@@@@QEAAXAEBQEAVgiopAddress@omni@@@Z
?push_back@?$omnivector@PEAVgiopEndpoint@omni@@@@QEAAXAEBQEAVgiopEndpoint@omni@@@Z
?push_back@?$omnivector@PEAVgiopStrand@omni@@@@QEAAXAEBQEAVgiopStrand@omni@@@Z
?push_back@?$omnivector@PEAVomniInitialiser@omni@@@@QEAAXAEBQEAVomniInitialiser@omni@@@Z
?push_back@?$omnivector@PEAVomniObjRef@@@@QEAAXAEBQEAVomniObjRef@@@Z
?push_back@?$omnivector@PEAVomniObjTableEntry@@@@QEAAXAEBQEAVomniObjTableEntry@@@Z
?push_back@?$omnivector@PEAVomniTrackedObject@omni@@@@QEAAXAEBQEAVomniTrackedObject@omni@@@Z
?push_back@?$omnivector@PEAVorbServer@omni@@@@QEAAXAEBQEAVorbServer@omni@@@Z
?push_back@?$omnivector@PEBD@@QEAAXAEBQEBD@Z
?push_back@?$omnivector@UresolvePseudoEntry@omni@@@@QEAAXAEBUresolvePseudoEntry@omni@@@Z
?put_large_octet_array@cdrStream@@QEAAXPEBE_KW4alignment_t@omni@@@Z
?put_octet_array@cdrCountingStream@@UEAAXPEBEHW4alignment_t@omni@@@Z
?put_octet_array@cdrMemoryStream@@UEAAXPEBEHW4alignment_t@omni@@@Z
?put_octet_array@cdrStreamAdapter@@MEAAXPEBEHW4alignment_t@omni@@@Z
?put_octet_array@cdrValueChunkStream@@UEAAXPEBEHW4alignment_t@omni@@@Z
?put_octet_array@giopStream@omni@@UEAAXPEBEHW4alignment_t@2@@Z
?put_small_octet_array@cdrStream@@QEAAXPEBEH@Z
?rdLock@giopStream@omni@@UEAAXXZ
?rdLockNonBlocking@giopStream@omni@@SA_NPEAVgiopStrand@2@@Z
?rdLockNonBlocking@giopStream@omni@@UEAA_NXZ
?rdUnLock@giopStream@omni@@UEAAXXZ
?reRootOAObjList@omniObjTableEntry@@QEAAXPEAPEAV1@@Z
?readOnly@cdrMemoryStream@@QEAA_NXZ
?realIncrRefCount@BiDirServerRope@omni@@MEAAXXZ
?realIncrRefCount@giopRope@omni@@MEAAXXZ
?real_get_reference@omniOrbPOACurrent@omni@@SAPEAVomniObjRef@@PEAVomniCallDescriptor@@@Z
?real_get_servant@omniOrbPOACurrent@omni@@SAPEAVServantBase@PortableServer@@PEAVomniCallDescriptor@@@Z
?real_is_equivalent@omniLocalIdentity@@SA_NPEBVomniIdentity@@0@Z
?real_is_equivalent@omniRemoteIdentity@@CA_NPEBVomniIdentity@@0@Z
?real_is_equivalent@omniShutdownIdentity@@CA_NPEBVomniIdentity@@0@Z
?real_run@omniAsyncWorker@@QEAAXXZ
?reallocC@omniCodeSetUtil@omni@@SAPEADPEADKK@Z
?reallocU@omniCodeSetUtil@omni@@SAPEA_WPEA_WKK@Z
?rebind@_objref_NamingContext@CosNaming@@QEAAXAEBVName@2@PEAVObject@CORBA@@@Z
?rebind_context@_objref_NamingContext@CosNaming@@QEAAXAEBVName@2@PEAV12@@Z
?reference_to_id@omniOrbPOA@omni@@UEAAPEAVObjectId@PortableServer@@PEAVObject@CORBA@@@Z
?reference_to_servant@omniOrbPOA@omni@@UEAAPEAVServantBase@PortableServer@@PEAVObject@CORBA@@@Z
?registerHandler@orbOptions@omni@@QEAAXAEAVHandler@12@@Z
?registerImpl@giopStreamImpl@omni@@SAXPEAV12@@Z
?registerMonitor@tcpActiveConnection@omni@@UEAAPEAVgiopActiveCollection@2@XZ
?registerNCS_C@omniCodeSet@omni@@SAXPEAVNCS_C@12@@Z
?registerNCS_W@omniCodeSet@omni@@SAXPEAVNCS_W@12@@Z
?registerNilCorbaObject@omni@@YAXPEAVObject@CORBA@@@Z
?registerPseudoObjFn@omniInitialReferences@omni@@SAXPEBDP6APEAVObject@CORBA@@XZ@Z
?registerTCS_C@omniCodeSet@omni@@SAXPEAVTCS_C@12@@Z
?registerTCS_W@omniCodeSet@omni@@SAXPEAVTCS_W@12@@Z
?registerTrackedObject@omni@@YAXPEAVomniTrackedObject@1@@Z
?registerURIHandler@omniURI@omni@@SAXPEAVURIHandler@12@@Z
?register_initial_reference@omniOrbORB@@UEAAXPEBDPEAVObject@CORBA@@@Z
?release@AdapterActivator_Helper@PortableServer@@SAXPEAVAdapterActivator@2@@Z
?release@BindingIterator_Helper@CosNaming@@SAXPEAV_objref_BindingIterator@2@@Z
?release@CORBA@@YAXPEAVObject@1@@Z
?release@CORBA_InitialReferences_Helper@@SAXPEAV_objref_CORBA_InitialReferences@@@Z
?release@LocalObject_Helper@CORBA@@SAXPEAVLocalObject@2@@Z
?release@NamingContextExt_Helper@CosNaming@@SAXPEAV_objref_NamingContextExt@2@@Z
?release@NamingContext_Helper@CosNaming@@SAXPEAV_objref_NamingContext@2@@Z
?release@Object_Helper@CORBA@@SAXPEAVObject@2@@Z
?release@POA_Helper@PortableServer@@SAXPEAVPOA@2@@Z
?release@ServantActivator_Helper@PortableServer@@SAXPEAVServantActivator@2@@Z
?release@ServantLocator_Helper@PortableServer@@SAXPEAVServantLocator@2@@Z
?release@ServantManager_Helper@PortableServer@@SAXPEAVServantManager@2@@Z
?release@omniIOR@@QEAAXXZ
?releaseClient@giopRope@omni@@UEAAXPEAVIOP_C@2@@Z
?releaseInputBuffer@giopStream@omni@@AEAAXPEAUgiopStream_Buffer@2@@Z
?releaseNoLock@omniIOR@@QEAAXXZ
?releaseObjRef@omni@@YAXPEAVomniObjRef@@@Z
?releaseServer@giopStrand@omni@@QEAAXPEAVIOP_S@2@@Z
?remFromArgs@omniInitialReferences@omni@@SAXPEBD@Z
?remFromFile@omniInitialReferences@omni@@SAXPEBD@Z
?remIdle@omniAsyncWorker@@QEAAXXZ
?remoteInvocationCount@omni@@3HA
?remove@Link@giopServer@omni@@QEAAXXZ
?remove@RopeLink@omni@@QEAAXXZ
?remove@StrandList@omni@@QEAAXXZ
?remove@assignAMIThread_T@omniInterceptors@omni@@QEAAXP6AXAEAVinfo_T@123@@Z@Z
?remove@assignUpcallThread_T@omniInterceptors@omni@@QEAAXP6AXAEAVinfo_T@123@@Z@Z
?remove@clientOpenConnection_T@omniInterceptors@omni@@QEAAXP6A_NAEAVinfo_T@123@@Z@Z
?remove@clientReceiveReply_T@omniInterceptors@omni@@QEAAXP6A_NAEAVinfo_T@123@@Z@Z
?remove@clientSendRequest_T@omniInterceptors@omni@@QEAAXP6A_NAEAVinfo_T@123@@Z@Z
?remove@createIdentity_T@omniInterceptors@omni@@QEAAXP6A_NAEAVinfo_T@123@@Z@Z
?remove@createORBServer_T@omniInterceptors@omni@@QEAAXP6A_NAEAVinfo_T@123@@Z@Z
?remove@createPolicy_T@omniInterceptors@omni@@QEAAXP6A_NAEAVinfo_T@123@@Z@Z
?remove@createRope_T@omniInterceptors@omni@@QEAAXP6A_NAEAVinfo_T@123@@Z@Z
?remove@createThread_T@omniInterceptors@omni@@QEAAXP6AXAEAVinfo_T@123@@Z@Z
?remove@decodeIOR_T@omniInterceptors@omni@@QEAAXP6A_NAEAVinfo_T@123@@Z@Z
?remove@encodeIOR_T@omniInterceptors@omni@@QEAAXP6A_NAEAVinfo_T@123@@Z@Z
?remove@giopServer@omni@@UEAAXXZ
?remove@giopStreamList@omni@@QEAAXXZ
?remove@invokeLocalCall_T@omniInterceptors@omni@@QEAAXP6AXPEAVomniCallDescriptor@@PEAVomniServant@@@Z@Z
?remove@omniExHandlers_iterator@@QEAAXPEAVomniObjRef@@@Z
?remove@serverAcceptConnection_T@omniInterceptors@omni@@QEAAXP6A_NAEAVinfo_T@123@@Z@Z
?remove@serverReceiveRequest_T@omniInterceptors@omni@@QEAAXP6A_NAEAVinfo_T@123@@Z@Z
?remove@serverSendException_T@omniInterceptors@omni@@QEAAXP6A_NAEAVinfo_T@123@@Z@Z
?remove@serverSendReply_T@omniInterceptors@omni@@QEAAXP6A_NAEAVinfo_T@123@@Z@Z
?removeConnectionAndWorker@giopServer@omni@@AEAAXPEAVgiopWorker@2@@Z
?removeFromOAObjList@omniObjTableEntry@@QEAAXXZ
?removeIdle@Scavenger@omni@@AEAAXAEAVStrandList@2@0_N@Z
?removeInterceptor@omniCallDescriptor@@SAXP6AXPEAV1@PEAVomniServant@@@Z@Z
?removeMonitor@tcpActiveCollection@omni@@IEAAX_K@Z
?removeSocket@SocketCollection@omni@@QEAAXPEAVSocketHolder@2@@Z
?replace@?$_CORBA_Sequence@E@@IEAAXKKPEAE_N@Z
?replace@?$_CORBA_Sequence@UTaggedProfile@IOP@@@@IEAAXKKPEAUTaggedProfile@IOP@@_N@Z
?replace@?$_CORBA_Unbounded_Sequence@UTaggedProfile@IOP@@@@QEAAXKKPEAUTaggedProfile@IOP@@_N@Z
?replace@_CORBA_Sequence_String@@IEAAXKKPEAPEAD_N@Z
?replace@_CORBA_Unbounded_Sequence_Octet@@QEAAXKKPEAE_N@Z
?replace@_CORBA_Unbounded_Sequence_String@@QEAAXKKPEAPEAD_N@Z
?replyId@GIOP_C@omni@@QEAAXK@Z
?replyId@GIOP_C@omni@@QEBAKXZ
?replyStatus@GIOP_C@omni@@QEAAXW4ReplyStatusType@GIOP@@@Z
?replyStatus@GIOP_C@omni@@QEBA?AW4ReplyStatusType@GIOP@@XZ
?repositoryID@omniIOR@@QEBAPEBDXZ
?requestId@giopStream@omni@@IEAAXK@Z
?requestId@giopStream@omni@@IEBAKXZ
?requestType@GIOP_S@omni@@QEAAXW4MsgType@GIOP@@@Z
?requestType@GIOP_S@omni@@QEBA?AW4MsgType@GIOP@@XZ
?reserve@?$omnivector@K@@QEAAX_K@Z
?reserve@?$omnivector@PEAUEndpointURI@Options@omniObjAdapter@omni@@@@QEAAX_K@Z
?reserve@?$omnivector@PEAUHandlerValuePair@orbOptions@omni@@@@QEAAX_K@Z
?reserve@?$omnivector@PEAURuleActionPair@transportRules@omni@@@@QEAAX_K@Z
?reserve@?$omnivector@PEAVHandler@orbOptions@omni@@@@QEAAX_K@Z
?reserve@?$omnivector@PEAVObject@CORBA@@@@QEAAX_K@Z
?reserve@?$omnivector@PEAVRuleType@transportRules@omni@@@@QEAAX_K@Z
?reserve@?$omnivector@PEAVSocketHolder@omni@@@@QEAAX_K@Z
?reserve@?$omnivector@PEAVURIHandler@omniURI@omni@@@@QEAAX_K@Z
?reserve@?$omnivector@PEAVgiopActiveCollection@omni@@@@QEAAX_K@Z
?reserve@?$omnivector@PEAVgiopAddress@omni@@@@QEAAX_K@Z
?reserve@?$omnivector@PEAVgiopEndpoint@omni@@@@QEAAX_K@Z
?reserve@?$omnivector@PEAVgiopStrand@omni@@@@QEAAX_K@Z
?reserve@?$omnivector@PEAVomniInitialiser@omni@@@@QEAAX_K@Z
?reserve@?$omnivector@PEAVomniObjRef@@@@QEAAX_K@Z
?reserve@?$omnivector@PEAVomniObjTableEntry@@@@QEAAX_K@Z
?reserve@?$omnivector@PEAVomniTrackedObject@omni@@@@QEAAX_K@Z
?reserve@?$omnivector@PEAVorbServer@omni@@@@QEAAX_K@Z
?reserve@?$omnivector@PEBD@@QEAAX_K@Z
?reserve@?$omnivector@UresolvePseudoEntry@omni@@@@QEAAX_K@Z
?reserve@logger@omniORB@@AEAAXH@Z
?reserveAndMarshalDouble@cdrStream@@AEAAXN@Z
?reserveAndMarshalLong@cdrStream@@AEAAXJ@Z
?reserveAndMarshalLongLong@cdrStream@@AEAAX_J@Z
?reserveAndMarshalOctet@cdrStream@@AEAAXE@Z
?reserveAndMarshalShort@cdrStream@@AEAAXF@Z
?reserveAndMarshalULong@cdrStream@@AEAAXK@Z
?reserveAndMarshalULongLong@cdrStream@@AEAAX_K@Z
?reserveAndMarshalUShort@cdrStream@@AEAAXG@Z
?reserveOutputSpace@cdrMemoryStream@@AEAA_NW4alignment_t@omni@@_K@Z
?reserveOutputSpaceForPrimitiveType@cdrCountingStream@@UEAA_NW4alignment_t@omni@@_K@Z
?reserveOutputSpaceForPrimitiveType@cdrMemoryStream@@UEAA_NW4alignment_t@omni@@_K@Z
?reserveOutputSpaceForPrimitiveType@cdrStreamAdapter@@MEAA_NW4alignment_t@omni@@_K@Z
?reserveOutputSpaceForPrimitiveType@cdrValueChunkStream@@UEAA_NW4alignment_t@omni@@_K@Z
?reserveOutputSpaceForPrimitiveType@giopStream@omni@@UEAA_NW4alignment_t@2@_K@Z
?reset@giopStream@omni@@QEAAXXZ
?reset@orbOptions@omni@@QEAAXXZ
?reset@transportRules@omni@@QEAAXXZ
?resetAddressOrder@giopRope@omni@@QEAAX_NPEAVgiopStrand@2@@Z
?resetIdleRopeAddresses@giopRope@omni@@SAXXZ
?resetKey@GIOP_S@omni@@QEAAXXZ
?resetTimeOutOnRetries@orbParameters@omni@@3_NA
?resize@omniObjTable@@SAXXZ
?resolve@_objref_NamingContext@CosNaming@@QEAAPEAVObject@CORBA@@AEBVName@2@@Z
?resolve@omniInitialReferences@omni@@SAPEAVObject@CORBA@@PEBDI@Z
?resolveNamesForTransportRules@orbParameters@omni@@3_NA
?resolve_initial_references@omniOrbORB@@UEAAPEAVObject@CORBA@@PEBD@Z
?resolve_str@_objref_NamingContextExt@CosNaming@@QEAAPEAVObject@CORBA@@PEBD@Z
?response_expected@GIOP_S@omni@@QEAAX_N@Z
?response_expected@GIOP_S@omni@@QEBA_NXZ
?result@_0RL_cd_3c165f58b5a16b59_00000000@@QEAA_NXZ
?result@_0RL_cd_3c165f58b5a16b59_20000000@@QEAAPEAVServantBase@PortableServer@@XZ
?result@_0RL_cd_3c165f58b5a16b59_60000000@@QEAAPEAVServantBase@PortableServer@@XZ
?result@_cCORBA_mObject_i_cstring@omniStdCallDesc@@QEAAPEAVObject@CORBA@@XZ
?result_expected@GIOP_S@omni@@QEAAX_N@Z
?retainAddressOrder@orbParameters@omni@@3_NA
?retry@CommFailure@giopStream@omni@@QEBA_NXZ
?revertToOriginalProfile@omni@@YAXPEAVomniObjRef@@@Z
?rewindInputPtr@cdrMemoryStream@@QEAAXXZ
?rewindPtrs@cdrMemoryStream@@QEAAXXZ
?rgtGlobal@?1??WspiapiLoad@@9@4PAUWSPIAPI_FUNCTION@@A
?rootPOA@omniOrbPOA@omni@@SAPEAVPOA@PortableServer@@H@Z
?ropes@BiDirServerRope@omni@@2VRopeLink@2@A
?ropes@giopRope@omni@@1VRopeLink@2@A
?round@Fixed@CORBA@@QEBA?AV12@G@Z
?run@omniAsyncWorker@@UEAAXPEAX@Z
?run@omniAsyncWorkerInfo@@UEAAXXZ
?run@omniClientWorkerInfo@@UEAAXXZ
?run@omniOrbORB@@UEAAXXZ
?run@omniServerWorkerInfo@@UEAAXXZ
?run_timeout@omniOrbORB@@QEAA_NKK@Z
?run_undetached@omni_thread@@EEAAPEAXPEAX@Z
?safeDelete@giopStrand@omni@@QEAA_N_N@Z
?scanGranularity@orbParameters@omni@@3KA
?scan_interval@SocketCollection@omni@@2Uomni_time_t@@A
?sd_detachedObjectLock@omniObjAdapter@omni@@0Vomni_tracedmutex@@A
?sd_detachedObjectSignal@omniObjAdapter@omni@@0Vomni_tracedcondition@@A
?sd_interceptor_call@omniCallDescriptor@@0P6AXPEAV1@PEAVomniServant@@@ZEA
?sd_interceptor_stack@omniCallDescriptor@@0PEAUInterceptorFn@1@EA
?sd_lock@omniAsyncCallDescriptor@@2Vomni_tracedmutex@@A
?selectRope@BiDirServerRope@omni@@SAHAEBV?$omnivector@PEAVgiopAddress@omni@@@@PEAVIORInfo@omniIOR@@AEAPEAVRope@2@@Z
?selectRope@giopRope@omni@@SAHAEBV?$omnivector@PEAVgiopAddress@omni@@@@PEAVIORInfo@omniIOR@@AEAPEAVRope@2@AEA_N@Z
?self@omniAsyncWorkerInfo@@UEAAPEAVomni_thread@@XZ
?self@omniClientWorkerInfo@@UEAAPEAVomni_thread@@XZ
?self@omniServerWorkerInfo@@UEAAPEAVomni_thread@@XZ
?selfThread@omniTask@@QEAAPEAVomni_thread@@XZ
?sendChunk@giopStream@omni@@AEAAXPEAUgiopStream_Buffer@2@@Z
?sendCopyChunk@giopStream@omni@@AEAAXPEAXK@Z
?sendLocateReply@giopImpl10@omni@@SAXPEAVgiopStream@2@W4LocateStatusType@GIOP@@PEAVObject@CORBA@@PEAVSystemException@7@@Z
?sendLocateReply@giopImpl11@omni@@SAXPEAVgiopStream@2@W4LocateStatusType@GIOP@@PEAVObject@CORBA@@PEAVSystemException@7@@Z
?sendLocateReply@giopImpl12@omni@@SAXPEAVgiopStream@2@W4LocateStatusType@GIOP@@PEAVObject@CORBA@@PEAVSystemException@7@@Z
?sendLocateRequest@giopImpl10@omni@@SAXPEAVgiopStream@2@@Z
?sendLocateRequest@giopImpl11@omni@@SAXPEAVgiopStream@2@@Z
?sendLocateRequest@giopImpl12@omni@@SAXPEAVgiopStream@2@@Z
?sendLocationForwardReply@giopImpl10@omni@@SAXPEAVgiopStream@2@PEAVObject@CORBA@@_N@Z
?sendLocationForwardReply@giopImpl11@omni@@SAXPEAVgiopStream@2@PEAVObject@CORBA@@_N@Z
?sendLocationForwardReply@giopImpl12@omni@@SAXPEAVgiopStream@2@PEAVObject@CORBA@@_N@Z
?sendMsgErrorMessage@giopImpl10@omni@@SAXPEAVgiopStream@2@PEBVSystemException@CORBA@@@Z
?sendMsgErrorMessage@giopImpl11@omni@@SAXPEAVgiopStream@2@PEBVSystemException@CORBA@@@Z
?sendMsgErrorMessage@giopImpl12@omni@@SAXPEAVgiopStream@2@PEBVSystemException@CORBA@@@Z
?sendNotifications@SocketCollection@omni@@AEAAXAEAV?$omnivector@PEAVSocketHolder@omni@@@@@Z
?sendSystemException@giopImpl10@omni@@SAXPEAVgiopStream@2@AEBVSystemException@CORBA@@@Z
?sendSystemException@giopImpl11@omni@@SAXPEAVgiopStream@2@AEBVSystemException@CORBA@@@Z
?sendSystemException@giopImpl12@omni@@SAXPEAVgiopStream@2@AEBVSystemException@CORBA@@@Z
?sendUserException@giopImpl10@omni@@SAXPEAVgiopStream@2@AEBVUserException@CORBA@@@Z
?sendUserException@giopImpl11@omni@@SAXPEAVgiopStream@2@AEBVUserException@CORBA@@@Z
?sendUserException@giopImpl12@omni@@SAXPEAVgiopStream@2@AEBVUserException@CORBA@@@Z
?servant@omniLocalIdentity@@QEBAPEAVomniServant@@XZ
?servant__this@omniOrbPOA@omni@@QEAAPEAXPEAVServantBase@PortableServer@@PEBD@Z
?servant_to_id@omniOrbPOA@omni@@UEAAPEAVObjectId@PortableServer@@PEAVServantBase@4@@Z
?servant_to_reference@omniOrbPOA@omni@@UEAAPEAVObject@CORBA@@PEAVServantBase@PortableServer@@@Z
?server@giopWorker@omni@@QEBAPEAVgiopServer@2@XZ
?serverAcceptConnection@omniInterceptorP@omni@@2PEAUelmT@12@EA
?serverCallTimeOutPeriod@orbParameters@omni@@3Uomni_time_t@@A
?serverReceiveRequest@omniInterceptorP@omni@@2PEAUelmT@12@EA
?serverRules@transportRules@omni@@SAAEAV12@XZ
?serverSendException@omniInterceptorP@omni@@2PEAUelmT@12@EA
?serverSendReply@omniInterceptorP@omni@@2PEAUelmT@12@EA
?service_contexts@GIOP_S@omni@@QEAAAEAV?$_CORBA_Unbounded_Sequence@UServiceContext@IOP@@@@XZ
?set@ConnectionInfo@omni@@SAXW4ConnectionEvent@12@_NPEBD2@Z
?set@loader@omniORB@@SAXP6APEAVObject@CORBA@@AEBUomniOrbBoaKey@@@Z@Z
?setActive@omniObjTableEntry@@QEAAXPEAVomniServant@@PEAVomniObjAdapter@omni@@@Z
?setAndCheckTimeout@tcpSocket@omni@@SAHAEBUomni_time_t@@AEAUtimeval@@@Z
?setBlocking@SocketHolder@omni@@QEAAXXZ
?setBlocking@tcpSocket@omni@@SAH_K@Z
?setByteSwapFlag@cdrMemoryStream@@QEAAX_N@Z
?setCallDescriptor@omniCurrent@@QEAAXPEAVomniCallDescriptor@@@Z
?setClientCallTimeout@omniORB@@YAXK@Z
?setClientCallTimeout@omniORB@@YAXPEAVObject@CORBA@@K@Z
?setClientConnectTimeout@omniORB@@YAXK@Z
?setClientThreadCallDeadline@omniORB@@YAXKK@Z
?setClientThreadCallTimeout@omniORB@@YAXK@Z
?setCloseOnExec@tcpSocket@omni@@SAH_K@Z
?setComplete@omniAsyncCallDescriptor@@QEAAXXZ
?setDeactivating@omniObjTableEntry@@QEAAXXZ
?setDeactivatingOA@omniObjTableEntry@@QEAAXXZ
?setDead@omniObjTableEntry@@QEAAXXZ
?setDeadline@giopStream@omni@@QEAAXAEBUomni_time_t@@@Z
?setDeadline@omniCallDescriptor@@QEAAXAEBUomni_time_t@@@Z
?setDeadline@omniCurrent@@QEAAXAEBUomni_time_t@@@Z
?setDeadline@omniCurrent@@QEAAXKK@Z
?setDefaultInitRefFromArgs@omniInitialReferences@omni@@SAXPEBD@Z
?setDefaultInitRefFromFile@omniInitialReferences@omni@@SAXPEBD@Z
?setEtherealising@omniObjTableEntry@@QEAAXXZ
?setFromArgs@omniInitialReferences@omni@@SA_NPEBD0@Z
?setFromFile@omniInitialReferences@omni@@SA_NPEBD0@Z
?setFromORB@omniInitialReferences@omni@@SAXPEBDPEAVObject@CORBA@@@Z
?setHandler@omniAsyncCallDescriptor@@UEAAXPEAVomniObjRef@@@Z
?setLast@giopStream_Buffer@omni@@QEAAXPEAX@Z
?setLength@cdrValueChunkStream@@AEAAXK@Z
?setLogFilename@omniORB@@YAXPEBD@Z
?setLogFunction@omniORB@@YAXP6AXPEBD@Z@Z
?setMainThread@omniORB@@YAXXZ
?setNonBlocking@SocketHolder@omni@@QEAAXXZ
?setNonBlocking@tcpSocket@omni@@SAH_K@Z
?setOctetSeq@cdrEncapsulationStream@@QEAAXAEAV_CORBA_Unbounded_Sequence_Octet@@@Z
?setOutputLastOffset@giopStream@omni@@AEAAXXZ
?setPersistentServerIdentifier@omniORB@@YAXAEBV_CORBA_Unbounded_Sequence_Octet@@@Z
?setSelectable@SocketHolder@omni@@QEAAXH_N@Z
?setSelectable@tcpConnection@omni@@UEAAXH_N@Z
?setServant@omniLocalIdentity@@QEAAXPEAVomniServant@@PEAVomniObjAdapter@omni@@@Z
?setTimeout@omniCurrent@@QEAAXAEBUomni_time_t@@@Z
?setTimeout@omniCurrent@@QEAAXKK@Z
?setTimeout@tcpSocket@omni@@SA_NAEBUomni_time_t@@AEAUtimeval@@@Z
?set_is_last@omniEtherealiser@@QEAAXH@Z
?set_no_publish@giopEndpoint@omni@@QEAAXXZ
?set_operation_size@GIOP_S@omni@@QEAAXK@Z
?set_principal_size@GIOP_S@omni@@QEAAXK@Z
?set_servant@omniOrbPOA@omni@@UEAAXPEAVServantBase@PortableServer@@@Z
?set_servant_manager@omniOrbPOA@omni@@UEAAXPEAVServantManager@PortableServer@@@Z
?set_size@omniObjKey@@QEAAXH@Z
?setupInterception@omniCallDescriptor@@CAXPEAV1@PEAVomniServant@@@Z
?shutdown@Scavenger@omni@@0_NA
?shutdown@omniAsyncDedicated@@QEAAXXZ
?shutdown@omniAsyncInvoker@@QEAAXXZ
?shutdown@omniObjAdapter@omni@@SAXXZ
?shutdown@omniOrbORB@@UEAAX_N@Z
?shutdown@omniOrbPOA@omni@@SAXXZ
?shutdown@proxyObjectFactory@omni@@SAXXZ
?singleshot@giopWorker@omni@@QEBA_NXZ
?singleton@ConnectionInfo@omni@@2PEAV12@EA
?singleton@giopServer@omni@@SAAEAPEAV12@XZ
?singleton@omniShutdownIdentity@@SAPEAV1@XZ
?singleton@orbOptions@omni@@SAAEAV12@XZ
?size@?$omnivector@K@@QEBA_KXZ
?size@?$omnivector@PEAUEndpointURI@Options@omniObjAdapter@omni@@@@QEBA_KXZ
?size@?$omnivector@PEAUHandlerValuePair@orbOptions@omni@@@@QEBA_KXZ
?size@?$omnivector@PEAURuleActionPair@transportRules@omni@@@@QEBA_KXZ
?size@?$omnivector@PEAVHandler@orbOptions@omni@@@@QEBA_KXZ
?size@?$omnivector@PEAVObject@CORBA@@@@QEBA_KXZ
?size@?$omnivector@PEAVRuleType@transportRules@omni@@@@QEBA_KXZ
?size@?$omnivector@PEAVSocketHolder@omni@@@@QEBA_KXZ
?size@?$omnivector@PEAVURIHandler@omniURI@omni@@@@QEBA_KXZ
?size@?$omnivector@PEAVgiopActiveCollection@omni@@@@QEBA_KXZ
?size@?$omnivector@PEAVgiopAddress@omni@@@@QEBA_KXZ
?size@?$omnivector@PEAVgiopEndpoint@omni@@@@QEBA_KXZ
?size@?$omnivector@PEAVgiopStrand@omni@@@@QEBA_KXZ
?size@?$omnivector@PEAVomniInitialiser@omni@@@@QEBA_KXZ
?size@?$omnivector@PEAVomniObjRef@@@@QEBA_KXZ
?size@?$omnivector@PEAVomniObjTableEntry@@@@QEBA_KXZ
?size@?$omnivector@PEAVomniTrackedObject@omni@@@@QEBA_KXZ
?size@?$omnivector@PEAVorbServer@omni@@@@QEBA_KXZ
?size@?$omnivector@PEBD@@QEBA_KXZ
?size@?$omnivector@UresolvePseudoEntry@omni@@@@QEBA_KXZ
?size@omniObjKey@@QEBAHXZ
?skipInput@cdrCountingStream@@UEAAXK@Z
?skipInput@cdrMemoryStream@@UEAAXK@Z
?skipInput@cdrStreamAdapter@@MEAAXK@Z
?skipInput@cdrValueChunkStream@@UEAAXK@Z
?skipInput@giopStream@omni@@UEAAXK@Z
?skipInputData@giopImpl10@omni@@SAXPEAVgiopStream@2@_K@Z
?skipInputData@giopImpl11@omni@@SAXPEAVgiopStream@2@_K@Z
?skipInputData@giopImpl12@omni@@SAXPEAVgiopStream@2@_K@Z
?skipToNestedValue@cdrValueChunkStream@@QEAA_NJ@Z
?sleepOnRdLock@giopStream@omni@@SAXPEAVgiopStrand@2@@Z
?sleepOnRdLock@giopStream@omni@@UEAAXXZ
?sleepOnRdLockAlways@giopStream@omni@@UEAAXXZ
?socketSendBuffer@orbParameters@omni@@3HA
?sortHandlers@orbOptions@omni@@AEAAXXZ
?start@giopServer@omni@@UEAAXXZ
?startIdleCounter@giopStrand@omni@@QEAA_NXZ
?startInputChunk@cdrValueChunkStream@@AEAAXXZ
?startInputValueBody@cdrValueChunkStream@@QEAAXXZ
?startOutputChunk@cdrValueChunkStream@@AEAAXXZ
?startOutputValueBody@cdrValueChunkStream@@QEAAXXZ
?startOutputValueHeader@cdrValueChunkStream@@QEAAXJ@Z
?startRequest@omniObjAdapter@omni@@QEAAXXZ
?start_adapteractivating_child_or_block@omniOrbPOA@omni@@AEAAHPEBD@Z
?state@GIOP_C@omni@@QEAAXW4State@IOP_C@2@@Z
?state@GIOP_C@omni@@QEBA?AW4State@IOP_C@2@XZ
?state@GIOP_S@omni@@QEAAXW4State@IOP_S@2@@Z
?state@GIOP_S@omni@@QEBA?AW4State@IOP_S@2@XZ
?state@giopStrand@omni@@QEAAXW4State@12@@Z
?state@giopStrand@omni@@QEBA?AW4State@12@XZ
?state@omniObjTableEntry@@QEAA?AW4State@1@XZ
?stop@giopServer@omni@@UEAAXXZ
?stop@omniAsyncPool@@QEAAXXZ
?stop@omniAsyncWorker@@QEAAXXZ
?stopIdleCounter@giopStrand@omni@@QEAA_NXZ
?storeException@omniAsyncCallDescriptor@@QEAAXAEBVException@CORBA@@@Z
?str2Address@giopAddress@omni@@SAPEAV12@PEBD@Z
?str2Endpoint@giopEndpoint@omni@@SAPEAV12@PEBD@Z
?str2Transport@giopTransportImpl@omni@@SAPEAV12@PEBD@Z
?strIsValidEndpoint@giopEndpoint@omni@@SA_NPEBD@Z
?strMatch@omni@@YA_NPEBD0@Z
?strand@giopStream@omni@@QEAAAEAVgiopStrand@2@XZ
?strand@giopWorker@omni@@QEBAPEAVgiopStrand@2@XZ
?strcasecmp@@YAHPEBD0@Z
?strchr@@YAPEADQEADH@Z
?strictIIOP@orbParameters@omni@@3_NA
?stringToName@omniURI@omni@@SAPEAVName@CosNaming@@PEBD@Z
?stringToObject@omniURI@omni@@SAPEAVObject@CORBA@@PEBDI@Z
?string_alloc@CORBA@@YAPEADK@Z
?string_dup@CORBA@@YAPEADPEBD@Z
?string_free@CORBA@@YAXPEAD@Z
?string_to_ObjectId@PortableServer@@YAPEAVObjectId@1@PEBD@Z
?string_to_object@omniOrbORB@@UEAAPEAVObject@CORBA@@PEBD@Z
?strip@omniExHelper@omni@@SAPEBDPEBD@Z
?strncasecmp@@YAHPEBD0_K@Z
?supportBootstrapAgent@orbParameters@omni@@3_NA
?supportCurrent@orbParameters@omni@@3_NA
?supportPerThreadTimeOut@orbParameters@omni@@3_NA
?supports@corbalocURIHandler@omni@@UEAA_NPEBD@Z
?supports@corbanameURIHandler@omni@@UEAA_NPEBD@Z
?supports@iorURIHandler@omni@@UEAA_NPEBD@Z
?synchronise_request@omniOrbBOA@omni@@QEAAXXZ
?synchronise_request@omniOrbPOA@omni@@AEAAXPEAVomniLocalIdentity@@@Z
?syntaxIsValid@corbalocURIHandler@omni@@UEAA_NPEBD@Z
?syntaxIsValid@corbanameURIHandler@omni@@UEAA_NPEBD@Z
?syntaxIsValid@iorURIHandler@omni@@UEAA_NPEBD@Z
?tcAliasExpand@orbParameters@omni@@3_NA
?terminate@Scavenger@omni@@SAXXZ
?terminate@giopRendezvouser@omni@@QEAAXXZ
?terminate@giopWorker@omni@@QEAAXXZ
?theBOA@omniOrbBOA@omni@@SAPEAV12@XZ
?theCurrent@omniOrbPOACurrent@omni@@SAPEAVCurrent@PortableServer@@XZ
?theTask@Scavenger@omni@@0PEAV12@EA
?the_POAManager@omniOrbPOA@omni@@UEAAPEAVPOAManager@PortableServer@@XZ
?the_activator@omniOrbPOA@omni@@UEAAPEAVAdapterActivator@PortableServer@@XZ
?the_activator@omniOrbPOA@omni@@UEAAXPEAVAdapterActivator@PortableServer@@@Z
?the_children@omniOrbPOA@omni@@UEAAPEAVPOAList@PortableServer@@XZ
?the_name@omniOrbPOA@omni@@UEAAPEADXZ
?the_parent@omniOrbPOA@omni@@UEAAPEAVPOA@PortableServer@@XZ
?threadPerConnectionLowerLimit@orbParameters@omni@@3KA
?threadPerConnectionPolicy@orbParameters@omni@@3_NA
?threadPerConnectionUpperLimit@orbParameters@omni@@3KA
?threadPoolWatchConnection@orbParameters@omni@@3KA
?thread_key@omniCurrent@@0IA
?throwTransientOnTimeOut@orbParameters@omni@@3_NA
?timedwait@omni_condition@@QEAAHAEBUomni_time_t@@@Z
?timeout@omniCurrent@@QEAAAEBUomni_time_t@@XZ
?timeout_absolute@omniCurrent@@QEAA_NXZ
?toAddress@tcpTransportImpl@omni@@UEAAPEAVgiopAddress@2@PEBD@Z
?toEndpoint@tcpTransportImpl@omni@@UEAAPEAVgiopEndpoint@2@PEBD@Z
?toObject@corbalocURIHandler@omni@@UEAAPEAVObject@CORBA@@PEBDI@Z
?toObject@corbanameURIHandler@omni@@UEAAPEAVObject@CORBA@@PEBDI@Z
?toObject@iorURIHandler@omni@@UEAAPEAVObject@CORBA@@PEBDI@Z
?toString@ConnectionInfo@omni@@SAPEBDW4ConnectionEvent@12@@Z
?toU@NCS_C_8bit@omniCodeSet@omni@@QEBAPEB_WXZ
?to_name@_objref_NamingContextExt@CosNaming@@QEAAPEAVName@2@PEBD@Z
?to_string@Fixed@CORBA@@QEBAPEADXZ
?to_string@_objref_NamingContextExt@CosNaming@@QEAAPEADAEBVName@2@@Z
?to_url@_objref_NamingContextExt@CosNaming@@QEAAPEADPEBD0@Z
?total@cdrCountingStream@@QEAA_KXZ
?traceExceptions@omniORB@@3_NA
?traceInvocationReturns@omniORB@@3_NA
?traceInvocations@omniORB@@3_NA
?traceLevel@omniORB@@3KA
?traceLocking@omniORB@@3_NA
?traceThreadId@omniORB@@3_NA
?traceTime@omniORB@@3_NA
?truncate@Fixed@CORBA@@QEBA?AV12@G@Z
?try_direct@omniCallHandle@@QEBA_NXZ
?type@tcpActiveCollection@omni@@UEBAPEBDXZ
?type@tcpAddress@omni@@UEBAPEBDXZ
?type@tcpEndpoint@omni@@UEBAPEBDXZ
?ucheckFail@omni@@YAXPEBDH0@Z
?unbind@_objref_NamingContext@CosNaming@@QEAAXAEBVName@2@@Z
?unescape@omniURI@omni@@SAPEADAEAPEBDAEAI@Z
?unixTransportDirectory@orbParameters@omni@@3V_CORBA_String_var@@A
?unixTransportPermission@orbParameters@omni@@3GA
?unknown_adapter@_objref_AdapterActivator@PortableServer@@$4PPPPPPPM@A@EAA_NPEAVPOA@2@PEBD@Z
?unknown_adapter@_objref_AdapterActivator@PortableServer@@UEAA_NPEAVPOA@2@PEBD@Z
?unlock@omniServantActivatorTaskQueue@omni@@QEAAXXZ
?unlock@omni_mutex@@QEAAXXZ
?unlock@omni_rmutex@@QEAAXXZ
?unmarshalArguments@_0RL_cd_69ceca6a39f685b5_00000000@@UEAAXAEAVcdrStream@@@Z
?unmarshalArguments@_0RL_cd_69ceca6a39f685b5_02000000@@UEAAXAEAVcdrStream@@@Z
?unmarshalArguments@_0RL_cd_69ceca6a39f685b5_20000000@@UEAAXAEAVcdrStream@@@Z
?unmarshalArguments@_0RL_cd_69ceca6a39f685b5_21000000@@UEAAXAEAVcdrStream@@@Z
?unmarshalArguments@_0RL_cd_69ceca6a39f685b5_40000000@@UEAAXAEAVcdrStream@@@Z
?unmarshalArguments@_0RL_cd_69ceca6a39f685b5_60000000@@UEAAXAEAVcdrStream@@@Z
?unmarshalArguments@_0RL_cd_69ceca6a39f685b5_61000000@@UEAAXAEAVcdrStream@@@Z
?unmarshalArguments@_0RL_cd_69ceca6a39f685b5_80000000@@UEAAXAEAVcdrStream@@@Z
?unmarshalArguments@_0RL_cd_69ceca6a39f685b5_a0000000@@UEAAXAEAVcdrStream@@@Z
?unmarshalArguments@_0RL_cd_69ceca6a39f685b5_a1000000@@UEAAXAEAVcdrStream@@@Z
?unmarshalArguments@_0RL_cd_69ceca6a39f685b5_c1000000@@UEAAXAEAVcdrStream@@@Z
?unmarshalArguments@_0RL_cd_69ceca6a39f685b5_e0000000@@UEAAXAEAVcdrStream@@@Z
?unmarshalArguments@_0RL_cd_69ceca6a39f685b5_e1000000@@UEAAXAEAVcdrStream@@@Z
?unmarshalArguments@_0RL_cd_96f078e2247ab9da_00000000@@UEAAXAEAVcdrStream@@@Z
?unmarshalArguments@_cCORBA_mObject_i_cstring@omniStdCallDesc@@UEAAXAEAVcdrStream@@@Z
?unmarshalArguments@omniCallDescriptor@@UEAAXAEAVcdrStream@@@Z
?unmarshalArguments@omni_is_a_CallDesc@omni@@UEAAXAEAVcdrStream@@@Z
?unmarshalArrayUShort@cdrStream@@QEAAXPEAGH@Z
?unmarshalBoolean@cdrStream@@QEAA_NXZ
?unmarshalChar@NCS_C_8bit@omniCodeSet@omni@@UEAAEAEAVcdrStream@@PEAVTCS_C@23@@Z
?unmarshalChar@NCS_C_UTF_8@omni@@UEAAEAEAVcdrStream@@PEAVTCS_C@omniCodeSet@2@@Z
?unmarshalChar@TCS_C_8bit@omniCodeSet@omni@@UEAA_WAEAVcdrStream@@@Z
?unmarshalChar@TCS_C_UTF_8@omni@@UEAA_WAEAVcdrStream@@@Z
?unmarshalDouble@cdrStream@@QEAANXZ
?unmarshalIORAddressingInfo@GIOP_S@omni@@QEAAXXZ
?unmarshalLocateReply@giopImpl10@omni@@SAXPEAVgiopStream@2@@Z
?unmarshalLocateReply@giopImpl11@omni@@SAXPEAVgiopStream@2@@Z
?unmarshalLocateReply@giopImpl12@omni@@SAXPEAVgiopStream@2@@Z
?unmarshalLocateRequest@giopImpl10@omni@@SAXPEAVgiopStream@2@@Z
?unmarshalLocateRequest@giopImpl11@omni@@SAXPEAVgiopStream@2@@Z
?unmarshalLocateRequest@giopImpl12@omni@@SAXPEAVgiopStream@2@@Z
?unmarshalLong@cdrStream@@QEAAJXZ
?unmarshalLongLong@cdrStream@@QEAA_JXZ
?unmarshalMultiComponentProfile@IIOP@@SAXAEBUTaggedProfile@IOP@@AEAV?$_CORBA_Unbounded_Sequence@UTaggedComponent@IOP@@@@@Z
?unmarshalObjRef@AdapterActivator_Helper@PortableServer@@SAPEAVAdapterActivator@2@AEAVcdrStream@@@Z
?unmarshalObjRef@BindingIterator_Helper@CosNaming@@SAPEAV_objref_BindingIterator@2@AEAVcdrStream@@@Z
?unmarshalObjRef@CORBA_InitialReferences_Helper@@SAPEAV_objref_CORBA_InitialReferences@@AEAVcdrStream@@@Z
?unmarshalObjRef@LocalObject_Helper@CORBA@@SAPEAVLocalObject@2@AEAVcdrStream@@@Z
?unmarshalObjRef@NamingContextExt_Helper@CosNaming@@SAPEAV_objref_NamingContextExt@2@AEAVcdrStream@@@Z
?unmarshalObjRef@NamingContext_Helper@CosNaming@@SAPEAV_objref_NamingContext@2@AEAVcdrStream@@@Z
?unmarshalObjRef@Object_Helper@CORBA@@SAPEAVObject@2@AEAVcdrStream@@@Z
?unmarshalObjRef@ServantActivator_Helper@PortableServer@@SAPEAVServantActivator@2@AEAVcdrStream@@@Z
?unmarshalObjRef@ServantLocator_Helper@PortableServer@@SAPEAVServantLocator@2@AEAVcdrStream@@@Z
?unmarshalObjRef@ServantManager_Helper@PortableServer@@SAPEAVServantManager@2@AEAVcdrStream@@@Z
?unmarshalObjectKey@IIOP@@SAXAEBUTaggedProfile@IOP@@AEAV_CORBA_Unbounded_Sequence_Octet@@@Z
?unmarshalOctet@cdrStream@@QEAAEXZ
?unmarshalProfile@IIOP@@SAXAEBUTaggedProfile@IOP@@AEAUProfileBody@1@@Z
?unmarshalRawString@cdrStream@@QEAAPEADXZ
?unmarshalReplyHeader@giopImpl10@omni@@SAXPEAVgiopStream@2@@Z
?unmarshalReplyHeader@giopImpl11@omni@@SAXPEAVgiopStream@2@@Z
?unmarshalReplyHeader@giopImpl12@omni@@SAXPEAVgiopStream@2@@Z
?unmarshalRequestHeader@giopImpl10@omni@@SAXPEAVgiopStream@2@@Z
?unmarshalRequestHeader@giopImpl11@omni@@SAXPEAVgiopStream@2@@Z
?unmarshalRequestHeader@giopImpl12@omni@@SAXPEAVgiopStream@2@@Z
?unmarshalReturnedValues@_0RL_cd_69ceca6a39f685b5_02000000@@UEAAXAEAVcdrStream@@@Z
?unmarshalReturnedValues@_0RL_cd_69ceca6a39f685b5_21000000@@UEAAXAEAVcdrStream@@@Z
?unmarshalReturnedValues@_0RL_cd_69ceca6a39f685b5_41000000@@UEAAXAEAVcdrStream@@@Z
?unmarshalReturnedValues@_0RL_cd_69ceca6a39f685b5_61000000@@UEAAXAEAVcdrStream@@@Z
?unmarshalReturnedValues@_0RL_cd_69ceca6a39f685b5_80000000@@UEAAXAEAVcdrStream@@@Z
?unmarshalReturnedValues@_0RL_cd_69ceca6a39f685b5_a1000000@@UEAAXAEAVcdrStream@@@Z
?unmarshalReturnedValues@_0RL_cd_69ceca6a39f685b5_c0000000@@UEAAXAEAVcdrStream@@@Z
?unmarshalReturnedValues@_0RL_cd_69ceca6a39f685b5_c1000000@@UEAAXAEAVcdrStream@@@Z
?unmarshalReturnedValues@_0RL_cd_69ceca6a39f685b5_e0000000@@UEAAXAEAVcdrStream@@@Z
?unmarshalReturnedValues@_0RL_cd_69ceca6a39f685b5_e1000000@@UEAAXAEAVcdrStream@@@Z
?unmarshalReturnedValues@_0RL_cd_96f078e2247ab9da_00000000@@UEAAXAEAVcdrStream@@@Z
?unmarshalReturnedValues@_0RL_cd_96f078e2247ab9da_20000000@@UEAAXAEAVcdrStream@@@Z
?unmarshalReturnedValues@_cCORBA_mObject_i_cstring@omniStdCallDesc@@UEAAXAEAVcdrStream@@@Z
?unmarshalReturnedValues@omniCallDescriptor@@UEAAXAEAVcdrStream@@@Z
?unmarshalReturnedValues@omni_interface_CallDesc@omni@@UEAAXAEAVcdrStream@@@Z
?unmarshalReturnedValues@omni_is_a_CallDesc@omni@@UEAAXAEAVcdrStream@@@Z
?unmarshalReturnedValues@omni_non_existent_CallDesc@omni@@UEAAXAEAVcdrStream@@@Z
?unmarshalShort@cdrStream@@QEAAFXZ
?unmarshalString@NCS_C_8bit@omniCodeSet@omni@@UEAAKAEAVcdrStream@@PEAVTCS_C@23@KAEAPEAD@Z
?unmarshalString@NCS_C_UTF_8@omni@@UEAAKAEAVcdrStream@@PEAVTCS_C@omniCodeSet@2@KAEAPEAD@Z
?unmarshalString@TCS_C_8bit@omniCodeSet@omni@@UEAAKAEAVcdrStream@@KAEAPEA_W@Z
?unmarshalString@TCS_C_UTF_8@omni@@UEAAKAEAVcdrStream@@KAEAPEA_W@Z
?unmarshalString@cdrStream@@QEAAPEADH@Z
?unmarshalULong@cdrStream@@QEAAKXZ
?unmarshalULongLong@cdrStream@@QEAA_KXZ
?unmarshalUShort@cdrStream@@QEAAGXZ
?unmarshalWChar@NCS_W_16bit@omniCodeSet@omni@@UEAA_WAEAVcdrStream@@PEAVTCS_W@23@@Z
?unmarshalWChar@NCS_W_UTF_16@omni@@UEAA_WAEAVcdrStream@@PEAVTCS_W@omniCodeSet@2@@Z
?unmarshalWChar@TCS_W_16bit@omniCodeSet@omni@@UEAA_WAEAVcdrStream@@@Z
?unmarshalWChar@TCS_W_UTF_16@omni@@UEAA_WAEAVcdrStream@@@Z
?unmarshalWString@NCS_W_16bit@omniCodeSet@omni@@UEAAKAEAVcdrStream@@PEAVTCS_W@23@KAEAPEA_W@Z
?unmarshalWString@NCS_W_UTF_16@omni@@UEAAKAEAVcdrStream@@PEAVTCS_W@omniCodeSet@2@KAEAPEA_W@Z
?unmarshalWString@TCS_W_16bit@omniCodeSet@omni@@UEAAKAEAVcdrStream@@KAEAPEA_W@Z
?unmarshalWString@TCS_W_UTF_16@omni@@UEAAKAEAVcdrStream@@KAEAPEA_W@Z
?unmarshalWString@cdrStream@@QEAAPEA_WH@Z
?unmarshalWildCardRequestHeader@giopImpl10@omni@@SAXPEAVgiopStream@2@@Z
?unmarshalWildCardRequestHeader@giopImpl11@omni@@SAXPEAVgiopStream@2@@Z
?unmarshalWildCardRequestHeader@giopImpl12@omni@@SAXPEAVgiopStream@2@@Z
?unmarshal_TAG_ALTERNATE_IIOP_ADDRESS@omniIOR@@SAXAEBUTaggedComponent@IOP@@AEAV1@@Z
?unmarshal_TAG_CODE_SETS@omniIOR@@SAXAEBUTaggedComponent@IOP@@AEAV1@@Z
?unmarshal_TAG_CSI_SEC_MECH_LIST@omniIOR@@SAXAEBUTaggedComponent@IOP@@AEAV1@@Z
?unmarshal_TAG_OMNIORB_BIDIR@omniIOR@@SAXAEBUTaggedComponent@IOP@@AEAV1@@Z
?unmarshal_TAG_OMNIORB_HTTP_TRANS@omniIOR@@SAXAEBUTaggedComponent@IOP@@AEAV1@@Z
?unmarshal_TAG_OMNIORB_PERSISTENT_ID@omniIOR@@SAXAEBUTaggedComponent@IOP@@AEAV1@@Z
?unmarshal_TAG_OMNIORB_UNIX_TRANS@omniIOR@@SAXAEBUTaggedComponent@IOP@@AEAV1@@Z
?unmarshal_TAG_ORB_TYPE@omniIOR@@SAXAEBUTaggedComponent@IOP@@AEAV1@@Z
?unmarshal_TAG_SSL_SEC_TRANS@omniIOR@@SAXAEBUTaggedComponent@IOP@@AEAV1@@Z
?unmarshal_byte_swap@cdrStream@@QEBA_NXZ
?unmarshaltype_id@IOR@IOP@@SAPEADAEAVcdrStream@@@Z
?unregisterURIHandler@omniURI@omni@@SAXPEAVURIHandler@12@@Z
?upcall@omniCallHandle@@QEAAXPEAVomniServant@@AEAVomniCallDescriptor@@@Z
?update@EndPointPublishPolicy@omniPolicy@@QEAAXAEBVStringSeq@CORBA@@@Z
?uriSyntaxIsValid@omniURI@omni@@SA_NPEBD@Z
?usage@Handler@orbOptions@omni@@QEBAPEBDXZ
?usage@orbOptions@omni@@QEBAPEAVStringSeq@CORBA@@XZ
?usageArgv@Handler@orbOptions@omni@@QEBAPEBDXZ
?usageArgv@orbOptions@omni@@QEBAPEAVStringSeq@CORBA@@XZ
?useTypeCodeIndirections@orbParameters@omni@@3_NA
?userException@_0RL_cd_69ceca6a39f685b5_00000000@@UEAAXAEAVcdrStream@@PEAVIOP_C@omni@@PEBD@Z
?userException@_0RL_cd_69ceca6a39f685b5_01000000@@UEAAXAEAVcdrStream@@PEAVIOP_C@omni@@PEBD@Z
?userException@_0RL_cd_69ceca6a39f685b5_02000000@@UEAAXAEAVcdrStream@@PEAVIOP_C@omni@@PEBD@Z
?userException@_0RL_cd_69ceca6a39f685b5_20000000@@UEAAXAEAVcdrStream@@PEAVIOP_C@omni@@PEBD@Z
?userException@_0RL_cd_69ceca6a39f685b5_40000000@@UEAAXAEAVcdrStream@@PEAVIOP_C@omni@@PEBD@Z
?userException@_0RL_cd_69ceca6a39f685b5_60000000@@UEAAXAEAVcdrStream@@PEAVIOP_C@omni@@PEBD@Z
?userException@_0RL_cd_69ceca6a39f685b5_80000000@@UEAAXAEAVcdrStream@@PEAVIOP_C@omni@@PEBD@Z
?userException@_0RL_cd_69ceca6a39f685b5_a0000000@@UEAAXAEAVcdrStream@@PEAVIOP_C@omni@@PEBD@Z
?userException@_0RL_cd_69ceca6a39f685b5_a1000000@@UEAAXAEAVcdrStream@@PEAVIOP_C@omni@@PEBD@Z
?userException@_0RL_cd_69ceca6a39f685b5_c1000000@@UEAAXAEAVcdrStream@@PEAVIOP_C@omni@@PEBD@Z
?userException@_0RL_cd_69ceca6a39f685b5_e0000000@@UEAAXAEAVcdrStream@@PEAVIOP_C@omni@@PEBD@Z
?userException@_0RL_cd_69ceca6a39f685b5_e1000000@@UEAAXAEAVcdrStream@@PEAVIOP_C@omni@@PEBD@Z
?userException@omniCallDescriptor@@UEAAXAEAVcdrStream@@PEAVIOP_C@omni@@PEBD@Z
?user_excns@omniCallDescriptor@@QEAAPEBQEBDXZ
?validHostPort@omniURI@omni@@SA_NPEBD@Z
?validHostPortRange@omniURI@omni@@SA_NPEBD@Z
?validateString@TCS_C_UTF_8@omni@@QEAAXPEBDW4CompletionStatus@CORBA@@@Z
?validateUserException@omniCallDescriptor@@QEAAXAEBVUserException@CORBA@@@Z
?value@BidirectionalPolicy@BiDirPolicy@@UEAAGXZ
?value@EndPointPublishPolicy@omniPolicy@@UEAAAEBVStringSeq@CORBA@@XZ
?value@IdAssignmentPolicy@PortableServer@@UEAA?AW4IdAssignmentPolicyValue@2@XZ
?value@IdUniquenessPolicy@PortableServer@@UEAA?AW4IdUniquenessPolicyValue@2@XZ
?value@ImplicitActivationPolicy@PortableServer@@UEAA?AW4ImplicitActivationPolicyValue@2@XZ
?value@LifespanPolicy@PortableServer@@UEAA?AW4LifespanPolicyValue@2@XZ
?value@LocalShortcutPolicy@omniPolicy@@UEAAGXZ
?value@PlainObjectKeysPolicy@omniPolicy@@UEAAGXZ
?value@RequestProcessingPolicy@PortableServer@@UEAA?AW4RequestProcessingPolicyValue@2@XZ
?value@ServantRetentionPolicy@PortableServer@@UEAA?AW4ServantRetentionPolicyValue@2@XZ
?value@ThreadPolicy@PortableServer@@UEAA?AW4ThreadPolicyValue@2@XZ
?value@omni_refcount@@QEAAHXZ
?verifyObjectExistsAndType@orbParameters@omni@@3_NA
?version@IORInfo@omniIOR@@QEAAXAEBUVersion@GIOP@@@Z
?version@IORInfo@omniIOR@@QEBAAEBUVersion@GIOP@@XZ
?version@giopStream@omni@@QEAA?AUVersion@GIOP@@XZ
?version@giopStreamImpl@omni@@QEAA?AUVersion@GIOP@@XZ
?versionHex@omniORB@@YAKXZ
?versionString@omniORB@@YAPEBDXZ
?visit@DefaultInitRefHandler@omni@@UEAAXPEBDW4Source@orbOptions@2@@Z
?visit@InitRefHandler@omni@@UEAAXPEBDW4Source@orbOptions@2@@Z
?visit@abortOnInternalErrorHandler@@UEAAXPEBDW4Source@orbOptions@omni@@@Z
?visit@abortOnNativeExceptionHandler@@UEAAXPEBDW4Source@orbOptions@omni@@@Z
?visit@acceptBiDirectionalGIOPHandler@omni@@UEAAXPEBDW4Source@orbOptions@2@@Z
?visit@acceptMisalignedTcIndirectionsHandler@omni@@UEAAXPEBDW4Source@orbOptions@2@@Z
?visit@bootstrapAgentHostnameHandler@omni@@UEAAXPEBDW4Source@orbOptions@2@@Z
?visit@bootstrapAgentPortHandler@omni@@UEAAXPEBDW4Source@orbOptions@2@@Z
?visit@clientCallTimeOutPeriodHandler@omni@@UEAAXPEBDW4Source@orbOptions@2@@Z
?visit@clientConnectTimeOutPeriodHandler@omni@@UEAAXPEBDW4Source@orbOptions@2@@Z
?visit@clientTransportRuleHandler@omni@@UEAAXPEBDW4Source@orbOptions@2@@Z
?visit@configFileHandler@omni@@UEAAXPEBDW4Source@orbOptions@2@@Z
?visit@connectionWatchImmediateHandler@omni@@UEAAXPEBDW4Source@orbOptions@2@@Z
?visit@connectionWatchPeriodHandler@omni@@UEAAXPEBDW4Source@orbOptions@2@@Z
?visit@copyValuesInLocalCallsHandler@omni@@UEAAXPEBDW4Source@orbOptions@2@@Z
?visit@defaultCharCodeSetHandler@@UEAAXPEBDW4Source@orbOptions@omni@@@Z
?visit@defaultWCharCodeSetHandler@@UEAAXPEBDW4Source@orbOptions@omni@@@Z
?visit@diiThrowsSysExceptionsHandler@omni@@UEAAXPEBDW4Source@orbOptions@2@@Z
?visit@dumpConfigurationHandler@omni@@UEAAXPEBDW4Source@orbOptions@2@@Z
?visit@endpointHandler@omni@@UEAAXPEBDW4Source@orbOptions@2@@Z
?visit@endpointNoListenHandler@omni@@UEAAXPEBDW4Source@orbOptions@2@@Z
?visit@endpointNoPublishHandler@omni@@UEAAXPEBDW4Source@orbOptions@2@@Z
?visit@endpointPublishAllIFsHandler@omni@@UEAAXPEBDW4Source@orbOptions@2@@Z
?visit@endpointPublishHandler@omni@@UEAAXPEBDW4Source@orbOptions@2@@Z
?visit@exceptionIdInAnyHandler@omni@@UEAAXPEBDW4Source@orbOptions@2@@Z
?visit@giopBufferSizeHandler@omni@@UEAAXPEBDW4Source@orbOptions@2@@Z
?visit@giopDirectReceiveCutOffHandler@omni@@UEAAXPEBDW4Source@orbOptions@2@@Z
?visit@giopDirectSendCutOffHandler@omni@@UEAAXPEBDW4Source@orbOptions@2@@Z
?visit@giopMaxMsgSizeHandler@omni@@UEAAXPEBDW4Source@orbOptions@2@@Z
?visit@giopMinChunkBeforeDirectSendHandler@omni@@UEAAXPEBDW4Source@orbOptions@2@@Z
?visit@giopTargetAddressModeHandler@omni@@UEAAXPEBDW4Source@orbOptions@2@@Z
?visit@helpHandler@omni@@UEAAXPEBDW4Source@orbOptions@2@@Z
?visit@idHandler@omni@@UEAAXPEBDW4Source@orbOptions@2@@Z
?visit@idleThreadTimeoutHandler@omni@@UEAAXPEBDW4Source@orbOptions@2@@Z
?visit@immediateRopeSwitchHandler@omni@@UEAAXPEBDW4Source@orbOptions@2@@Z
?visit@inConScanPeriodHandler@omni@@UEAAXPEBDW4Source@orbOptions@2@@Z
?visit@lcdModeHandler@omni@@UEAAXPEBDW4Source@orbOptions@2@@Z
?visit@listenBacklogHandler@omni@@UEAAXPEBDW4Source@orbOptions@2@@Z
?visit@maxClientThreadPoolSizeHandler@omni@@UEAAXPEBDW4Source@orbOptions@2@@Z
?visit@maxGIOPConnectionPerServerHandler@omni@@UEAAXPEBDW4Source@orbOptions@2@@Z
?visit@maxGIOPVersionHandler@omni@@UEAAXPEBDW4Source@orbOptions@2@@Z
?visit@maxInterleavedCallsPerConnectionHandler@omni@@UEAAXPEBDW4Source@orbOptions@2@@Z
?visit@maxServerThreadPerConnectionHandler@omni@@UEAAXPEBDW4Source@orbOptions@2@@Z
?visit@maxServerThreadPoolSizeHandler@omni@@UEAAXPEBDW4Source@orbOptions@2@@Z
?visit@maxSocketRecvHandler@omni@@UEAAXPEBDW4Source@orbOptions@2@@Z
?visit@maxSocketSendHandler@omni@@UEAAXPEBDW4Source@orbOptions@2@@Z
?visit@nativeCharCodeSetHandler@@UEAAXPEBDW4Source@orbOptions@omni@@@Z
?visit@nativeWCharCodeSetHandler@@UEAAXPEBDW4Source@orbOptions@omni@@@Z
?visit@objectTableSizeHandler@@UEAAXPEBDW4Source@orbOptions@omni@@@Z
?visit@offerBiDirectionalGIOPHandler@omni@@UEAAXPEBDW4Source@orbOptions@2@@Z
?visit@omniInterceptorP@omni@@SAXAEAVinfo_T@clientOpenConnection_T@omniInterceptors@2@@Z
?visit@omniInterceptorP@omni@@SAXAEAVinfo_T@clientReceiveReply_T@omniInterceptors@2@@Z
?visit@omniInterceptorP@omni@@SAXAEAVinfo_T@clientSendRequest_T@omniInterceptors@2@@Z
?visit@omniInterceptorP@omni@@SAXAEAVinfo_T@createIdentity_T@omniInterceptors@2@@Z
?visit@omniInterceptorP@omni@@SAXAEAVinfo_T@createORBServer_T@omniInterceptors@2@@Z
?visit@omniInterceptorP@omni@@SAXAEAVinfo_T@createRope_T@omniInterceptors@2@@Z
?visit@omniInterceptorP@omni@@SAXAEAVinfo_T@decodeIOR_T@omniInterceptors@2@@Z
?visit@omniInterceptorP@omni@@SAXAEAVinfo_T@encodeIOR_T@omniInterceptors@2@@Z
?visit@omniInterceptorP@omni@@SAXAEAVinfo_T@serverAcceptConnection_T@omniInterceptors@2@@Z
?visit@omniInterceptorP@omni@@SAXAEAVinfo_T@serverReceiveRequest_T@omniInterceptors@2@@Z
?visit@omniInterceptorP@omni@@SAXAEAVinfo_T@serverSendException_T@omniInterceptors@2@@Z
?visit@omniInterceptorP@omni@@SAXAEAVinfo_T@serverSendReply_T@omniInterceptors@2@@Z
?visit@oneCallPerConnectionHandler@omni@@UEAAXPEBDW4Source@orbOptions@2@@Z
?visit@orbOptions@omni@@QEAAXXZ
?visit@outConScanPeriodHandler@omni@@UEAAXPEBDW4Source@orbOptions@2@@Z
?visit@poaHoldRequestTimeoutHandler@omni@@UEAAXPEBDW4Source@orbOptions@2@@Z
?visit@poaUniquePersistentSystemIdsHandler@omni@@UEAAXPEBDW4Source@orbOptions@2@@Z
?visit@principalHandler@omni@@UEAAXPEBDW4Source@orbOptions@2@@Z
?visit@resetTimeOutOnRetriesHandler@omni@@UEAAXPEBDW4Source@orbOptions@2@@Z
?visit@resolveNamesForTransportRulesHandler@omni@@UEAAXPEBDW4Source@orbOptions@2@@Z
?visit@retainAddressOrderHandler@omni@@UEAAXPEBDW4Source@orbOptions@2@@Z
?visit@scanGranularityHandler@omni@@UEAAXPEBDW4Source@orbOptions@2@@Z
?visit@serverCallTimeOutPeriodHandler@omni@@UEAAXPEBDW4Source@orbOptions@2@@Z
?visit@serverTransportRuleHandler@omni@@UEAAXPEBDW4Source@orbOptions@2@@Z
?visit@socketSendBufferHandler@omni@@UEAAXPEBDW4Source@orbOptions@2@@Z
?visit@strictIIOPHandler@omni@@UEAAXPEBDW4Source@orbOptions@2@@Z
?visit@supportBootstrapAgentHandler@omni@@UEAAXPEBDW4Source@orbOptions@2@@Z
?visit@supportCurrentHandler@@UEAAXPEBDW4Source@orbOptions@omni@@@Z
?visit@supportPerThreadTimeOutHandler@omni@@UEAAXPEBDW4Source@orbOptions@2@@Z
?visit@tcAliasExpandHandler@omni@@UEAAXPEBDW4Source@orbOptions@2@@Z
?visit@threadPerConnectionLowerLimitHandler@omni@@UEAAXPEBDW4Source@orbOptions@2@@Z
?visit@threadPerConnectionPolicyHandler@omni@@UEAAXPEBDW4Source@orbOptions@2@@Z
?visit@threadPerConnectionUpperLimitHandler@omni@@UEAAXPEBDW4Source@orbOptions@2@@Z
?visit@threadPoolWatchConnectionHandler@omni@@UEAAXPEBDW4Source@orbOptions@2@@Z
?visit@throwTransientOnTimeOutHandler@@UEAAXPEBDW4Source@orbOptions@omni@@@Z
?visit@traceExceptionsHandler@@UEAAXPEBDW4Source@orbOptions@omni@@@Z
?visit@traceFileHandler@@UEAAXPEBDW4Source@orbOptions@omni@@@Z
?visit@traceInvocationReturnsHandler@@UEAAXPEBDW4Source@orbOptions@omni@@@Z
?visit@traceInvocationsHandler@@UEAAXPEBDW4Source@orbOptions@omni@@@Z
?visit@traceLevelHandler@@UEAAXPEBDW4Source@orbOptions@omni@@@Z
?visit@traceLockingHandler@@UEAAXPEBDW4Source@orbOptions@omni@@@Z
?visit@traceThreadIdHandler@@UEAAXPEBDW4Source@orbOptions@omni@@@Z
?visit@traceTimeHandler@@UEAAXPEBDW4Source@orbOptions@omni@@@Z
?visit@unixTransportDirectoryHandler@omni@@UEAAXPEBDW4Source@orbOptions@2@@Z
?visit@unixTransportPermissionHandler@omni@@UEAAXPEBDW4Source@orbOptions@2@@Z
?visit@useTypeCodeIndirectionsHandler@omni@@UEAAXPEBDW4Source@orbOptions@2@@Z
?visit@validateUTF8Handler@omni@@UEAAXPEBDW4Source@orbOptions@2@@Z
?visit@verifyObjectExistsAndTypeHandler@omni@@UEAAXPEBDW4Source@orbOptions@2@@Z
?wait@omniObjTableEntry@@QEAA?AW4State@1@K@Z
?waitForActiveRequestsToComplete@omniObjAdapter@omni@@QEAAXH@Z
?waitForAllRequestsToComplete@omniObjAdapter@omni@@QEAAXH@Z
?waitForLastIdentity@omniIdentity@@SAXXZ
?waitRead@tcpSocket@omni@@SAH_KAEAUtimeval@@@Z
?waitWrite@tcpSocket@omni@@SAH_KAEAUtimeval@@@Z
?wait_for_detached_objects@omniObjAdapter@omni@@QEAAXXZ
?wakeUp@SocketCollection@omni@@QEAAXXZ
?wakeUpRdLock@giopStream@omni@@SAXPEAVgiopStrand@2@@Z
?width@TCS_C_UTF_8@omni@@AEAAHK@Z
?work_pending@omniAsyncDedicated@@QEAA_NXZ
?work_pending@omniAsyncInvoker@@QEAA_NXZ
?work_pending@omniOrbORB@@UEAA_NXZ
?worker@GIOP_S@omni@@QEAAXPEAVgiopWorker@2@@Z
?workerRun@omniAsyncPoolClient@@UEAAXPEAVomniAsyncWorker@@@Z
?workerRun@omniAsyncPoolGeneral@@UEAAXPEAVomniAsyncWorker@@@Z
?workerRun@omniAsyncPoolServer@@UEAAXPEAVomniAsyncWorker@@@Z
?workerStart@omniAsyncInvoker@@AEAAIXZ
?workerStart@omniAsyncPool@@QEAAIPEAVomniAsyncWorker@@@Z
?workerStartLocked@omniAsyncInvoker@@AEAAIXZ
?workerStop@omniAsyncInvoker@@AEAAIXZ
?workerStop@omniAsyncPool@@QEAAIPEAVomniAsyncWorker@@@Z
?wrLock@giopStream@omni@@UEAAXXZ
?wrUnLock@giopStream@omni@@UEAAXXZ
?write_key@omniObjKey@@QEAAPEAEXZ
?wstring_alloc@CORBA@@YAPEA_WK@Z
?wstring_dup@CORBA@@YAPEA_WPEB_W@Z
?wstring_free@CORBA@@YAXPEA_W@Z
?wstring_to_ObjectId@PortableServer@@YAPEAVObjectId@1@PEB_W@Z
