LIBRARY shared/omniConnectionMgmt433_vc17_rt.dll
VERSION 3.3
EXPORTS
??0?$_CORBA_Sequence@E@@IEAA@XZ
??0?$_CORBA_Sequence@UTaggedComponent@IOP@@@@IEAA@K_N@Z
??0?$_CORBA_Sequence@UTaggedComponent@IOP@@@@IEAA@XZ
??0?$_CORBA_Sequence@UTaggedProfile@IOP@@@@IEAA@AEBV0@@Z
??0?$_CORBA_Unbounded_Sequence@UTaggedComponent@IOP@@@@QEAA@K@Z
??0?$_CORBA_Unbounded_Sequence@UTaggedComponent@IOP@@@@QEAA@XZ
??0?$_CORBA_Unbounded_Sequence@UTaggedProfile@IOP@@@@QEAA@AEBV0@@Z
??0Address@IIOP@@QEAA@XZ
??0IORExtraInfo@omniIOR@@QEAA@K@Z
??0ProfileBody@IIOP@@QEAA@XZ
??0RestrictedInfo@omni@@QEAA@XZ
??0ServiceContext@IOP@@QEAA@XZ
??0TaggedComponent@IOP@@QEAA@XZ
??0TaggedProfile@IOP@@QEAA@XZ
??0TaggedProfileList_var@IOP@@QEAA@PEAV?$_CORBA_Unbounded_Sequence@UTaggedProfile@IOP@@@@@Z
??0_CORBA_Sequence_Octet@@IEAA@XZ
??0_CORBA_String_member@@QEAA@XZ
??0_CORBA_Unbounded_Sequence_Octet@@QEAA@XZ
??0omniIOR_var@@QEAA@PEAVomniIOR@@@Z
??0restrictedGiopRope@omni@@QEAA@AEBV?$omnivector@PEAVgiopAddress@omni@@@@PEAVIORInfo@omniIOR@@KK_N2@Z
??1?$_CORBA_ObjRef_Member@V_objref_IDLType@CORBA@@VIDLType_Helper@2@@@QEAA@XZ
??1?$_CORBA_PseudoObj_Member@VDynAny@DynamicAny@@V?$_CORBA_PseudoObj_Var@VDynAny@DynamicAny@@@@@@QEAA@XZ
??1?$_CORBA_PseudoObj_Member@VPolicy@CORBA@@V?$_CORBA_PseudoObj_Var@VPolicy@CORBA@@@@@@QEAA@XZ
??1?$_CORBA_Sequence@E@@QEAA@XZ
??1?$_CORBA_Sequence@UNameComponent@CosNaming@@@@QEAA@XZ
??1?$_CORBA_Sequence@UTaggedComponent@IOP@@@@QEAA@XZ
??1?$_CORBA_Sequence@UTaggedProfile@IOP@@@@QEAA@XZ
??1?$_CORBA_Unbounded_Sequence@UNameComponent@CosNaming@@@@QEAA@XZ
??1?$_CORBA_Unbounded_Sequence@UTaggedComponent@IOP@@@@QEAA@XZ
??1?$_CORBA_Unbounded_Sequence@UTaggedProfile@IOP@@@@QEAA@XZ
??1Address@IIOP@@QEAA@XZ
??1Binding@CosNaming@@QEAA@XZ
??1IORExtraInfo@omniIOR@@UEAA@XZ
??1Name@CosNaming@@QEAA@XZ
??1NameComponent@CosNaming@@QEAA@XZ
??1NameDynAnyPair@DynamicAny@@QEAA@XZ
??1NameValuePair@DynamicAny@@QEAA@XZ
??1ProfileBody@IIOP@@QEAA@XZ
??1RestrictedInfo@omni@@UEAA@XZ
??1ServiceContext@IOP@@QEAA@XZ
??1StructMember@CORBA@@QEAA@XZ
??1TaggedComponent@IOP@@QEAA@XZ
??1TaggedProfile@IOP@@QEAA@XZ
??1TaggedProfileList_var@IOP@@QEAA@XZ
??1UnionMember@CORBA@@QEAA@XZ
??1ValueMember@CORBA@@QEAA@XZ
??1_CORBA_Sequence_Octet@@IEAA@XZ
??1_CORBA_String_member@@QEAA@XZ
??1_CORBA_Unbounded_Sequence_Octet@@QEAA@XZ
??1cdrEncapsulationStream@@UEAA@XZ
??1omniIOR_var@@QEAA@XZ
??1restrictedGiopRope@omni@@UEAA@XZ
??4?$_CORBA_Sequence@E@@IEAAAEAV0@AEBV0@@Z
??4ServiceContext@IOP@@QEAAAEAU01@AEBU01@@Z
??4TaggedComponent@IOP@@QEAAAEAU01@AEBU01@@Z
??4TaggedProfile@IOP@@QEAAAEAU01@AEBU01@@Z
??4_CORBA_Sequence_Octet@@IEAAAEAV0@AEBV0@@Z
??4_CORBA_Unbounded_Sequence_Octet@@QEAAAEAV0@AEBV0@@Z
??6logger@omniORB@@QEAAAEAV01@G@Z
??A?$_CORBA_PseudoValue_Sequence@PEAVIORExtraInfo@omniIOR@@@@QEAAAEAPEAVIORExtraInfo@omniIOR@@K@Z
??A?$_CORBA_Sequence@UServiceContext@IOP@@@@QEAAAEAUServiceContext@IOP@@K@Z
??A?$_CORBA_Sequence@UTaggedComponent@IOP@@@@QEAAAEAUTaggedComponent@IOP@@K@Z
??A?$_CORBA_Sequence@UTaggedComponent@IOP@@@@QEBAAEBUTaggedComponent@IOP@@K@Z
??A?$_CORBA_Sequence@UTaggedProfile@IOP@@@@QEAAAEAUTaggedProfile@IOP@@K@Z
??ATaggedProfileList_var@IOP@@QEAAAEAUTaggedProfile@1@K@Z
??BTaggedProfileList_var@IOP@@QEBAAEBV?$_CORBA_Unbounded_Sequence@UTaggedProfile@IOP@@@@XZ
??B_CORBA_String_member@@QEBAPEBDXZ
??CTaggedProfileList_var@IOP@@QEAAPEAV?$_CORBA_Unbounded_Sequence@UTaggedProfile@IOP@@@@XZ
??ComniIOR_var@@QEBAPEAVomniIOR@@XZ
??_2@YAXGAEAVcdrStream@@@Z
??_2@YAXKAEAVcdrStream@@@Z
??_2ComponentData@omniConnectionData@@QEBAXAEAVcdrStream@@@Z
??_2ServiceData@omniConnectionData@@QEBAXAEAVcdrStream@@@Z
??_3@YAXAEAGAEAVcdrStream@@@Z
??_3@YAXAEAKAEAVcdrStream@@@Z
??_3ComponentData@omniConnectionData@@QEAAXAEAVcdrStream@@@Z
??_3ServiceData@omniConnectionData@@QEAAXAEAVcdrStream@@@Z
?_NP_is_nil@Object@CORBA@@QEBA_NXZ
?_NP_is_pseudo@Object@CORBA@@QEBA_NXZ
?_PR_getobj@Object@CORBA@@QEAAPEAVomniObjRef@@XZ
?_PR_is_valid@Object@CORBA@@SA_NPEAV12@@Z
?_retn@TaggedProfileList_var@IOP@@QEAAPEAV?$_CORBA_Unbounded_Sequence@UTaggedProfile@IOP@@@@XZ
?acquireClient@restrictedGiopRope@omni@@UEAAPEAVIOP_C@2@PEBVomniIOR@@PEBEKPEAVomniCallDescriptor@@@Z
?addr_selected_profile_index@omniIOR@@QEBAJXZ
?align_to@omni@@YA_K_KW4alignment_t@1@@Z
?allocbuf@?$_CORBA_PseudoValue_Sequence@PEAVIORExtraInfo@omniIOR@@@@SAPEAPEAVIORExtraInfo@omniIOR@@K@Z
?allocbuf@?$_CORBA_Sequence@E@@SAPEAEK@Z
?allocbuf@?$_CORBA_Sequence@UServiceContext@IOP@@@@SAPEAUServiceContext@IOP@@K@Z
?allocbuf@?$_CORBA_Sequence@UTaggedComponent@IOP@@@@SAPEAUTaggedComponent@IOP@@K@Z
?allocbuf@?$_CORBA_Sequence@UTaggedProfile@IOP@@@@SAPEAUTaggedProfile@IOP@@K@Z
?attach@omniConnectionMgmt_initialiser@@UEAAXXZ
?byteSwap@cdrStream@@SAGG@Z
?byteSwap@cdrStream@@SAKK@Z
?copybuffer@?$_CORBA_Sequence@E@@IEAAXK@Z
?copybuffer@?$_CORBA_Sequence@UServiceContext@IOP@@@@IEAAXK@Z
?copybuffer@?$_CORBA_Sequence@UTaggedComponent@IOP@@@@IEAAXK@Z
?copybuffer@?$_CORBA_Sequence@UTaggedProfile@IOP@@@@IEAAXK@Z
?dealloc@_CORBA_String_helper@@SAXPEAD@Z
?detach@omniConnectionMgmt_initialiser@@UEAAXXZ
?extraInfo@IORInfo@omniIOR@@QEAAAEAV?$_CORBA_PseudoValue_Sequence@PEAVIORExtraInfo@omniIOR@@@@XZ
?flags@IORInfo@omniIOR@@QEAAXK@Z
?flags@IORInfo@omniIOR@@QEBAKXZ
?freebuf@?$_CORBA_Sequence@E@@SAXPEAE@Z
?freebuf@?$_CORBA_Sequence@UNameComponent@CosNaming@@@@SAXPEAUNameComponent@CosNaming@@@Z
?freebuf@?$_CORBA_Sequence@UServiceContext@IOP@@@@SAXPEAUServiceContext@IOP@@@Z
?freebuf@?$_CORBA_Sequence@UTaggedComponent@IOP@@@@SAXPEAUTaggedComponent@IOP@@@Z
?freebuf@?$_CORBA_Sequence@UTaggedProfile@IOP@@@@SAXPEAUTaggedProfile@IOP@@@Z
?get@RestrictedInfo@omni@@SAPEAV12@PEAVIORInfo@omniIOR@@@Z
?inMkr@cdrStream@@IEBA_KW4alignment_t@omni@@@Z
?inMkr@cdrStream@@IEBA_KXZ
?init@omniConnectionMgmt@@YAXXZ
?iopProfiles@omniIOR@@QEBAAEBV?$_CORBA_Unbounded_Sequence@UTaggedProfile@IOP@@@@XZ
?ior@GIOP_C@omni@@QEBAPEBVomniIOR@@XZ
?is_nil@CORBA@@YA_NPEAVObject@1@@Z
?length@?$_CORBA_PseudoValue_Sequence@PEAVIORExtraInfo@omniIOR@@@@QEAAXK@Z
?length@?$_CORBA_PseudoValue_Sequence@PEAVIORExtraInfo@omniIOR@@@@QEBAKXZ
?length@?$_CORBA_Sequence@E@@QEAAXK@Z
?length@?$_CORBA_Sequence@UServiceContext@IOP@@@@QEAAXK@Z
?length@?$_CORBA_Sequence@UServiceContext@IOP@@@@QEBAKXZ
?length@?$_CORBA_Sequence@UTaggedComponent@IOP@@@@QEAAXK@Z
?length@?$_CORBA_Sequence@UTaggedComponent@IOP@@@@QEBAKXZ
?length@?$_CORBA_Sequence@UTaggedProfile@IOP@@@@QEAAXK@Z
?length@?$_CORBA_Sequence@UTaggedProfile@IOP@@@@QEBAKXZ
?logs@omniORB@@YAXKPEBD@Z
?makeRestrictedReference@omniConnectionMgmt@@YAPEAVObject@CORBA@@PEAV23@KKK_N11@Z
?marshalOctet@cdrStream@@QEAAXE@Z
?marshalULong@cdrStream@@QEAAXK@Z
?marshalUShort@cdrStream@@QEAAXG@Z
?match@restrictedGiopRope@omni@@MEBA_NAEBV?$omnivector@PEAVgiopAddress@omni@@@@PEAVIORInfo@omniIOR@@@Z
?maxStrands@giopRope@omni@@QEAAKXZ
?maxStrands@giopRope@omni@@QEAAXK@Z
?max_workers@giopConnection@omni@@QEAAHXZ
?max_workers@giopConnection@omni@@QEAAXH@Z
?oneCallPerConnection@giopRope@omni@@QEAAX_N@Z
?outMkr@cdrStream@@IEBA_KW4alignment_t@omni@@@Z
?outMkr@cdrStream@@IEBA_KXZ
?release@CORBA@@YAXPEAVObject@1@@Z
?repositoryID@omniIOR@@QEBAPEBDXZ
?service_contexts@GIOP_S@omni@@QEAAAEAV?$_CORBA_Unbounded_Sequence@UServiceContext@IOP@@@@XZ
?strand@giopStream@omni@@QEAAAEAVgiopStrand@2@XZ
?unmarshalOctet@cdrStream@@QEAAEXZ
?unmarshalULong@cdrStream@@QEAAKXZ
?unmarshalUShort@cdrStream@@QEAAGXZ
