LIBRARY shared/omniDynamic433_vc17_rt.dll
VERSION 3.3
EXPORTS
??$omnicopy@PEAPEAVDynAnyImplBase@omni@@PEAPEAV12@@@YAPEAPEAVDynAnyImplBase@omni@@PEAPEAV01@00@Z
??0?$_CORBA_ConstrType_Variable_Var@UDescription@Contained@CORBA@@@@QEAA@XZ
??0?$_CORBA_ConstrType_Variable_Var@UFullInterfaceDescription@InterfaceDef@CORBA@@@@QEAA@XZ
??0?$_CORBA_ConstrType_Variable_Var@UFullValueDescription@ValueDef@CORBA@@@@QEAA@XZ
??0?$_CORBA_ObjRef_Element@VDynAny@DynamicAny@@VDynAny_Helper@2@@@QEAA@AEAPEAVDynAny@DynamicAny@@_N@Z
??0?$_CORBA_ObjRef_Member@V_objref_Contained@CORBA@@VContained_Helper@2@@@QEAA@AEBV0@@Z
??0?$_CORBA_ObjRef_Member@V_objref_Contained@CORBA@@VContained_Helper@2@@@QEAA@XZ
??0?$_CORBA_ObjRef_Member@V_objref_IDLType@CORBA@@VIDLType_Helper@2@@@QEAA@AEBV0@@Z
??0?$_CORBA_ObjRef_Member@V_objref_IDLType@CORBA@@VIDLType_Helper@2@@@QEAA@XZ
??0?$_CORBA_ObjRef_Member@V_objref_NamingContext@CosNaming@@VNamingContext_Helper@2@@@QEAA@XZ
??0?$_CORBA_ObjRef_Var@V_objref_AbstractInterfaceDef@CORBA@@VAbstractInterfaceDef_Helper@2@@@QEAA@XZ
??0?$_CORBA_ObjRef_Var@V_objref_AliasDef@CORBA@@VAliasDef_Helper@2@@@QEAA@XZ
??0?$_CORBA_ObjRef_Var@V_objref_ArrayDef@CORBA@@VArrayDef_Helper@2@@@QEAA@XZ
??0?$_CORBA_ObjRef_Var@V_objref_AttributeDef@CORBA@@VAttributeDef_Helper@2@@@QEAA@XZ
??0?$_CORBA_ObjRef_Var@V_objref_ConstantDef@CORBA@@VConstantDef_Helper@2@@@QEAA@XZ
??0?$_CORBA_ObjRef_Var@V_objref_Contained@CORBA@@VContained_Helper@2@@@QEAA@XZ
??0?$_CORBA_ObjRef_Var@V_objref_Container@CORBA@@VContainer_Helper@2@@@QEAA@XZ
??0?$_CORBA_ObjRef_Var@V_objref_EnumDef@CORBA@@VEnumDef_Helper@2@@@QEAA@XZ
??0?$_CORBA_ObjRef_Var@V_objref_ExceptionDef@CORBA@@VExceptionDef_Helper@2@@@QEAA@XZ
??0?$_CORBA_ObjRef_Var@V_objref_FixedDef@CORBA@@VFixedDef_Helper@2@@@QEAA@XZ
??0?$_CORBA_ObjRef_Var@V_objref_IDLType@CORBA@@VIDLType_Helper@2@@@QEAA@XZ
??0?$_CORBA_ObjRef_Var@V_objref_InterfaceDef@CORBA@@VInterfaceDef_Helper@2@@@QEAA@XZ
??0?$_CORBA_ObjRef_Var@V_objref_ModuleDef@CORBA@@VModuleDef_Helper@2@@@QEAA@XZ
??0?$_CORBA_ObjRef_Var@V_objref_NativeDef@CORBA@@VNativeDef_Helper@2@@@QEAA@XZ
??0?$_CORBA_ObjRef_Var@V_objref_OperationDef@CORBA@@VOperationDef_Helper@2@@@QEAA@XZ
??0?$_CORBA_ObjRef_Var@V_objref_PrimitiveDef@CORBA@@VPrimitiveDef_Helper@2@@@QEAA@XZ
??0?$_CORBA_ObjRef_Var@V_objref_Repository@CORBA@@VRepository_Helper@2@@@QEAA@XZ
??0?$_CORBA_ObjRef_Var@V_objref_SequenceDef@CORBA@@VSequenceDef_Helper@2@@@QEAA@XZ
??0?$_CORBA_ObjRef_Var@V_objref_StringDef@CORBA@@VStringDef_Helper@2@@@QEAA@XZ
??0?$_CORBA_ObjRef_Var@V_objref_StructDef@CORBA@@VStructDef_Helper@2@@@QEAA@XZ
??0?$_CORBA_ObjRef_Var@V_objref_UnionDef@CORBA@@VUnionDef_Helper@2@@@QEAA@XZ
??0?$_CORBA_ObjRef_Var@V_objref_ValueBoxDef@CORBA@@VValueBoxDef_Helper@2@@@QEAA@XZ
??0?$_CORBA_ObjRef_Var@V_objref_ValueDef@CORBA@@VValueDef_Helper@2@@@QEAA@XZ
??0?$_CORBA_ObjRef_Var@V_objref_ValueMemberDef@CORBA@@VValueMemberDef_Helper@2@@@QEAA@XZ
??0?$_CORBA_ObjRef_Var@V_objref_WstringDef@CORBA@@VWstringDef_Helper@2@@@QEAA@XZ
??0?$_CORBA_PseudoObj_Member@VDynAny@DynamicAny@@V?$_CORBA_PseudoObj_Var@VDynAny@DynamicAny@@@@@@QEAA@XZ
??0?$_CORBA_PseudoObj_Var@VContext@CORBA@@@@QEAA@PEAVContext@CORBA@@@Z
??0?$_CORBA_PseudoObj_Var@VContext@CORBA@@@@QEAA@XZ
??0?$_CORBA_PseudoObj_Var@VContextList@CORBA@@@@QEAA@PEAVContextList@CORBA@@@Z
??0?$_CORBA_PseudoObj_Var@VDynAny@DynamicAny@@@@QEAA@PEAVDynAny@DynamicAny@@@Z
??0?$_CORBA_PseudoObj_Var@VEnvironment@CORBA@@@@QEAA@PEAVEnvironment@CORBA@@@Z
??0?$_CORBA_PseudoObj_Var@VExceptionList@CORBA@@@@QEAA@PEAVExceptionList@CORBA@@@Z
??0?$_CORBA_PseudoObj_Var@VNVList@CORBA@@@@QEAA@XZ
??0?$_CORBA_PseudoObj_Var@VNamedValue@CORBA@@@@QEAA@XZ
??0?$_CORBA_PseudoValue_Sequence@PEAD@@QEAA@XZ
??0?$_CORBA_PseudoValue_Sequence@PEAVNamedValue@CORBA@@@@QEAA@XZ
??0?$_CORBA_PseudoValue_Sequence@PEAVTypeCode@CORBA@@@@QEAA@XZ
??0?$_CORBA_PseudoValue_Sequence@UEntry@ContextImpl@omni@@@@QEAA@XZ
??0?$_CORBA_PseudoValue_Sequence@UTcUnionMember@TypeCode_union@omni@@@@QEAA@XZ
??0?$_CORBA_Sequence@E@@IEAA@AEBV0@@Z
??0?$_CORBA_Sequence@E@@IEAA@K_N@Z
??0?$_CORBA_Sequence@E@@IEAA@XZ
??0?$_CORBA_Sequence@F@@IEAA@AEBV0@@Z
??0?$_CORBA_Sequence@F@@IEAA@K_N@Z
??0?$_CORBA_Sequence@F@@IEAA@XZ
??0?$_CORBA_Sequence@G@@IEAA@AEBV0@@Z
??0?$_CORBA_Sequence@G@@IEAA@K_N@Z
??0?$_CORBA_Sequence@G@@IEAA@XZ
??0?$_CORBA_Sequence@J@@IEAA@AEBV0@@Z
??0?$_CORBA_Sequence@J@@IEAA@K_N@Z
??0?$_CORBA_Sequence@J@@IEAA@XZ
??0?$_CORBA_Sequence@K@@IEAA@AEBV0@@Z
??0?$_CORBA_Sequence@K@@IEAA@K_N@Z
??0?$_CORBA_Sequence@K@@IEAA@XZ
??0?$_CORBA_Sequence@M@@IEAA@AEBV0@@Z
??0?$_CORBA_Sequence@M@@IEAA@K_N@Z
??0?$_CORBA_Sequence@M@@IEAA@XZ
??0?$_CORBA_Sequence@N@@IEAA@AEBV0@@Z
??0?$_CORBA_Sequence@N@@IEAA@K_N@Z
??0?$_CORBA_Sequence@N@@IEAA@XZ
??0?$_CORBA_Sequence@UAttributeDescription@CORBA@@@@IEAA@AEBV0@@Z
??0?$_CORBA_Sequence@UAttributeDescription@CORBA@@@@IEAA@XZ
??0?$_CORBA_Sequence@UBinding@CosNaming@@@@IEAA@AEBV0@@Z
??0?$_CORBA_Sequence@UBinding@CosNaming@@@@IEAA@XZ
??0?$_CORBA_Sequence@UDescription@Container@CORBA@@@@IEAA@AEBV0@@Z
??0?$_CORBA_Sequence@UDescription@Container@CORBA@@@@IEAA@XZ
??0?$_CORBA_Sequence@UExceptionDescription@CORBA@@@@IEAA@AEBV0@@Z
??0?$_CORBA_Sequence@UExceptionDescription@CORBA@@@@IEAA@XZ
??0?$_CORBA_Sequence@UInitializer@CORBA@@@@IEAA@AEBV0@@Z
??0?$_CORBA_Sequence@UInitializer@CORBA@@@@IEAA@XZ
??0?$_CORBA_Sequence@UNameComponent@CosNaming@@@@IEAA@AEBV0@@Z
??0?$_CORBA_Sequence@UNameComponent@CosNaming@@@@IEAA@XZ
??0?$_CORBA_Sequence@UNameDynAnyPair@DynamicAny@@@@IEAA@XZ
??0?$_CORBA_Sequence@UNameValuePair@DynamicAny@@@@IEAA@XZ
??0?$_CORBA_Sequence@UOperationDescription@CORBA@@@@IEAA@AEBV0@@Z
??0?$_CORBA_Sequence@UOperationDescription@CORBA@@@@IEAA@XZ
??0?$_CORBA_Sequence@UParameterDescription@CORBA@@@@IEAA@AEBV0@@Z
??0?$_CORBA_Sequence@UParameterDescription@CORBA@@@@IEAA@XZ
??0?$_CORBA_Sequence@UStructMember@CORBA@@@@IEAA@AEBV0@@Z
??0?$_CORBA_Sequence@UStructMember@CORBA@@@@IEAA@XZ
??0?$_CORBA_Sequence@UUnionMember@CORBA@@@@IEAA@AEBV0@@Z
??0?$_CORBA_Sequence@UUnionMember@CORBA@@@@IEAA@XZ
??0?$_CORBA_Sequence@UValueMember@CORBA@@@@IEAA@AEBV0@@Z
??0?$_CORBA_Sequence@UValueMember@CORBA@@@@IEAA@XZ
??0?$_CORBA_Sequence@VAny@CORBA@@@@IEAA@AEBV0@@Z
??0?$_CORBA_Sequence@VAny@CORBA@@@@IEAA@XZ
??0?$_CORBA_Sequence@VTypeCode_member@CORBA@@@@IEAA@XZ
??0?$_CORBA_Sequence@_J@@IEAA@AEBV0@@Z
??0?$_CORBA_Sequence@_J@@IEAA@K_N@Z
??0?$_CORBA_Sequence@_J@@IEAA@XZ
??0?$_CORBA_Sequence@_K@@IEAA@AEBV0@@Z
??0?$_CORBA_Sequence@_K@@IEAA@K_N@Z
??0?$_CORBA_Sequence@_K@@IEAA@XZ
??0?$_CORBA_Sequence@_N@@IEAA@AEBV0@@Z
??0?$_CORBA_Sequence@_N@@IEAA@K_N@Z
??0?$_CORBA_Sequence@_N@@IEAA@XZ
??0?$_CORBA_Sequence@_W@@IEAA@AEBV0@@Z
??0?$_CORBA_Sequence@_W@@IEAA@K_N@Z
??0?$_CORBA_Sequence@_W@@IEAA@XZ
??0?$_CORBA_Sequence_ObjRef@VDynAny@DynamicAny@@V?$_CORBA_ObjRef_Element@VDynAny@DynamicAny@@VDynAny_Helper@2@@@VDynAny_Helper@2@@@IEAA@XZ
??0?$_CORBA_Sequence_ObjRef@V_objref_AbstractInterfaceDef@CORBA@@V?$_CORBA_ObjRef_Element@V_objref_AbstractInterfaceDef@CORBA@@VAbstractInterfaceDef_Helper@2@@@VAbstractInterfaceDef_Helper@2@@@IEAA@AEBV0@@Z
??0?$_CORBA_Sequence_ObjRef@V_objref_AbstractInterfaceDef@CORBA@@V?$_CORBA_ObjRef_Element@V_objref_AbstractInterfaceDef@CORBA@@VAbstractInterfaceDef_Helper@2@@@VAbstractInterfaceDef_Helper@2@@@IEAA@XZ
??0?$_CORBA_Sequence_ObjRef@V_objref_Contained@CORBA@@V?$_CORBA_ObjRef_Element@V_objref_Contained@CORBA@@VContained_Helper@2@@@VContained_Helper@2@@@IEAA@AEBV0@@Z
??0?$_CORBA_Sequence_ObjRef@V_objref_Contained@CORBA@@V?$_CORBA_ObjRef_Element@V_objref_Contained@CORBA@@VContained_Helper@2@@@VContained_Helper@2@@@IEAA@XZ
??0?$_CORBA_Sequence_ObjRef@V_objref_ExceptionDef@CORBA@@V?$_CORBA_ObjRef_Element@V_objref_ExceptionDef@CORBA@@VExceptionDef_Helper@2@@@VExceptionDef_Helper@2@@@IEAA@AEBV0@@Z
??0?$_CORBA_Sequence_ObjRef@V_objref_ExceptionDef@CORBA@@V?$_CORBA_ObjRef_Element@V_objref_ExceptionDef@CORBA@@VExceptionDef_Helper@2@@@VExceptionDef_Helper@2@@@IEAA@XZ
??0?$_CORBA_Sequence_ObjRef@V_objref_InterfaceDef@CORBA@@V?$_CORBA_ObjRef_Element@V_objref_InterfaceDef@CORBA@@VInterfaceDef_Helper@2@@@VInterfaceDef_Helper@2@@@IEAA@AEBV0@@Z
??0?$_CORBA_Sequence_ObjRef@V_objref_InterfaceDef@CORBA@@V?$_CORBA_ObjRef_Element@V_objref_InterfaceDef@CORBA@@VInterfaceDef_Helper@2@@@VInterfaceDef_Helper@2@@@IEAA@XZ
??0?$_CORBA_Sequence_ObjRef@V_objref_ValueDef@CORBA@@V?$_CORBA_ObjRef_Element@V_objref_ValueDef@CORBA@@VValueDef_Helper@2@@@VValueDef_Helper@2@@@IEAA@AEBV0@@Z
??0?$_CORBA_Sequence_ObjRef@V_objref_ValueDef@CORBA@@V?$_CORBA_ObjRef_Element@V_objref_ValueDef@CORBA@@VValueDef_Helper@2@@@VValueDef_Helper@2@@@IEAA@XZ
??0?$_CORBA_Sequence_Value@VPollerImpl@omniAMI@@V?$_CORBA_Value_Element@VPollerImpl@omniAMI@@VPoller_Helper@Messaging@@@@VPoller_Helper@Messaging@@@@IEAA@XZ
??0?$_CORBA_Sequence_Value@VValueBase@CORBA@@V?$_CORBA_Value_Element@VValueBase@CORBA@@VValueBase_Helper@2@@@VValueBase_Helper@2@@@IEAA@AEBV0@@Z
??0?$_CORBA_Sequence_Value@VValueBase@CORBA@@V?$_CORBA_Value_Element@VValueBase@CORBA@@VValueBase_Helper@2@@@VValueBase_Helper@2@@@IEAA@KKPEAPEAVValueBase@CORBA@@_N1@Z
??0?$_CORBA_Sequence_Value@VValueBase@CORBA@@V?$_CORBA_Value_Element@VValueBase@CORBA@@VValueBase_Helper@2@@@VValueBase_Helper@2@@@IEAA@XZ
??0?$_CORBA_Unbounded_Sequence@F@@QEAA@AEBV0@@Z
??0?$_CORBA_Unbounded_Sequence@F@@QEAA@K@Z
??0?$_CORBA_Unbounded_Sequence@F@@QEAA@XZ
??0?$_CORBA_Unbounded_Sequence@G@@QEAA@AEBV0@@Z
??0?$_CORBA_Unbounded_Sequence@G@@QEAA@K@Z
??0?$_CORBA_Unbounded_Sequence@G@@QEAA@XZ
??0?$_CORBA_Unbounded_Sequence@J@@QEAA@AEBV0@@Z
??0?$_CORBA_Unbounded_Sequence@J@@QEAA@K@Z
??0?$_CORBA_Unbounded_Sequence@J@@QEAA@XZ
??0?$_CORBA_Unbounded_Sequence@K@@QEAA@AEBV0@@Z
??0?$_CORBA_Unbounded_Sequence@K@@QEAA@K@Z
??0?$_CORBA_Unbounded_Sequence@K@@QEAA@XZ
??0?$_CORBA_Unbounded_Sequence@M@@QEAA@AEBV0@@Z
??0?$_CORBA_Unbounded_Sequence@M@@QEAA@K@Z
??0?$_CORBA_Unbounded_Sequence@M@@QEAA@XZ
??0?$_CORBA_Unbounded_Sequence@N@@QEAA@AEBV0@@Z
??0?$_CORBA_Unbounded_Sequence@N@@QEAA@K@Z
??0?$_CORBA_Unbounded_Sequence@N@@QEAA@XZ
??0?$_CORBA_Unbounded_Sequence@UAttributeDescription@CORBA@@@@QEAA@AEBV0@@Z
??0?$_CORBA_Unbounded_Sequence@UAttributeDescription@CORBA@@@@QEAA@XZ
??0?$_CORBA_Unbounded_Sequence@UBinding@CosNaming@@@@QEAA@AEBV0@@Z
??0?$_CORBA_Unbounded_Sequence@UBinding@CosNaming@@@@QEAA@XZ
??0?$_CORBA_Unbounded_Sequence@UDescription@Container@CORBA@@@@QEAA@AEBV0@@Z
??0?$_CORBA_Unbounded_Sequence@UDescription@Container@CORBA@@@@QEAA@XZ
??0?$_CORBA_Unbounded_Sequence@UExceptionDescription@CORBA@@@@QEAA@AEBV0@@Z
??0?$_CORBA_Unbounded_Sequence@UExceptionDescription@CORBA@@@@QEAA@XZ
??0?$_CORBA_Unbounded_Sequence@UInitializer@CORBA@@@@QEAA@AEBV0@@Z
??0?$_CORBA_Unbounded_Sequence@UInitializer@CORBA@@@@QEAA@XZ
??0?$_CORBA_Unbounded_Sequence@UNameComponent@CosNaming@@@@QEAA@AEBV0@@Z
??0?$_CORBA_Unbounded_Sequence@UNameComponent@CosNaming@@@@QEAA@XZ
??0?$_CORBA_Unbounded_Sequence@UNameDynAnyPair@DynamicAny@@@@QEAA@XZ
??0?$_CORBA_Unbounded_Sequence@UNameValuePair@DynamicAny@@@@QEAA@XZ
??0?$_CORBA_Unbounded_Sequence@UOperationDescription@CORBA@@@@QEAA@AEBV0@@Z
??0?$_CORBA_Unbounded_Sequence@UOperationDescription@CORBA@@@@QEAA@XZ
??0?$_CORBA_Unbounded_Sequence@UParameterDescription@CORBA@@@@QEAA@AEBV0@@Z
??0?$_CORBA_Unbounded_Sequence@UParameterDescription@CORBA@@@@QEAA@XZ
??0?$_CORBA_Unbounded_Sequence@UStructMember@CORBA@@@@QEAA@AEBV0@@Z
??0?$_CORBA_Unbounded_Sequence@UStructMember@CORBA@@@@QEAA@XZ
??0?$_CORBA_Unbounded_Sequence@UUnionMember@CORBA@@@@QEAA@AEBV0@@Z
??0?$_CORBA_Unbounded_Sequence@UUnionMember@CORBA@@@@QEAA@XZ
??0?$_CORBA_Unbounded_Sequence@UValueMember@CORBA@@@@QEAA@AEBV0@@Z
??0?$_CORBA_Unbounded_Sequence@UValueMember@CORBA@@@@QEAA@XZ
??0?$_CORBA_Unbounded_Sequence@VAny@CORBA@@@@QEAA@AEBV0@@Z
??0?$_CORBA_Unbounded_Sequence@VAny@CORBA@@@@QEAA@XZ
??0?$_CORBA_Unbounded_Sequence@VTypeCode_member@CORBA@@@@QEAA@XZ
??0?$_CORBA_Unbounded_Sequence@_J@@QEAA@AEBV0@@Z
??0?$_CORBA_Unbounded_Sequence@_J@@QEAA@K@Z
??0?$_CORBA_Unbounded_Sequence@_J@@QEAA@XZ
??0?$_CORBA_Unbounded_Sequence@_K@@QEAA@AEBV0@@Z
??0?$_CORBA_Unbounded_Sequence@_K@@QEAA@K@Z
??0?$_CORBA_Unbounded_Sequence@_K@@QEAA@XZ
??0?$_CORBA_Unbounded_Sequence_ObjRef@VDynAny@DynamicAny@@V?$_CORBA_ObjRef_Element@VDynAny@DynamicAny@@VDynAny_Helper@2@@@VDynAny_Helper@2@@@QEAA@XZ
??0?$_CORBA_Unbounded_Sequence_ObjRef@V_objref_AbstractInterfaceDef@CORBA@@V?$_CORBA_ObjRef_Element@V_objref_AbstractInterfaceDef@CORBA@@VAbstractInterfaceDef_Helper@2@@@VAbstractInterfaceDef_Helper@2@@@QEAA@AEBV0@@Z
??0?$_CORBA_Unbounded_Sequence_ObjRef@V_objref_AbstractInterfaceDef@CORBA@@V?$_CORBA_ObjRef_Element@V_objref_AbstractInterfaceDef@CORBA@@VAbstractInterfaceDef_Helper@2@@@VAbstractInterfaceDef_Helper@2@@@QEAA@XZ
??0?$_CORBA_Unbounded_Sequence_ObjRef@V_objref_Contained@CORBA@@V?$_CORBA_ObjRef_Element@V_objref_Contained@CORBA@@VContained_Helper@2@@@VContained_Helper@2@@@QEAA@AEBV0@@Z
??0?$_CORBA_Unbounded_Sequence_ObjRef@V_objref_Contained@CORBA@@V?$_CORBA_ObjRef_Element@V_objref_Contained@CORBA@@VContained_Helper@2@@@VContained_Helper@2@@@QEAA@XZ
??0?$_CORBA_Unbounded_Sequence_ObjRef@V_objref_ExceptionDef@CORBA@@V?$_CORBA_ObjRef_Element@V_objref_ExceptionDef@CORBA@@VExceptionDef_Helper@2@@@VExceptionDef_Helper@2@@@QEAA@AEBV0@@Z
??0?$_CORBA_Unbounded_Sequence_ObjRef@V_objref_ExceptionDef@CORBA@@V?$_CORBA_ObjRef_Element@V_objref_ExceptionDef@CORBA@@VExceptionDef_Helper@2@@@VExceptionDef_Helper@2@@@QEAA@XZ
??0?$_CORBA_Unbounded_Sequence_ObjRef@V_objref_InterfaceDef@CORBA@@V?$_CORBA_ObjRef_Element@V_objref_InterfaceDef@CORBA@@VInterfaceDef_Helper@2@@@VInterfaceDef_Helper@2@@@QEAA@AEBV0@@Z
??0?$_CORBA_Unbounded_Sequence_ObjRef@V_objref_InterfaceDef@CORBA@@V?$_CORBA_ObjRef_Element@V_objref_InterfaceDef@CORBA@@VInterfaceDef_Helper@2@@@VInterfaceDef_Helper@2@@@QEAA@XZ
??0?$_CORBA_Unbounded_Sequence_ObjRef@V_objref_ValueDef@CORBA@@V?$_CORBA_ObjRef_Element@V_objref_ValueDef@CORBA@@VValueDef_Helper@2@@@VValueDef_Helper@2@@@QEAA@AEBV0@@Z
??0?$_CORBA_Unbounded_Sequence_ObjRef@V_objref_ValueDef@CORBA@@V?$_CORBA_ObjRef_Element@V_objref_ValueDef@CORBA@@VValueDef_Helper@2@@@VValueDef_Helper@2@@@QEAA@XZ
??0?$_CORBA_Unbounded_Sequence_Value@VPollerImpl@omniAMI@@V?$_CORBA_Value_Element@VPollerImpl@omniAMI@@VPoller_Helper@Messaging@@@@VPoller_Helper@Messaging@@@@QEAA@XZ
??0?$_CORBA_Unbounded_Sequence_Value@VValueBase@CORBA@@V?$_CORBA_Value_Element@VValueBase@CORBA@@VValueBase_Helper@2@@@VValueBase_Helper@2@@@QEAA@AEBV0@@Z
??0?$_CORBA_Unbounded_Sequence_Value@VValueBase@CORBA@@V?$_CORBA_Value_Element@VValueBase@CORBA@@VValueBase_Helper@2@@@VValueBase_Helper@2@@@QEAA@KKPEAPEAVValueBase@CORBA@@_N@Z
??0?$_CORBA_Unbounded_Sequence_Value@VValueBase@CORBA@@V?$_CORBA_Value_Element@VValueBase@CORBA@@VValueBase_Helper@2@@@VValueBase_Helper@2@@@QEAA@XZ
??0?$_CORBA_Unbounded_Sequence_w_FixSizeElement@F$01$01@@QEAA@AEBV0@@Z
??0?$_CORBA_Unbounded_Sequence_w_FixSizeElement@F$01$01@@QEAA@K@Z
??0?$_CORBA_Unbounded_Sequence_w_FixSizeElement@F$01$01@@QEAA@XZ
??0?$_CORBA_Unbounded_Sequence_w_FixSizeElement@G$01$01@@QEAA@AEBV0@@Z
??0?$_CORBA_Unbounded_Sequence_w_FixSizeElement@G$01$01@@QEAA@K@Z
??0?$_CORBA_Unbounded_Sequence_w_FixSizeElement@G$01$01@@QEAA@XZ
??0?$_CORBA_Unbounded_Sequence_w_FixSizeElement@J$03$03@@QEAA@AEBV0@@Z
??0?$_CORBA_Unbounded_Sequence_w_FixSizeElement@J$03$03@@QEAA@K@Z
??0?$_CORBA_Unbounded_Sequence_w_FixSizeElement@J$03$03@@QEAA@XZ
??0?$_CORBA_Unbounded_Sequence_w_FixSizeElement@K$03$03@@QEAA@AEBV0@@Z
??0?$_CORBA_Unbounded_Sequence_w_FixSizeElement@K$03$03@@QEAA@K@Z
??0?$_CORBA_Unbounded_Sequence_w_FixSizeElement@K$03$03@@QEAA@XZ
??0?$_CORBA_Unbounded_Sequence_w_FixSizeElement@M$03$03@@QEAA@AEBV0@@Z
??0?$_CORBA_Unbounded_Sequence_w_FixSizeElement@M$03$03@@QEAA@K@Z
??0?$_CORBA_Unbounded_Sequence_w_FixSizeElement@M$03$03@@QEAA@XZ
??0?$_CORBA_Unbounded_Sequence_w_FixSizeElement@N$07$07@@QEAA@AEBV0@@Z
??0?$_CORBA_Unbounded_Sequence_w_FixSizeElement@N$07$07@@QEAA@K@Z
??0?$_CORBA_Unbounded_Sequence_w_FixSizeElement@N$07$07@@QEAA@XZ
??0?$_CORBA_Unbounded_Sequence_w_FixSizeElement@_J$07$07@@QEAA@AEBV0@@Z
??0?$_CORBA_Unbounded_Sequence_w_FixSizeElement@_J$07$07@@QEAA@K@Z
??0?$_CORBA_Unbounded_Sequence_w_FixSizeElement@_J$07$07@@QEAA@XZ
??0?$_CORBA_Unbounded_Sequence_w_FixSizeElement@_K$07$07@@QEAA@AEBV0@@Z
??0?$_CORBA_Unbounded_Sequence_w_FixSizeElement@_K$07$07@@QEAA@K@Z
??0?$_CORBA_Unbounded_Sequence_w_FixSizeElement@_K$07$07@@QEAA@XZ
??0?$_CORBA_Value_Element@VPollerImpl@omniAMI@@VPoller_Helper@Messaging@@@@QEAA@AEAPEAVPollerImpl@omniAMI@@_N@Z
??0?$_CORBA_Value_Element@VValueBase@CORBA@@VValueBase_Helper@2@@@QEAA@AEAPEAVValueBase@CORBA@@_N@Z
??0?$omnivector@PEAVDynAnyImplBase@omni@@@@QEAA@XZ
??0AbstractBase@CORBA@@IEAA@AEBV01@@Z
??0AbstractBase@CORBA@@IEAA@XZ
??0AbstractInterfaceDefSeq@CORBA@@QEAA@AEBV01@@Z
??0AbstractInterfaceDefSeq@CORBA@@QEAA@XZ
??0AbstractInterfaceDefSeq_var@CORBA@@QEAA@XZ
??0AdapterAlreadyExists@POA@PortableServer@@QEAA@AEBV012@@Z
??0AdapterAlreadyExists@POA@PortableServer@@QEAA@XZ
??0AdapterInactive@POAManager@PortableServer@@QEAA@AEBV012@@Z
??0AdapterInactive@POAManager@PortableServer@@QEAA@XZ
??0AdapterNonExistent@POA@PortableServer@@QEAA@AEBV012@@Z
??0AdapterNonExistent@POA@PortableServer@@QEAA@XZ
??0AlreadyBound@NamingContext@CosNaming@@QEAA@XZ
??0Any@CORBA@@QEAA@AEBV01@@Z
??0Any@CORBA@@QEAA@PEAVTypeCode@1@PEAX_N@Z
??0Any@CORBA@@QEAA@XZ
??0AnySeq@CORBA@@QEAA@AEBV01@@Z
??0AnySeq@CORBA@@QEAA@XZ
??0AnySeq@DynamicAny@@QEAA@XZ
??0Any_var@CORBA@@QEAA@PEAVAny@1@@Z
??0Any_var@CORBA@@QEAA@XZ
??0AttrDescriptionSeq@CORBA@@QEAA@AEBV01@@Z
??0AttrDescriptionSeq@CORBA@@QEAA@XZ
??0AttributeDescription@CORBA@@QEAA@AEBU01@@Z
??0AttributeDescription@CORBA@@QEAA@XZ
??0BAD_CONTEXT@CORBA@@QEAA@AEBV01@@Z
??0BAD_CONTEXT@CORBA@@QEAA@KW4CompletionStatus@1@@Z
??0BAD_INV_ORDER@CORBA@@QEAA@AEBV01@@Z
??0BAD_INV_ORDER@CORBA@@QEAA@KW4CompletionStatus@1@@Z
??0BAD_OPERATION@CORBA@@QEAA@AEBV01@@Z
??0BAD_OPERATION@CORBA@@QEAA@KW4CompletionStatus@1@@Z
??0BAD_PARAM@CORBA@@QEAA@AEBV01@@Z
??0BAD_PARAM@CORBA@@QEAA@KW4CompletionStatus@1@@Z
??0BAD_QOS@CORBA@@QEAA@AEBV01@@Z
??0BAD_QOS@CORBA@@QEAA@KW4CompletionStatus@1@@Z
??0BAD_TYPECODE@CORBA@@QEAA@AEBV01@@Z
??0BAD_TYPECODE@CORBA@@QEAA@KW4CompletionStatus@1@@Z
??0BadKind@TypeCode@CORBA@@QEAA@AEBV012@@Z
??0BadKind@TypeCode@CORBA@@QEAA@XZ
??0BidirectionalPolicy@BiDirPolicy@@QEAA@G@Z
??0Binding@CosNaming@@QEAA@AEBU01@@Z
??0Binding@CosNaming@@QEAA@XZ
??0BindingList@CosNaming@@QEAA@AEBV01@@Z
??0BindingList@CosNaming@@QEAA@XZ
??0BooleanSeq@CORBA@@QEAA@AEBV01@@Z
??0BooleanSeq@CORBA@@QEAA@K@Z
??0BooleanSeq@CORBA@@QEAA@XZ
??0BooleanSeq_var@CORBA@@QEAA@PEAVBooleanSeq@1@@Z
??0Bounds@ContextList@CORBA@@QEAA@AEBV012@@Z
??0Bounds@ContextList@CORBA@@QEAA@XZ
??0Bounds@ExceptionList@CORBA@@QEAA@AEBV012@@Z
??0Bounds@ExceptionList@CORBA@@QEAA@XZ
??0Bounds@NVList@CORBA@@QEAA@AEBV012@@Z
??0Bounds@NVList@CORBA@@QEAA@XZ
??0Bounds@TypeCode@CORBA@@QEAA@AEBV012@@Z
??0Bounds@TypeCode@CORBA@@QEAA@XZ
??0CODESET_INCOMPATIBLE@CORBA@@QEAA@AEBV01@@Z
??0CODESET_INCOMPATIBLE@CORBA@@QEAA@KW4CompletionStatus@1@@Z
??0COMM_FAILURE@CORBA@@QEAA@AEBV01@@Z
??0COMM_FAILURE@CORBA@@QEAA@KW4CompletionStatus@1@@Z
??0CannotProceed@NamingContext@CosNaming@@QEAA@XZ
??0CharSeq@CORBA@@QEAA@AEBV01@@Z
??0CharSeq@CORBA@@QEAA@K@Z
??0CharSeq@CORBA@@QEAA@XZ
??0CharSeq_var@CORBA@@QEAA@PEAVCharSeq@1@@Z
??0ConstantDescription@CORBA@@QEAA@AEBU01@@Z
??0ConstantDescription@CORBA@@QEAA@XZ
??0ContainedSeq@CORBA@@QEAA@AEBV01@@Z
??0ContainedSeq@CORBA@@QEAA@XZ
??0ContainedSeq_var@CORBA@@QEAA@XZ
??0Context@CORBA@@IEAA@XZ
??0ContextIdSeq@CORBA@@QEAA@AEBV01@@Z
??0ContextIdSeq@CORBA@@QEAA@XZ
??0ContextIdSeq_var@CORBA@@QEAA@XZ
??0ContextImpl@omni@@QEAA@PEBDPEAVContext@CORBA@@@Z
??0ContextList@CORBA@@IEAA@XZ
??0ContextListImpl@omni@@QEAA@XZ
??0DATA_CONVERSION@CORBA@@QEAA@AEBV01@@Z
??0DATA_CONVERSION@CORBA@@QEAA@KW4CompletionStatus@1@@Z
??0DIICallDescriptor@omni@@QEAA@PEAVRequestImpl@1@PEBDPEAVNVList@CORBA@@PEAVNamedValue@4@PEAVExceptionList@4@PEAVContextList@4@PEAVContext@4@@Z
??0DIIPollable@CORBA@@IEAA@XZ
??0DIIPollableImpl@omniAMI@@QEAA@XZ
??0DefaultValueRefCountBase@CORBA@@IEAA@XZ
??0Description@Contained@CORBA@@QEAA@AEBU012@@Z
??0Description@Contained@CORBA@@QEAA@XZ
??0Description@Container@CORBA@@QEAA@AEBU012@@Z
??0Description@Container@CORBA@@QEAA@XZ
??0DescriptionSeq@Container@CORBA@@QEAA@AEBV012@@Z
??0DescriptionSeq@Container@CORBA@@QEAA@XZ
??0DescriptionSeq_var@Container@CORBA@@QEAA@XZ
??0DoubleSeq@CORBA@@QEAA@AEBV01@@Z
??0DoubleSeq@CORBA@@QEAA@K@Z
??0DoubleSeq@CORBA@@QEAA@XZ
??0DoubleSeq_var@CORBA@@QEAA@PEAVDoubleSeq@1@@Z
??0DynAny@DynamicAny@@IEAA@H@Z
??0DynAnyConstrBase@omni@@QEAA@PEAVTypeCode_base@1@H_N@Z
??0DynAnyFactory@DynamicAny@@QEAA@H@Z
??0DynAnyFactoryImpl@omni@@QEAA@XZ
??0DynAnyImpl@omni@@QEAA@PEAVTypeCode_base@1@H_N@Z
??0DynAnyImplBase@omni@@QEAA@PEAVTypeCode_base@1@H_N@Z
??0DynAnySeq@DynamicAny@@QEAA@XZ
??0DynArray@DynamicAny@@IEAA@XZ
??0DynArrayImpl@omni@@QEAA@PEAVTypeCode_base@1@_N@Z
??0DynEnum@DynamicAny@@IEAA@XZ
??0DynEnumImpl@omni@@QEAA@PEAVTypeCode_base@1@_N@Z
??0DynFixed@DynamicAny@@IEAA@XZ
??0DynFixedImpl@omni@@QEAA@PEAVTypeCode_base@1@_N@Z
??0DynSequence@DynamicAny@@IEAA@XZ
??0DynSequenceImpl@omni@@QEAA@PEAVTypeCode_base@1@_N@Z
??0DynStruct@DynamicAny@@IEAA@XZ
??0DynStructImpl@omni@@QEAA@PEAVTypeCode_base@1@_N@Z
??0DynUnion@DynamicAny@@IEAA@XZ
??0DynUnionDisc@omni@@QEAA@PEAVTypeCode_base@1@HPEAVDynUnionImpl@1@@Z
??0DynUnionEnumDisc@omni@@QEAA@PEAVTypeCode_base@1@PEAVDynUnionImpl@1@@Z
??0DynUnionImpl@omni@@QEAA@PEAVTypeCode_base@1@_N@Z
??0DynValue@DynamicAny@@IEAA@XZ
??0DynValueBox@DynamicAny@@IEAA@XZ
??0DynValueBoxImpl@omni@@QEAA@PEAVTypeCode_base@1@_N@Z
??0DynValueCommon@DynamicAny@@IEAA@XZ
??0DynValueImpl@omni@@QEAA@PEAVTypeCode_base@1@_N@Z
??0Entry@omniTypeCodeCollection@omni@@QEAA@PEBDPEAVTypeCode@CORBA@@@Z
??0EnumMemberSeq@CORBA@@QEAA@AEBV01@@Z
??0EnumMemberSeq@CORBA@@QEAA@XZ
??0EnumMemberSeq_var@CORBA@@QEAA@XZ
??0Environment@CORBA@@QEAA@XZ
??0EnvironmentImpl@omni@@QEAA@XZ
??0ExcDescriptionSeq@CORBA@@QEAA@AEBV01@@Z
??0ExcDescriptionSeq@CORBA@@QEAA@XZ
??0Exception@CORBA@@IEAA@XZ
??0Exception@CORBA@@QEAA@AEBV01@@Z
??0ExceptionDefSeq@CORBA@@QEAA@AEBV01@@Z
??0ExceptionDefSeq@CORBA@@QEAA@XZ
??0ExceptionDefSeq_var@CORBA@@QEAA@XZ
??0ExceptionDescription@CORBA@@QEAA@AEBU01@@Z
??0ExceptionDescription@CORBA@@QEAA@XZ
??0ExceptionHolder@Messaging@@IEAA@XZ
??0ExceptionHolder@OBV_Messaging@@IEAA@XZ
??0ExceptionList@CORBA@@IEAA@XZ
??0ExceptionListImpl@omni@@QEAA@XZ
??0FREE_MEM@CORBA@@QEAA@AEBV01@@Z
??0FREE_MEM@CORBA@@QEAA@KW4CompletionStatus@1@@Z
??0FloatSeq@CORBA@@QEAA@AEBV01@@Z
??0FloatSeq@CORBA@@QEAA@K@Z
??0FloatSeq@CORBA@@QEAA@XZ
??0FloatSeq_var@CORBA@@QEAA@PEAVFloatSeq@1@@Z
??0ForwardRequest@PortableServer@@QEAA@XZ
??0FromAnyUserException@omni@@QEAA@AEBVAny@CORBA@@PEBD@Z
??0FullInterfaceDescription@InterfaceDef@CORBA@@QEAA@AEBU012@@Z
??0FullInterfaceDescription@InterfaceDef@CORBA@@QEAA@XZ
??0FullValueDescription@ValueDef@CORBA@@QEAA@AEBU012@@Z
??0FullValueDescription@ValueDef@CORBA@@QEAA@XZ
??0HolderU@omniCodeSetUtil@omni@@QEAA@PEA_W@Z
??0IMP_LIMIT@CORBA@@QEAA@AEBV01@@Z
??0IMP_LIMIT@CORBA@@QEAA@KW4CompletionStatus@1@@Z
??0INITIALIZE@CORBA@@QEAA@AEBV01@@Z
??0INITIALIZE@CORBA@@QEAA@KW4CompletionStatus@1@@Z
??0INTERNAL@CORBA@@QEAA@AEBV01@@Z
??0INTERNAL@CORBA@@QEAA@KW4CompletionStatus@1@@Z
??0INTF_REPOS@CORBA@@QEAA@AEBV01@@Z
??0INTF_REPOS@CORBA@@QEAA@KW4CompletionStatus@1@@Z
??0INVALID_TRANSACTION@CORBA@@QEAA@AEBV01@@Z
??0INVALID_TRANSACTION@CORBA@@QEAA@KW4CompletionStatus@1@@Z
??0INV_FLAG@CORBA@@QEAA@AEBV01@@Z
??0INV_FLAG@CORBA@@QEAA@KW4CompletionStatus@1@@Z
??0INV_IDENT@CORBA@@QEAA@AEBV01@@Z
??0INV_IDENT@CORBA@@QEAA@KW4CompletionStatus@1@@Z
??0INV_OBJREF@CORBA@@QEAA@AEBV01@@Z
??0INV_OBJREF@CORBA@@QEAA@KW4CompletionStatus@1@@Z
??0INV_POLICY@CORBA@@QEAA@AEBV01@@Z
??0INV_POLICY@CORBA@@QEAA@KW4CompletionStatus@1@@Z
??0IdAssignmentPolicy@PortableServer@@QEAA@W4IdAssignmentPolicyValue@1@@Z
??0IdUniquenessPolicy@PortableServer@@QEAA@W4IdUniquenessPolicyValue@1@@Z
??0ImplicitActivationPolicy@PortableServer@@QEAA@W4ImplicitActivationPolicyValue@1@@Z
??0InconsistentTypeCode@DynAnyFactory@DynamicAny@@QEAA@AEBV012@@Z
??0InconsistentTypeCode@DynAnyFactory@DynamicAny@@QEAA@XZ
??0InconsistentTypeCode@ORB@CORBA@@QEAA@AEBV012@@Z
??0InconsistentTypeCode@ORB@CORBA@@QEAA@XZ
??0Initializer@CORBA@@QEAA@AEBU01@@Z
??0Initializer@CORBA@@QEAA@XZ
??0InitializerSeq@CORBA@@QEAA@AEBV01@@Z
??0InitializerSeq@CORBA@@QEAA@XZ
??0InitializerSeq_var@CORBA@@QEAA@XZ
??0InputTableEntry@omni@@QEAA@PEADJPEAU01@@Z
??0InputTableEntry@omni@@QEAA@PEAU01@J0@Z
??0InputTableEntry@omni@@QEAA@PEAU_omni_ValueIds@@JPEAU01@@Z
??0InputTableEntry@omni@@QEAA@PEAVValueBase@CORBA@@JPEAU01@@Z
??0InputValueTracker@omni@@QEAA@XZ
??0InterfaceDefSeq@CORBA@@QEAA@AEBV01@@Z
??0InterfaceDefSeq@CORBA@@QEAA@XZ
??0InterfaceDefSeq_var@CORBA@@QEAA@XZ
??0InterfaceDescription@CORBA@@QEAA@AEBU01@@Z
??0InterfaceDescription@CORBA@@QEAA@XZ
??0InvalidAddress@NamingContextExt@CosNaming@@QEAA@XZ
??0InvalidName@NamingContext@CosNaming@@QEAA@XZ
??0InvalidName@ORB@CORBA@@QEAA@AEBV012@@Z
??0InvalidName@ORB@CORBA@@QEAA@XZ
??0InvalidPolicy@POA@PortableServer@@QEAA@XZ
??0InvalidValue@DynAny@DynamicAny@@QEAA@AEBV012@@Z
??0InvalidValue@DynAny@DynamicAny@@QEAA@XZ
??0LifespanPolicy@PortableServer@@QEAA@W4LifespanPolicyValue@1@@Z
??0LocalObject@CORBA@@IEAA@XZ
??0LocalShortcutPolicy@omniPolicy@@QEAA@G@Z
??0LongLongSeq@CORBA@@QEAA@AEBV01@@Z
??0LongLongSeq@CORBA@@QEAA@K@Z
??0LongLongSeq@CORBA@@QEAA@XZ
??0LongLongSeq_var@CORBA@@QEAA@PEAVLongLongSeq@1@@Z
??0LongSeq@CORBA@@QEAA@AEBV01@@Z
??0LongSeq@CORBA@@QEAA@K@Z
??0LongSeq@CORBA@@QEAA@XZ
??0LongSeq_var@CORBA@@QEAA@PEAVLongSeq@1@@Z
??0MARSHAL@CORBA@@QEAA@AEBV01@@Z
??0MARSHAL@CORBA@@QEAA@KW4CompletionStatus@1@@Z
??0ModuleDescription@CORBA@@QEAA@AEBU01@@Z
??0ModuleDescription@CORBA@@QEAA@XZ
??0NO_IMPLEMENT@CORBA@@QEAA@AEBV01@@Z
??0NO_IMPLEMENT@CORBA@@QEAA@KW4CompletionStatus@1@@Z
??0NO_MEMORY@CORBA@@QEAA@AEBV01@@Z
??0NO_MEMORY@CORBA@@QEAA@KW4CompletionStatus@1@@Z
??0NO_PERMISSION@CORBA@@QEAA@AEBV01@@Z
??0NO_PERMISSION@CORBA@@QEAA@KW4CompletionStatus@1@@Z
??0NO_RESOURCES@CORBA@@QEAA@AEBV01@@Z
??0NO_RESOURCES@CORBA@@QEAA@KW4CompletionStatus@1@@Z
??0NO_RESPONSE@CORBA@@QEAA@AEBV01@@Z
??0NO_RESPONSE@CORBA@@QEAA@KW4CompletionStatus@1@@Z
??0NVList@CORBA@@IEAA@XZ
??0NVListImpl@omni@@QEAA@XZ
??0Name@CosNaming@@QEAA@AEBV01@@Z
??0Name@CosNaming@@QEAA@XZ
??0NameComponent@CosNaming@@QEAA@AEBU01@@Z
??0NameComponent@CosNaming@@QEAA@XZ
??0NameDynAnyPair@DynamicAny@@QEAA@XZ
??0NameDynAnyPairSeq@DynamicAny@@QEAA@XZ
??0NameValuePair@DynamicAny@@QEAA@XZ
??0NameValuePairSeq@DynamicAny@@QEAA@XZ
??0NamedValue@CORBA@@IEAA@XZ
??0NamedValueImpl@omni@@QEAA@K@Z
??0NamedValueImpl@omni@@QEAA@PEADK@Z
??0NamedValueImpl@omni@@QEAA@PEADPEAVAny@CORBA@@K@Z
??0NamedValueImpl@omni@@QEAA@PEBDAEBVAny@CORBA@@K@Z
??0NamedValueImpl@omni@@QEAA@PEBDK@Z
??0NoPossiblePollable@PollableSet@CORBA@@QEAA@AEBV012@@Z
??0NoPossiblePollable@PollableSet@CORBA@@QEAA@XZ
??0NoServant@POA@PortableServer@@QEAA@AEBV012@@Z
??0NoServant@POA@PortableServer@@QEAA@XZ
??0NotEmpty@NamingContext@CosNaming@@QEAA@XZ
??0NotFound@NamingContext@CosNaming@@QEAA@XZ
??0OBJECT_NOT_EXIST@CORBA@@QEAA@AEBV01@@Z
??0OBJECT_NOT_EXIST@CORBA@@QEAA@KW4CompletionStatus@1@@Z
??0OBJ_ADAPTER@CORBA@@QEAA@AEBV01@@Z
??0OBJ_ADAPTER@CORBA@@QEAA@KW4CompletionStatus@1@@Z
??0ObjIdList@CORBA_InitialReferences@@QEAA@AEBV01@@Z
??0ObjIdList@CORBA_InitialReferences@@QEAA@XZ
??0Object@CORBA@@QEAA@XZ
??0ObjectAlreadyActive@POA@PortableServer@@QEAA@AEBV012@@Z
??0ObjectAlreadyActive@POA@PortableServer@@QEAA@XZ
??0ObjectId@PortableServer@@QEAA@XZ
??0ObjectNotActive@POA@PortableServer@@QEAA@AEBV012@@Z
??0ObjectNotActive@POA@PortableServer@@QEAA@XZ
??0Object_Member@CORBA@@QEAA@XZ
??0Object_var@CORBA@@QEAA@PEAVObject@1@@Z
??0Object_var@CORBA@@QEAA@XZ
??0OctetSeq@CORBA@@QEAA@AEBV01@@Z
??0OctetSeq@CORBA@@QEAA@K@Z
??0OctetSeq@CORBA@@QEAA@XZ
??0OctetSeq_var@CORBA@@QEAA@PEAVOctetSeq@1@@Z
??0OpDescriptionSeq@CORBA@@QEAA@AEBV01@@Z
??0OpDescriptionSeq@CORBA@@QEAA@XZ
??0OperationDescription@CORBA@@QEAA@AEBU01@@Z
??0OperationDescription@CORBA@@QEAA@XZ
??0OutputTableEntry@omni@@QEAA@PEBD_KJPEAU01@@Z
??0OutputTableEntry@omni@@QEAA@PEBU_omni_ValueIds@@_KJPEAU01@@Z
??0OutputTableEntry@omni@@QEAA@PEBVValueBase@CORBA@@_KJPEAU01@@Z
??0OutputValueTracker@omni@@QEAA@XZ
??0PERSIST_STORE@CORBA@@QEAA@AEBV01@@Z
??0PERSIST_STORE@CORBA@@QEAA@KW4CompletionStatus@1@@Z
??0ParDescriptionSeq@CORBA@@QEAA@AEBV01@@Z
??0ParDescriptionSeq@CORBA@@QEAA@XZ
??0ParDescriptionSeq_var@CORBA@@QEAA@XZ
??0ParameterDescription@CORBA@@QEAA@AEBU01@@Z
??0ParameterDescription@CORBA@@QEAA@XZ
??0PlainObjectKeysPolicy@omniPolicy@@QEAA@G@Z
??0PolicyError@CORBA@@QEAA@XZ
??0Pollable@CORBA@@IEAA@XZ
??0PollableSet@CORBA@@IEAA@XZ
??0PollableSetImpl@omniAMI@@QEAA@PEAVDIIPollableImpl@1@@Z
??0PollableSetImpl@omniAMI@@QEAA@PEAVPollerImpl@1@@Z
??0Poller@Messaging@@IEAA@XZ
??0PseudoObjBase@omni@@QEAA@XZ
??0REBIND@CORBA@@QEAA@AEBV01@@Z
??0REBIND@CORBA@@QEAA@KW4CompletionStatus@1@@Z
??0RepositoryIdSeq@CORBA@@QEAA@AEBV01@@Z
??0RepositoryIdSeq@CORBA@@QEAA@XZ
??0Request@CORBA@@IEAA@XZ
??0RequestImpl@omni@@QEAA@PEAVObject@CORBA@@PEBD@Z
??0RequestImpl@omni@@QEAA@PEAVObject@CORBA@@PEBDPEAVContext@3@PEAVNVList@3@PEAVNamedValue@3@@Z
??0RequestImpl@omni@@QEAA@PEAVObject@CORBA@@PEBDPEAVContext@3@PEAVNVList@3@PEAVNamedValue@3@PEAVExceptionList@3@PEAVContextList@3@@Z
??0RequestLink@omni@@QEAA@PEAVRequest@CORBA@@@Z
??0RequestProcessingPolicy@PortableServer@@QEAA@W4RequestProcessingPolicyValue@1@@Z
??0ServantAlreadyActive@POA@PortableServer@@QEAA@AEBV012@@Z
??0ServantAlreadyActive@POA@PortableServer@@QEAA@XZ
??0ServantNotActive@POA@PortableServer@@QEAA@AEBV012@@Z
??0ServantNotActive@POA@PortableServer@@QEAA@XZ
??0ServantRetentionPolicy@PortableServer@@QEAA@W4ServantRetentionPolicyValue@1@@Z
??0ServerRequest@CORBA@@IEAA@XZ
??0ShortSeq@CORBA@@QEAA@AEBV01@@Z
??0ShortSeq@CORBA@@QEAA@K@Z
??0ShortSeq@CORBA@@QEAA@XZ
??0ShortSeq_var@CORBA@@QEAA@PEAVShortSeq@1@@Z
??0StringSeq@CORBA@@QEAA@AEBV01@@Z
??0StringSeq@CORBA@@QEAA@XZ
??0StringValue@CORBA@@QEAA@XZ
??0StructMember@CORBA@@QEAA@AEBU01@@Z
??0StructMember@CORBA@@QEAA@XZ
??0StructMemberSeq@CORBA@@QEAA@AEBV01@@Z
??0StructMemberSeq@CORBA@@QEAA@XZ
??0StructMemberSeq_var@CORBA@@QEAA@XZ
??0SystemException@CORBA@@QEAA@AEBV01@@Z
??0SystemException@CORBA@@QEAA@KW4CompletionStatus@1@@Z
??0TIMEOUT@CORBA@@QEAA@AEBV01@@Z
??0TIMEOUT@CORBA@@QEAA@KW4CompletionStatus@1@@Z
??0TRANSACTION_MODE@CORBA@@QEAA@AEBV01@@Z
??0TRANSACTION_MODE@CORBA@@QEAA@KW4CompletionStatus@1@@Z
??0TRANSACTION_REQUIRED@CORBA@@QEAA@AEBV01@@Z
??0TRANSACTION_REQUIRED@CORBA@@QEAA@KW4CompletionStatus@1@@Z
??0TRANSACTION_ROLLEDBACK@CORBA@@QEAA@AEBV01@@Z
??0TRANSACTION_ROLLEDBACK@CORBA@@QEAA@KW4CompletionStatus@1@@Z
??0TRANSACTION_UNAVAILABLE@CORBA@@QEAA@AEBV01@@Z
??0TRANSACTION_UNAVAILABLE@CORBA@@QEAA@KW4CompletionStatus@1@@Z
??0TRANSIENT@CORBA@@QEAA@AEBV01@@Z
??0TRANSIENT@CORBA@@QEAA@KW4CompletionStatus@1@@Z
??0TcUnionMember@TypeCode_union@omni@@QEAA@XZ
??0ThreadPolicy@PortableServer@@QEAA@W4ThreadPolicyValue@1@@Z
??0TypeCode@CORBA@@IEAA@XZ
??0TypeCodeInitialiser@omni@@QEAA@XZ
??0TypeCodeSeq@omniTypedefs@@QEAA@XZ
??0TypeCode_abstract_interface@omni@@AEAA@XZ
??0TypeCode_abstract_interface@omni@@QEAA@PEBD0@Z
??0TypeCode_alias@omni@@AEAA@XZ
??0TypeCode_alias@omni@@QEAA@PEBD0PEAVTypeCode_base@1@@Z
??0TypeCode_alignTable@omni@@QEAA@XZ
??0TypeCode_array@omni@@AEAA@XZ
??0TypeCode_array@omni@@QEAA@KPEAVTypeCode_base@1@@Z
??0TypeCode_base@omni@@QEAA@W4TCKind@CORBA@@@Z
??0TypeCode_enum@omni@@AEAA@XZ
??0TypeCode_enum@omni@@QEAA@PEBD0AEBVEnumMemberSeq@CORBA@@@Z
??0TypeCode_except@omni@@AEAA@XZ
??0TypeCode_except@omni@@QEAA@PEAD0PEAUMember@TypeCode_struct@1@K@Z
??0TypeCode_fixed@omni@@AEAA@XZ
??0TypeCode_fixed@omni@@QEAA@GF@Z
??0TypeCode_indirect@omni@@QEAA@PEBD@Z
??0TypeCode_local_interface@omni@@AEAA@XZ
??0TypeCode_local_interface@omni@@QEAA@PEBD0@Z
??0TypeCode_member@CORBA@@QEAA@AEBV01@@Z
??0TypeCode_member@CORBA@@QEAA@XZ
??0TypeCode_objref@omni@@IEAA@W4TCKind@CORBA@@@Z
??0TypeCode_objref@omni@@QEAA@PEBD0W4TCKind@CORBA@@@Z
??0TypeCode_offsetTable@omni@@QEAA@PEAV01@_J@Z
??0TypeCode_offsetTable@omni@@QEAA@XZ
??0TypeCode_pairlist@omni@@QEAA@PEBV01@PEBVTypeCode_base@1@1@Z
??0TypeCode_sequence@omni@@AEAA@XZ
??0TypeCode_sequence@omni@@QEAA@KK@Z
??0TypeCode_sequence@omni@@QEAA@KPEAVTypeCode_base@1@@Z
??0TypeCode_string@omni@@AEAA@XZ
??0TypeCode_string@omni@@QEAA@K@Z
??0TypeCode_struct@omni@@AEAA@XZ
??0TypeCode_struct@omni@@QEAA@PEAD0PEAUMember@01@K@Z
??0TypeCode_union@omni@@AEAA@XZ
??0TypeCode_union@omni@@QEAA@PEBD0PEAVTypeCode_base@1@AEBVUnionMemberSeq@CORBA@@@Z
??0TypeCode_union@omni@@QEAA@PEBD0PEAVTypeCode_base@1@PEBUPR_unionMember@CORBA@@KJ@Z
??0TypeCode_value@omni@@AEAA@XZ
??0TypeCode_value@omni@@QEAA@PEBD0FPEAVTypeCode_base@1@PEAUMember@01@K@Z
??0TypeCode_value_box@omni@@AEAA@XZ
??0TypeCode_value_box@omni@@QEAA@PEBD0PEAVTypeCode_base@1@@Z
??0TypeCode_var@CORBA@@QEAA@AEBV01@@Z
??0TypeCode_var@CORBA@@QEAA@PEAVTypeCode@1@@Z
??0TypeCode_var@CORBA@@QEAA@XZ
??0TypeCode_wstring@omni@@AEAA@XZ
??0TypeCode_wstring@omni@@QEAA@K@Z
??0TypeDescription@CORBA@@QEAA@AEBU01@@Z
??0TypeDescription@CORBA@@QEAA@XZ
??0TypeMismatch@DynAny@DynamicAny@@QEAA@AEBV012@@Z
??0TypeMismatch@DynAny@DynamicAny@@QEAA@XZ
??0ULongLongSeq@CORBA@@QEAA@AEBV01@@Z
??0ULongLongSeq@CORBA@@QEAA@K@Z
??0ULongLongSeq@CORBA@@QEAA@XZ
??0ULongLongSeq_var@CORBA@@QEAA@PEAVULongLongSeq@1@@Z
??0ULongSeq@CORBA@@QEAA@AEBV01@@Z
??0ULongSeq@CORBA@@QEAA@K@Z
??0ULongSeq@CORBA@@QEAA@XZ
??0ULongSeq_var@CORBA@@QEAA@PEAVULongSeq@1@@Z
??0UNKNOWN@CORBA@@QEAA@AEBV01@@Z
??0UNKNOWN@CORBA@@QEAA@KW4CompletionStatus@1@@Z
??0UShortSeq@CORBA@@QEAA@AEBV01@@Z
??0UShortSeq@CORBA@@QEAA@K@Z
??0UShortSeq@CORBA@@QEAA@XZ
??0UShortSeq_var@CORBA@@QEAA@PEAVUShortSeq@1@@Z
??0UnionMember@CORBA@@QEAA@AEBU01@@Z
??0UnionMember@CORBA@@QEAA@XZ
??0UnionMemberSeq@CORBA@@QEAA@AEBV01@@Z
??0UnionMemberSeq@CORBA@@QEAA@XZ
??0UnionMemberSeq_var@CORBA@@QEAA@XZ
??0UnknownPollable@PollableSet@CORBA@@QEAA@AEBV012@@Z
??0UnknownPollable@PollableSet@CORBA@@QEAA@XZ
??0UnknownUserException@CORBA@@QEAA@AEBV01@@Z
??0UnknownUserException@CORBA@@QEAA@PEAVAny@1@@Z
??0UnknownValue@omni@@AEAA@AEBV01@@Z
??0UnknownValue@omni@@QEAA@PEAVTypeCode@CORBA@@@Z
??0UserException@CORBA@@IEAA@XZ
??0UserException@CORBA@@QEAA@AEBV01@@Z
??0ValueBase@CORBA@@IEAA@AEBV01@@Z
??0ValueBase@CORBA@@IEAA@XZ
??0ValueBaseSeq@omniTypedefs@@QEAA@AEBV01@@Z
??0ValueBaseSeq@omniTypedefs@@QEAA@KKPEAPEAVValueBase@CORBA@@_N@Z
??0ValueBaseSeq@omniTypedefs@@QEAA@XZ
??0ValueBaseSeq_var@omniTypedefs@@QEAA@XZ
??0ValueBase_var@CORBA@@QEAA@PEAVValueBase@1@@Z
??0ValueDefSeq@CORBA@@QEAA@AEBV01@@Z
??0ValueDefSeq@CORBA@@QEAA@XZ
??0ValueDefSeq_var@CORBA@@QEAA@XZ
??0ValueDescription@CORBA@@QEAA@AEBU01@@Z
??0ValueDescription@CORBA@@QEAA@XZ
??0ValueFactoryBase@CORBA@@IEAA@XZ
??0ValueIndirectionTracker@omni@@QEAA@XZ
??0ValueMember@CORBA@@QEAA@AEBU01@@Z
??0ValueMember@CORBA@@QEAA@XZ
??0ValueMemberSeq@CORBA@@QEAA@AEBV01@@Z
??0ValueMemberSeq@CORBA@@QEAA@XZ
??0WCharSeq@CORBA@@QEAA@AEBV01@@Z
??0WCharSeq@CORBA@@QEAA@K@Z
??0WCharSeq@CORBA@@QEAA@XZ
??0WCharSeq_var@CORBA@@QEAA@PEAVWCharSeq@1@@Z
??0WStringSeq@CORBA@@QEAA@AEBV01@@Z
??0WStringSeq@CORBA@@QEAA@XZ
??0WStringValue@CORBA@@QEAA@XZ
??0WrongAdapter@POA@PortableServer@@QEAA@AEBV012@@Z
??0WrongAdapter@POA@PortableServer@@QEAA@XZ
??0WrongPolicy@POA@PortableServer@@QEAA@AEBV012@@Z
??0WrongPolicy@POA@PortableServer@@QEAA@XZ
??0WrongTransaction@CORBA@@QEAA@AEBV01@@Z
??0WrongTransaction@CORBA@@QEAA@XZ
??0_0RL_CORBA_StringValue_init@@QEAA@XZ
??0_0RL_CORBA_StringValue_install@@QEAA@XZ
??0_0RL_CORBA_WStringValue_init@@QEAA@XZ
??0_0RL_CORBA_WStringValue_install@@QEAA@XZ
??0_0RL_cd_7963219a43724a61_00000000@@QEAA@P6AXPEAVomniCallDescriptor@@PEAVomniServant@@@ZPEBD_K_N@Z
??0_0RL_cd_7963219a43724a61_04000000@@QEAA@P6AXPEAVomniCallDescriptor@@PEAVomniServant@@@ZPEBD_K_N@Z
??0_0RL_cd_7963219a43724a61_06000000@@QEAA@P6AXPEAVomniCallDescriptor@@PEAVomniServant@@@ZPEBD_K_N@Z
??0_0RL_cd_7963219a43724a61_08000000@@QEAA@P6AXPEAVomniCallDescriptor@@PEAVomniServant@@@ZPEBD_K_N@Z
??0_0RL_cd_7963219a43724a61_0b000000@@QEAA@P6AXPEAVomniCallDescriptor@@PEAVomniServant@@@ZPEBD_K_N@Z
??0_0RL_cd_7963219a43724a61_11000000@@QEAA@P6AXPEAVomniCallDescriptor@@PEAVomniServant@@@ZPEBD_K_N@Z
??0_0RL_cd_7963219a43724a61_12000000@@QEAA@P6AXPEAVomniCallDescriptor@@PEAVomniServant@@@ZPEBD_K_N@Z
??0_0RL_cd_7963219a43724a61_13000000@@QEAA@P6AXPEAVomniCallDescriptor@@PEAVomniServant@@@ZPEBD_K_N@Z
??0_0RL_cd_7963219a43724a61_15000000@@QEAA@P6AXPEAVomniCallDescriptor@@PEAVomniServant@@@ZPEBD_K_N@Z
??0_0RL_cd_7963219a43724a61_19000000@@QEAA@P6AXPEAVomniCallDescriptor@@PEAVomniServant@@@ZPEBD_K_N@Z
??0_0RL_cd_7963219a43724a61_1a000000@@QEAA@P6AXPEAVomniCallDescriptor@@PEAVomniServant@@@ZPEBD_K_N@Z
??0_0RL_cd_7963219a43724a61_1c000000@@QEAA@P6AXPEAVomniCallDescriptor@@PEAVomniServant@@@ZPEBD_K_N@Z
??0_0RL_cd_7963219a43724a61_20000000@@QEAA@P6AXPEAVomniCallDescriptor@@PEAVomniServant@@@ZPEBD_K_N@Z
??0_0RL_cd_7963219a43724a61_24000000@@QEAA@P6AXPEAVomniCallDescriptor@@PEAVomniServant@@@ZPEBD_K_N@Z
??0_0RL_cd_7963219a43724a61_26000000@@QEAA@P6AXPEAVomniCallDescriptor@@PEAVomniServant@@@ZPEBD_K_N@Z
??0_0RL_cd_7963219a43724a61_28000000@@QEAA@P6AXPEAVomniCallDescriptor@@PEAVomniServant@@@ZPEBD_K_N@Z
??0_0RL_cd_7963219a43724a61_2b000000@@QEAA@P6AXPEAVomniCallDescriptor@@PEAVomniServant@@@ZPEBD_K_N@Z
??0_0RL_cd_7963219a43724a61_31000000@@QEAA@P6AXPEAVomniCallDescriptor@@PEAVomniServant@@@ZPEBD_K_N@Z
??0_0RL_cd_7963219a43724a61_32000000@@QEAA@P6AXPEAVomniCallDescriptor@@PEAVomniServant@@@ZPEBD_K_N@Z
??0_0RL_cd_7963219a43724a61_33000000@@QEAA@P6AXPEAVomniCallDescriptor@@PEAVomniServant@@@ZPEBD_K_N@Z
??0_0RL_cd_7963219a43724a61_39000000@@QEAA@P6AXPEAVomniCallDescriptor@@PEAVomniServant@@@ZPEBD_K_N@Z
??0_0RL_cd_7963219a43724a61_40000000@@QEAA@P6AXPEAVomniCallDescriptor@@PEAVomniServant@@@ZPEBD_K_N@Z
??0_0RL_cd_7963219a43724a61_44000000@@QEAA@P6AXPEAVomniCallDescriptor@@PEAVomniServant@@@ZPEBD_K_N@Z
??0_0RL_cd_7963219a43724a61_46000000@@QEAA@P6AXPEAVomniCallDescriptor@@PEAVomniServant@@@ZPEBD_K_N@Z
??0_0RL_cd_7963219a43724a61_4b000000@@QEAA@P6AXPEAVomniCallDescriptor@@PEAVomniServant@@@ZPEBD_K_N@Z
??0_0RL_cd_7963219a43724a61_51000000@@QEAA@P6AXPEAVomniCallDescriptor@@PEAVomniServant@@@ZPEBD_K_N@Z
??0_0RL_cd_7963219a43724a61_52000000@@QEAA@P6AXPEAVomniCallDescriptor@@PEAVomniServant@@@ZPEBD_K_N@Z
??0_0RL_cd_7963219a43724a61_53000000@@QEAA@P6AXPEAVomniCallDescriptor@@PEAVomniServant@@@ZPEBD_K_N@Z
??0_0RL_cd_7963219a43724a61_59000000@@QEAA@P6AXPEAVomniCallDescriptor@@PEAVomniServant@@@ZPEBD_K_N@Z
??0_0RL_cd_7963219a43724a61_60000000@@QEAA@P6AXPEAVomniCallDescriptor@@PEAVomniServant@@@ZPEBD_K_N@Z
??0_0RL_cd_7963219a43724a61_65000000@@QEAA@P6AXPEAVomniCallDescriptor@@PEAVomniServant@@@ZPEBD_K_N@Z
??0_0RL_cd_7963219a43724a61_6b000000@@QEAA@P6AXPEAVomniCallDescriptor@@PEAVomniServant@@@ZPEBD_K_N@Z
??0_0RL_cd_7963219a43724a61_71000000@@QEAA@P6AXPEAVomniCallDescriptor@@PEAVomniServant@@@ZPEBD_K_N@Z
??0_0RL_cd_7963219a43724a61_72000000@@QEAA@P6AXPEAVomniCallDescriptor@@PEAVomniServant@@@ZPEBD_K_N@Z
??0_0RL_cd_7963219a43724a61_74000000@@QEAA@P6AXPEAVomniCallDescriptor@@PEAVomniServant@@@ZPEBD_K_N@Z
??0_0RL_cd_7963219a43724a61_78000000@@QEAA@P6AXPEAVomniCallDescriptor@@PEAVomniServant@@@ZPEBD_K_N@Z
??0_0RL_cd_7963219a43724a61_79000000@@QEAA@P6AXPEAVomniCallDescriptor@@PEAVomniServant@@@ZPEBD_K_N@Z
??0_0RL_cd_7963219a43724a61_83000000@@QEAA@P6AXPEAVomniCallDescriptor@@PEAVomniServant@@@ZPEBD_K_N@Z
??0_0RL_cd_7963219a43724a61_85000000@@QEAA@P6AXPEAVomniCallDescriptor@@PEAVomniServant@@@ZPEBD_K_N@Z
??0_0RL_cd_7963219a43724a61_86000000@@QEAA@P6AXPEAVomniCallDescriptor@@PEAVomniServant@@@ZPEBD_K_N@Z
??0_0RL_cd_7963219a43724a61_8b000000@@QEAA@P6AXPEAVomniCallDescriptor@@PEAVomniServant@@@ZPEBD_K_N@Z
??0_0RL_cd_7963219a43724a61_91000000@@QEAA@P6AXPEAVomniCallDescriptor@@PEAVomniServant@@@ZPEBD_K_N@Z
??0_0RL_cd_7963219a43724a61_92000000@@QEAA@P6AXPEAVomniCallDescriptor@@PEAVomniServant@@@ZPEBD_K_N@Z
??0_0RL_cd_7963219a43724a61_94000000@@QEAA@P6AXPEAVomniCallDescriptor@@PEAVomniServant@@@ZPEBD_K_N@Z
??0_0RL_cd_7963219a43724a61_98000000@@QEAA@P6AXPEAVomniCallDescriptor@@PEAVomniServant@@@ZPEBD_K_N@Z
??0_0RL_cd_7963219a43724a61_99000000@@QEAA@P6AXPEAVomniCallDescriptor@@PEAVomniServant@@@ZPEBD_K_N@Z
??0_0RL_cd_7963219a43724a61_a3000000@@QEAA@P6AXPEAVomniCallDescriptor@@PEAVomniServant@@@ZPEBD_K_N@Z
??0_0RL_cd_7963219a43724a61_a5000000@@QEAA@P6AXPEAVomniCallDescriptor@@PEAVomniServant@@@ZPEBD_K_N@Z
??0_0RL_cd_7963219a43724a61_a6000000@@QEAA@P6AXPEAVomniCallDescriptor@@PEAVomniServant@@@ZPEBD_K_N@Z
??0_0RL_cd_7963219a43724a61_aa000000@@QEAA@P6AXPEAVomniCallDescriptor@@PEAVomniServant@@@ZPEBD_K_N@Z
??0_0RL_cd_7963219a43724a61_b1000000@@QEAA@P6AXPEAVomniCallDescriptor@@PEAVomniServant@@@ZPEBD_K_N@Z
??0_0RL_cd_7963219a43724a61_b2000000@@QEAA@P6AXPEAVomniCallDescriptor@@PEAVomniServant@@@ZPEBD_K_N@Z
??0_0RL_cd_7963219a43724a61_b4000000@@QEAA@P6AXPEAVomniCallDescriptor@@PEAVomniServant@@@ZPEBD_K_N@Z
??0_0RL_cd_7963219a43724a61_b8000000@@QEAA@P6AXPEAVomniCallDescriptor@@PEAVomniServant@@@ZPEBD_K_N@Z
??0_0RL_cd_7963219a43724a61_b9000000@@QEAA@P6AXPEAVomniCallDescriptor@@PEAVomniServant@@@ZPEBD_K_N@Z
??0_0RL_cd_7963219a43724a61_c0000000@@QEAA@P6AXPEAVomniCallDescriptor@@PEAVomniServant@@@ZPEBD_K_N@Z
??0_0RL_cd_7963219a43724a61_c3000000@@QEAA@P6AXPEAVomniCallDescriptor@@PEAVomniServant@@@ZPEBD_K_N@Z
??0_0RL_cd_7963219a43724a61_c5000000@@QEAA@P6AXPEAVomniCallDescriptor@@PEAVomniServant@@@ZPEBD_K_N@Z
??0_0RL_cd_7963219a43724a61_c6000000@@QEAA@P6AXPEAVomniCallDescriptor@@PEAVomniServant@@@ZPEBD_K_N@Z
??0_0RL_cd_7963219a43724a61_ca000000@@QEAA@P6AXPEAVomniCallDescriptor@@PEAVomniServant@@@ZPEBD_K_N@Z
??0_0RL_cd_7963219a43724a61_d1000000@@QEAA@P6AXPEAVomniCallDescriptor@@PEAVomniServant@@@ZPEBD_K_N@Z
??0_0RL_cd_7963219a43724a61_d2000000@@QEAA@P6AXPEAVomniCallDescriptor@@PEAVomniServant@@@ZPEBD_K_N@Z
??0_0RL_cd_7963219a43724a61_d4000000@@QEAA@P6AXPEAVomniCallDescriptor@@PEAVomniServant@@@ZPEBD_K_N@Z
??0_0RL_cd_7963219a43724a61_d8000000@@QEAA@P6AXPEAVomniCallDescriptor@@PEAVomniServant@@@ZPEBD_K_N@Z
??0_0RL_cd_7963219a43724a61_d9000000@@QEAA@P6AXPEAVomniCallDescriptor@@PEAVomniServant@@@ZPEBD_K_N@Z
??0_0RL_cd_7963219a43724a61_e3000000@@QEAA@P6AXPEAVomniCallDescriptor@@PEAVomniServant@@@ZPEBD_K_N@Z
??0_0RL_cd_7963219a43724a61_e6000000@@QEAA@P6AXPEAVomniCallDescriptor@@PEAVomniServant@@@ZPEBD_K_N@Z
??0_0RL_cd_7963219a43724a61_ea000000@@QEAA@P6AXPEAVomniCallDescriptor@@PEAVomniServant@@@ZPEBD_K_N@Z
??0_0RL_cd_7963219a43724a61_f0000000@@QEAA@P6AXPEAVomniCallDescriptor@@PEAVomniServant@@@ZPEBD_K_N@Z
??0_0RL_cd_7963219a43724a61_f1000000@@QEAA@P6AXPEAVomniCallDescriptor@@PEAVomniServant@@@ZPEBD_K_N@Z
??0_0RL_cd_7963219a43724a61_f2000000@@QEAA@P6AXPEAVomniCallDescriptor@@PEAVomniServant@@@ZPEBD_K_N@Z
??0_0RL_cd_7963219a43724a61_f4000000@@QEAA@P6AXPEAVomniCallDescriptor@@PEAVomniServant@@@ZPEBD_K_N@Z
??0_0RL_cd_7963219a43724a61_f8000000@@QEAA@P6AXPEAVomniCallDescriptor@@PEAVomniServant@@@ZPEBD_K_N@Z
??0_0RL_cd_7963219a43724a61_f9000000@@QEAA@P6AXPEAVomniCallDescriptor@@PEAVomniServant@@@ZPEBD_K_N@Z
??0_0RL_cd_7963219a43724a61_fb000000@@QEAA@P6AXPEAVomniCallDescriptor@@PEAVomniServant@@@ZPEBD_K_N@Z
??0_0RL_insertToAny_Singleton__cCORBA_mPolicyError@@QEAA@XZ
??0_0RL_insertToAny_Singleton__cCORBA_mPollableSet_mNoPossiblePollable@@QEAA@XZ
??0_0RL_insertToAny_Singleton__cCORBA_mPollableSet_mUnknownPollable@@QEAA@XZ
??0_0RL_insertToAny_Singleton__cCORBA_mUnknownUserException@@QEAA@XZ
??0_0RL_insertToAny_Singleton__cCosNaming_mNamingContextExt_mInvalidAddress@@QEAA@XZ
??0_0RL_insertToAny_Singleton__cCosNaming_mNamingContext_mAlreadyBound@@QEAA@XZ
??0_0RL_insertToAny_Singleton__cCosNaming_mNamingContext_mCannotProceed@@QEAA@XZ
??0_0RL_insertToAny_Singleton__cCosNaming_mNamingContext_mInvalidName@@QEAA@XZ
??0_0RL_insertToAny_Singleton__cCosNaming_mNamingContext_mNotEmpty@@QEAA@XZ
??0_0RL_insertToAny_Singleton__cCosNaming_mNamingContext_mNotFound@@QEAA@XZ
??0_0RL_insertToAny_Singleton__cPortableServer_mForwardRequest@@QEAA@XZ
??0_0RL_insertToAny_Singleton__cPortableServer_mPOA_mInvalidPolicy@@QEAA@XZ
??0_CORBA_Sequence_Boolean@@IEAA@AEBV0@@Z
??0_CORBA_Sequence_Boolean@@IEAA@K_N@Z
??0_CORBA_Sequence_Boolean@@IEAA@XZ
??0_CORBA_Sequence_Char@@IEAA@AEBV0@@Z
??0_CORBA_Sequence_Char@@IEAA@K_N@Z
??0_CORBA_Sequence_Char@@IEAA@XZ
??0_CORBA_Sequence_Octet@@IEAA@AEBV0@@Z
??0_CORBA_Sequence_Octet@@IEAA@K_N@Z
??0_CORBA_Sequence_Octet@@IEAA@XZ
??0_CORBA_Sequence_String@@IEAA@AEBV0@@Z
??0_CORBA_Sequence_String@@IEAA@XZ
??0_CORBA_Sequence_WChar@@IEAA@AEBV0@@Z
??0_CORBA_Sequence_WChar@@IEAA@K_N@Z
??0_CORBA_Sequence_WChar@@IEAA@XZ
??0_CORBA_Sequence_WString@@IEAA@AEBV0@@Z
??0_CORBA_Sequence_WString@@IEAA@XZ
??0_CORBA_String_element@@QEAA@AEAPEAD_N@Z
??0_CORBA_String_member@@QEAA@AEBV0@@Z
??0_CORBA_String_member@@QEAA@XZ
??0_CORBA_String_var@@QEAA@PEAD@Z
??0_CORBA_String_var@@QEAA@PEBD@Z
??0_CORBA_String_var@@QEAA@XZ
??0_CORBA_Unbounded_Sequence_Boolean@@QEAA@AEBV0@@Z
??0_CORBA_Unbounded_Sequence_Boolean@@QEAA@K@Z
??0_CORBA_Unbounded_Sequence_Boolean@@QEAA@XZ
??0_CORBA_Unbounded_Sequence_Char@@QEAA@AEBV0@@Z
??0_CORBA_Unbounded_Sequence_Char@@QEAA@K@Z
??0_CORBA_Unbounded_Sequence_Char@@QEAA@XZ
??0_CORBA_Unbounded_Sequence_Octet@@QEAA@AEBV0@@Z
??0_CORBA_Unbounded_Sequence_Octet@@QEAA@K@Z
??0_CORBA_Unbounded_Sequence_Octet@@QEAA@XZ
??0_CORBA_Unbounded_Sequence_String@@QEAA@AEBV0@@Z
??0_CORBA_Unbounded_Sequence_String@@QEAA@XZ
??0_CORBA_Unbounded_Sequence_WChar@@QEAA@AEBV0@@Z
??0_CORBA_Unbounded_Sequence_WChar@@QEAA@K@Z
??0_CORBA_Unbounded_Sequence_WChar@@QEAA@XZ
??0_CORBA_Unbounded_Sequence_WString@@QEAA@AEBV0@@Z
??0_CORBA_Unbounded_Sequence_WString@@QEAA@XZ
??0_CORBA_WString_element@@QEAA@AEAPEA_W_N@Z
??0_Tracker@TypeCode@CORBA@@QEAA@PEBD@Z
??0_cCORBA_mObject_i_cstring@omniStdCallDesc@@QEAA@P6AXPEAVomniCallDescriptor@@PEAVomniServant@@@ZPEBD_K3_N@Z
??0_nil_PollableSet@CORBA@@QEAA@XZ
??0_objref_AbstractInterfaceDef@CORBA@@QEAA@PEAVomniIOR@@PEAVomniIdentity@@@Z
??0_objref_AbstractInterfaceDef@CORBA@@QEAA@XZ
??0_objref_AliasDef@CORBA@@QEAA@PEAVomniIOR@@PEAVomniIdentity@@@Z
??0_objref_AliasDef@CORBA@@QEAA@XZ
??0_objref_ArrayDef@CORBA@@QEAA@PEAVomniIOR@@PEAVomniIdentity@@@Z
??0_objref_ArrayDef@CORBA@@QEAA@XZ
??0_objref_AttributeDef@CORBA@@QEAA@PEAVomniIOR@@PEAVomniIdentity@@@Z
??0_objref_AttributeDef@CORBA@@QEAA@XZ
??0_objref_ConstantDef@CORBA@@QEAA@PEAVomniIOR@@PEAVomniIdentity@@@Z
??0_objref_ConstantDef@CORBA@@QEAA@XZ
??0_objref_Contained@CORBA@@QEAA@PEAVomniIOR@@PEAVomniIdentity@@@Z
??0_objref_Contained@CORBA@@QEAA@XZ
??0_objref_Container@CORBA@@QEAA@PEAVomniIOR@@PEAVomniIdentity@@@Z
??0_objref_Container@CORBA@@QEAA@XZ
??0_objref_EnumDef@CORBA@@QEAA@PEAVomniIOR@@PEAVomniIdentity@@@Z
??0_objref_EnumDef@CORBA@@QEAA@XZ
??0_objref_ExceptionDef@CORBA@@QEAA@PEAVomniIOR@@PEAVomniIdentity@@@Z
??0_objref_ExceptionDef@CORBA@@QEAA@XZ
??0_objref_FixedDef@CORBA@@QEAA@PEAVomniIOR@@PEAVomniIdentity@@@Z
??0_objref_FixedDef@CORBA@@QEAA@XZ
??0_objref_IDLType@CORBA@@QEAA@PEAVomniIOR@@PEAVomniIdentity@@@Z
??0_objref_IDLType@CORBA@@QEAA@XZ
??0_objref_IRObject@CORBA@@QEAA@PEAVomniIOR@@PEAVomniIdentity@@@Z
??0_objref_IRObject@CORBA@@QEAA@XZ
??0_objref_InterfaceDef@CORBA@@QEAA@PEAVomniIOR@@PEAVomniIdentity@@@Z
??0_objref_InterfaceDef@CORBA@@QEAA@XZ
??0_objref_ModuleDef@CORBA@@QEAA@PEAVomniIOR@@PEAVomniIdentity@@@Z
??0_objref_ModuleDef@CORBA@@QEAA@XZ
??0_objref_NativeDef@CORBA@@QEAA@PEAVomniIOR@@PEAVomniIdentity@@@Z
??0_objref_NativeDef@CORBA@@QEAA@XZ
??0_objref_OperationDef@CORBA@@QEAA@PEAVomniIOR@@PEAVomniIdentity@@@Z
??0_objref_OperationDef@CORBA@@QEAA@XZ
??0_objref_PrimitiveDef@CORBA@@QEAA@PEAVomniIOR@@PEAVomniIdentity@@@Z
??0_objref_PrimitiveDef@CORBA@@QEAA@XZ
??0_objref_ReplyHandler@Messaging@@QEAA@PEAVomniIOR@@PEAVomniIdentity@@@Z
??0_objref_ReplyHandler@Messaging@@QEAA@XZ
??0_objref_Repository@CORBA@@QEAA@PEAVomniIOR@@PEAVomniIdentity@@@Z
??0_objref_Repository@CORBA@@QEAA@XZ
??0_objref_SequenceDef@CORBA@@QEAA@PEAVomniIOR@@PEAVomniIdentity@@@Z
??0_objref_SequenceDef@CORBA@@QEAA@XZ
??0_objref_StringDef@CORBA@@QEAA@PEAVomniIOR@@PEAVomniIdentity@@@Z
??0_objref_StringDef@CORBA@@QEAA@XZ
??0_objref_StructDef@CORBA@@QEAA@PEAVomniIOR@@PEAVomniIdentity@@@Z
??0_objref_StructDef@CORBA@@QEAA@XZ
??0_objref_TypedefDef@CORBA@@QEAA@PEAVomniIOR@@PEAVomniIdentity@@@Z
??0_objref_TypedefDef@CORBA@@QEAA@XZ
??0_objref_UnionDef@CORBA@@QEAA@PEAVomniIOR@@PEAVomniIdentity@@@Z
??0_objref_UnionDef@CORBA@@QEAA@XZ
??0_objref_ValueBoxDef@CORBA@@QEAA@PEAVomniIOR@@PEAVomniIdentity@@@Z
??0_objref_ValueBoxDef@CORBA@@QEAA@XZ
??0_objref_ValueDef@CORBA@@QEAA@PEAVomniIOR@@PEAVomniIdentity@@@Z
??0_objref_ValueDef@CORBA@@QEAA@XZ
??0_objref_ValueMemberDef@CORBA@@QEAA@PEAVomniIOR@@PEAVomniIdentity@@@Z
??0_objref_ValueMemberDef@CORBA@@QEAA@XZ
??0_objref_WstringDef@CORBA@@QEAA@PEAVomniIOR@@PEAVomniIdentity@@@Z
??0_objref_WstringDef@CORBA@@QEAA@XZ
??0_pof_AbstractInterfaceDef@CORBA@@QEAA@XZ
??0_pof_AliasDef@CORBA@@QEAA@XZ
??0_pof_ArrayDef@CORBA@@QEAA@XZ
??0_pof_AttributeDef@CORBA@@QEAA@XZ
??0_pof_ConstantDef@CORBA@@QEAA@XZ
??0_pof_Contained@CORBA@@QEAA@XZ
??0_pof_Container@CORBA@@QEAA@XZ
??0_pof_EnumDef@CORBA@@QEAA@XZ
??0_pof_ExceptionDef@CORBA@@QEAA@XZ
??0_pof_FixedDef@CORBA@@QEAA@XZ
??0_pof_IDLType@CORBA@@QEAA@XZ
??0_pof_IRObject@CORBA@@QEAA@XZ
??0_pof_InterfaceDef@CORBA@@QEAA@XZ
??0_pof_ModuleDef@CORBA@@QEAA@XZ
??0_pof_NativeDef@CORBA@@QEAA@XZ
??0_pof_OperationDef@CORBA@@QEAA@XZ
??0_pof_PrimitiveDef@CORBA@@QEAA@XZ
??0_pof_ReplyHandler@Messaging@@QEAA@XZ
??0_pof_Repository@CORBA@@QEAA@XZ
??0_pof_SequenceDef@CORBA@@QEAA@XZ
??0_pof_StringDef@CORBA@@QEAA@XZ
??0_pof_StructDef@CORBA@@QEAA@XZ
??0_pof_TypedefDef@CORBA@@QEAA@XZ
??0_pof_UnionDef@CORBA@@QEAA@XZ
??0_pof_ValueBoxDef@CORBA@@QEAA@XZ
??0_pof_ValueDef@CORBA@@QEAA@XZ
??0_pof_ValueMemberDef@CORBA@@QEAA@XZ
??0_pof_WstringDef@CORBA@@QEAA@XZ
??0cdrAnyMemoryStream@@QEAA@AEBV0@_N@Z
??0cdrAnyMemoryStream@@QEAA@PEAX_N@Z
??0cdrAnyMemoryStream@@QEAA@XZ
??0cdrValueChunkStream@@QEAA@AEAVcdrStream@@@Z
??0dynException_Singleton@@QEAA@XZ
??0from_boolean@Any@CORBA@@QEAA@_N@Z
??0from_char@Any@CORBA@@QEAA@E@Z
??0from_octet@Any@CORBA@@QEAA@E@Z
??0info_T@createPolicy_T@omniInterceptors@omni@@QEAA@KAEBVAny@CORBA@@AEAPEAVPolicy@5@@Z
??0omniAsyncCallDescriptor@@QEAA@P6AXPEAVomniCallDescriptor@@PEAVomniServant@@@ZPEBD_K_NPEBQEBDH@Z
??0omniCallDescriptor@@QEAA@P6AXPEAV0@PEAVomniServant@@@ZPEBD_K_NPEBQEBDH5@Z
??0omniDynamicLib_initialiser@omni@@QEAA@XZ
??0omniInitialiser@omni@@QEAA@XZ
??0omniNilContext@omni@@QEAA@XZ
??0omniNilCtList@omni@@QEAA@XZ
??0omniNilDynAny@omni@@QEAA@XZ
??0omniNilDynAnyFactory@omni@@QEAA@XZ
??0omniNilDynArray@omni@@QEAA@XZ
??0omniNilDynEnum@omni@@QEAA@XZ
??0omniNilDynFixed@omni@@QEAA@XZ
??0omniNilDynSequence@omni@@QEAA@XZ
??0omniNilDynStruct@omni@@QEAA@XZ
??0omniNilDynUnion@omni@@QEAA@XZ
??0omniNilDynValue@omni@@QEAA@XZ
??0omniNilDynValueBox@omni@@QEAA@XZ
??0omniNilDynValueCommon@omni@@QEAA@XZ
??0omniNilEnv@omni@@QEAA@XZ
??0omniNilExList@omni@@QEAA@XZ
??0omniNilNV@omni@@QEAA@XZ
??0omniNilNVList@omni@@QEAA@XZ
??0omniNilRequest@omni@@QEAA@XZ
??0omniNilTypeCodeHolder@omni@@QEAA@PEAVTypeCode@CORBA@@@Z
??0omniServerRequest@omni@@QEAA@AEAVomniCallHandle@@@Z
??0omniTask@@QEAA@W4Category@0@W4Purpose@0@@Z
??0omniTaskLink@@QEAA@XZ
??0omniTrackedObject@omni@@QEAA@XZ
??0omniTypeCodeCollection@omni@@QEAA@XZ
??0omni_dynAny_initialiser@omni@@QEAA@XZ
??0omni_interface_CallDesc@omni@@QEAA@PEBDH_N@Z
??0omni_mutex_lock@@QEAA@AEAVomni_mutex@@@Z
??0omni_refcount@@QEAA@H@Z
??0omni_time_t@@QEAA@KK@Z
??0omni_tracedcondition@@QEAA@PEAVomni_tracedmutex@@PEBD@Z
??0omni_tracedmutex@@QEAA@PEBD@Z
??0omni_valueFactory_initialiser@omni@@QEAA@XZ
??0poaCurrentStackInsert@omni@@QEAA@PEAVomniCallDescriptor@@PEAVomni_thread@@@Z
??0serverRequestCallDescriptor@omni@@QEAA@PEBD_K@Z
??0to_boolean@Any@CORBA@@QEAA@AEA_N@Z
??0to_char@Any@CORBA@@QEAA@AEAE@Z
??0to_octet@Any@CORBA@@QEAA@AEAE@Z
??0to_value@Any@CORBA@@QEAA@AEAPEAVValueBase@2@@Z
??1?$_CORBA_ConstrType_Variable_Var@UDescription@Contained@CORBA@@@@QEAA@XZ
??1?$_CORBA_ConstrType_Variable_Var@UFullInterfaceDescription@InterfaceDef@CORBA@@@@QEAA@XZ
??1?$_CORBA_ConstrType_Variable_Var@UFullValueDescription@ValueDef@CORBA@@@@QEAA@XZ
??1?$_CORBA_ObjRef_Element@VDynAny@DynamicAny@@VDynAny_Helper@2@@@QEAA@XZ
??1?$_CORBA_ObjRef_Member@V_objref_Contained@CORBA@@VContained_Helper@2@@@QEAA@XZ
??1?$_CORBA_ObjRef_Member@V_objref_IDLType@CORBA@@VIDLType_Helper@2@@@QEAA@XZ
??1?$_CORBA_ObjRef_Member@V_objref_NamingContext@CosNaming@@VNamingContext_Helper@2@@@QEAA@XZ
??1?$_CORBA_ObjRef_Var@V_objref_AbstractInterfaceDef@CORBA@@VAbstractInterfaceDef_Helper@2@@@QEAA@XZ
??1?$_CORBA_ObjRef_Var@V_objref_AliasDef@CORBA@@VAliasDef_Helper@2@@@QEAA@XZ
??1?$_CORBA_ObjRef_Var@V_objref_ArrayDef@CORBA@@VArrayDef_Helper@2@@@QEAA@XZ
??1?$_CORBA_ObjRef_Var@V_objref_AttributeDef@CORBA@@VAttributeDef_Helper@2@@@QEAA@XZ
??1?$_CORBA_ObjRef_Var@V_objref_ConstantDef@CORBA@@VConstantDef_Helper@2@@@QEAA@XZ
??1?$_CORBA_ObjRef_Var@V_objref_Contained@CORBA@@VContained_Helper@2@@@QEAA@XZ
??1?$_CORBA_ObjRef_Var@V_objref_Container@CORBA@@VContainer_Helper@2@@@QEAA@XZ
??1?$_CORBA_ObjRef_Var@V_objref_EnumDef@CORBA@@VEnumDef_Helper@2@@@QEAA@XZ
??1?$_CORBA_ObjRef_Var@V_objref_ExceptionDef@CORBA@@VExceptionDef_Helper@2@@@QEAA@XZ
??1?$_CORBA_ObjRef_Var@V_objref_FixedDef@CORBA@@VFixedDef_Helper@2@@@QEAA@XZ
??1?$_CORBA_ObjRef_Var@V_objref_IDLType@CORBA@@VIDLType_Helper@2@@@QEAA@XZ
??1?$_CORBA_ObjRef_Var@V_objref_InterfaceDef@CORBA@@VInterfaceDef_Helper@2@@@QEAA@XZ
??1?$_CORBA_ObjRef_Var@V_objref_ModuleDef@CORBA@@VModuleDef_Helper@2@@@QEAA@XZ
??1?$_CORBA_ObjRef_Var@V_objref_NativeDef@CORBA@@VNativeDef_Helper@2@@@QEAA@XZ
??1?$_CORBA_ObjRef_Var@V_objref_OperationDef@CORBA@@VOperationDef_Helper@2@@@QEAA@XZ
??1?$_CORBA_ObjRef_Var@V_objref_PrimitiveDef@CORBA@@VPrimitiveDef_Helper@2@@@QEAA@XZ
??1?$_CORBA_ObjRef_Var@V_objref_Repository@CORBA@@VRepository_Helper@2@@@QEAA@XZ
??1?$_CORBA_ObjRef_Var@V_objref_SequenceDef@CORBA@@VSequenceDef_Helper@2@@@QEAA@XZ
??1?$_CORBA_ObjRef_Var@V_objref_StringDef@CORBA@@VStringDef_Helper@2@@@QEAA@XZ
??1?$_CORBA_ObjRef_Var@V_objref_StructDef@CORBA@@VStructDef_Helper@2@@@QEAA@XZ
??1?$_CORBA_ObjRef_Var@V_objref_UnionDef@CORBA@@VUnionDef_Helper@2@@@QEAA@XZ
??1?$_CORBA_ObjRef_Var@V_objref_ValueBoxDef@CORBA@@VValueBoxDef_Helper@2@@@QEAA@XZ
??1?$_CORBA_ObjRef_Var@V_objref_ValueDef@CORBA@@VValueDef_Helper@2@@@QEAA@XZ
??1?$_CORBA_ObjRef_Var@V_objref_ValueMemberDef@CORBA@@VValueMemberDef_Helper@2@@@QEAA@XZ
??1?$_CORBA_ObjRef_Var@V_objref_WstringDef@CORBA@@VWstringDef_Helper@2@@@QEAA@XZ
??1?$_CORBA_PseudoObj_Member@VDynAny@DynamicAny@@V?$_CORBA_PseudoObj_Var@VDynAny@DynamicAny@@@@@@QEAA@XZ
??1?$_CORBA_PseudoObj_Member@VPolicy@CORBA@@V?$_CORBA_PseudoObj_Var@VPolicy@CORBA@@@@@@QEAA@XZ
??1?$_CORBA_PseudoObj_Var@VContext@CORBA@@@@QEAA@XZ
??1?$_CORBA_PseudoObj_Var@VContextList@CORBA@@@@QEAA@XZ
??1?$_CORBA_PseudoObj_Var@VDynAny@DynamicAny@@@@QEAA@XZ
??1?$_CORBA_PseudoObj_Var@VEnvironment@CORBA@@@@QEAA@XZ
??1?$_CORBA_PseudoObj_Var@VExceptionList@CORBA@@@@QEAA@XZ
??1?$_CORBA_PseudoObj_Var@VNVList@CORBA@@@@QEAA@XZ
??1?$_CORBA_PseudoObj_Var@VNamedValue@CORBA@@@@QEAA@XZ
??1?$_CORBA_PseudoValue_Sequence@PEAD@@QEAA@XZ
??1?$_CORBA_PseudoValue_Sequence@PEAVNamedValue@CORBA@@@@QEAA@XZ
??1?$_CORBA_PseudoValue_Sequence@PEAVTypeCode@CORBA@@@@QEAA@XZ
??1?$_CORBA_PseudoValue_Sequence@UEntry@ContextImpl@omni@@@@QEAA@XZ
??1?$_CORBA_PseudoValue_Sequence@UTcUnionMember@TypeCode_union@omni@@@@QEAA@XZ
??1?$_CORBA_Sequence@E@@QEAA@XZ
??1?$_CORBA_Sequence@F@@QEAA@XZ
??1?$_CORBA_Sequence@G@@QEAA@XZ
??1?$_CORBA_Sequence@J@@QEAA@XZ
??1?$_CORBA_Sequence@K@@QEAA@XZ
??1?$_CORBA_Sequence@M@@QEAA@XZ
??1?$_CORBA_Sequence@N@@QEAA@XZ
??1?$_CORBA_Sequence@UAttributeDescription@CORBA@@@@QEAA@XZ
??1?$_CORBA_Sequence@UBinding@CosNaming@@@@QEAA@XZ
??1?$_CORBA_Sequence@UDescription@Container@CORBA@@@@QEAA@XZ
??1?$_CORBA_Sequence@UExceptionDescription@CORBA@@@@QEAA@XZ
??1?$_CORBA_Sequence@UInitializer@CORBA@@@@QEAA@XZ
??1?$_CORBA_Sequence@UNameComponent@CosNaming@@@@QEAA@XZ
??1?$_CORBA_Sequence@UNameDynAnyPair@DynamicAny@@@@QEAA@XZ
??1?$_CORBA_Sequence@UNameValuePair@DynamicAny@@@@QEAA@XZ
??1?$_CORBA_Sequence@UOperationDescription@CORBA@@@@QEAA@XZ
??1?$_CORBA_Sequence@UParameterDescription@CORBA@@@@QEAA@XZ
??1?$_CORBA_Sequence@UStructMember@CORBA@@@@QEAA@XZ
??1?$_CORBA_Sequence@UUnionMember@CORBA@@@@QEAA@XZ
??1?$_CORBA_Sequence@UValueMember@CORBA@@@@QEAA@XZ
??1?$_CORBA_Sequence@VAny@CORBA@@@@QEAA@XZ
??1?$_CORBA_Sequence@VTypeCode_member@CORBA@@@@QEAA@XZ
??1?$_CORBA_Sequence@_J@@QEAA@XZ
??1?$_CORBA_Sequence@_K@@QEAA@XZ
??1?$_CORBA_Sequence@_N@@QEAA@XZ
??1?$_CORBA_Sequence@_W@@QEAA@XZ
??1?$_CORBA_Sequence_ObjRef@VDynAny@DynamicAny@@V?$_CORBA_ObjRef_Element@VDynAny@DynamicAny@@VDynAny_Helper@2@@@VDynAny_Helper@2@@@QEAA@XZ
??1?$_CORBA_Sequence_ObjRef@V_objref_AbstractInterfaceDef@CORBA@@V?$_CORBA_ObjRef_Element@V_objref_AbstractInterfaceDef@CORBA@@VAbstractInterfaceDef_Helper@2@@@VAbstractInterfaceDef_Helper@2@@@QEAA@XZ
??1?$_CORBA_Sequence_ObjRef@V_objref_Contained@CORBA@@V?$_CORBA_ObjRef_Element@V_objref_Contained@CORBA@@VContained_Helper@2@@@VContained_Helper@2@@@QEAA@XZ
??1?$_CORBA_Sequence_ObjRef@V_objref_ExceptionDef@CORBA@@V?$_CORBA_ObjRef_Element@V_objref_ExceptionDef@CORBA@@VExceptionDef_Helper@2@@@VExceptionDef_Helper@2@@@QEAA@XZ
??1?$_CORBA_Sequence_ObjRef@V_objref_InterfaceDef@CORBA@@V?$_CORBA_ObjRef_Element@V_objref_InterfaceDef@CORBA@@VInterfaceDef_Helper@2@@@VInterfaceDef_Helper@2@@@QEAA@XZ
??1?$_CORBA_Sequence_ObjRef@V_objref_ValueDef@CORBA@@V?$_CORBA_ObjRef_Element@V_objref_ValueDef@CORBA@@VValueDef_Helper@2@@@VValueDef_Helper@2@@@QEAA@XZ
??1?$_CORBA_Sequence_Value@VPollerImpl@omniAMI@@V?$_CORBA_Value_Element@VPollerImpl@omniAMI@@VPoller_Helper@Messaging@@@@VPoller_Helper@Messaging@@@@QEAA@XZ
??1?$_CORBA_Sequence_Value@VValueBase@CORBA@@V?$_CORBA_Value_Element@VValueBase@CORBA@@VValueBase_Helper@2@@@VValueBase_Helper@2@@@QEAA@XZ
??1?$_CORBA_Unbounded_Sequence@F@@QEAA@XZ
??1?$_CORBA_Unbounded_Sequence@G@@QEAA@XZ
??1?$_CORBA_Unbounded_Sequence@J@@QEAA@XZ
??1?$_CORBA_Unbounded_Sequence@K@@QEAA@XZ
??1?$_CORBA_Unbounded_Sequence@M@@QEAA@XZ
??1?$_CORBA_Unbounded_Sequence@N@@QEAA@XZ
??1?$_CORBA_Unbounded_Sequence@UAttributeDescription@CORBA@@@@QEAA@XZ
??1?$_CORBA_Unbounded_Sequence@UBinding@CosNaming@@@@QEAA@XZ
??1?$_CORBA_Unbounded_Sequence@UDescription@Container@CORBA@@@@QEAA@XZ
??1?$_CORBA_Unbounded_Sequence@UExceptionDescription@CORBA@@@@QEAA@XZ
??1?$_CORBA_Unbounded_Sequence@UInitializer@CORBA@@@@QEAA@XZ
??1?$_CORBA_Unbounded_Sequence@UNameComponent@CosNaming@@@@QEAA@XZ
??1?$_CORBA_Unbounded_Sequence@UNameDynAnyPair@DynamicAny@@@@QEAA@XZ
??1?$_CORBA_Unbounded_Sequence@UNameValuePair@DynamicAny@@@@QEAA@XZ
??1?$_CORBA_Unbounded_Sequence@UOperationDescription@CORBA@@@@QEAA@XZ
??1?$_CORBA_Unbounded_Sequence@UParameterDescription@CORBA@@@@QEAA@XZ
??1?$_CORBA_Unbounded_Sequence@UStructMember@CORBA@@@@QEAA@XZ
??1?$_CORBA_Unbounded_Sequence@UUnionMember@CORBA@@@@QEAA@XZ
??1?$_CORBA_Unbounded_Sequence@UValueMember@CORBA@@@@QEAA@XZ
??1?$_CORBA_Unbounded_Sequence@VAny@CORBA@@@@QEAA@XZ
??1?$_CORBA_Unbounded_Sequence@VTypeCode_member@CORBA@@@@QEAA@XZ
??1?$_CORBA_Unbounded_Sequence@_J@@QEAA@XZ
??1?$_CORBA_Unbounded_Sequence@_K@@QEAA@XZ
??1?$_CORBA_Unbounded_Sequence_ObjRef@VDynAny@DynamicAny@@V?$_CORBA_ObjRef_Element@VDynAny@DynamicAny@@VDynAny_Helper@2@@@VDynAny_Helper@2@@@QEAA@XZ
??1?$_CORBA_Unbounded_Sequence_ObjRef@V_objref_AbstractInterfaceDef@CORBA@@V?$_CORBA_ObjRef_Element@V_objref_AbstractInterfaceDef@CORBA@@VAbstractInterfaceDef_Helper@2@@@VAbstractInterfaceDef_Helper@2@@@QEAA@XZ
??1?$_CORBA_Unbounded_Sequence_ObjRef@V_objref_Contained@CORBA@@V?$_CORBA_ObjRef_Element@V_objref_Contained@CORBA@@VContained_Helper@2@@@VContained_Helper@2@@@QEAA@XZ
??1?$_CORBA_Unbounded_Sequence_ObjRef@V_objref_ExceptionDef@CORBA@@V?$_CORBA_ObjRef_Element@V_objref_ExceptionDef@CORBA@@VExceptionDef_Helper@2@@@VExceptionDef_Helper@2@@@QEAA@XZ
??1?$_CORBA_Unbounded_Sequence_ObjRef@V_objref_InterfaceDef@CORBA@@V?$_CORBA_ObjRef_Element@V_objref_InterfaceDef@CORBA@@VInterfaceDef_Helper@2@@@VInterfaceDef_Helper@2@@@QEAA@XZ
??1?$_CORBA_Unbounded_Sequence_ObjRef@V_objref_ValueDef@CORBA@@V?$_CORBA_ObjRef_Element@V_objref_ValueDef@CORBA@@VValueDef_Helper@2@@@VValueDef_Helper@2@@@QEAA@XZ
??1?$_CORBA_Unbounded_Sequence_Value@VPollerImpl@omniAMI@@V?$_CORBA_Value_Element@VPollerImpl@omniAMI@@VPoller_Helper@Messaging@@@@VPoller_Helper@Messaging@@@@QEAA@XZ
??1?$_CORBA_Unbounded_Sequence_Value@VValueBase@CORBA@@V?$_CORBA_Value_Element@VValueBase@CORBA@@VValueBase_Helper@2@@@VValueBase_Helper@2@@@QEAA@XZ
??1?$_CORBA_Unbounded_Sequence_w_FixSizeElement@F$01$01@@QEAA@XZ
??1?$_CORBA_Unbounded_Sequence_w_FixSizeElement@G$01$01@@QEAA@XZ
??1?$_CORBA_Unbounded_Sequence_w_FixSizeElement@J$03$03@@QEAA@XZ
??1?$_CORBA_Unbounded_Sequence_w_FixSizeElement@K$03$03@@QEAA@XZ
??1?$_CORBA_Unbounded_Sequence_w_FixSizeElement@M$03$03@@QEAA@XZ
??1?$_CORBA_Unbounded_Sequence_w_FixSizeElement@N$07$07@@QEAA@XZ
??1?$_CORBA_Unbounded_Sequence_w_FixSizeElement@_J$07$07@@QEAA@XZ
??1?$_CORBA_Unbounded_Sequence_w_FixSizeElement@_K$07$07@@QEAA@XZ
??1?$_CORBA_Value_Element@VPollerImpl@omniAMI@@VPoller_Helper@Messaging@@@@QEAA@XZ
??1?$_CORBA_Value_Element@VValueBase@CORBA@@VValueBase_Helper@2@@@QEAA@XZ
??1?$omnivector@PEAVDynAnyImplBase@omni@@@@QEAA@XZ
??1AbstractBase@CORBA@@MEAA@XZ
??1AbstractInterfaceDef@POA_CORBA@@UEAA@XZ
??1AbstractInterfaceDefSeq@CORBA@@QEAA@XZ
??1AbstractInterfaceDefSeq_var@CORBA@@QEAA@XZ
??1AliasDef@POA_CORBA@@UEAA@XZ
??1Any@CORBA@@QEAA@XZ
??1AnySeq@CORBA@@QEAA@XZ
??1AnySeq@DynamicAny@@QEAA@XZ
??1Any_var@CORBA@@QEAA@XZ
??1ArrayDef@POA_CORBA@@UEAA@XZ
??1AttrDescriptionSeq@CORBA@@QEAA@XZ
??1AttributeDef@POA_CORBA@@UEAA@XZ
??1AttributeDescription@CORBA@@QEAA@XZ
??1BadKind@TypeCode@CORBA@@UEAA@XZ
??1Binding@CosNaming@@QEAA@XZ
??1BindingList@CosNaming@@QEAA@XZ
??1BooleanSeq@CORBA@@QEAA@XZ
??1BooleanSeq_var@CORBA@@QEAA@XZ
??1Bounds@ContextList@CORBA@@UEAA@XZ
??1Bounds@ExceptionList@CORBA@@UEAA@XZ
??1Bounds@NVList@CORBA@@UEAA@XZ
??1Bounds@TypeCode@CORBA@@UEAA@XZ
??1CharSeq@CORBA@@QEAA@XZ
??1CharSeq_var@CORBA@@QEAA@XZ
??1ConstantDef@POA_CORBA@@UEAA@XZ
??1ConstantDescription@CORBA@@QEAA@XZ
??1Contained@POA_CORBA@@UEAA@XZ
??1ContainedSeq@CORBA@@QEAA@XZ
??1ContainedSeq_var@CORBA@@QEAA@XZ
??1Container@POA_CORBA@@UEAA@XZ
??1Context@CORBA@@UEAA@XZ
??1ContextIdSeq@CORBA@@QEAA@XZ
??1ContextIdSeq_var@CORBA@@QEAA@XZ
??1ContextImpl@omni@@UEAA@XZ
??1ContextList@CORBA@@UEAA@XZ
??1ContextListImpl@omni@@UEAA@XZ
??1DIICallDescriptor@omni@@UEAA@XZ
??1DIIPollable@CORBA@@MEAA@XZ
??1DIIPollableImpl@omniAMI@@UEAA@XZ
??1DefaultValueRefCountBase@CORBA@@MEAA@XZ
??1Description@Contained@CORBA@@QEAA@XZ
??1Description@Container@CORBA@@QEAA@XZ
??1DescriptionSeq@Container@CORBA@@QEAA@XZ
??1DescriptionSeq_var@Container@CORBA@@QEAA@XZ
??1DoubleSeq@CORBA@@QEAA@XZ
??1DoubleSeq_var@CORBA@@QEAA@XZ
??1DynAny@DynamicAny@@MEAA@XZ
??1DynAnyConstrBase@omni@@UEAA@XZ
??1DynAnyFactory@DynamicAny@@UEAA@XZ
??1DynAnyFactoryImpl@omni@@UEAA@XZ
??1DynAnyImpl@omni@@UEAA@XZ
??1DynAnyImplBase@omni@@UEAA@XZ
??1DynArray@DynamicAny@@UEAA@XZ
??1DynArrayImpl@omni@@UEAA@XZ
??1DynEnum@DynamicAny@@UEAA@XZ
??1DynEnumImpl@omni@@UEAA@XZ
??1DynFixed@DynamicAny@@UEAA@XZ
??1DynFixedImpl@omni@@UEAA@XZ
??1DynSequence@DynamicAny@@UEAA@XZ
??1DynSequenceImpl@omni@@UEAA@XZ
??1DynStruct@DynamicAny@@UEAA@XZ
??1DynStructImpl@omni@@UEAA@XZ
??1DynUnion@DynamicAny@@UEAA@XZ
??1DynUnionDisc@omni@@UEAA@XZ
??1DynUnionEnumDisc@omni@@UEAA@XZ
??1DynUnionImpl@omni@@UEAA@XZ
??1DynValue@DynamicAny@@UEAA@XZ
??1DynValueBox@DynamicAny@@UEAA@XZ
??1DynValueBoxImpl@omni@@UEAA@XZ
??1DynValueCommon@DynamicAny@@UEAA@XZ
??1DynValueImpl@omni@@UEAA@XZ
??1DynamicImplementation@PortableServer@@UEAA@XZ
??1Entry@omniTypeCodeCollection@omni@@QEAA@XZ
??1EnumDef@POA_CORBA@@UEAA@XZ
??1EnumMemberSeq@CORBA@@QEAA@XZ
??1EnumMemberSeq_var@CORBA@@QEAA@XZ
??1Environment@CORBA@@UEAA@XZ
??1EnvironmentImpl@omni@@UEAA@XZ
??1ExcDescriptionSeq@CORBA@@QEAA@XZ
??1ExceptionDef@POA_CORBA@@UEAA@XZ
??1ExceptionDefSeq@CORBA@@QEAA@XZ
??1ExceptionDefSeq_var@CORBA@@QEAA@XZ
??1ExceptionDescription@CORBA@@QEAA@XZ
??1ExceptionHolder@Messaging@@MEAA@XZ
??1ExceptionHolder@OBV_Messaging@@MEAA@XZ
??1ExceptionHolder@omniAMI@@UEAA@XZ
??1ExceptionList@CORBA@@UEAA@XZ
??1ExceptionListImpl@omni@@UEAA@XZ
??1FixedDef@POA_CORBA@@UEAA@XZ
??1FloatSeq@CORBA@@QEAA@XZ
??1FloatSeq_var@CORBA@@QEAA@XZ
??1FromAnyUserException@omni@@UEAA@XZ
??1FullInterfaceDescription@InterfaceDef@CORBA@@QEAA@XZ
??1FullValueDescription@ValueDef@CORBA@@QEAA@XZ
??1HolderU@omniCodeSetUtil@omni@@QEAA@XZ
??1IDLType@POA_CORBA@@UEAA@XZ
??1IRObject@POA_CORBA@@UEAA@XZ
??1InconsistentTypeCode@DynAnyFactory@DynamicAny@@UEAA@XZ
??1InconsistentTypeCode@ORB@CORBA@@UEAA@XZ
??1Initializer@CORBA@@QEAA@XZ
??1InitializerSeq@CORBA@@QEAA@XZ
??1InitializerSeq_var@CORBA@@QEAA@XZ
??1InputValueTracker@omni@@UEAA@XZ
??1InterfaceDef@POA_CORBA@@UEAA@XZ
??1InterfaceDefSeq@CORBA@@QEAA@XZ
??1InterfaceDefSeq_var@CORBA@@QEAA@XZ
??1InterfaceDescription@CORBA@@QEAA@XZ
??1InvalidValue@DynAny@DynamicAny@@UEAA@XZ
??1LongLongSeq@CORBA@@QEAA@XZ
??1LongLongSeq_var@CORBA@@QEAA@XZ
??1LongSeq@CORBA@@QEAA@XZ
??1LongSeq_var@CORBA@@QEAA@XZ
??1ModuleDef@POA_CORBA@@UEAA@XZ
??1ModuleDescription@CORBA@@QEAA@XZ
??1NVList@CORBA@@UEAA@XZ
??1NVListImpl@omni@@UEAA@XZ
??1Name@CosNaming@@QEAA@XZ
??1NameComponent@CosNaming@@QEAA@XZ
??1NameDynAnyPair@DynamicAny@@QEAA@XZ
??1NameValuePair@DynamicAny@@QEAA@XZ
??1NameValuePairSeq@DynamicAny@@QEAA@XZ
??1NamedValue@CORBA@@UEAA@XZ
??1NamedValueImpl@omni@@UEAA@XZ
??1NativeDef@POA_CORBA@@UEAA@XZ
??1NoPossiblePollable@PollableSet@CORBA@@UEAA@XZ
??1ObjIdList@CORBA_InitialReferences@@QEAA@XZ
??1ObjectId@PortableServer@@QEAA@XZ
??1Object_Member@CORBA@@QEAA@XZ
??1Object_var@CORBA@@QEAA@XZ
??1OctetSeq@CORBA@@QEAA@XZ
??1OctetSeq_var@CORBA@@QEAA@XZ
??1OpDescriptionSeq@CORBA@@QEAA@XZ
??1OperationDef@POA_CORBA@@UEAA@XZ
??1OperationDescription@CORBA@@QEAA@XZ
??1OutputValueTracker@omni@@UEAA@XZ
??1ParDescriptionSeq@CORBA@@QEAA@XZ
??1ParDescriptionSeq_var@CORBA@@QEAA@XZ
??1ParameterDescription@CORBA@@QEAA@XZ
??1Pollable@CORBA@@MEAA@XZ
??1PollableSet@CORBA@@MEAA@XZ
??1PollableSetImpl@omniAMI@@UEAA@XZ
??1Poller@Messaging@@MEAA@XZ
??1PollerImpl@omniAMI@@UEAA@XZ
??1PrimitiveDef@POA_CORBA@@UEAA@XZ
??1PseudoObjBase@omni@@UEAA@XZ
??1ReplyHandler@POA_Messaging@@UEAA@XZ
??1Repository@POA_CORBA@@UEAA@XZ
??1RepositoryIdSeq@CORBA@@QEAA@XZ
??1Request@CORBA@@UEAA@XZ
??1RequestImpl@omni@@UEAA@XZ
??1SequenceDef@POA_CORBA@@UEAA@XZ
??1ServerRequest@CORBA@@MEAA@XZ
??1ServiceContext@IOP@@QEAA@XZ
??1ShortSeq@CORBA@@QEAA@XZ
??1ShortSeq_var@CORBA@@QEAA@XZ
??1StringDef@POA_CORBA@@UEAA@XZ
??1StringSeq@CORBA@@QEAA@XZ
??1StringValue@CORBA@@MEAA@XZ
??1StructDef@POA_CORBA@@UEAA@XZ
??1StructMember@CORBA@@QEAA@XZ
??1StructMemberSeq@CORBA@@QEAA@XZ
??1StructMemberSeq_var@CORBA@@QEAA@XZ
??1TaggedComponent@IOP@@QEAA@XZ
??1TaggedProfile@IOP@@QEAA@XZ
??1TcUnionMember@TypeCode_union@omni@@QEAA@XZ
??1TypeCode@CORBA@@UEAA@XZ
??1TypeCodeSeq@omniTypedefs@@QEAA@XZ
??1TypeCode_abstract_interface@omni@@UEAA@XZ
??1TypeCode_alias@omni@@UEAA@XZ
??1TypeCode_alignTable@omni@@QEAA@XZ
??1TypeCode_array@omni@@UEAA@XZ
??1TypeCode_base@omni@@UEAA@XZ
??1TypeCode_enum@omni@@UEAA@XZ
??1TypeCode_except@omni@@UEAA@XZ
??1TypeCode_fixed@omni@@UEAA@XZ
??1TypeCode_indirect@omni@@UEAA@XZ
??1TypeCode_local_interface@omni@@UEAA@XZ
??1TypeCode_member@CORBA@@QEAA@XZ
??1TypeCode_objref@omni@@UEAA@XZ
??1TypeCode_offsetTable@omni@@QEAA@XZ
??1TypeCode_sequence@omni@@UEAA@XZ
??1TypeCode_string@omni@@UEAA@XZ
??1TypeCode_struct@omni@@UEAA@XZ
??1TypeCode_union@omni@@UEAA@XZ
??1TypeCode_value@omni@@UEAA@XZ
??1TypeCode_value_box@omni@@UEAA@XZ
??1TypeCode_var@CORBA@@QEAA@XZ
??1TypeCode_wstring@omni@@UEAA@XZ
??1TypeDescription@CORBA@@QEAA@XZ
??1TypeMismatch@DynAny@DynamicAny@@UEAA@XZ
??1TypedefDef@POA_CORBA@@UEAA@XZ
??1ULongLongSeq@CORBA@@QEAA@XZ
??1ULongLongSeq_var@CORBA@@QEAA@XZ
??1ULongSeq@CORBA@@QEAA@XZ
??1ULongSeq_var@CORBA@@QEAA@XZ
??1UShortSeq@CORBA@@QEAA@XZ
??1UShortSeq_var@CORBA@@QEAA@XZ
??1UnionDef@POA_CORBA@@UEAA@XZ
??1UnionMember@CORBA@@QEAA@XZ
??1UnionMemberSeq@CORBA@@QEAA@XZ
??1UnionMemberSeq_var@CORBA@@QEAA@XZ
??1UnknownPollable@PollableSet@CORBA@@UEAA@XZ
??1UnknownUserException@CORBA@@UEAA@XZ
??1UnknownValue@omni@@UEAA@XZ
??1ValueBase@CORBA@@MEAA@XZ
??1ValueBaseSeq@omniTypedefs@@QEAA@XZ
??1ValueBaseSeq_var@omniTypedefs@@QEAA@XZ
??1ValueBase_var@CORBA@@QEAA@XZ
??1ValueBoxDef@POA_CORBA@@UEAA@XZ
??1ValueDef@POA_CORBA@@UEAA@XZ
??1ValueDefSeq@CORBA@@QEAA@XZ
??1ValueDefSeq_var@CORBA@@QEAA@XZ
??1ValueDescription@CORBA@@QEAA@XZ
??1ValueFactoryBase@CORBA@@UEAA@XZ
??1ValueMember@CORBA@@QEAA@XZ
??1ValueMemberDef@POA_CORBA@@UEAA@XZ
??1ValueMemberSeq@CORBA@@QEAA@XZ
??1ValueRefCountBase@PortableServer@@MEAA@XZ
??1WCharSeq@CORBA@@QEAA@XZ
??1WCharSeq_var@CORBA@@QEAA@XZ
??1WStringSeq@CORBA@@QEAA@XZ
??1WStringValue@CORBA@@MEAA@XZ
??1WrongTransaction@CORBA@@UEAA@XZ
??1WstringDef@POA_CORBA@@UEAA@XZ
??1_0RL_CORBA_StringValue_init@@UEAA@XZ
??1_0RL_CORBA_StringValue_install@@QEAA@XZ
??1_0RL_CORBA_WStringValue_init@@UEAA@XZ
??1_0RL_CORBA_WStringValue_install@@QEAA@XZ
??1_0RL_cd_7963219a43724a61_00000000@@UEAA@XZ
??1_0RL_cd_7963219a43724a61_04000000@@UEAA@XZ
??1_0RL_cd_7963219a43724a61_06000000@@UEAA@XZ
??1_0RL_cd_7963219a43724a61_08000000@@UEAA@XZ
??1_0RL_cd_7963219a43724a61_0b000000@@UEAA@XZ
??1_0RL_cd_7963219a43724a61_11000000@@UEAA@XZ
??1_0RL_cd_7963219a43724a61_12000000@@UEAA@XZ
??1_0RL_cd_7963219a43724a61_13000000@@UEAA@XZ
??1_0RL_cd_7963219a43724a61_15000000@@UEAA@XZ
??1_0RL_cd_7963219a43724a61_19000000@@UEAA@XZ
??1_0RL_cd_7963219a43724a61_1a000000@@UEAA@XZ
??1_0RL_cd_7963219a43724a61_1c000000@@UEAA@XZ
??1_0RL_cd_7963219a43724a61_20000000@@UEAA@XZ
??1_0RL_cd_7963219a43724a61_24000000@@UEAA@XZ
??1_0RL_cd_7963219a43724a61_26000000@@UEAA@XZ
??1_0RL_cd_7963219a43724a61_28000000@@UEAA@XZ
??1_0RL_cd_7963219a43724a61_2b000000@@UEAA@XZ
??1_0RL_cd_7963219a43724a61_31000000@@UEAA@XZ
??1_0RL_cd_7963219a43724a61_32000000@@UEAA@XZ
??1_0RL_cd_7963219a43724a61_33000000@@UEAA@XZ
??1_0RL_cd_7963219a43724a61_39000000@@UEAA@XZ
??1_0RL_cd_7963219a43724a61_40000000@@UEAA@XZ
??1_0RL_cd_7963219a43724a61_44000000@@UEAA@XZ
??1_0RL_cd_7963219a43724a61_46000000@@UEAA@XZ
??1_0RL_cd_7963219a43724a61_4b000000@@UEAA@XZ
??1_0RL_cd_7963219a43724a61_51000000@@UEAA@XZ
??1_0RL_cd_7963219a43724a61_52000000@@UEAA@XZ
??1_0RL_cd_7963219a43724a61_53000000@@UEAA@XZ
??1_0RL_cd_7963219a43724a61_59000000@@UEAA@XZ
??1_0RL_cd_7963219a43724a61_60000000@@UEAA@XZ
??1_0RL_cd_7963219a43724a61_65000000@@UEAA@XZ
??1_0RL_cd_7963219a43724a61_6b000000@@UEAA@XZ
??1_0RL_cd_7963219a43724a61_71000000@@UEAA@XZ
??1_0RL_cd_7963219a43724a61_72000000@@UEAA@XZ
??1_0RL_cd_7963219a43724a61_74000000@@UEAA@XZ
??1_0RL_cd_7963219a43724a61_78000000@@UEAA@XZ
??1_0RL_cd_7963219a43724a61_79000000@@UEAA@XZ
??1_0RL_cd_7963219a43724a61_83000000@@UEAA@XZ
??1_0RL_cd_7963219a43724a61_85000000@@UEAA@XZ
??1_0RL_cd_7963219a43724a61_86000000@@UEAA@XZ
??1_0RL_cd_7963219a43724a61_8b000000@@UEAA@XZ
??1_0RL_cd_7963219a43724a61_91000000@@UEAA@XZ
??1_0RL_cd_7963219a43724a61_92000000@@UEAA@XZ
??1_0RL_cd_7963219a43724a61_94000000@@UEAA@XZ
??1_0RL_cd_7963219a43724a61_98000000@@UEAA@XZ
??1_0RL_cd_7963219a43724a61_99000000@@UEAA@XZ
??1_0RL_cd_7963219a43724a61_a3000000@@UEAA@XZ
??1_0RL_cd_7963219a43724a61_a5000000@@UEAA@XZ
??1_0RL_cd_7963219a43724a61_a6000000@@UEAA@XZ
??1_0RL_cd_7963219a43724a61_aa000000@@UEAA@XZ
??1_0RL_cd_7963219a43724a61_b1000000@@UEAA@XZ
??1_0RL_cd_7963219a43724a61_b2000000@@UEAA@XZ
??1_0RL_cd_7963219a43724a61_b4000000@@UEAA@XZ
??1_0RL_cd_7963219a43724a61_b8000000@@UEAA@XZ
??1_0RL_cd_7963219a43724a61_b9000000@@UEAA@XZ
??1_0RL_cd_7963219a43724a61_c0000000@@UEAA@XZ
??1_0RL_cd_7963219a43724a61_c3000000@@UEAA@XZ
??1_0RL_cd_7963219a43724a61_c5000000@@UEAA@XZ
??1_0RL_cd_7963219a43724a61_c6000000@@UEAA@XZ
??1_0RL_cd_7963219a43724a61_ca000000@@UEAA@XZ
??1_0RL_cd_7963219a43724a61_d1000000@@UEAA@XZ
??1_0RL_cd_7963219a43724a61_d2000000@@UEAA@XZ
??1_0RL_cd_7963219a43724a61_d4000000@@UEAA@XZ
??1_0RL_cd_7963219a43724a61_d8000000@@UEAA@XZ
??1_0RL_cd_7963219a43724a61_d9000000@@UEAA@XZ
??1_0RL_cd_7963219a43724a61_e3000000@@UEAA@XZ
??1_0RL_cd_7963219a43724a61_e6000000@@UEAA@XZ
??1_0RL_cd_7963219a43724a61_ea000000@@UEAA@XZ
??1_0RL_cd_7963219a43724a61_f0000000@@UEAA@XZ
??1_0RL_cd_7963219a43724a61_f1000000@@UEAA@XZ
??1_0RL_cd_7963219a43724a61_f2000000@@UEAA@XZ
??1_0RL_cd_7963219a43724a61_f4000000@@UEAA@XZ
??1_0RL_cd_7963219a43724a61_f8000000@@UEAA@XZ
??1_0RL_cd_7963219a43724a61_f9000000@@UEAA@XZ
??1_0RL_cd_7963219a43724a61_fb000000@@UEAA@XZ
??1_CORBA_Sequence_Boolean@@IEAA@XZ
??1_CORBA_Sequence_Char@@IEAA@XZ
??1_CORBA_Sequence_Octet@@IEAA@XZ
??1_CORBA_Sequence_String@@QEAA@XZ
??1_CORBA_Sequence_WChar@@IEAA@XZ
??1_CORBA_Sequence_WString@@QEAA@XZ
??1_CORBA_String_element@@QEAA@XZ
??1_CORBA_String_member@@QEAA@XZ
??1_CORBA_String_var@@QEAA@XZ
??1_CORBA_Unbounded_Sequence_Boolean@@QEAA@XZ
??1_CORBA_Unbounded_Sequence_Char@@QEAA@XZ
??1_CORBA_Unbounded_Sequence_Octet@@QEAA@XZ
??1_CORBA_Unbounded_Sequence_String@@QEAA@XZ
??1_CORBA_Unbounded_Sequence_WChar@@QEAA@XZ
??1_CORBA_Unbounded_Sequence_WString@@QEAA@XZ
??1_CORBA_WString_element@@QEAA@XZ
??1_Tracker@TypeCode@CORBA@@QEAA@XZ
??1_cCORBA_mObject_i_cstring@omniStdCallDesc@@UEAA@XZ
??1_impl_AbstractInterfaceDef@CORBA@@UEAA@XZ
??1_impl_AliasDef@CORBA@@UEAA@XZ
??1_impl_ArrayDef@CORBA@@UEAA@XZ
??1_impl_AttributeDef@CORBA@@UEAA@XZ
??1_impl_ConstantDef@CORBA@@UEAA@XZ
??1_impl_Contained@CORBA@@UEAA@XZ
??1_impl_Container@CORBA@@UEAA@XZ
??1_impl_EnumDef@CORBA@@UEAA@XZ
??1_impl_ExceptionDef@CORBA@@UEAA@XZ
??1_impl_FixedDef@CORBA@@UEAA@XZ
??1_impl_IDLType@CORBA@@UEAA@XZ
??1_impl_IRObject@CORBA@@UEAA@XZ
??1_impl_InterfaceDef@CORBA@@UEAA@XZ
??1_impl_ModuleDef@CORBA@@UEAA@XZ
??1_impl_NativeDef@CORBA@@UEAA@XZ
??1_impl_OperationDef@CORBA@@UEAA@XZ
??1_impl_PrimitiveDef@CORBA@@UEAA@XZ
??1_impl_ReplyHandler@Messaging@@UEAA@XZ
??1_impl_Repository@CORBA@@UEAA@XZ
??1_impl_SequenceDef@CORBA@@UEAA@XZ
??1_impl_StringDef@CORBA@@UEAA@XZ
??1_impl_StructDef@CORBA@@UEAA@XZ
??1_impl_TypedefDef@CORBA@@UEAA@XZ
??1_impl_UnionDef@CORBA@@UEAA@XZ
??1_impl_ValueBoxDef@CORBA@@UEAA@XZ
??1_impl_ValueDef@CORBA@@UEAA@XZ
??1_impl_ValueMemberDef@CORBA@@UEAA@XZ
??1_impl_WstringDef@CORBA@@UEAA@XZ
??1_nil_PollableSet@CORBA@@MEAA@XZ
??1_objref_AbstractInterfaceDef@CORBA@@MEAA@XZ
??1_objref_AliasDef@CORBA@@MEAA@XZ
??1_objref_ArrayDef@CORBA@@MEAA@XZ
??1_objref_AttributeDef@CORBA@@MEAA@XZ
??1_objref_ConstantDef@CORBA@@MEAA@XZ
??1_objref_Contained@CORBA@@MEAA@XZ
??1_objref_Container@CORBA@@MEAA@XZ
??1_objref_EnumDef@CORBA@@MEAA@XZ
??1_objref_ExceptionDef@CORBA@@MEAA@XZ
??1_objref_FixedDef@CORBA@@MEAA@XZ
??1_objref_IDLType@CORBA@@MEAA@XZ
??1_objref_IRObject@CORBA@@MEAA@XZ
??1_objref_InterfaceDef@CORBA@@MEAA@XZ
??1_objref_ModuleDef@CORBA@@MEAA@XZ
??1_objref_NativeDef@CORBA@@MEAA@XZ
??1_objref_OperationDef@CORBA@@MEAA@XZ
??1_objref_PrimitiveDef@CORBA@@MEAA@XZ
??1_objref_ReplyHandler@Messaging@@MEAA@XZ
??1_objref_Repository@CORBA@@MEAA@XZ
??1_objref_SequenceDef@CORBA@@MEAA@XZ
??1_objref_StringDef@CORBA@@MEAA@XZ
??1_objref_StructDef@CORBA@@MEAA@XZ
??1_objref_TypedefDef@CORBA@@MEAA@XZ
??1_objref_UnionDef@CORBA@@MEAA@XZ
??1_objref_ValueBoxDef@CORBA@@MEAA@XZ
??1_objref_ValueDef@CORBA@@MEAA@XZ
??1_objref_ValueMemberDef@CORBA@@MEAA@XZ
??1_objref_WstringDef@CORBA@@MEAA@XZ
??1_pof_AbstractInterfaceDef@CORBA@@UEAA@XZ
??1_pof_AliasDef@CORBA@@UEAA@XZ
??1_pof_ArrayDef@CORBA@@UEAA@XZ
??1_pof_AttributeDef@CORBA@@UEAA@XZ
??1_pof_ConstantDef@CORBA@@UEAA@XZ
??1_pof_Contained@CORBA@@UEAA@XZ
??1_pof_Container@CORBA@@UEAA@XZ
??1_pof_EnumDef@CORBA@@UEAA@XZ
??1_pof_ExceptionDef@CORBA@@UEAA@XZ
??1_pof_FixedDef@CORBA@@UEAA@XZ
??1_pof_IDLType@CORBA@@UEAA@XZ
??1_pof_IRObject@CORBA@@UEAA@XZ
??1_pof_InterfaceDef@CORBA@@UEAA@XZ
??1_pof_ModuleDef@CORBA@@UEAA@XZ
??1_pof_NativeDef@CORBA@@UEAA@XZ
??1_pof_OperationDef@CORBA@@UEAA@XZ
??1_pof_PrimitiveDef@CORBA@@UEAA@XZ
??1_pof_ReplyHandler@Messaging@@UEAA@XZ
??1_pof_Repository@CORBA@@UEAA@XZ
??1_pof_SequenceDef@CORBA@@UEAA@XZ
??1_pof_StringDef@CORBA@@UEAA@XZ
??1_pof_StructDef@CORBA@@UEAA@XZ
??1_pof_TypedefDef@CORBA@@UEAA@XZ
??1_pof_UnionDef@CORBA@@UEAA@XZ
??1_pof_ValueBoxDef@CORBA@@UEAA@XZ
??1_pof_ValueDef@CORBA@@UEAA@XZ
??1_pof_ValueMemberDef@CORBA@@UEAA@XZ
??1_pof_WstringDef@CORBA@@UEAA@XZ
??1cdrAnyMemoryStream@@UEAA@XZ
??1cdrEncapsulationStream@@UEAA@XZ
??1dynException_Singleton@@QEAA@XZ
??1fatalException@omniORB@@QEAA@XZ
??1omniCallDescriptor@@UEAA@XZ
??1omniNilContext@omni@@UEAA@XZ
??1omniNilCtList@omni@@UEAA@XZ
??1omniNilDynAny@omni@@UEAA@XZ
??1omniNilDynAnyFactory@omni@@UEAA@XZ
??1omniNilDynArray@omni@@UEAA@XZ
??1omniNilDynEnum@omni@@UEAA@XZ
??1omniNilDynFixed@omni@@UEAA@XZ
??1omniNilDynSequence@omni@@UEAA@XZ
??1omniNilDynStruct@omni@@UEAA@XZ
??1omniNilDynUnion@omni@@UEAA@XZ
??1omniNilDynValue@omni@@UEAA@XZ
??1omniNilDynValueBox@omni@@UEAA@XZ
??1omniNilDynValueCommon@omni@@UEAA@XZ
??1omniNilEnv@omni@@UEAA@XZ
??1omniNilExList@omni@@UEAA@XZ
??1omniNilNV@omni@@UEAA@XZ
??1omniNilNVList@omni@@UEAA@XZ
??1omniNilRequest@omni@@UEAA@XZ
??1omniNilTypeCodeHolder@omni@@UEAA@XZ
??1omniServerRequest@omni@@UEAA@XZ
??1omniTask@@UEAA@XZ
??1omniTrackedObject@omni@@UEAA@XZ
??1omniTypeCodeCollection@omni@@UEAA@XZ
??1omni_interface_CallDesc@omni@@UEAA@XZ
??1omni_mutex_lock@@QEAA@XZ
??1omni_refcount@@QEAA@XZ
??1omni_tracedcondition@@QEAA@XZ
??1omni_tracedmutex@@QEAA@XZ
??1poaCurrentStackInsert@omni@@QEAA@XZ
??1serverRequestCallDescriptor@omni@@UEAA@XZ
??4?$_CORBA_ConstrType_Variable_Var@UDescription@Contained@CORBA@@@@QEAAAEAV0@PEAUDescription@Contained@CORBA@@@Z
??4?$_CORBA_ConstrType_Variable_Var@UFullInterfaceDescription@InterfaceDef@CORBA@@@@QEAAAEAV0@PEAUFullInterfaceDescription@InterfaceDef@CORBA@@@Z
??4?$_CORBA_ConstrType_Variable_Var@UFullValueDescription@ValueDef@CORBA@@@@QEAAAEAV0@PEAUFullValueDescription@ValueDef@CORBA@@@Z
??4?$_CORBA_ObjRef_Element@VDynAny@DynamicAny@@VDynAny_Helper@2@@@QEAAAEAV0@PEAVDynAny@DynamicAny@@@Z
??4?$_CORBA_ObjRef_Member@V_objref_Contained@CORBA@@VContained_Helper@2@@@QEAAAEAV0@AEBV0@@Z
??4?$_CORBA_ObjRef_Member@V_objref_Contained@CORBA@@VContained_Helper@2@@@QEAAAEAV0@PEAV_objref_Contained@CORBA@@@Z
??4?$_CORBA_ObjRef_Member@V_objref_IDLType@CORBA@@VIDLType_Helper@2@@@QEAAAEAV0@AEBV0@@Z
??4?$_CORBA_ObjRef_Member@V_objref_IDLType@CORBA@@VIDLType_Helper@2@@@QEAAAEAV0@PEAV_objref_IDLType@CORBA@@@Z
??4?$_CORBA_ObjRef_Var@V_objref_AbstractInterfaceDef@CORBA@@VAbstractInterfaceDef_Helper@2@@@QEAAAEAV0@PEAV_objref_AbstractInterfaceDef@CORBA@@@Z
??4?$_CORBA_ObjRef_Var@V_objref_AliasDef@CORBA@@VAliasDef_Helper@2@@@QEAAAEAV0@PEAV_objref_AliasDef@CORBA@@@Z
??4?$_CORBA_ObjRef_Var@V_objref_ArrayDef@CORBA@@VArrayDef_Helper@2@@@QEAAAEAV0@PEAV_objref_ArrayDef@CORBA@@@Z
??4?$_CORBA_ObjRef_Var@V_objref_AttributeDef@CORBA@@VAttributeDef_Helper@2@@@QEAAAEAV0@PEAV_objref_AttributeDef@CORBA@@@Z
??4?$_CORBA_ObjRef_Var@V_objref_ConstantDef@CORBA@@VConstantDef_Helper@2@@@QEAAAEAV0@PEAV_objref_ConstantDef@CORBA@@@Z
??4?$_CORBA_ObjRef_Var@V_objref_Contained@CORBA@@VContained_Helper@2@@@QEAAAEAV0@PEAV_objref_Contained@CORBA@@@Z
??4?$_CORBA_ObjRef_Var@V_objref_Container@CORBA@@VContainer_Helper@2@@@QEAAAEAV0@PEAV_objref_Container@CORBA@@@Z
??4?$_CORBA_ObjRef_Var@V_objref_EnumDef@CORBA@@VEnumDef_Helper@2@@@QEAAAEAV0@PEAV_objref_EnumDef@CORBA@@@Z
??4?$_CORBA_ObjRef_Var@V_objref_ExceptionDef@CORBA@@VExceptionDef_Helper@2@@@QEAAAEAV0@PEAV_objref_ExceptionDef@CORBA@@@Z
??4?$_CORBA_ObjRef_Var@V_objref_FixedDef@CORBA@@VFixedDef_Helper@2@@@QEAAAEAV0@PEAV_objref_FixedDef@CORBA@@@Z
??4?$_CORBA_ObjRef_Var@V_objref_IDLType@CORBA@@VIDLType_Helper@2@@@QEAAAEAV0@PEAV_objref_IDLType@CORBA@@@Z
??4?$_CORBA_ObjRef_Var@V_objref_InterfaceDef@CORBA@@VInterfaceDef_Helper@2@@@QEAAAEAV0@PEAV_objref_InterfaceDef@CORBA@@@Z
??4?$_CORBA_ObjRef_Var@V_objref_ModuleDef@CORBA@@VModuleDef_Helper@2@@@QEAAAEAV0@PEAV_objref_ModuleDef@CORBA@@@Z
??4?$_CORBA_ObjRef_Var@V_objref_NativeDef@CORBA@@VNativeDef_Helper@2@@@QEAAAEAV0@PEAV_objref_NativeDef@CORBA@@@Z
??4?$_CORBA_ObjRef_Var@V_objref_OperationDef@CORBA@@VOperationDef_Helper@2@@@QEAAAEAV0@PEAV_objref_OperationDef@CORBA@@@Z
??4?$_CORBA_ObjRef_Var@V_objref_PrimitiveDef@CORBA@@VPrimitiveDef_Helper@2@@@QEAAAEAV0@PEAV_objref_PrimitiveDef@CORBA@@@Z
??4?$_CORBA_ObjRef_Var@V_objref_Repository@CORBA@@VRepository_Helper@2@@@QEAAAEAV0@PEAV_objref_Repository@CORBA@@@Z
??4?$_CORBA_ObjRef_Var@V_objref_SequenceDef@CORBA@@VSequenceDef_Helper@2@@@QEAAAEAV0@PEAV_objref_SequenceDef@CORBA@@@Z
??4?$_CORBA_ObjRef_Var@V_objref_StringDef@CORBA@@VStringDef_Helper@2@@@QEAAAEAV0@PEAV_objref_StringDef@CORBA@@@Z
??4?$_CORBA_ObjRef_Var@V_objref_StructDef@CORBA@@VStructDef_Helper@2@@@QEAAAEAV0@PEAV_objref_StructDef@CORBA@@@Z
??4?$_CORBA_ObjRef_Var@V_objref_UnionDef@CORBA@@VUnionDef_Helper@2@@@QEAAAEAV0@PEAV_objref_UnionDef@CORBA@@@Z
??4?$_CORBA_ObjRef_Var@V_objref_ValueBoxDef@CORBA@@VValueBoxDef_Helper@2@@@QEAAAEAV0@PEAV_objref_ValueBoxDef@CORBA@@@Z
??4?$_CORBA_ObjRef_Var@V_objref_ValueDef@CORBA@@VValueDef_Helper@2@@@QEAAAEAV0@PEAV_objref_ValueDef@CORBA@@@Z
??4?$_CORBA_ObjRef_Var@V_objref_ValueMemberDef@CORBA@@VValueMemberDef_Helper@2@@@QEAAAEAV0@PEAV_objref_ValueMemberDef@CORBA@@@Z
??4?$_CORBA_ObjRef_Var@V_objref_WstringDef@CORBA@@VWstringDef_Helper@2@@@QEAAAEAV0@PEAV_objref_WstringDef@CORBA@@@Z
??4?$_CORBA_PseudoObj_Member@VDynAny@DynamicAny@@V?$_CORBA_PseudoObj_Var@VDynAny@DynamicAny@@@@@@QEAAAEAV0@AEBV0@@Z
??4?$_CORBA_PseudoObj_Member@VDynAny@DynamicAny@@V?$_CORBA_PseudoObj_Var@VDynAny@DynamicAny@@@@@@QEAAAEAV0@PEAVDynAny@DynamicAny@@@Z
??4?$_CORBA_PseudoObj_Out@VContext@CORBA@@V?$_CORBA_PseudoObj_Var@VContext@CORBA@@@@@@QEAAAEAV0@PEAVContext@CORBA@@@Z
??4?$_CORBA_PseudoObj_Out@VContextList@CORBA@@V?$_CORBA_PseudoObj_Var@VContextList@CORBA@@@@@@QEAAAEAV0@PEAVContextList@CORBA@@@Z
??4?$_CORBA_PseudoObj_Out@VEnvironment@CORBA@@V?$_CORBA_PseudoObj_Var@VEnvironment@CORBA@@@@@@QEAAAEAV0@PEAVEnvironment@CORBA@@@Z
??4?$_CORBA_PseudoObj_Out@VExceptionList@CORBA@@V?$_CORBA_PseudoObj_Var@VExceptionList@CORBA@@@@@@QEAAAEAV0@PEAVExceptionList@CORBA@@@Z
??4?$_CORBA_PseudoObj_Out@VNVList@CORBA@@V?$_CORBA_PseudoObj_Var@VNVList@CORBA@@@@@@QEAAAEAV0@PEAVNVList@CORBA@@@Z
??4?$_CORBA_PseudoObj_Out@VNamedValue@CORBA@@V?$_CORBA_PseudoObj_Var@VNamedValue@CORBA@@@@@@QEAAAEAV0@PEAVNamedValue@CORBA@@@Z
??4?$_CORBA_PseudoObj_Out@VRequest@CORBA@@V?$_CORBA_PseudoObj_Var@VRequest@CORBA@@@@@@QEAAAEAV0@PEAVRequest@CORBA@@@Z
??4?$_CORBA_PseudoObj_Var@VContext@CORBA@@@@QEAAAEAV0@PEAVContext@CORBA@@@Z
??4?$_CORBA_PseudoObj_Var@VContextList@CORBA@@@@QEAAAEAV0@PEAVContextList@CORBA@@@Z
??4?$_CORBA_PseudoObj_Var@VExceptionList@CORBA@@@@QEAAAEAV0@PEAVExceptionList@CORBA@@@Z
??4?$_CORBA_PseudoObj_Var@VNVList@CORBA@@@@QEAAAEAV0@PEAVNVList@CORBA@@@Z
??4?$_CORBA_PseudoObj_Var@VNamedValue@CORBA@@@@QEAAAEAV0@PEAVNamedValue@CORBA@@@Z
??4?$_CORBA_Sequence@UExceptionDescription@CORBA@@@@IEAAAEAV0@AEBV0@@Z
??4?$_CORBA_Sequence@UNameComponent@CosNaming@@@@IEAAAEAV0@AEBV0@@Z
??4?$_CORBA_Sequence@UParameterDescription@CORBA@@@@IEAAAEAV0@AEBV0@@Z
??4?$_CORBA_Sequence@UStructMember@CORBA@@@@IEAAAEAV0@AEBV0@@Z
??4?$_CORBA_Unbounded_Sequence@UExceptionDescription@CORBA@@@@QEAAAEAV0@AEBV0@@Z
??4?$_CORBA_Unbounded_Sequence@UNameComponent@CosNaming@@@@QEAAAEAV0@AEBV0@@Z
??4?$_CORBA_Unbounded_Sequence@UParameterDescription@CORBA@@@@QEAAAEAV0@AEBV0@@Z
??4?$_CORBA_Unbounded_Sequence@UStructMember@CORBA@@@@QEAAAEAV0@AEBV0@@Z
??4?$_CORBA_Value_Element@VPollerImpl@omniAMI@@VPoller_Helper@Messaging@@@@QEAAAEAV0@AEBV0@@Z
??4?$_CORBA_Value_Element@VPollerImpl@omniAMI@@VPoller_Helper@Messaging@@@@QEAAAEAV0@PEAVPollerImpl@omniAMI@@@Z
??4?$_CORBA_Value_Element@VValueBase@CORBA@@VValueBase_Helper@2@@@QEAAAEAV0@PEAVValueBase@CORBA@@@Z
??4AbstractInterfaceDefSeq_var@CORBA@@QEAAAEAV01@PEAVAbstractInterfaceDefSeq@1@@Z
??4Any@CORBA@@QEAAAEAV01@AEBV01@@Z
??4Any_var@CORBA@@QEAAAEAV01@PEAVAny@1@@Z
??4AttributeDescription@CORBA@@QEAAAEAU01@AEBU01@@Z
??4Binding@CosNaming@@QEAAAEAU01@AEBU01@@Z
??4ContainedSeq_var@CORBA@@QEAAAEAV01@PEAVContainedSeq@1@@Z
??4ContextIdSeq@CORBA@@QEAAAEAV01@AEBV01@@Z
??4ContextIdSeq_var@CORBA@@QEAAAEAV01@PEAVContextIdSeq@1@@Z
??4Description@Container@CORBA@@QEAAAEAU012@AEBU012@@Z
??4DescriptionSeq_var@Container@CORBA@@QEAAAEAV012@PEAVDescriptionSeq@12@@Z
??4EnumMemberSeq@CORBA@@QEAAAEAV01@AEBV01@@Z
??4EnumMemberSeq_var@CORBA@@QEAAAEAV01@PEAVEnumMemberSeq@1@@Z
??4ExcDescriptionSeq@CORBA@@QEAAAEAV01@AEBV01@@Z
??4Exception@CORBA@@IEAAAEAV01@AEBV01@@Z
??4ExceptionDefSeq_var@CORBA@@QEAAAEAV01@PEAVExceptionDefSeq@1@@Z
??4ExceptionDescription@CORBA@@QEAAAEAU01@AEBU01@@Z
??4Initializer@CORBA@@QEAAAEAU01@AEBU01@@Z
??4InitializerSeq_var@CORBA@@QEAAAEAV01@PEAVInitializerSeq@1@@Z
??4InterfaceDefSeq_var@CORBA@@QEAAAEAV01@PEAVInterfaceDefSeq@1@@Z
??4Name@CosNaming@@QEAAAEAV01@AEBV01@@Z
??4NameComponent@CosNaming@@QEAAAEAU01@AEBU01@@Z
??4NameDynAnyPair@DynamicAny@@QEAAAEAU01@AEBU01@@Z
??4NameValuePair@DynamicAny@@QEAAAEAU01@AEBU01@@Z
??4NoPossiblePollable@PollableSet@CORBA@@QEAAAEAV012@AEBV012@@Z
??4Object_var@CORBA@@QEAAAEAV01@PEAVObject@1@@Z
??4OperationDescription@CORBA@@QEAAAEAU01@AEBU01@@Z
??4ParDescriptionSeq@CORBA@@QEAAAEAV01@AEBV01@@Z
??4ParDescriptionSeq_var@CORBA@@QEAAAEAV01@PEAVParDescriptionSeq@1@@Z
??4ParameterDescription@CORBA@@QEAAAEAU01@AEBU01@@Z
??4StructMember@CORBA@@QEAAAEAU01@AEBU01@@Z
??4StructMemberSeq@CORBA@@QEAAAEAV01@AEBV01@@Z
??4StructMemberSeq_var@CORBA@@QEAAAEAV01@PEAVStructMemberSeq@1@@Z
??4TcUnionMember@TypeCode_union@omni@@QEAAAEAU012@AEBU012@@Z
??4TypeCode_member@CORBA@@QEAAAEAV01@AEBV01@@Z
??4TypeCode_member@CORBA@@QEAAAEAV01@AEBVTypeCode_var@1@@Z
??4TypeCode_member@CORBA@@QEAAAEAV01@PEAVTypeCode@1@@Z
??4TypeCode_var@CORBA@@QEAAAEAV01@PEAVTypeCode@1@@Z
??4UnionMember@CORBA@@QEAAAEAU01@AEBU01@@Z
??4UnionMemberSeq_var@CORBA@@QEAAAEAV01@PEAVUnionMemberSeq@1@@Z
??4UnknownPollable@PollableSet@CORBA@@QEAAAEAV012@AEBV012@@Z
??4UserException@CORBA@@QEAAAEAV01@AEBV01@@Z
??4ValueBaseSeq_var@omniTypedefs@@QEAAAEAV01@PEAVValueBaseSeq@1@@Z
??4ValueBase_var@CORBA@@QEAAAEAV01@PEAVValueBase@1@@Z
??4ValueDefSeq_var@CORBA@@QEAAAEAV01@PEAVValueDefSeq@1@@Z
??4ValueMember@CORBA@@QEAAAEAU01@AEBU01@@Z
??4_CORBA_Sequence_String@@IEAAAEAV0@AEBV0@@Z
??4_CORBA_String_element@@QEAAAEAV0@AEBV0@@Z
??4_CORBA_String_element@@QEAAAEAV0@PEAD@Z
??4_CORBA_String_element@@QEAAAEAV0@PEBD@Z
??4_CORBA_String_member@@QEAAAEAV0@AEBV0@@Z
??4_CORBA_String_member@@QEAAAEAV0@PEAD@Z
??4_CORBA_String_member@@QEAAAEAV0@PEBD@Z
??4_CORBA_String_var@@QEAAAEAV0@PEAD@Z
??4_CORBA_Unbounded_Sequence_String@@QEAAAEAV0@AEBV0@@Z
??4_CORBA_WString_element@@QEAAAEAV0@AEBV0@@Z
??4_CORBA_WString_element@@QEAAAEAV0@PEA_W@Z
??A?$_CORBA_PseudoValue_Sequence@PEAD@@QEAAAEAPEADK@Z
??A?$_CORBA_PseudoValue_Sequence@PEAVNamedValue@CORBA@@@@QEAAAEAPEAVNamedValue@CORBA@@K@Z
??A?$_CORBA_PseudoValue_Sequence@PEAVTypeCode@CORBA@@@@QEAAAEAPEAVTypeCode@CORBA@@K@Z
??A?$_CORBA_PseudoValue_Sequence@UEntry@ContextImpl@omni@@@@QEAAAEAUEntry@ContextImpl@omni@@K@Z
??A?$_CORBA_PseudoValue_Sequence@UEntry@ContextImpl@omni@@@@QEBAAEBUEntry@ContextImpl@omni@@K@Z
??A?$_CORBA_PseudoValue_Sequence@UTcUnionMember@TypeCode_union@omni@@@@QEAAAEAUTcUnionMember@TypeCode_union@omni@@K@Z
??A?$_CORBA_PseudoValue_Sequence@UTcUnionMember@TypeCode_union@omni@@@@QEBAAEBUTcUnionMember@TypeCode_union@omni@@K@Z
??A?$_CORBA_Pseudo_Unbounded_Sequence@VRequest@CORBA@@V?$_CORBA_PseudoObj_Member@VRequest@CORBA@@V?$_CORBA_PseudoObj_Var@VRequest@CORBA@@@@@@@@QEBAAEBV?$_CORBA_PseudoObj_Member@VRequest@CORBA@@V?$_CORBA_PseudoObj_Var@VRequest@CORBA@@@@@@K@Z
??A?$_CORBA_Sequence@UNameDynAnyPair@DynamicAny@@@@QEAAAEAUNameDynAnyPair@DynamicAny@@K@Z
??A?$_CORBA_Sequence@UNameDynAnyPair@DynamicAny@@@@QEBAAEBUNameDynAnyPair@DynamicAny@@K@Z
??A?$_CORBA_Sequence@UNameValuePair@DynamicAny@@@@QEAAAEAUNameValuePair@DynamicAny@@K@Z
??A?$_CORBA_Sequence@UNameValuePair@DynamicAny@@@@QEBAAEBUNameValuePair@DynamicAny@@K@Z
??A?$_CORBA_Sequence@UStructMember@CORBA@@@@QEBAAEBUStructMember@CORBA@@K@Z
??A?$_CORBA_Sequence@UUnionMember@CORBA@@@@QEBAAEBUUnionMember@CORBA@@K@Z
??A?$_CORBA_Sequence@UValueMember@CORBA@@@@QEBAAEBUValueMember@CORBA@@K@Z
??A?$_CORBA_Sequence@VAny@CORBA@@@@QEAAAEAVAny@CORBA@@K@Z
??A?$_CORBA_Sequence@VAny@CORBA@@@@QEBAAEBVAny@CORBA@@K@Z
??A?$_CORBA_Sequence@VTypeCode_member@CORBA@@@@QEAAAEAVTypeCode_member@CORBA@@K@Z
??A?$_CORBA_Sequence_ObjRef@VDynAny@DynamicAny@@V?$_CORBA_ObjRef_Element@VDynAny@DynamicAny@@VDynAny_Helper@2@@@VDynAny_Helper@2@@@QEAA?AV?$_CORBA_ObjRef_Element@VDynAny@DynamicAny@@VDynAny_Helper@2@@@K@Z
??A?$_CORBA_Sequence_ObjRef@VDynAny@DynamicAny@@V?$_CORBA_ObjRef_Element@VDynAny@DynamicAny@@VDynAny_Helper@2@@@VDynAny_Helper@2@@@QEBA?AV?$_CORBA_ObjRef_Element@VDynAny@DynamicAny@@VDynAny_Helper@2@@@K@Z
??A?$_CORBA_Sequence_Value@VPollerImpl@omniAMI@@V?$_CORBA_Value_Element@VPollerImpl@omniAMI@@VPoller_Helper@Messaging@@@@VPoller_Helper@Messaging@@@@QEAA?AV?$_CORBA_Value_Element@VPollerImpl@omniAMI@@VPoller_Helper@Messaging@@@@K@Z
??A?$_CORBA_Sequence_Value@VValueBase@CORBA@@V?$_CORBA_Value_Element@VValueBase@CORBA@@VValueBase_Helper@2@@@VValueBase_Helper@2@@@QEAA?AV?$_CORBA_Value_Element@VValueBase@CORBA@@VValueBase_Helper@2@@@K@Z
??A?$omnivector@PEAVDynAnyImplBase@omni@@@@QEAAAEAPEAVDynAnyImplBase@omni@@_K@Z
??ATypeCode_alignTable@omni@@QEBAAEBUAlignment@01@I@Z
??A_CORBA_Sequence_String@@QEAA?AV_CORBA_String_element@@K@Z
??A_CORBA_Sequence_String@@QEBA?BV_CORBA_String_element@@K@Z
??A_CORBA_Sequence_WString@@QEAA?AV_CORBA_WString_element@@K@Z
??A_CORBA_Sequence_WString@@QEBA?BV_CORBA_WString_element@@K@Z
??B?$_CORBA_ConstrType_Variable_Var@UDescription@Contained@CORBA@@@@QEAAAEAUDescription@Contained@CORBA@@XZ
??B?$_CORBA_ConstrType_Variable_Var@UFullInterfaceDescription@InterfaceDef@CORBA@@@@QEAAAEAUFullInterfaceDescription@InterfaceDef@CORBA@@XZ
??B?$_CORBA_ConstrType_Variable_Var@UFullValueDescription@ValueDef@CORBA@@@@QEAAAEAUFullValueDescription@ValueDef@CORBA@@XZ
??B?$_CORBA_ObjRef_Element@VDynAny@DynamicAny@@VDynAny_Helper@2@@@QEBAPEAVDynAny@DynamicAny@@XZ
??B?$_CORBA_ObjRef_Member@V_objref_Contained@CORBA@@VContained_Helper@2@@@QEBAPEAV_objref_Contained@CORBA@@XZ
??B?$_CORBA_ObjRef_Member@V_objref_IDLType@CORBA@@VIDLType_Helper@2@@@QEBAPEAV_objref_IDLType@CORBA@@XZ
??B?$_CORBA_ObjRef_Var@V_objref_AbstractInterfaceDef@CORBA@@VAbstractInterfaceDef_Helper@2@@@QEBAPEAV_objref_AbstractInterfaceDef@CORBA@@XZ
??B?$_CORBA_ObjRef_Var@V_objref_AliasDef@CORBA@@VAliasDef_Helper@2@@@QEBAPEAV_objref_AliasDef@CORBA@@XZ
??B?$_CORBA_ObjRef_Var@V_objref_ArrayDef@CORBA@@VArrayDef_Helper@2@@@QEBAPEAV_objref_ArrayDef@CORBA@@XZ
??B?$_CORBA_ObjRef_Var@V_objref_AttributeDef@CORBA@@VAttributeDef_Helper@2@@@QEBAPEAV_objref_AttributeDef@CORBA@@XZ
??B?$_CORBA_ObjRef_Var@V_objref_ConstantDef@CORBA@@VConstantDef_Helper@2@@@QEBAPEAV_objref_ConstantDef@CORBA@@XZ
??B?$_CORBA_ObjRef_Var@V_objref_Contained@CORBA@@VContained_Helper@2@@@QEBAPEAV_objref_Contained@CORBA@@XZ
??B?$_CORBA_ObjRef_Var@V_objref_Container@CORBA@@VContainer_Helper@2@@@QEBAPEAV_objref_Container@CORBA@@XZ
??B?$_CORBA_ObjRef_Var@V_objref_EnumDef@CORBA@@VEnumDef_Helper@2@@@QEBAPEAV_objref_EnumDef@CORBA@@XZ
??B?$_CORBA_ObjRef_Var@V_objref_ExceptionDef@CORBA@@VExceptionDef_Helper@2@@@QEBAPEAV_objref_ExceptionDef@CORBA@@XZ
??B?$_CORBA_ObjRef_Var@V_objref_FixedDef@CORBA@@VFixedDef_Helper@2@@@QEBAPEAV_objref_FixedDef@CORBA@@XZ
??B?$_CORBA_ObjRef_Var@V_objref_IDLType@CORBA@@VIDLType_Helper@2@@@QEBAPEAV_objref_IDLType@CORBA@@XZ
??B?$_CORBA_ObjRef_Var@V_objref_InterfaceDef@CORBA@@VInterfaceDef_Helper@2@@@QEBAPEAV_objref_InterfaceDef@CORBA@@XZ
??B?$_CORBA_ObjRef_Var@V_objref_ModuleDef@CORBA@@VModuleDef_Helper@2@@@QEBAPEAV_objref_ModuleDef@CORBA@@XZ
??B?$_CORBA_ObjRef_Var@V_objref_NativeDef@CORBA@@VNativeDef_Helper@2@@@QEBAPEAV_objref_NativeDef@CORBA@@XZ
??B?$_CORBA_ObjRef_Var@V_objref_OperationDef@CORBA@@VOperationDef_Helper@2@@@QEBAPEAV_objref_OperationDef@CORBA@@XZ
??B?$_CORBA_ObjRef_Var@V_objref_PrimitiveDef@CORBA@@VPrimitiveDef_Helper@2@@@QEBAPEAV_objref_PrimitiveDef@CORBA@@XZ
??B?$_CORBA_ObjRef_Var@V_objref_Repository@CORBA@@VRepository_Helper@2@@@QEBAPEAV_objref_Repository@CORBA@@XZ
??B?$_CORBA_ObjRef_Var@V_objref_SequenceDef@CORBA@@VSequenceDef_Helper@2@@@QEBAPEAV_objref_SequenceDef@CORBA@@XZ
??B?$_CORBA_ObjRef_Var@V_objref_StringDef@CORBA@@VStringDef_Helper@2@@@QEBAPEAV_objref_StringDef@CORBA@@XZ
??B?$_CORBA_ObjRef_Var@V_objref_StructDef@CORBA@@VStructDef_Helper@2@@@QEBAPEAV_objref_StructDef@CORBA@@XZ
??B?$_CORBA_ObjRef_Var@V_objref_UnionDef@CORBA@@VUnionDef_Helper@2@@@QEBAPEAV_objref_UnionDef@CORBA@@XZ
??B?$_CORBA_ObjRef_Var@V_objref_ValueBoxDef@CORBA@@VValueBoxDef_Helper@2@@@QEBAPEAV_objref_ValueBoxDef@CORBA@@XZ
??B?$_CORBA_ObjRef_Var@V_objref_ValueDef@CORBA@@VValueDef_Helper@2@@@QEBAPEAV_objref_ValueDef@CORBA@@XZ
??B?$_CORBA_ObjRef_Var@V_objref_ValueMemberDef@CORBA@@VValueMemberDef_Helper@2@@@QEBAPEAV_objref_ValueMemberDef@CORBA@@XZ
??B?$_CORBA_ObjRef_Var@V_objref_WstringDef@CORBA@@VWstringDef_Helper@2@@@QEBAPEAV_objref_WstringDef@CORBA@@XZ
??B?$_CORBA_PseudoObj_Member@VDynAny@DynamicAny@@V?$_CORBA_PseudoObj_Var@VDynAny@DynamicAny@@@@@@QEBAPEAVDynAny@DynamicAny@@XZ
??B?$_CORBA_PseudoObj_Member@VRequest@CORBA@@V?$_CORBA_PseudoObj_Var@VRequest@CORBA@@@@@@QEBAPEAVRequest@CORBA@@XZ
??B?$_CORBA_PseudoObj_Var@VContext@CORBA@@@@QEBAPEAVContext@CORBA@@XZ
??B?$_CORBA_PseudoObj_Var@VContextList@CORBA@@@@QEBAPEAVContextList@CORBA@@XZ
??B?$_CORBA_PseudoObj_Var@VDynAny@DynamicAny@@@@QEBAPEAVDynAny@DynamicAny@@XZ
??B?$_CORBA_PseudoObj_Var@VEnvironment@CORBA@@@@QEBAPEAVEnvironment@CORBA@@XZ
??B?$_CORBA_PseudoObj_Var@VExceptionList@CORBA@@@@QEBAPEAVExceptionList@CORBA@@XZ
??B?$_CORBA_PseudoObj_Var@VNVList@CORBA@@@@QEBAPEAVNVList@CORBA@@XZ
??B?$_CORBA_PseudoObj_Var@VNamedValue@CORBA@@@@QEBAPEAVNamedValue@CORBA@@XZ
??B?$_CORBA_Value_Element@VPollerImpl@omniAMI@@VPoller_Helper@Messaging@@@@QEBAPEAVPollerImpl@omniAMI@@XZ
??B?$_CORBA_Value_Element@VValueBase@CORBA@@VValueBase_Helper@2@@@QEBAPEAVValueBase@CORBA@@XZ
??BAbstractInterfaceDefSeq_var@CORBA@@QEAAAEAVAbstractInterfaceDefSeq@1@XZ
??BAny_var@CORBA@@QEAAAEAVAny@1@XZ
??BContainedSeq_var@CORBA@@QEAAAEAVContainedSeq@1@XZ
??BContextIdSeq_var@CORBA@@QEAAAEAVContextIdSeq@1@XZ
??BDescriptionSeq_var@Container@CORBA@@QEAAAEAVDescriptionSeq@12@XZ
??BEnumMemberSeq_var@CORBA@@QEAAAEAVEnumMemberSeq@1@XZ
??BExceptionDefSeq_var@CORBA@@QEAAAEAVExceptionDefSeq@1@XZ
??BInitializerSeq_var@CORBA@@QEAAAEAVInitializerSeq@1@XZ
??BInterfaceDefSeq_var@CORBA@@QEAAAEAVInterfaceDefSeq@1@XZ
??BObject_var@CORBA@@QEBAPEAVObject@1@XZ
??BParDescriptionSeq_var@CORBA@@QEAAAEAVParDescriptionSeq@1@XZ
??BStructMemberSeq_var@CORBA@@QEAAAEAVStructMemberSeq@1@XZ
??BTypeCode_member@CORBA@@QEBAPEAVTypeCode@1@XZ
??BTypeCode_var@CORBA@@QEBAPEAVTypeCode@1@XZ
??BUnionMemberSeq_var@CORBA@@QEAAAEAVUnionMemberSeq@1@XZ
??BValueBaseSeq_var@omniTypedefs@@QEAAAEAVValueBaseSeq@1@XZ
??BValueBase_var@CORBA@@QEBAPEAVValueBase@1@XZ
??BValueDefSeq_var@CORBA@@QEAAAEAVValueDefSeq@1@XZ
??B_CORBA_String_element@@QEAAPEADXZ
??B_CORBA_String_element@@QEBAPEBDXZ
??B_CORBA_String_member@@QEAAPEADXZ
??B_CORBA_String_member@@QEBAPEBDXZ
??B_CORBA_String_var@@QEAAPEADXZ
??B_CORBA_String_var@@QEBAPEBDXZ
??C?$_CORBA_ObjRef_Element@VDynAny@DynamicAny@@VDynAny_Helper@2@@@QEBAPEAVDynAny@DynamicAny@@XZ
??C?$_CORBA_PseudoObj_Member@VDynAny@DynamicAny@@V?$_CORBA_PseudoObj_Var@VDynAny@DynamicAny@@@@@@QEBAPEAVDynAny@DynamicAny@@XZ
??C?$_CORBA_PseudoObj_Member@VRequest@CORBA@@V?$_CORBA_PseudoObj_Var@VRequest@CORBA@@@@@@QEBAPEAVRequest@CORBA@@XZ
??C?$_CORBA_PseudoObj_Var@VDynAny@DynamicAny@@@@QEBAPEAVDynAny@DynamicAny@@XZ
??C?$_CORBA_PseudoObj_Var@VEnvironment@CORBA@@@@QEBAPEAVEnvironment@CORBA@@XZ
??C?$_CORBA_PseudoObj_Var@VExceptionList@CORBA@@@@QEBAPEAVExceptionList@CORBA@@XZ
??C?$_CORBA_PseudoObj_Var@VNVList@CORBA@@@@QEBAPEAVNVList@CORBA@@XZ
??C?$_CORBA_PseudoObj_Var@VNamedValue@CORBA@@@@QEBAPEAVNamedValue@CORBA@@XZ
??C?$_CORBA_Value_Element@VPollerImpl@omniAMI@@VPoller_Helper@Messaging@@@@QEBAPEAVPollerImpl@omniAMI@@XZ
??CAny_var@CORBA@@QEBAPEAVAny@1@XZ
??CBooleanSeq_var@CORBA@@QEAAPEAVBooleanSeq@1@XZ
??CCharSeq_var@CORBA@@QEAAPEAVCharSeq@1@XZ
??CDoubleSeq_var@CORBA@@QEAAPEAVDoubleSeq@1@XZ
??CFloatSeq_var@CORBA@@QEAAPEAVFloatSeq@1@XZ
??CLongLongSeq_var@CORBA@@QEAAPEAVLongLongSeq@1@XZ
??CLongSeq_var@CORBA@@QEAAPEAVLongSeq@1@XZ
??CObject_var@CORBA@@QEBAPEAVObject@1@XZ
??COctetSeq_var@CORBA@@QEAAPEAVOctetSeq@1@XZ
??CShortSeq_var@CORBA@@QEAAPEAVShortSeq@1@XZ
??CTypeCode_member@CORBA@@QEBAPEAVTypeCode@1@XZ
??CTypeCode_var@CORBA@@QEBAPEAVTypeCode@1@XZ
??CULongLongSeq_var@CORBA@@QEAAPEAVULongLongSeq@1@XZ
??CULongSeq_var@CORBA@@QEAAPEAVULongSeq@1@XZ
??CUShortSeq_var@CORBA@@QEAAPEAVUShortSeq@1@XZ
??CValueBaseSeq_var@omniTypedefs@@QEAAPEAVValueBaseSeq@1@XZ
??CValueBase_var@CORBA@@QEBAPEAVValueBase@1@XZ
??CWCharSeq_var@CORBA@@QEAAPEAVWCharSeq@1@XZ
??Momni_time_t@@QEBAHAEBU0@@Z
??_2?$_CORBA_Sequence_ObjRef@V_objref_AbstractInterfaceDef@CORBA@@V?$_CORBA_ObjRef_Element@V_objref_AbstractInterfaceDef@CORBA@@VAbstractInterfaceDef_Helper@2@@@VAbstractInterfaceDef_Helper@2@@@QEBAXAEAVcdrStream@@@Z
??_2?$_CORBA_Sequence_ObjRef@V_objref_Contained@CORBA@@V?$_CORBA_ObjRef_Element@V_objref_Contained@CORBA@@VContained_Helper@2@@@VContained_Helper@2@@@QEBAXAEAVcdrStream@@@Z
??_2?$_CORBA_Sequence_ObjRef@V_objref_ExceptionDef@CORBA@@V?$_CORBA_ObjRef_Element@V_objref_ExceptionDef@CORBA@@VExceptionDef_Helper@2@@@VExceptionDef_Helper@2@@@QEBAXAEAVcdrStream@@@Z
??_2?$_CORBA_Sequence_ObjRef@V_objref_InterfaceDef@CORBA@@V?$_CORBA_ObjRef_Element@V_objref_InterfaceDef@CORBA@@VInterfaceDef_Helper@2@@@VInterfaceDef_Helper@2@@@QEBAXAEAVcdrStream@@@Z
??_2?$_CORBA_Sequence_ObjRef@V_objref_ValueDef@CORBA@@V?$_CORBA_ObjRef_Element@V_objref_ValueDef@CORBA@@VValueDef_Helper@2@@@VValueDef_Helper@2@@@QEBAXAEAVcdrStream@@@Z
??_2?$_CORBA_Unbounded_Sequence@F@@QEBAXAEAVcdrStream@@@Z
??_2?$_CORBA_Unbounded_Sequence@G@@QEBAXAEAVcdrStream@@@Z
??_2?$_CORBA_Unbounded_Sequence@J@@QEBAXAEAVcdrStream@@@Z
??_2?$_CORBA_Unbounded_Sequence@K@@QEBAXAEAVcdrStream@@@Z
??_2?$_CORBA_Unbounded_Sequence@M@@QEBAXAEAVcdrStream@@@Z
??_2?$_CORBA_Unbounded_Sequence@N@@QEBAXAEAVcdrStream@@@Z
??_2?$_CORBA_Unbounded_Sequence@UAttributeDescription@CORBA@@@@QEBAXAEAVcdrStream@@@Z
??_2?$_CORBA_Unbounded_Sequence@UBinding@CosNaming@@@@QEBAXAEAVcdrStream@@@Z
??_2?$_CORBA_Unbounded_Sequence@UDescription@Container@CORBA@@@@QEBAXAEAVcdrStream@@@Z
??_2?$_CORBA_Unbounded_Sequence@UExceptionDescription@CORBA@@@@QEBAXAEAVcdrStream@@@Z
??_2?$_CORBA_Unbounded_Sequence@UInitializer@CORBA@@@@QEBAXAEAVcdrStream@@@Z
??_2?$_CORBA_Unbounded_Sequence@UNameComponent@CosNaming@@@@QEBAXAEAVcdrStream@@@Z
??_2?$_CORBA_Unbounded_Sequence@UOperationDescription@CORBA@@@@QEBAXAEAVcdrStream@@@Z
??_2?$_CORBA_Unbounded_Sequence@UParameterDescription@CORBA@@@@QEBAXAEAVcdrStream@@@Z
??_2?$_CORBA_Unbounded_Sequence@UStructMember@CORBA@@@@QEBAXAEAVcdrStream@@@Z
??_2?$_CORBA_Unbounded_Sequence@UUnionMember@CORBA@@@@QEBAXAEAVcdrStream@@@Z
??_2?$_CORBA_Unbounded_Sequence@UValueMember@CORBA@@@@QEBAXAEAVcdrStream@@@Z
??_2?$_CORBA_Unbounded_Sequence@VAny@CORBA@@@@QEBAXAEAVcdrStream@@@Z
??_2?$_CORBA_Unbounded_Sequence@_J@@QEBAXAEAVcdrStream@@@Z
??_2?$_CORBA_Unbounded_Sequence@_K@@QEBAXAEAVcdrStream@@@Z
??_2?$_CORBA_Unbounded_Sequence_w_FixSizeElement@F$01$01@@QEBAXAEAVcdrStream@@@Z
??_2?$_CORBA_Unbounded_Sequence_w_FixSizeElement@G$01$01@@QEBAXAEAVcdrStream@@@Z
??_2?$_CORBA_Unbounded_Sequence_w_FixSizeElement@J$03$03@@QEBAXAEAVcdrStream@@@Z
??_2?$_CORBA_Unbounded_Sequence_w_FixSizeElement@K$03$03@@QEBAXAEAVcdrStream@@@Z
??_2?$_CORBA_Unbounded_Sequence_w_FixSizeElement@M$03$03@@QEBAXAEAVcdrStream@@@Z
??_2?$_CORBA_Unbounded_Sequence_w_FixSizeElement@N$07$07@@QEBAXAEAVcdrStream@@@Z
??_2?$_CORBA_Unbounded_Sequence_w_FixSizeElement@_J$07$07@@QEBAXAEAVcdrStream@@@Z
??_2?$_CORBA_Unbounded_Sequence_w_FixSizeElement@_K$07$07@@QEBAXAEAVcdrStream@@@Z
??_2@YAXFAEAVcdrStream@@@Z
??_2@YAXGAEAVcdrStream@@@Z
??_2@YAXJAEAVcdrStream@@@Z
??_2@YAXKAEAVcdrStream@@@Z
??_2@YAXMAEAVcdrStream@@@Z
??_2@YAXNAEAVcdrStream@@@Z
??_2@YAXW4AttributeMode@CORBA@@AEAVcdrStream@@@Z
??_2@YAXW4BindingType@CosNaming@@AEAVcdrStream@@@Z
??_2@YAXW4DefinitionKind@CORBA@@AEAVcdrStream@@@Z
??_2@YAXW4IdAssignmentPolicyValue@PortableServer@@AEAVcdrStream@@@Z
??_2@YAXW4IdUniquenessPolicyValue@PortableServer@@AEAVcdrStream@@@Z
??_2@YAXW4ImplicitActivationPolicyValue@PortableServer@@AEAVcdrStream@@@Z
??_2@YAXW4LifespanPolicyValue@PortableServer@@AEAVcdrStream@@@Z
??_2@YAXW4NotFoundReason@NamingContext@CosNaming@@AEAVcdrStream@@@Z
??_2@YAXW4OperationMode@CORBA@@AEAVcdrStream@@@Z
??_2@YAXW4ParameterMode@CORBA@@AEAVcdrStream@@@Z
??_2@YAXW4PrimitiveKind@CORBA@@AEAVcdrStream@@@Z
??_2@YAXW4RequestProcessingPolicyValue@PortableServer@@AEAVcdrStream@@@Z
??_2@YAXW4ServantRetentionPolicyValue@PortableServer@@AEAVcdrStream@@@Z
??_2@YAXW4ThreadPolicyValue@PortableServer@@AEAVcdrStream@@@Z
??_2@YAX_JAEAVcdrStream@@@Z
??_2@YAX_KAEAVcdrStream@@@Z
??_2@YA_NAEBVAny@CORBA@@AEAPEAUAttributeDescription@1@@Z
??_2@YA_NAEBVAny@CORBA@@AEAPEAUBinding@CosNaming@@@Z
??_2@YA_NAEBVAny@CORBA@@AEAPEAUConstantDescription@1@@Z
??_2@YA_NAEBVAny@CORBA@@AEAPEAUDescription@Contained@1@@Z
??_2@YA_NAEBVAny@CORBA@@AEAPEAUDescription@Container@1@@Z
??_2@YA_NAEBVAny@CORBA@@AEAPEAUExceptionDescription@1@@Z
??_2@YA_NAEBVAny@CORBA@@AEAPEAUFullInterfaceDescription@InterfaceDef@1@@Z
??_2@YA_NAEBVAny@CORBA@@AEAPEAUFullValueDescription@ValueDef@1@@Z
??_2@YA_NAEBVAny@CORBA@@AEAPEAUInitializer@1@@Z
??_2@YA_NAEBVAny@CORBA@@AEAPEAUInterfaceDescription@1@@Z
??_2@YA_NAEBVAny@CORBA@@AEAPEAUModuleDescription@1@@Z
??_2@YA_NAEBVAny@CORBA@@AEAPEAUNameComponent@CosNaming@@@Z
??_2@YA_NAEBVAny@CORBA@@AEAPEAUOperationDescription@1@@Z
??_2@YA_NAEBVAny@CORBA@@AEAPEAUParameterDescription@1@@Z
??_2@YA_NAEBVAny@CORBA@@AEAPEAUStructMember@1@@Z
??_2@YA_NAEBVAny@CORBA@@AEAPEAUTypeDescription@1@@Z
??_2@YA_NAEBVAny@CORBA@@AEAPEAUUnionMember@1@@Z
??_2@YA_NAEBVAny@CORBA@@AEAPEAUValueDescription@1@@Z
??_2@YA_NAEBVAny@CORBA@@AEAPEAUValueMember@1@@Z
??_2@YA_NAEBVAny@CORBA@@AEAPEAVAbstractInterfaceDefSeq@1@@Z
??_2@YA_NAEBVAny@CORBA@@AEAPEAVAnySeq@1@@Z
??_2@YA_NAEBVAny@CORBA@@AEAPEAVAttrDescriptionSeq@1@@Z
??_2@YA_NAEBVAny@CORBA@@AEAPEAVBAD_CONTEXT@1@@Z
??_2@YA_NAEBVAny@CORBA@@AEAPEAVBAD_INV_ORDER@1@@Z
??_2@YA_NAEBVAny@CORBA@@AEAPEAVBAD_OPERATION@1@@Z
??_2@YA_NAEBVAny@CORBA@@AEAPEAVBAD_PARAM@1@@Z
??_2@YA_NAEBVAny@CORBA@@AEAPEAVBAD_QOS@1@@Z
??_2@YA_NAEBVAny@CORBA@@AEAPEAVBAD_TYPECODE@1@@Z
??_2@YA_NAEBVAny@CORBA@@AEAPEAVBindingList@CosNaming@@@Z
??_2@YA_NAEBVAny@CORBA@@AEAPEAVBooleanSeq@1@@Z
??_2@YA_NAEBVAny@CORBA@@AEAPEAVCODESET_INCOMPATIBLE@1@@Z
??_2@YA_NAEBVAny@CORBA@@AEAPEAVCOMM_FAILURE@1@@Z
??_2@YA_NAEBVAny@CORBA@@AEAPEAVCharSeq@1@@Z
??_2@YA_NAEBVAny@CORBA@@AEAPEAVContainedSeq@1@@Z
??_2@YA_NAEBVAny@CORBA@@AEAPEAVContextIdSeq@1@@Z
??_2@YA_NAEBVAny@CORBA@@AEAPEAVDATA_CONVERSION@1@@Z
??_2@YA_NAEBVAny@CORBA@@AEAPEAVDIIPollable@1@@Z
??_2@YA_NAEBVAny@CORBA@@AEAPEAVDescriptionSeq@Container@1@@Z
??_2@YA_NAEBVAny@CORBA@@AEAPEAVDoubleSeq@1@@Z
??_2@YA_NAEBVAny@CORBA@@AEAPEAVEnumMemberSeq@1@@Z
??_2@YA_NAEBVAny@CORBA@@AEAPEAVExcDescriptionSeq@1@@Z
??_2@YA_NAEBVAny@CORBA@@AEAPEAVExceptionDefSeq@1@@Z
??_2@YA_NAEBVAny@CORBA@@AEAPEAVFREE_MEM@1@@Z
??_2@YA_NAEBVAny@CORBA@@AEAPEAVFloatSeq@1@@Z
??_2@YA_NAEBVAny@CORBA@@AEAPEAVIMP_LIMIT@1@@Z
??_2@YA_NAEBVAny@CORBA@@AEAPEAVINITIALIZE@1@@Z
??_2@YA_NAEBVAny@CORBA@@AEAPEAVINTERNAL@1@@Z
??_2@YA_NAEBVAny@CORBA@@AEAPEAVINTF_REPOS@1@@Z
??_2@YA_NAEBVAny@CORBA@@AEAPEAVINVALID_TRANSACTION@1@@Z
??_2@YA_NAEBVAny@CORBA@@AEAPEAVINV_FLAG@1@@Z
??_2@YA_NAEBVAny@CORBA@@AEAPEAVINV_IDENT@1@@Z
??_2@YA_NAEBVAny@CORBA@@AEAPEAVINV_OBJREF@1@@Z
??_2@YA_NAEBVAny@CORBA@@AEAPEAVINV_POLICY@1@@Z
??_2@YA_NAEBVAny@CORBA@@AEAPEAVInitializerSeq@1@@Z
??_2@YA_NAEBVAny@CORBA@@AEAPEAVInterfaceDefSeq@1@@Z
??_2@YA_NAEBVAny@CORBA@@AEAPEAVLongLongSeq@1@@Z
??_2@YA_NAEBVAny@CORBA@@AEAPEAVLongSeq@1@@Z
??_2@YA_NAEBVAny@CORBA@@AEAPEAVMARSHAL@1@@Z
??_2@YA_NAEBVAny@CORBA@@AEAPEAVNO_IMPLEMENT@1@@Z
??_2@YA_NAEBVAny@CORBA@@AEAPEAVNO_MEMORY@1@@Z
??_2@YA_NAEBVAny@CORBA@@AEAPEAVNO_PERMISSION@1@@Z
??_2@YA_NAEBVAny@CORBA@@AEAPEAVNO_RESOURCES@1@@Z
??_2@YA_NAEBVAny@CORBA@@AEAPEAVNO_RESPONSE@1@@Z
??_2@YA_NAEBVAny@CORBA@@AEAPEAVName@CosNaming@@@Z
??_2@YA_NAEBVAny@CORBA@@AEAPEAVOBJECT_NOT_EXIST@1@@Z
??_2@YA_NAEBVAny@CORBA@@AEAPEAVOBJ_ADAPTER@1@@Z
??_2@YA_NAEBVAny@CORBA@@AEAPEAVObjIdList@CORBA_InitialReferences@@@Z
??_2@YA_NAEBVAny@CORBA@@AEAPEAVOctetSeq@1@@Z
??_2@YA_NAEBVAny@CORBA@@AEAPEAVOpDescriptionSeq@1@@Z
??_2@YA_NAEBVAny@CORBA@@AEAPEAVPERSIST_STORE@1@@Z
??_2@YA_NAEBVAny@CORBA@@AEAPEAVParDescriptionSeq@1@@Z
??_2@YA_NAEBVAny@CORBA@@AEAPEAVPollable@1@@Z
??_2@YA_NAEBVAny@CORBA@@AEAPEAVPollableSet@1@@Z
??_2@YA_NAEBVAny@CORBA@@AEAPEAVREBIND@1@@Z
??_2@YA_NAEBVAny@CORBA@@AEAPEAVRepositoryIdSeq@1@@Z
??_2@YA_NAEBVAny@CORBA@@AEAPEAVShortSeq@1@@Z
??_2@YA_NAEBVAny@CORBA@@AEAPEAVStringSeq@1@@Z
??_2@YA_NAEBVAny@CORBA@@AEAPEAVStringValue@1@@Z
??_2@YA_NAEBVAny@CORBA@@AEAPEAVStructMemberSeq@1@@Z
??_2@YA_NAEBVAny@CORBA@@AEAPEAVTIMEOUT@1@@Z
??_2@YA_NAEBVAny@CORBA@@AEAPEAVTRANSACTION_MODE@1@@Z
??_2@YA_NAEBVAny@CORBA@@AEAPEAVTRANSACTION_REQUIRED@1@@Z
??_2@YA_NAEBVAny@CORBA@@AEAPEAVTRANSACTION_ROLLEDBACK@1@@Z
??_2@YA_NAEBVAny@CORBA@@AEAPEAVTRANSACTION_UNAVAILABLE@1@@Z
??_2@YA_NAEBVAny@CORBA@@AEAPEAVTRANSIENT@1@@Z
??_2@YA_NAEBVAny@CORBA@@AEAPEAVULongLongSeq@1@@Z
??_2@YA_NAEBVAny@CORBA@@AEAPEAVULongSeq@1@@Z
??_2@YA_NAEBVAny@CORBA@@AEAPEAVUNKNOWN@1@@Z
??_2@YA_NAEBVAny@CORBA@@AEAPEAVUShortSeq@1@@Z
??_2@YA_NAEBVAny@CORBA@@AEAPEAVUnionMemberSeq@1@@Z
??_2@YA_NAEBVAny@CORBA@@AEAPEAVValueDefSeq@1@@Z
??_2@YA_NAEBVAny@CORBA@@AEAPEAVValueMemberSeq@1@@Z
??_2@YA_NAEBVAny@CORBA@@AEAPEAVWCharSeq@1@@Z
??_2@YA_NAEBVAny@CORBA@@AEAPEAVWStringSeq@1@@Z
??_2@YA_NAEBVAny@CORBA@@AEAPEAVWStringValue@1@@Z
??_2@YA_NAEBVAny@CORBA@@AEAPEAV_objref_AbstractInterfaceDef@1@@Z
??_2@YA_NAEBVAny@CORBA@@AEAPEAV_objref_AliasDef@1@@Z
??_2@YA_NAEBVAny@CORBA@@AEAPEAV_objref_ArrayDef@1@@Z
??_2@YA_NAEBVAny@CORBA@@AEAPEAV_objref_AttributeDef@1@@Z
??_2@YA_NAEBVAny@CORBA@@AEAPEAV_objref_BindingIterator@CosNaming@@@Z
??_2@YA_NAEBVAny@CORBA@@AEAPEAV_objref_CORBA_InitialReferences@@@Z
??_2@YA_NAEBVAny@CORBA@@AEAPEAV_objref_ConstantDef@1@@Z
??_2@YA_NAEBVAny@CORBA@@AEAPEAV_objref_Contained@1@@Z
??_2@YA_NAEBVAny@CORBA@@AEAPEAV_objref_Container@1@@Z
??_2@YA_NAEBVAny@CORBA@@AEAPEAV_objref_EnumDef@1@@Z
??_2@YA_NAEBVAny@CORBA@@AEAPEAV_objref_ExceptionDef@1@@Z
??_2@YA_NAEBVAny@CORBA@@AEAPEAV_objref_FixedDef@1@@Z
??_2@YA_NAEBVAny@CORBA@@AEAPEAV_objref_IDLType@1@@Z
??_2@YA_NAEBVAny@CORBA@@AEAPEAV_objref_IRObject@1@@Z
??_2@YA_NAEBVAny@CORBA@@AEAPEAV_objref_InterfaceDef@1@@Z
??_2@YA_NAEBVAny@CORBA@@AEAPEAV_objref_ModuleDef@1@@Z
??_2@YA_NAEBVAny@CORBA@@AEAPEAV_objref_NamingContext@CosNaming@@@Z
??_2@YA_NAEBVAny@CORBA@@AEAPEAV_objref_NamingContextExt@CosNaming@@@Z
??_2@YA_NAEBVAny@CORBA@@AEAPEAV_objref_NativeDef@1@@Z
??_2@YA_NAEBVAny@CORBA@@AEAPEAV_objref_OperationDef@1@@Z
??_2@YA_NAEBVAny@CORBA@@AEAPEAV_objref_PrimitiveDef@1@@Z
??_2@YA_NAEBVAny@CORBA@@AEAPEAV_objref_Repository@1@@Z
??_2@YA_NAEBVAny@CORBA@@AEAPEAV_objref_SequenceDef@1@@Z
??_2@YA_NAEBVAny@CORBA@@AEAPEAV_objref_StringDef@1@@Z
??_2@YA_NAEBVAny@CORBA@@AEAPEAV_objref_StructDef@1@@Z
??_2@YA_NAEBVAny@CORBA@@AEAPEAV_objref_TypedefDef@1@@Z
??_2@YA_NAEBVAny@CORBA@@AEAPEAV_objref_UnionDef@1@@Z
??_2@YA_NAEBVAny@CORBA@@AEAPEAV_objref_ValueBoxDef@1@@Z
??_2@YA_NAEBVAny@CORBA@@AEAPEAV_objref_ValueDef@1@@Z
??_2@YA_NAEBVAny@CORBA@@AEAPEAV_objref_ValueMemberDef@1@@Z
??_2@YA_NAEBVAny@CORBA@@AEAPEAV_objref_WstringDef@1@@Z
??_2@YA_NAEBVAny@CORBA@@AEAPEBUAttributeDescription@1@@Z
??_2@YA_NAEBVAny@CORBA@@AEAPEBUBinding@CosNaming@@@Z
??_2@YA_NAEBVAny@CORBA@@AEAPEBUConstantDescription@1@@Z
??_2@YA_NAEBVAny@CORBA@@AEAPEBUDescription@Contained@1@@Z
??_2@YA_NAEBVAny@CORBA@@AEAPEBUDescription@Container@1@@Z
??_2@YA_NAEBVAny@CORBA@@AEAPEBUExceptionDescription@1@@Z
??_2@YA_NAEBVAny@CORBA@@AEAPEBUFullInterfaceDescription@InterfaceDef@1@@Z
??_2@YA_NAEBVAny@CORBA@@AEAPEBUFullValueDescription@ValueDef@1@@Z
??_2@YA_NAEBVAny@CORBA@@AEAPEBUInitializer@1@@Z
??_2@YA_NAEBVAny@CORBA@@AEAPEBUInterfaceDescription@1@@Z
??_2@YA_NAEBVAny@CORBA@@AEAPEBUModuleDescription@1@@Z
??_2@YA_NAEBVAny@CORBA@@AEAPEBUNameComponent@CosNaming@@@Z
??_2@YA_NAEBVAny@CORBA@@AEAPEBUOperationDescription@1@@Z
??_2@YA_NAEBVAny@CORBA@@AEAPEBUParameterDescription@1@@Z
??_2@YA_NAEBVAny@CORBA@@AEAPEBUStructMember@1@@Z
??_2@YA_NAEBVAny@CORBA@@AEAPEBUTypeDescription@1@@Z
??_2@YA_NAEBVAny@CORBA@@AEAPEBUUnionMember@1@@Z
??_2@YA_NAEBVAny@CORBA@@AEAPEBUValueDescription@1@@Z
??_2@YA_NAEBVAny@CORBA@@AEAPEBUValueMember@1@@Z
??_2@YA_NAEBVAny@CORBA@@AEAPEBVAbstractInterfaceDefSeq@1@@Z
??_2@YA_NAEBVAny@CORBA@@AEAPEBVAdapterAlreadyExists@POA@PortableServer@@@Z
??_2@YA_NAEBVAny@CORBA@@AEAPEBVAdapterInactive@POAManager@PortableServer@@@Z
??_2@YA_NAEBVAny@CORBA@@AEAPEBVAdapterNonExistent@POA@PortableServer@@@Z
??_2@YA_NAEBVAny@CORBA@@AEAPEBVAlreadyBound@NamingContext@CosNaming@@@Z
??_2@YA_NAEBVAny@CORBA@@AEAPEBVAnySeq@1@@Z
??_2@YA_NAEBVAny@CORBA@@AEAPEBVAttrDescriptionSeq@1@@Z
??_2@YA_NAEBVAny@CORBA@@AEAPEBVBAD_CONTEXT@1@@Z
??_2@YA_NAEBVAny@CORBA@@AEAPEBVBAD_INV_ORDER@1@@Z
??_2@YA_NAEBVAny@CORBA@@AEAPEBVBAD_OPERATION@1@@Z
??_2@YA_NAEBVAny@CORBA@@AEAPEBVBAD_PARAM@1@@Z
??_2@YA_NAEBVAny@CORBA@@AEAPEBVBAD_QOS@1@@Z
??_2@YA_NAEBVAny@CORBA@@AEAPEBVBAD_TYPECODE@1@@Z
??_2@YA_NAEBVAny@CORBA@@AEAPEBVBadKind@TypeCode@1@@Z
??_2@YA_NAEBVAny@CORBA@@AEAPEBVBindingList@CosNaming@@@Z
??_2@YA_NAEBVAny@CORBA@@AEAPEBVBooleanSeq@1@@Z
??_2@YA_NAEBVAny@CORBA@@AEAPEBVBounds@ContextList@1@@Z
??_2@YA_NAEBVAny@CORBA@@AEAPEBVBounds@ExceptionList@1@@Z
??_2@YA_NAEBVAny@CORBA@@AEAPEBVBounds@NVList@1@@Z
??_2@YA_NAEBVAny@CORBA@@AEAPEBVBounds@TypeCode@1@@Z
??_2@YA_NAEBVAny@CORBA@@AEAPEBVCODESET_INCOMPATIBLE@1@@Z
??_2@YA_NAEBVAny@CORBA@@AEAPEBVCOMM_FAILURE@1@@Z
??_2@YA_NAEBVAny@CORBA@@AEAPEBVCannotProceed@NamingContext@CosNaming@@@Z
??_2@YA_NAEBVAny@CORBA@@AEAPEBVCharSeq@1@@Z
??_2@YA_NAEBVAny@CORBA@@AEAPEBVContainedSeq@1@@Z
??_2@YA_NAEBVAny@CORBA@@AEAPEBVContextIdSeq@1@@Z
??_2@YA_NAEBVAny@CORBA@@AEAPEBVDATA_CONVERSION@1@@Z
??_2@YA_NAEBVAny@CORBA@@AEAPEBVDescriptionSeq@Container@1@@Z
??_2@YA_NAEBVAny@CORBA@@AEAPEBVDoubleSeq@1@@Z
??_2@YA_NAEBVAny@CORBA@@AEAPEBVEnumMemberSeq@1@@Z
??_2@YA_NAEBVAny@CORBA@@AEAPEBVExcDescriptionSeq@1@@Z
??_2@YA_NAEBVAny@CORBA@@AEAPEBVExceptionDefSeq@1@@Z
??_2@YA_NAEBVAny@CORBA@@AEAPEBVFREE_MEM@1@@Z
??_2@YA_NAEBVAny@CORBA@@AEAPEBVFloatSeq@1@@Z
??_2@YA_NAEBVAny@CORBA@@AEAPEBVForwardRequest@PortableServer@@@Z
??_2@YA_NAEBVAny@CORBA@@AEAPEBVIMP_LIMIT@1@@Z
??_2@YA_NAEBVAny@CORBA@@AEAPEBVINITIALIZE@1@@Z
??_2@YA_NAEBVAny@CORBA@@AEAPEBVINTERNAL@1@@Z
??_2@YA_NAEBVAny@CORBA@@AEAPEBVINTF_REPOS@1@@Z
??_2@YA_NAEBVAny@CORBA@@AEAPEBVINVALID_TRANSACTION@1@@Z
??_2@YA_NAEBVAny@CORBA@@AEAPEBVINV_FLAG@1@@Z
??_2@YA_NAEBVAny@CORBA@@AEAPEBVINV_IDENT@1@@Z
??_2@YA_NAEBVAny@CORBA@@AEAPEBVINV_OBJREF@1@@Z
??_2@YA_NAEBVAny@CORBA@@AEAPEBVINV_POLICY@1@@Z
??_2@YA_NAEBVAny@CORBA@@AEAPEBVInconsistentTypeCode@DynAnyFactory@DynamicAny@@@Z
??_2@YA_NAEBVAny@CORBA@@AEAPEBVInconsistentTypeCode@ORB@1@@Z
??_2@YA_NAEBVAny@CORBA@@AEAPEBVInitializerSeq@1@@Z
??_2@YA_NAEBVAny@CORBA@@AEAPEBVInterfaceDefSeq@1@@Z
??_2@YA_NAEBVAny@CORBA@@AEAPEBVInvalidAddress@NamingContextExt@CosNaming@@@Z
??_2@YA_NAEBVAny@CORBA@@AEAPEBVInvalidName@NamingContext@CosNaming@@@Z
??_2@YA_NAEBVAny@CORBA@@AEAPEBVInvalidName@ORB@1@@Z
??_2@YA_NAEBVAny@CORBA@@AEAPEBVInvalidPolicy@POA@PortableServer@@@Z
??_2@YA_NAEBVAny@CORBA@@AEAPEBVInvalidValue@DynAny@DynamicAny@@@Z
??_2@YA_NAEBVAny@CORBA@@AEAPEBVLongLongSeq@1@@Z
??_2@YA_NAEBVAny@CORBA@@AEAPEBVLongSeq@1@@Z
??_2@YA_NAEBVAny@CORBA@@AEAPEBVMARSHAL@1@@Z
??_2@YA_NAEBVAny@CORBA@@AEAPEBVNO_IMPLEMENT@1@@Z
??_2@YA_NAEBVAny@CORBA@@AEAPEBVNO_MEMORY@1@@Z
??_2@YA_NAEBVAny@CORBA@@AEAPEBVNO_PERMISSION@1@@Z
??_2@YA_NAEBVAny@CORBA@@AEAPEBVNO_RESOURCES@1@@Z
??_2@YA_NAEBVAny@CORBA@@AEAPEBVNO_RESPONSE@1@@Z
??_2@YA_NAEBVAny@CORBA@@AEAPEBVName@CosNaming@@@Z
??_2@YA_NAEBVAny@CORBA@@AEAPEBVNoPossiblePollable@PollableSet@1@@Z
??_2@YA_NAEBVAny@CORBA@@AEAPEBVNoServant@POA@PortableServer@@@Z
??_2@YA_NAEBVAny@CORBA@@AEAPEBVNotEmpty@NamingContext@CosNaming@@@Z
??_2@YA_NAEBVAny@CORBA@@AEAPEBVNotFound@NamingContext@CosNaming@@@Z
??_2@YA_NAEBVAny@CORBA@@AEAPEBVOBJECT_NOT_EXIST@1@@Z
??_2@YA_NAEBVAny@CORBA@@AEAPEBVOBJ_ADAPTER@1@@Z
??_2@YA_NAEBVAny@CORBA@@AEAPEBVObjIdList@CORBA_InitialReferences@@@Z
??_2@YA_NAEBVAny@CORBA@@AEAPEBVObjectAlreadyActive@POA@PortableServer@@@Z
??_2@YA_NAEBVAny@CORBA@@AEAPEBVObjectNotActive@POA@PortableServer@@@Z
??_2@YA_NAEBVAny@CORBA@@AEAPEBVOctetSeq@1@@Z
??_2@YA_NAEBVAny@CORBA@@AEAPEBVOpDescriptionSeq@1@@Z
??_2@YA_NAEBVAny@CORBA@@AEAPEBVPERSIST_STORE@1@@Z
??_2@YA_NAEBVAny@CORBA@@AEAPEBVParDescriptionSeq@1@@Z
??_2@YA_NAEBVAny@CORBA@@AEAPEBVPolicyError@1@@Z
??_2@YA_NAEBVAny@CORBA@@AEAPEBVREBIND@1@@Z
??_2@YA_NAEBVAny@CORBA@@AEAPEBVRepositoryIdSeq@1@@Z
??_2@YA_NAEBVAny@CORBA@@AEAPEBVServantAlreadyActive@POA@PortableServer@@@Z
??_2@YA_NAEBVAny@CORBA@@AEAPEBVServantNotActive@POA@PortableServer@@@Z
??_2@YA_NAEBVAny@CORBA@@AEAPEBVShortSeq@1@@Z
??_2@YA_NAEBVAny@CORBA@@AEAPEBVStringSeq@1@@Z
??_2@YA_NAEBVAny@CORBA@@AEAPEBVStructMemberSeq@1@@Z
??_2@YA_NAEBVAny@CORBA@@AEAPEBVTIMEOUT@1@@Z
??_2@YA_NAEBVAny@CORBA@@AEAPEBVTRANSACTION_MODE@1@@Z
??_2@YA_NAEBVAny@CORBA@@AEAPEBVTRANSACTION_REQUIRED@1@@Z
??_2@YA_NAEBVAny@CORBA@@AEAPEBVTRANSACTION_ROLLEDBACK@1@@Z
??_2@YA_NAEBVAny@CORBA@@AEAPEBVTRANSACTION_UNAVAILABLE@1@@Z
??_2@YA_NAEBVAny@CORBA@@AEAPEBVTRANSIENT@1@@Z
??_2@YA_NAEBVAny@CORBA@@AEAPEBVTypeMismatch@DynAny@DynamicAny@@@Z
??_2@YA_NAEBVAny@CORBA@@AEAPEBVULongLongSeq@1@@Z
??_2@YA_NAEBVAny@CORBA@@AEAPEBVULongSeq@1@@Z
??_2@YA_NAEBVAny@CORBA@@AEAPEBVUNKNOWN@1@@Z
??_2@YA_NAEBVAny@CORBA@@AEAPEBVUShortSeq@1@@Z
??_2@YA_NAEBVAny@CORBA@@AEAPEBVUnionMemberSeq@1@@Z
??_2@YA_NAEBVAny@CORBA@@AEAPEBVUnknownPollable@PollableSet@1@@Z
??_2@YA_NAEBVAny@CORBA@@AEAPEBVUnknownUserException@1@@Z
??_2@YA_NAEBVAny@CORBA@@AEAPEBVValueDefSeq@1@@Z
??_2@YA_NAEBVAny@CORBA@@AEAPEBVValueMemberSeq@1@@Z
??_2@YA_NAEBVAny@CORBA@@AEAPEBVWCharSeq@1@@Z
??_2@YA_NAEBVAny@CORBA@@AEAPEBVWStringSeq@1@@Z
??_2@YA_NAEBVAny@CORBA@@AEAPEBVWrongAdapter@POA@PortableServer@@@Z
??_2@YA_NAEBVAny@CORBA@@AEAPEBVWrongPolicy@POA@PortableServer@@@Z
??_2@YA_NAEBVAny@CORBA@@AEAPEBVWrongTransaction@1@@Z
??_2@YA_NAEBVAny@CORBA@@AEAW4AttributeMode@1@@Z
??_2@YA_NAEBVAny@CORBA@@AEAW4BindingType@CosNaming@@@Z
??_2@YA_NAEBVAny@CORBA@@AEAW4DefinitionKind@1@@Z
??_2@YA_NAEBVAny@CORBA@@AEAW4IdAssignmentPolicyValue@PortableServer@@@Z
??_2@YA_NAEBVAny@CORBA@@AEAW4IdUniquenessPolicyValue@PortableServer@@@Z
??_2@YA_NAEBVAny@CORBA@@AEAW4ImplicitActivationPolicyValue@PortableServer@@@Z
??_2@YA_NAEBVAny@CORBA@@AEAW4LifespanPolicyValue@PortableServer@@@Z
??_2@YA_NAEBVAny@CORBA@@AEAW4NotFoundReason@NamingContext@CosNaming@@@Z
??_2@YA_NAEBVAny@CORBA@@AEAW4OperationMode@1@@Z
??_2@YA_NAEBVAny@CORBA@@AEAW4ParameterMode@1@@Z
??_2@YA_NAEBVAny@CORBA@@AEAW4PrimitiveKind@1@@Z
??_2@YA_NAEBVAny@CORBA@@AEAW4RequestProcessingPolicyValue@PortableServer@@@Z
??_2@YA_NAEBVAny@CORBA@@AEAW4ServantRetentionPolicyValue@PortableServer@@@Z
??_2@YA_NAEBVAny@CORBA@@AEAW4ThreadPolicyValue@PortableServer@@@Z
??_2AlreadyBound@NamingContext@CosNaming@@QEBAXAEAVcdrStream@@@Z
??_2Any@CORBA@@QEBAXAEAVcdrStream@@@Z
??_2Any@CORBA@@QEBA_NAEAF@Z
??_2Any@CORBA@@QEBA_NAEAG@Z
??_2Any@CORBA@@QEBA_NAEAJ@Z
??_2Any@CORBA@@QEBA_NAEAK@Z
??_2Any@CORBA@@QEBA_NAEAM@Z
??_2Any@CORBA@@QEBA_NAEAN@Z
??_2Any@CORBA@@QEBA_NAEAPEAV01@@Z
??_2Any@CORBA@@QEBA_NAEAPEAVObject@1@@Z
??_2Any@CORBA@@QEBA_NAEAPEAVTypeCode@1@@Z
??_2Any@CORBA@@QEBA_NAEAPEBD@Z
??_2Any@CORBA@@QEBA_NAEAPEBV01@@Z
??_2Any@CORBA@@QEBA_NAEAPEBVSystemException@1@@Z
??_2Any@CORBA@@QEBA_NAEAPEB_W@Z
??_2Any@CORBA@@QEBA_NAEAV01@@Z
??_2Any@CORBA@@QEBA_NAEA_J@Z
??_2Any@CORBA@@QEBA_NAEA_K@Z
??_2Any@CORBA@@QEBA_NUto_abstract_base@01@@Z
??_2Any@CORBA@@QEBA_NUto_boolean@01@@Z
??_2Any@CORBA@@QEBA_NUto_char@01@@Z
??_2Any@CORBA@@QEBA_NUto_fixed@01@@Z
??_2Any@CORBA@@QEBA_NUto_object@01@@Z
??_2Any@CORBA@@QEBA_NUto_octet@01@@Z
??_2Any@CORBA@@QEBA_NUto_string@01@@Z
??_2Any@CORBA@@QEBA_NUto_value@01@@Z
??_2Any@CORBA@@QEBA_NUto_wchar@01@@Z
??_2Any@CORBA@@QEBA_NUto_wstring@01@@Z
??_2Any_var@CORBA@@QEBA_NUto_value@Any@1@@Z
??_2AttributeDescription@CORBA@@QEBAXAEAVcdrStream@@@Z
??_2BadKind@TypeCode@CORBA@@QEBAXAEAVcdrStream@@@Z
??_2Bounds@ContextList@CORBA@@QEBAXAEAVcdrStream@@@Z
??_2Bounds@ExceptionList@CORBA@@QEBAXAEAVcdrStream@@@Z
??_2Bounds@NVList@CORBA@@QEBAXAEAVcdrStream@@@Z
??_2Bounds@TypeCode@CORBA@@QEBAXAEAVcdrStream@@@Z
??_2ConstantDescription@CORBA@@QEBAXAEAVcdrStream@@@Z
??_2Description@Contained@CORBA@@QEBAXAEAVcdrStream@@@Z
??_2Description@Container@CORBA@@QEBAXAEAVcdrStream@@@Z
??_2ExceptionDescription@CORBA@@QEBAXAEAVcdrStream@@@Z
??_2FullInterfaceDescription@InterfaceDef@CORBA@@QEBAXAEAVcdrStream@@@Z
??_2FullValueDescription@ValueDef@CORBA@@QEBAXAEAVcdrStream@@@Z
??_2InconsistentTypeCode@DynAnyFactory@DynamicAny@@QEBAXAEAVcdrStream@@@Z
??_2InconsistentTypeCode@ORB@CORBA@@QEBAXAEAVcdrStream@@@Z
??_2Initializer@CORBA@@QEBAXAEAVcdrStream@@@Z
??_2InterfaceDescription@CORBA@@QEBAXAEAVcdrStream@@@Z
??_2InvalidAddress@NamingContextExt@CosNaming@@QEBAXAEAVcdrStream@@@Z
??_2InvalidName@NamingContext@CosNaming@@QEBAXAEAVcdrStream@@@Z
??_2InvalidValue@DynAny@DynamicAny@@QEBAXAEAVcdrStream@@@Z
??_2ModuleDescription@CORBA@@QEBAXAEAVcdrStream@@@Z
??_2NoPossiblePollable@PollableSet@CORBA@@QEBAXAEAVcdrStream@@@Z
??_2NotEmpty@NamingContext@CosNaming@@QEBAXAEAVcdrStream@@@Z
??_2Object_Member@CORBA@@QEBAXAEAVcdrStream@@@Z
??_2OperationDescription@CORBA@@QEBAXAEAVcdrStream@@@Z
??_2ParameterDescription@CORBA@@QEBAXAEAVcdrStream@@@Z
??_2StructMember@CORBA@@QEBAXAEAVcdrStream@@@Z
??_2TypeCode_member@CORBA@@QEBAXAEAVcdrStream@@@Z
??_2TypeDescription@CORBA@@QEBAXAEAVcdrStream@@@Z
??_2TypeMismatch@DynAny@DynamicAny@@QEBAXAEAVcdrStream@@@Z
??_2UnionMember@CORBA@@QEBAXAEAVcdrStream@@@Z
??_2UnknownPollable@PollableSet@CORBA@@QEBAXAEAVcdrStream@@@Z
??_2ValueDescription@CORBA@@QEBAXAEAVcdrStream@@@Z
??_2ValueMember@CORBA@@QEBAXAEAVcdrStream@@@Z
??_2WrongTransaction@CORBA@@QEBAXAEAVcdrStream@@@Z
??_2_CORBA_Sequence_Boolean@@QEBAXAEAVcdrStream@@@Z
??_2_CORBA_Sequence_Char@@QEBAXAEAVcdrStream@@@Z
??_2_CORBA_Sequence_Octet@@QEBAXAEAVcdrStream@@@Z
??_2_CORBA_Sequence_WChar@@QEBAXAEAVcdrStream@@@Z
??_3?$_CORBA_Sequence_ObjRef@V_objref_AbstractInterfaceDef@CORBA@@V?$_CORBA_ObjRef_Element@V_objref_AbstractInterfaceDef@CORBA@@VAbstractInterfaceDef_Helper@2@@@VAbstractInterfaceDef_Helper@2@@@QEAAXAEAVcdrStream@@@Z
??_3?$_CORBA_Sequence_ObjRef@V_objref_Contained@CORBA@@V?$_CORBA_ObjRef_Element@V_objref_Contained@CORBA@@VContained_Helper@2@@@VContained_Helper@2@@@QEAAXAEAVcdrStream@@@Z
??_3?$_CORBA_Sequence_ObjRef@V_objref_ExceptionDef@CORBA@@V?$_CORBA_ObjRef_Element@V_objref_ExceptionDef@CORBA@@VExceptionDef_Helper@2@@@VExceptionDef_Helper@2@@@QEAAXAEAVcdrStream@@@Z
??_3?$_CORBA_Sequence_ObjRef@V_objref_InterfaceDef@CORBA@@V?$_CORBA_ObjRef_Element@V_objref_InterfaceDef@CORBA@@VInterfaceDef_Helper@2@@@VInterfaceDef_Helper@2@@@QEAAXAEAVcdrStream@@@Z
??_3?$_CORBA_Sequence_ObjRef@V_objref_ValueDef@CORBA@@V?$_CORBA_ObjRef_Element@V_objref_ValueDef@CORBA@@VValueDef_Helper@2@@@VValueDef_Helper@2@@@QEAAXAEAVcdrStream@@@Z
??_3?$_CORBA_Unbounded_Sequence@UAttributeDescription@CORBA@@@@QEAAXAEAVcdrStream@@@Z
??_3?$_CORBA_Unbounded_Sequence@UBinding@CosNaming@@@@QEAAXAEAVcdrStream@@@Z
??_3?$_CORBA_Unbounded_Sequence@UDescription@Container@CORBA@@@@QEAAXAEAVcdrStream@@@Z
??_3?$_CORBA_Unbounded_Sequence@UExceptionDescription@CORBA@@@@QEAAXAEAVcdrStream@@@Z
??_3?$_CORBA_Unbounded_Sequence@UInitializer@CORBA@@@@QEAAXAEAVcdrStream@@@Z
??_3?$_CORBA_Unbounded_Sequence@UNameComponent@CosNaming@@@@QEAAXAEAVcdrStream@@@Z
??_3?$_CORBA_Unbounded_Sequence@UOperationDescription@CORBA@@@@QEAAXAEAVcdrStream@@@Z
??_3?$_CORBA_Unbounded_Sequence@UParameterDescription@CORBA@@@@QEAAXAEAVcdrStream@@@Z
??_3?$_CORBA_Unbounded_Sequence@UStructMember@CORBA@@@@QEAAXAEAVcdrStream@@@Z
??_3?$_CORBA_Unbounded_Sequence@UUnionMember@CORBA@@@@QEAAXAEAVcdrStream@@@Z
??_3?$_CORBA_Unbounded_Sequence@UValueMember@CORBA@@@@QEAAXAEAVcdrStream@@@Z
??_3?$_CORBA_Unbounded_Sequence@VAny@CORBA@@@@QEAAXAEAVcdrStream@@@Z
??_3?$_CORBA_Unbounded_Sequence_w_FixSizeElement@F$01$01@@QEAAXAEAVcdrStream@@@Z
??_3?$_CORBA_Unbounded_Sequence_w_FixSizeElement@G$01$01@@QEAAXAEAVcdrStream@@@Z
??_3?$_CORBA_Unbounded_Sequence_w_FixSizeElement@J$03$03@@QEAAXAEAVcdrStream@@@Z
??_3?$_CORBA_Unbounded_Sequence_w_FixSizeElement@K$03$03@@QEAAXAEAVcdrStream@@@Z
??_3?$_CORBA_Unbounded_Sequence_w_FixSizeElement@M$03$03@@QEAAXAEAVcdrStream@@@Z
??_3?$_CORBA_Unbounded_Sequence_w_FixSizeElement@N$07$07@@QEAAXAEAVcdrStream@@@Z
??_3?$_CORBA_Unbounded_Sequence_w_FixSizeElement@_J$07$07@@QEAAXAEAVcdrStream@@@Z
??_3?$_CORBA_Unbounded_Sequence_w_FixSizeElement@_K$07$07@@QEAAXAEAVcdrStream@@@Z
??_3@YAXAEAFAEAVcdrStream@@@Z
??_3@YAXAEAGAEAVcdrStream@@@Z
??_3@YAXAEAJAEAVcdrStream@@@Z
??_3@YAXAEAKAEAVcdrStream@@@Z
??_3@YAXAEAMAEAVcdrStream@@@Z
??_3@YAXAEANAEAVcdrStream@@@Z
??_3@YAXAEAVAny@CORBA@@AEBUAttributeDescription@1@@Z
??_3@YAXAEAVAny@CORBA@@AEBUBinding@CosNaming@@@Z
??_3@YAXAEAVAny@CORBA@@AEBUConstantDescription@1@@Z
??_3@YAXAEAVAny@CORBA@@AEBUDescription@Contained@1@@Z
??_3@YAXAEAVAny@CORBA@@AEBUDescription@Container@1@@Z
??_3@YAXAEAVAny@CORBA@@AEBUExceptionDescription@1@@Z
??_3@YAXAEAVAny@CORBA@@AEBUFullInterfaceDescription@InterfaceDef@1@@Z
??_3@YAXAEAVAny@CORBA@@AEBUFullValueDescription@ValueDef@1@@Z
??_3@YAXAEAVAny@CORBA@@AEBUInitializer@1@@Z
??_3@YAXAEAVAny@CORBA@@AEBUInterfaceDescription@1@@Z
??_3@YAXAEAVAny@CORBA@@AEBUModuleDescription@1@@Z
??_3@YAXAEAVAny@CORBA@@AEBUNameComponent@CosNaming@@@Z
??_3@YAXAEAVAny@CORBA@@AEBUOperationDescription@1@@Z
??_3@YAXAEAVAny@CORBA@@AEBUParameterDescription@1@@Z
??_3@YAXAEAVAny@CORBA@@AEBUStructMember@1@@Z
??_3@YAXAEAVAny@CORBA@@AEBUTypeDescription@1@@Z
??_3@YAXAEAVAny@CORBA@@AEBUUnionMember@1@@Z
??_3@YAXAEAVAny@CORBA@@AEBUValueDescription@1@@Z
??_3@YAXAEAVAny@CORBA@@AEBUValueMember@1@@Z
??_3@YAXAEAVAny@CORBA@@AEBVAbstractInterfaceDefSeq@1@@Z
??_3@YAXAEAVAny@CORBA@@AEBVAdapterAlreadyExists@POA@PortableServer@@@Z
??_3@YAXAEAVAny@CORBA@@AEBVAdapterInactive@POAManager@PortableServer@@@Z
??_3@YAXAEAVAny@CORBA@@AEBVAdapterNonExistent@POA@PortableServer@@@Z
??_3@YAXAEAVAny@CORBA@@AEBVAlreadyBound@NamingContext@CosNaming@@@Z
??_3@YAXAEAVAny@CORBA@@AEBVAnySeq@1@@Z
??_3@YAXAEAVAny@CORBA@@AEBVAttrDescriptionSeq@1@@Z
??_3@YAXAEAVAny@CORBA@@AEBVBAD_CONTEXT@1@@Z
??_3@YAXAEAVAny@CORBA@@AEBVBAD_INV_ORDER@1@@Z
??_3@YAXAEAVAny@CORBA@@AEBVBAD_OPERATION@1@@Z
??_3@YAXAEAVAny@CORBA@@AEBVBAD_PARAM@1@@Z
??_3@YAXAEAVAny@CORBA@@AEBVBAD_QOS@1@@Z
??_3@YAXAEAVAny@CORBA@@AEBVBAD_TYPECODE@1@@Z
??_3@YAXAEAVAny@CORBA@@AEBVBadKind@TypeCode@1@@Z
??_3@YAXAEAVAny@CORBA@@AEBVBindingList@CosNaming@@@Z
??_3@YAXAEAVAny@CORBA@@AEBVBooleanSeq@1@@Z
??_3@YAXAEAVAny@CORBA@@AEBVBounds@ContextList@1@@Z
??_3@YAXAEAVAny@CORBA@@AEBVBounds@ExceptionList@1@@Z
??_3@YAXAEAVAny@CORBA@@AEBVBounds@NVList@1@@Z
??_3@YAXAEAVAny@CORBA@@AEBVBounds@TypeCode@1@@Z
??_3@YAXAEAVAny@CORBA@@AEBVCODESET_INCOMPATIBLE@1@@Z
??_3@YAXAEAVAny@CORBA@@AEBVCOMM_FAILURE@1@@Z
??_3@YAXAEAVAny@CORBA@@AEBVCannotProceed@NamingContext@CosNaming@@@Z
??_3@YAXAEAVAny@CORBA@@AEBVCharSeq@1@@Z
??_3@YAXAEAVAny@CORBA@@AEBVContainedSeq@1@@Z
??_3@YAXAEAVAny@CORBA@@AEBVContextIdSeq@1@@Z
??_3@YAXAEAVAny@CORBA@@AEBVDATA_CONVERSION@1@@Z
??_3@YAXAEAVAny@CORBA@@AEBVDescriptionSeq@Container@1@@Z
??_3@YAXAEAVAny@CORBA@@AEBVDoubleSeq@1@@Z
??_3@YAXAEAVAny@CORBA@@AEBVEnumMemberSeq@1@@Z
??_3@YAXAEAVAny@CORBA@@AEBVExcDescriptionSeq@1@@Z
??_3@YAXAEAVAny@CORBA@@AEBVException@1@@Z
??_3@YAXAEAVAny@CORBA@@AEBVExceptionDefSeq@1@@Z
??_3@YAXAEAVAny@CORBA@@AEBVFREE_MEM@1@@Z
??_3@YAXAEAVAny@CORBA@@AEBVFloatSeq@1@@Z
??_3@YAXAEAVAny@CORBA@@AEBVForwardRequest@PortableServer@@@Z
??_3@YAXAEAVAny@CORBA@@AEBVIMP_LIMIT@1@@Z
??_3@YAXAEAVAny@CORBA@@AEBVINITIALIZE@1@@Z
??_3@YAXAEAVAny@CORBA@@AEBVINTERNAL@1@@Z
??_3@YAXAEAVAny@CORBA@@AEBVINTF_REPOS@1@@Z
??_3@YAXAEAVAny@CORBA@@AEBVINVALID_TRANSACTION@1@@Z
??_3@YAXAEAVAny@CORBA@@AEBVINV_FLAG@1@@Z
??_3@YAXAEAVAny@CORBA@@AEBVINV_IDENT@1@@Z
??_3@YAXAEAVAny@CORBA@@AEBVINV_OBJREF@1@@Z
??_3@YAXAEAVAny@CORBA@@AEBVINV_POLICY@1@@Z
??_3@YAXAEAVAny@CORBA@@AEBVInconsistentTypeCode@DynAnyFactory@DynamicAny@@@Z
??_3@YAXAEAVAny@CORBA@@AEBVInconsistentTypeCode@ORB@1@@Z
??_3@YAXAEAVAny@CORBA@@AEBVInitializerSeq@1@@Z
??_3@YAXAEAVAny@CORBA@@AEBVInterfaceDefSeq@1@@Z
??_3@YAXAEAVAny@CORBA@@AEBVInvalidAddress@NamingContextExt@CosNaming@@@Z
??_3@YAXAEAVAny@CORBA@@AEBVInvalidName@NamingContext@CosNaming@@@Z
??_3@YAXAEAVAny@CORBA@@AEBVInvalidName@ORB@1@@Z
??_3@YAXAEAVAny@CORBA@@AEBVInvalidPolicy@POA@PortableServer@@@Z
??_3@YAXAEAVAny@CORBA@@AEBVInvalidValue@DynAny@DynamicAny@@@Z
??_3@YAXAEAVAny@CORBA@@AEBVLongLongSeq@1@@Z
??_3@YAXAEAVAny@CORBA@@AEBVLongSeq@1@@Z
??_3@YAXAEAVAny@CORBA@@AEBVMARSHAL@1@@Z
??_3@YAXAEAVAny@CORBA@@AEBVNO_IMPLEMENT@1@@Z
??_3@YAXAEAVAny@CORBA@@AEBVNO_MEMORY@1@@Z
??_3@YAXAEAVAny@CORBA@@AEBVNO_PERMISSION@1@@Z
??_3@YAXAEAVAny@CORBA@@AEBVNO_RESOURCES@1@@Z
??_3@YAXAEAVAny@CORBA@@AEBVNO_RESPONSE@1@@Z
??_3@YAXAEAVAny@CORBA@@AEBVName@CosNaming@@@Z
??_3@YAXAEAVAny@CORBA@@AEBVNoPossiblePollable@PollableSet@1@@Z
??_3@YAXAEAVAny@CORBA@@AEBVNoServant@POA@PortableServer@@@Z
??_3@YAXAEAVAny@CORBA@@AEBVNotEmpty@NamingContext@CosNaming@@@Z
??_3@YAXAEAVAny@CORBA@@AEBVNotFound@NamingContext@CosNaming@@@Z
??_3@YAXAEAVAny@CORBA@@AEBVOBJECT_NOT_EXIST@1@@Z
??_3@YAXAEAVAny@CORBA@@AEBVOBJ_ADAPTER@1@@Z
??_3@YAXAEAVAny@CORBA@@AEBVObjIdList@CORBA_InitialReferences@@@Z
??_3@YAXAEAVAny@CORBA@@AEBVObjectAlreadyActive@POA@PortableServer@@@Z
??_3@YAXAEAVAny@CORBA@@AEBVObjectNotActive@POA@PortableServer@@@Z
??_3@YAXAEAVAny@CORBA@@AEBVOctetSeq@1@@Z
??_3@YAXAEAVAny@CORBA@@AEBVOpDescriptionSeq@1@@Z
??_3@YAXAEAVAny@CORBA@@AEBVPERSIST_STORE@1@@Z
??_3@YAXAEAVAny@CORBA@@AEBVParDescriptionSeq@1@@Z
??_3@YAXAEAVAny@CORBA@@AEBVPolicyError@1@@Z
??_3@YAXAEAVAny@CORBA@@AEBVREBIND@1@@Z
??_3@YAXAEAVAny@CORBA@@AEBVRepositoryIdSeq@1@@Z
??_3@YAXAEAVAny@CORBA@@AEBVServantAlreadyActive@POA@PortableServer@@@Z
??_3@YAXAEAVAny@CORBA@@AEBVServantNotActive@POA@PortableServer@@@Z
??_3@YAXAEAVAny@CORBA@@AEBVShortSeq@1@@Z
??_3@YAXAEAVAny@CORBA@@AEBVStringSeq@1@@Z
??_3@YAXAEAVAny@CORBA@@AEBVStructMemberSeq@1@@Z
??_3@YAXAEAVAny@CORBA@@AEBVTIMEOUT@1@@Z
??_3@YAXAEAVAny@CORBA@@AEBVTRANSACTION_MODE@1@@Z
??_3@YAXAEAVAny@CORBA@@AEBVTRANSACTION_REQUIRED@1@@Z
??_3@YAXAEAVAny@CORBA@@AEBVTRANSACTION_ROLLEDBACK@1@@Z
??_3@YAXAEAVAny@CORBA@@AEBVTRANSACTION_UNAVAILABLE@1@@Z
??_3@YAXAEAVAny@CORBA@@AEBVTRANSIENT@1@@Z
??_3@YAXAEAVAny@CORBA@@AEBVTypeMismatch@DynAny@DynamicAny@@@Z
??_3@YAXAEAVAny@CORBA@@AEBVULongLongSeq@1@@Z
??_3@YAXAEAVAny@CORBA@@AEBVULongSeq@1@@Z
??_3@YAXAEAVAny@CORBA@@AEBVUNKNOWN@1@@Z
??_3@YAXAEAVAny@CORBA@@AEBVUShortSeq@1@@Z
??_3@YAXAEAVAny@CORBA@@AEBVUnionMemberSeq@1@@Z
??_3@YAXAEAVAny@CORBA@@AEBVUnknownPollable@PollableSet@1@@Z
??_3@YAXAEAVAny@CORBA@@AEBVUnknownUserException@1@@Z
??_3@YAXAEAVAny@CORBA@@AEBVValueDefSeq@1@@Z
??_3@YAXAEAVAny@CORBA@@AEBVValueMemberSeq@1@@Z
??_3@YAXAEAVAny@CORBA@@AEBVWCharSeq@1@@Z
??_3@YAXAEAVAny@CORBA@@AEBVWStringSeq@1@@Z
??_3@YAXAEAVAny@CORBA@@AEBVWrongAdapter@POA@PortableServer@@@Z
??_3@YAXAEAVAny@CORBA@@AEBVWrongPolicy@POA@PortableServer@@@Z
??_3@YAXAEAVAny@CORBA@@AEBVWrongTransaction@1@@Z
??_3@YAXAEAVAny@CORBA@@PEAPEAVDIIPollable@1@@Z
??_3@YAXAEAVAny@CORBA@@PEAPEAVPollable@1@@Z
??_3@YAXAEAVAny@CORBA@@PEAPEAVPollableSet@1@@Z
??_3@YAXAEAVAny@CORBA@@PEAPEAVStringValue@1@@Z
??_3@YAXAEAVAny@CORBA@@PEAPEAVWStringValue@1@@Z
??_3@YAXAEAVAny@CORBA@@PEAPEAV_objref_AbstractInterfaceDef@1@@Z
??_3@YAXAEAVAny@CORBA@@PEAPEAV_objref_AliasDef@1@@Z
??_3@YAXAEAVAny@CORBA@@PEAPEAV_objref_ArrayDef@1@@Z
??_3@YAXAEAVAny@CORBA@@PEAPEAV_objref_AttributeDef@1@@Z
??_3@YAXAEAVAny@CORBA@@PEAPEAV_objref_BindingIterator@CosNaming@@@Z
??_3@YAXAEAVAny@CORBA@@PEAPEAV_objref_CORBA_InitialReferences@@@Z
??_3@YAXAEAVAny@CORBA@@PEAPEAV_objref_ConstantDef@1@@Z
??_3@YAXAEAVAny@CORBA@@PEAPEAV_objref_Contained@1@@Z
??_3@YAXAEAVAny@CORBA@@PEAPEAV_objref_Container@1@@Z
??_3@YAXAEAVAny@CORBA@@PEAPEAV_objref_EnumDef@1@@Z
??_3@YAXAEAVAny@CORBA@@PEAPEAV_objref_ExceptionDef@1@@Z
??_3@YAXAEAVAny@CORBA@@PEAPEAV_objref_FixedDef@1@@Z
??_3@YAXAEAVAny@CORBA@@PEAPEAV_objref_IDLType@1@@Z
??_3@YAXAEAVAny@CORBA@@PEAPEAV_objref_IRObject@1@@Z
??_3@YAXAEAVAny@CORBA@@PEAPEAV_objref_InterfaceDef@1@@Z
??_3@YAXAEAVAny@CORBA@@PEAPEAV_objref_ModuleDef@1@@Z
??_3@YAXAEAVAny@CORBA@@PEAPEAV_objref_NamingContext@CosNaming@@@Z
??_3@YAXAEAVAny@CORBA@@PEAPEAV_objref_NamingContextExt@CosNaming@@@Z
??_3@YAXAEAVAny@CORBA@@PEAPEAV_objref_NativeDef@1@@Z
??_3@YAXAEAVAny@CORBA@@PEAPEAV_objref_OperationDef@1@@Z
??_3@YAXAEAVAny@CORBA@@PEAPEAV_objref_PrimitiveDef@1@@Z
??_3@YAXAEAVAny@CORBA@@PEAPEAV_objref_Repository@1@@Z
??_3@YAXAEAVAny@CORBA@@PEAPEAV_objref_SequenceDef@1@@Z
??_3@YAXAEAVAny@CORBA@@PEAPEAV_objref_StringDef@1@@Z
??_3@YAXAEAVAny@CORBA@@PEAPEAV_objref_StructDef@1@@Z
??_3@YAXAEAVAny@CORBA@@PEAPEAV_objref_TypedefDef@1@@Z
??_3@YAXAEAVAny@CORBA@@PEAPEAV_objref_UnionDef@1@@Z
??_3@YAXAEAVAny@CORBA@@PEAPEAV_objref_ValueBoxDef@1@@Z
??_3@YAXAEAVAny@CORBA@@PEAPEAV_objref_ValueDef@1@@Z
??_3@YAXAEAVAny@CORBA@@PEAPEAV_objref_ValueMemberDef@1@@Z
??_3@YAXAEAVAny@CORBA@@PEAPEAV_objref_WstringDef@1@@Z
??_3@YAXAEAVAny@CORBA@@PEAUAttributeDescription@1@@Z
??_3@YAXAEAVAny@CORBA@@PEAUBinding@CosNaming@@@Z
??_3@YAXAEAVAny@CORBA@@PEAUConstantDescription@1@@Z
??_3@YAXAEAVAny@CORBA@@PEAUDescription@Contained@1@@Z
??_3@YAXAEAVAny@CORBA@@PEAUDescription@Container@1@@Z
??_3@YAXAEAVAny@CORBA@@PEAUExceptionDescription@1@@Z
??_3@YAXAEAVAny@CORBA@@PEAUFullInterfaceDescription@InterfaceDef@1@@Z
??_3@YAXAEAVAny@CORBA@@PEAUFullValueDescription@ValueDef@1@@Z
??_3@YAXAEAVAny@CORBA@@PEAUInitializer@1@@Z
??_3@YAXAEAVAny@CORBA@@PEAUInterfaceDescription@1@@Z
??_3@YAXAEAVAny@CORBA@@PEAUModuleDescription@1@@Z
??_3@YAXAEAVAny@CORBA@@PEAUNameComponent@CosNaming@@@Z
??_3@YAXAEAVAny@CORBA@@PEAUOperationDescription@1@@Z
??_3@YAXAEAVAny@CORBA@@PEAUParameterDescription@1@@Z
??_3@YAXAEAVAny@CORBA@@PEAUStructMember@1@@Z
??_3@YAXAEAVAny@CORBA@@PEAUTypeDescription@1@@Z
??_3@YAXAEAVAny@CORBA@@PEAUUnionMember@1@@Z
??_3@YAXAEAVAny@CORBA@@PEAUValueDescription@1@@Z
??_3@YAXAEAVAny@CORBA@@PEAUValueMember@1@@Z
??_3@YAXAEAVAny@CORBA@@PEAVAbstractInterfaceDefSeq@1@@Z
??_3@YAXAEAVAny@CORBA@@PEAVAnySeq@1@@Z
??_3@YAXAEAVAny@CORBA@@PEAVAttrDescriptionSeq@1@@Z
??_3@YAXAEAVAny@CORBA@@PEAVBindingList@CosNaming@@@Z
??_3@YAXAEAVAny@CORBA@@PEAVBooleanSeq@1@@Z
??_3@YAXAEAVAny@CORBA@@PEAVCharSeq@1@@Z
??_3@YAXAEAVAny@CORBA@@PEAVContainedSeq@1@@Z
??_3@YAXAEAVAny@CORBA@@PEAVContextIdSeq@1@@Z
??_3@YAXAEAVAny@CORBA@@PEAVDIIPollable@1@@Z
??_3@YAXAEAVAny@CORBA@@PEAVDescriptionSeq@Container@1@@Z
??_3@YAXAEAVAny@CORBA@@PEAVDoubleSeq@1@@Z
??_3@YAXAEAVAny@CORBA@@PEAVEnumMemberSeq@1@@Z
??_3@YAXAEAVAny@CORBA@@PEAVExcDescriptionSeq@1@@Z
??_3@YAXAEAVAny@CORBA@@PEAVExceptionDefSeq@1@@Z
??_3@YAXAEAVAny@CORBA@@PEAVFloatSeq@1@@Z
??_3@YAXAEAVAny@CORBA@@PEAVInitializerSeq@1@@Z
??_3@YAXAEAVAny@CORBA@@PEAVInterfaceDefSeq@1@@Z
??_3@YAXAEAVAny@CORBA@@PEAVLongLongSeq@1@@Z
??_3@YAXAEAVAny@CORBA@@PEAVLongSeq@1@@Z
??_3@YAXAEAVAny@CORBA@@PEAVName@CosNaming@@@Z
??_3@YAXAEAVAny@CORBA@@PEAVObjIdList@CORBA_InitialReferences@@@Z
??_3@YAXAEAVAny@CORBA@@PEAVOctetSeq@1@@Z
??_3@YAXAEAVAny@CORBA@@PEAVOpDescriptionSeq@1@@Z
??_3@YAXAEAVAny@CORBA@@PEAVParDescriptionSeq@1@@Z
??_3@YAXAEAVAny@CORBA@@PEAVPollable@1@@Z
??_3@YAXAEAVAny@CORBA@@PEAVPollableSet@1@@Z
??_3@YAXAEAVAny@CORBA@@PEAVRepositoryIdSeq@1@@Z
??_3@YAXAEAVAny@CORBA@@PEAVShortSeq@1@@Z
??_3@YAXAEAVAny@CORBA@@PEAVStringSeq@1@@Z
??_3@YAXAEAVAny@CORBA@@PEAVStringValue@1@@Z
??_3@YAXAEAVAny@CORBA@@PEAVStructMemberSeq@1@@Z
??_3@YAXAEAVAny@CORBA@@PEAVULongLongSeq@1@@Z
??_3@YAXAEAVAny@CORBA@@PEAVULongSeq@1@@Z
??_3@YAXAEAVAny@CORBA@@PEAVUShortSeq@1@@Z
??_3@YAXAEAVAny@CORBA@@PEAVUnionMemberSeq@1@@Z
??_3@YAXAEAVAny@CORBA@@PEAVValueDefSeq@1@@Z
??_3@YAXAEAVAny@CORBA@@PEAVValueMemberSeq@1@@Z
??_3@YAXAEAVAny@CORBA@@PEAVWCharSeq@1@@Z
??_3@YAXAEAVAny@CORBA@@PEAVWStringSeq@1@@Z
??_3@YAXAEAVAny@CORBA@@PEAVWStringValue@1@@Z
??_3@YAXAEAVAny@CORBA@@PEAV_objref_AbstractInterfaceDef@1@@Z
??_3@YAXAEAVAny@CORBA@@PEAV_objref_AliasDef@1@@Z
??_3@YAXAEAVAny@CORBA@@PEAV_objref_ArrayDef@1@@Z
??_3@YAXAEAVAny@CORBA@@PEAV_objref_AttributeDef@1@@Z
??_3@YAXAEAVAny@CORBA@@PEAV_objref_BindingIterator@CosNaming@@@Z
??_3@YAXAEAVAny@CORBA@@PEAV_objref_CORBA_InitialReferences@@@Z
??_3@YAXAEAVAny@CORBA@@PEAV_objref_ConstantDef@1@@Z
??_3@YAXAEAVAny@CORBA@@PEAV_objref_Contained@1@@Z
??_3@YAXAEAVAny@CORBA@@PEAV_objref_Container@1@@Z
??_3@YAXAEAVAny@CORBA@@PEAV_objref_EnumDef@1@@Z
??_3@YAXAEAVAny@CORBA@@PEAV_objref_ExceptionDef@1@@Z
??_3@YAXAEAVAny@CORBA@@PEAV_objref_FixedDef@1@@Z
??_3@YAXAEAVAny@CORBA@@PEAV_objref_IDLType@1@@Z
??_3@YAXAEAVAny@CORBA@@PEAV_objref_IRObject@1@@Z
??_3@YAXAEAVAny@CORBA@@PEAV_objref_InterfaceDef@1@@Z
??_3@YAXAEAVAny@CORBA@@PEAV_objref_ModuleDef@1@@Z
??_3@YAXAEAVAny@CORBA@@PEAV_objref_NamingContext@CosNaming@@@Z
??_3@YAXAEAVAny@CORBA@@PEAV_objref_NamingContextExt@CosNaming@@@Z
??_3@YAXAEAVAny@CORBA@@PEAV_objref_NativeDef@1@@Z
??_3@YAXAEAVAny@CORBA@@PEAV_objref_OperationDef@1@@Z
??_3@YAXAEAVAny@CORBA@@PEAV_objref_PrimitiveDef@1@@Z
??_3@YAXAEAVAny@CORBA@@PEAV_objref_Repository@1@@Z
??_3@YAXAEAVAny@CORBA@@PEAV_objref_SequenceDef@1@@Z
??_3@YAXAEAVAny@CORBA@@PEAV_objref_StringDef@1@@Z
??_3@YAXAEAVAny@CORBA@@PEAV_objref_StructDef@1@@Z
??_3@YAXAEAVAny@CORBA@@PEAV_objref_TypedefDef@1@@Z
??_3@YAXAEAVAny@CORBA@@PEAV_objref_UnionDef@1@@Z
??_3@YAXAEAVAny@CORBA@@PEAV_objref_ValueBoxDef@1@@Z
??_3@YAXAEAVAny@CORBA@@PEAV_objref_ValueDef@1@@Z
??_3@YAXAEAVAny@CORBA@@PEAV_objref_ValueMemberDef@1@@Z
??_3@YAXAEAVAny@CORBA@@PEAV_objref_WstringDef@1@@Z
??_3@YAXAEAVAny@CORBA@@PEBVAdapterAlreadyExists@POA@PortableServer@@@Z
??_3@YAXAEAVAny@CORBA@@PEBVAdapterInactive@POAManager@PortableServer@@@Z
??_3@YAXAEAVAny@CORBA@@PEBVAdapterNonExistent@POA@PortableServer@@@Z
??_3@YAXAEAVAny@CORBA@@PEBVAlreadyBound@NamingContext@CosNaming@@@Z
??_3@YAXAEAVAny@CORBA@@PEBVBAD_CONTEXT@1@@Z
??_3@YAXAEAVAny@CORBA@@PEBVBAD_INV_ORDER@1@@Z
??_3@YAXAEAVAny@CORBA@@PEBVBAD_OPERATION@1@@Z
??_3@YAXAEAVAny@CORBA@@PEBVBAD_PARAM@1@@Z
??_3@YAXAEAVAny@CORBA@@PEBVBAD_QOS@1@@Z
??_3@YAXAEAVAny@CORBA@@PEBVBAD_TYPECODE@1@@Z
??_3@YAXAEAVAny@CORBA@@PEBVBadKind@TypeCode@1@@Z
??_3@YAXAEAVAny@CORBA@@PEBVBounds@ContextList@1@@Z
??_3@YAXAEAVAny@CORBA@@PEBVBounds@ExceptionList@1@@Z
??_3@YAXAEAVAny@CORBA@@PEBVBounds@NVList@1@@Z
??_3@YAXAEAVAny@CORBA@@PEBVBounds@TypeCode@1@@Z
??_3@YAXAEAVAny@CORBA@@PEBVCODESET_INCOMPATIBLE@1@@Z
??_3@YAXAEAVAny@CORBA@@PEBVCOMM_FAILURE@1@@Z
??_3@YAXAEAVAny@CORBA@@PEBVCannotProceed@NamingContext@CosNaming@@@Z
??_3@YAXAEAVAny@CORBA@@PEBVDATA_CONVERSION@1@@Z
??_3@YAXAEAVAny@CORBA@@PEBVException@1@@Z
??_3@YAXAEAVAny@CORBA@@PEBVFREE_MEM@1@@Z
??_3@YAXAEAVAny@CORBA@@PEBVForwardRequest@PortableServer@@@Z
??_3@YAXAEAVAny@CORBA@@PEBVIMP_LIMIT@1@@Z
??_3@YAXAEAVAny@CORBA@@PEBVINITIALIZE@1@@Z
??_3@YAXAEAVAny@CORBA@@PEBVINTERNAL@1@@Z
??_3@YAXAEAVAny@CORBA@@PEBVINTF_REPOS@1@@Z
??_3@YAXAEAVAny@CORBA@@PEBVINVALID_TRANSACTION@1@@Z
??_3@YAXAEAVAny@CORBA@@PEBVINV_FLAG@1@@Z
??_3@YAXAEAVAny@CORBA@@PEBVINV_IDENT@1@@Z
??_3@YAXAEAVAny@CORBA@@PEBVINV_OBJREF@1@@Z
??_3@YAXAEAVAny@CORBA@@PEBVINV_POLICY@1@@Z
??_3@YAXAEAVAny@CORBA@@PEBVInconsistentTypeCode@DynAnyFactory@DynamicAny@@@Z
??_3@YAXAEAVAny@CORBA@@PEBVInconsistentTypeCode@ORB@1@@Z
??_3@YAXAEAVAny@CORBA@@PEBVInvalidAddress@NamingContextExt@CosNaming@@@Z
??_3@YAXAEAVAny@CORBA@@PEBVInvalidName@NamingContext@CosNaming@@@Z
??_3@YAXAEAVAny@CORBA@@PEBVInvalidName@ORB@1@@Z
??_3@YAXAEAVAny@CORBA@@PEBVInvalidPolicy@POA@PortableServer@@@Z
??_3@YAXAEAVAny@CORBA@@PEBVInvalidValue@DynAny@DynamicAny@@@Z
??_3@YAXAEAVAny@CORBA@@PEBVMARSHAL@1@@Z
??_3@YAXAEAVAny@CORBA@@PEBVNO_IMPLEMENT@1@@Z
??_3@YAXAEAVAny@CORBA@@PEBVNO_MEMORY@1@@Z
??_3@YAXAEAVAny@CORBA@@PEBVNO_PERMISSION@1@@Z
??_3@YAXAEAVAny@CORBA@@PEBVNO_RESOURCES@1@@Z
??_3@YAXAEAVAny@CORBA@@PEBVNO_RESPONSE@1@@Z
??_3@YAXAEAVAny@CORBA@@PEBVNoPossiblePollable@PollableSet@1@@Z
??_3@YAXAEAVAny@CORBA@@PEBVNoServant@POA@PortableServer@@@Z
??_3@YAXAEAVAny@CORBA@@PEBVNotEmpty@NamingContext@CosNaming@@@Z
??_3@YAXAEAVAny@CORBA@@PEBVNotFound@NamingContext@CosNaming@@@Z
??_3@YAXAEAVAny@CORBA@@PEBVOBJECT_NOT_EXIST@1@@Z
??_3@YAXAEAVAny@CORBA@@PEBVOBJ_ADAPTER@1@@Z
??_3@YAXAEAVAny@CORBA@@PEBVObjectAlreadyActive@POA@PortableServer@@@Z
??_3@YAXAEAVAny@CORBA@@PEBVObjectNotActive@POA@PortableServer@@@Z
??_3@YAXAEAVAny@CORBA@@PEBVPERSIST_STORE@1@@Z
??_3@YAXAEAVAny@CORBA@@PEBVPolicyError@1@@Z
??_3@YAXAEAVAny@CORBA@@PEBVREBIND@1@@Z
??_3@YAXAEAVAny@CORBA@@PEBVServantAlreadyActive@POA@PortableServer@@@Z
??_3@YAXAEAVAny@CORBA@@PEBVServantNotActive@POA@PortableServer@@@Z
??_3@YAXAEAVAny@CORBA@@PEBVTIMEOUT@1@@Z
??_3@YAXAEAVAny@CORBA@@PEBVTRANSACTION_MODE@1@@Z
??_3@YAXAEAVAny@CORBA@@PEBVTRANSACTION_REQUIRED@1@@Z
??_3@YAXAEAVAny@CORBA@@PEBVTRANSACTION_ROLLEDBACK@1@@Z
??_3@YAXAEAVAny@CORBA@@PEBVTRANSACTION_UNAVAILABLE@1@@Z
??_3@YAXAEAVAny@CORBA@@PEBVTRANSIENT@1@@Z
??_3@YAXAEAVAny@CORBA@@PEBVTypeMismatch@DynAny@DynamicAny@@@Z
??_3@YAXAEAVAny@CORBA@@PEBVUNKNOWN@1@@Z
??_3@YAXAEAVAny@CORBA@@PEBVUnknownPollable@PollableSet@1@@Z
??_3@YAXAEAVAny@CORBA@@PEBVUnknownUserException@1@@Z
??_3@YAXAEAVAny@CORBA@@PEBVWrongAdapter@POA@PortableServer@@@Z
??_3@YAXAEAVAny@CORBA@@PEBVWrongPolicy@POA@PortableServer@@@Z
??_3@YAXAEAVAny@CORBA@@PEBVWrongTransaction@1@@Z
??_3@YAXAEAVAny@CORBA@@W4AttributeMode@1@@Z
??_3@YAXAEAVAny@CORBA@@W4BindingType@CosNaming@@@Z
??_3@YAXAEAVAny@CORBA@@W4DefinitionKind@1@@Z
??_3@YAXAEAVAny@CORBA@@W4IdAssignmentPolicyValue@PortableServer@@@Z
??_3@YAXAEAVAny@CORBA@@W4IdUniquenessPolicyValue@PortableServer@@@Z
??_3@YAXAEAVAny@CORBA@@W4ImplicitActivationPolicyValue@PortableServer@@@Z
??_3@YAXAEAVAny@CORBA@@W4LifespanPolicyValue@PortableServer@@@Z
??_3@YAXAEAVAny@CORBA@@W4NotFoundReason@NamingContext@CosNaming@@@Z
??_3@YAXAEAVAny@CORBA@@W4OperationMode@1@@Z
??_3@YAXAEAVAny@CORBA@@W4ParameterMode@1@@Z
??_3@YAXAEAVAny@CORBA@@W4PrimitiveKind@1@@Z
??_3@YAXAEAVAny@CORBA@@W4RequestProcessingPolicyValue@PortableServer@@@Z
??_3@YAXAEAVAny@CORBA@@W4ServantRetentionPolicyValue@PortableServer@@@Z
??_3@YAXAEAVAny@CORBA@@W4ThreadPolicyValue@PortableServer@@@Z
??_3@YAXAEAW4AttributeMode@CORBA@@AEAVcdrStream@@@Z
??_3@YAXAEAW4BindingType@CosNaming@@AEAVcdrStream@@@Z
??_3@YAXAEAW4DefinitionKind@CORBA@@AEAVcdrStream@@@Z
??_3@YAXAEAW4IdAssignmentPolicyValue@PortableServer@@AEAVcdrStream@@@Z
??_3@YAXAEAW4IdUniquenessPolicyValue@PortableServer@@AEAVcdrStream@@@Z
??_3@YAXAEAW4ImplicitActivationPolicyValue@PortableServer@@AEAVcdrStream@@@Z
??_3@YAXAEAW4LifespanPolicyValue@PortableServer@@AEAVcdrStream@@@Z
??_3@YAXAEAW4NotFoundReason@NamingContext@CosNaming@@AEAVcdrStream@@@Z
??_3@YAXAEAW4OperationMode@CORBA@@AEAVcdrStream@@@Z
??_3@YAXAEAW4ParameterMode@CORBA@@AEAVcdrStream@@@Z
??_3@YAXAEAW4PrimitiveKind@CORBA@@AEAVcdrStream@@@Z
??_3@YAXAEAW4RequestProcessingPolicyValue@PortableServer@@AEAVcdrStream@@@Z
??_3@YAXAEAW4ServantRetentionPolicyValue@PortableServer@@AEAVcdrStream@@@Z
??_3@YAXAEAW4ThreadPolicyValue@PortableServer@@AEAVcdrStream@@@Z
??_3@YAXAEA_JAEAVcdrStream@@@Z
??_3@YAXAEA_KAEAVcdrStream@@@Z
??_3AdapterAlreadyExists@POA@PortableServer@@QEAAXAEAVcdrStream@@@Z
??_3AdapterInactive@POAManager@PortableServer@@QEAAXAEAVcdrStream@@@Z
??_3AdapterNonExistent@POA@PortableServer@@QEAAXAEAVcdrStream@@@Z
??_3AlreadyBound@NamingContext@CosNaming@@QEAAXAEAVcdrStream@@@Z
??_3Any@CORBA@@QEAAXAEAVcdrStream@@@Z
??_3Any@CORBA@@QEAAXAEBV01@@Z
??_3Any@CORBA@@QEAAXF@Z
??_3Any@CORBA@@QEAAXG@Z
??_3Any@CORBA@@QEAAXJ@Z
??_3Any@CORBA@@QEAAXK@Z
??_3Any@CORBA@@QEAAXM@Z
??_3Any@CORBA@@QEAAXN@Z
??_3Any@CORBA@@QEAAXPEAPEAVObject@1@@Z
??_3Any@CORBA@@QEAAXPEAPEAVTypeCode@1@@Z
??_3Any@CORBA@@QEAAXPEAV01@@Z
??_3Any@CORBA@@QEAAXPEAVObject@1@@Z
??_3Any@CORBA@@QEAAXPEAVTypeCode@1@@Z
??_3Any@CORBA@@QEAAXPEBD@Z
??_3Any@CORBA@@QEAAXPEB_W@Z
??_3Any@CORBA@@QEAAXUfrom_boolean@01@@Z
??_3Any@CORBA@@QEAAXUfrom_char@01@@Z
??_3Any@CORBA@@QEAAXUfrom_fixed@01@@Z
??_3Any@CORBA@@QEAAXUfrom_octet@01@@Z
??_3Any@CORBA@@QEAAXUfrom_string@01@@Z
??_3Any@CORBA@@QEAAXUfrom_wchar@01@@Z
??_3Any@CORBA@@QEAAXUfrom_wstring@01@@Z
??_3Any@CORBA@@QEAAX_J@Z
??_3Any@CORBA@@QEAAX_K@Z
??_3AttributeDescription@CORBA@@QEAAXAEAVcdrStream@@@Z
??_3BadKind@TypeCode@CORBA@@QEAAXAEAVcdrStream@@@Z
??_3Bounds@ContextList@CORBA@@QEAAXAEAVcdrStream@@@Z
??_3Bounds@ExceptionList@CORBA@@QEAAXAEAVcdrStream@@@Z
??_3Bounds@NVList@CORBA@@QEAAXAEAVcdrStream@@@Z
??_3Bounds@TypeCode@CORBA@@QEAAXAEAVcdrStream@@@Z
??_3ConstantDescription@CORBA@@QEAAXAEAVcdrStream@@@Z
??_3Description@Contained@CORBA@@QEAAXAEAVcdrStream@@@Z
??_3Description@Container@CORBA@@QEAAXAEAVcdrStream@@@Z
??_3ExceptionDescription@CORBA@@QEAAXAEAVcdrStream@@@Z
??_3FullInterfaceDescription@InterfaceDef@CORBA@@QEAAXAEAVcdrStream@@@Z
??_3FullValueDescription@ValueDef@CORBA@@QEAAXAEAVcdrStream@@@Z
??_3InconsistentTypeCode@DynAnyFactory@DynamicAny@@QEAAXAEAVcdrStream@@@Z
??_3InconsistentTypeCode@ORB@CORBA@@QEAAXAEAVcdrStream@@@Z
??_3Initializer@CORBA@@QEAAXAEAVcdrStream@@@Z
??_3InterfaceDescription@CORBA@@QEAAXAEAVcdrStream@@@Z
??_3InvalidAddress@NamingContextExt@CosNaming@@QEAAXAEAVcdrStream@@@Z
??_3InvalidName@NamingContext@CosNaming@@QEAAXAEAVcdrStream@@@Z
??_3InvalidName@ORB@CORBA@@QEAAXAEAVcdrStream@@@Z
??_3InvalidValue@DynAny@DynamicAny@@QEAAXAEAVcdrStream@@@Z
??_3ModuleDescription@CORBA@@QEAAXAEAVcdrStream@@@Z
??_3NoPossiblePollable@PollableSet@CORBA@@QEAAXAEAVcdrStream@@@Z
??_3NoServant@POA@PortableServer@@QEAAXAEAVcdrStream@@@Z
??_3NotEmpty@NamingContext@CosNaming@@QEAAXAEAVcdrStream@@@Z
??_3ObjectAlreadyActive@POA@PortableServer@@QEAAXAEAVcdrStream@@@Z
??_3ObjectNotActive@POA@PortableServer@@QEAAXAEAVcdrStream@@@Z
??_3Object_Member@CORBA@@QEAAXAEAVcdrStream@@@Z
??_3OperationDescription@CORBA@@QEAAXAEAVcdrStream@@@Z
??_3ParameterDescription@CORBA@@QEAAXAEAVcdrStream@@@Z
??_3ServantAlreadyActive@POA@PortableServer@@QEAAXAEAVcdrStream@@@Z
??_3ServantNotActive@POA@PortableServer@@QEAAXAEAVcdrStream@@@Z
??_3StructMember@CORBA@@QEAAXAEAVcdrStream@@@Z
??_3TypeCode_member@CORBA@@QEAAXAEAVcdrStream@@@Z
??_3TypeDescription@CORBA@@QEAAXAEAVcdrStream@@@Z
??_3TypeMismatch@DynAny@DynamicAny@@QEAAXAEAVcdrStream@@@Z
??_3UnionMember@CORBA@@QEAAXAEAVcdrStream@@@Z
??_3UnknownPollable@PollableSet@CORBA@@QEAAXAEAVcdrStream@@@Z
??_3ValueDescription@CORBA@@QEAAXAEAVcdrStream@@@Z
??_3ValueMember@CORBA@@QEAAXAEAVcdrStream@@@Z
??_3WrongAdapter@POA@PortableServer@@QEAAXAEAVcdrStream@@@Z
??_3WrongPolicy@POA@PortableServer@@QEAAXAEAVcdrStream@@@Z
??_3WrongTransaction@CORBA@@QEAAXAEAVcdrStream@@@Z
??_3_CORBA_Sequence_Boolean@@QEAAXAEAVcdrStream@@@Z
??_3_CORBA_Sequence_Char@@QEAAXAEAVcdrStream@@@Z
??_3_CORBA_Sequence_Octet@@QEAAXAEAVcdrStream@@@Z
??_3_CORBA_Sequence_WChar@@QEAAXAEAVcdrStream@@@Z
??_DBidirectionalPolicy@BiDirPolicy@@QEAAXXZ
??_DDIIPollableImpl@omniAMI@@QEAAXXZ
??_DDynAnyImpl@omni@@QEAAXXZ
??_DDynArrayImpl@omni@@QEAAXXZ
??_DDynEnumImpl@omni@@QEAAXXZ
??_DDynFixedImpl@omni@@QEAAXXZ
??_DDynSequenceImpl@omni@@QEAAXXZ
??_DDynStructImpl@omni@@QEAAXXZ
??_DDynUnionDisc@omni@@QEAAXXZ
??_DDynUnionEnumDisc@omni@@QEAAXXZ
??_DDynUnionImpl@omni@@QEAAXXZ
??_DDynValueBoxImpl@omni@@QEAAXXZ
??_DDynValueImpl@omni@@QEAAXXZ
??_DExceptionHolder@omniAMI@@QEAAXXZ
??_DIdAssignmentPolicy@PortableServer@@QEAAXXZ
??_DIdUniquenessPolicy@PortableServer@@QEAAXXZ
??_DImplicitActivationPolicy@PortableServer@@QEAAXXZ
??_DLifespanPolicy@PortableServer@@QEAAXXZ
??_DLocalObject@CORBA@@QEAAXXZ
??_DLocalShortcutPolicy@omniPolicy@@QEAAXXZ
??_DPlainObjectKeysPolicy@omniPolicy@@QEAAXXZ
??_DPollableSetImpl@omniAMI@@QEAAXXZ
??_DPollerImpl@omniAMI@@QEAAXXZ
??_DReplyHandler@POA_Messaging@@QEAAXXZ
??_DRequestProcessingPolicy@PortableServer@@QEAAXXZ
??_DServantRetentionPolicy@PortableServer@@QEAAXXZ
??_DStringValue@CORBA@@IEAAXXZ
??_DThreadPolicy@PortableServer@@QEAAXXZ
??_DUnknownValue@omni@@QEAAXXZ
??_DWStringValue@CORBA@@IEAAXXZ
??_D_nil_PollableSet@CORBA@@IEAAXXZ
??_D_objref_AbstractInterfaceDef@CORBA@@IEAAXXZ
??_D_objref_AliasDef@CORBA@@IEAAXXZ
??_D_objref_ArrayDef@CORBA@@IEAAXXZ
??_D_objref_AttributeDef@CORBA@@IEAAXXZ
??_D_objref_ConstantDef@CORBA@@IEAAXXZ
??_D_objref_Contained@CORBA@@IEAAXXZ
??_D_objref_Container@CORBA@@IEAAXXZ
??_D_objref_EnumDef@CORBA@@IEAAXXZ
??_D_objref_ExceptionDef@CORBA@@IEAAXXZ
??_D_objref_FixedDef@CORBA@@IEAAXXZ
??_D_objref_IDLType@CORBA@@IEAAXXZ
??_D_objref_IRObject@CORBA@@IEAAXXZ
??_D_objref_InterfaceDef@CORBA@@IEAAXXZ
??_D_objref_ModuleDef@CORBA@@IEAAXXZ
??_D_objref_NativeDef@CORBA@@IEAAXXZ
??_D_objref_OperationDef@CORBA@@IEAAXXZ
??_D_objref_PrimitiveDef@CORBA@@IEAAXXZ
??_D_objref_ReplyHandler@Messaging@@IEAAXXZ
??_D_objref_Repository@CORBA@@IEAAXXZ
??_D_objref_SequenceDef@CORBA@@IEAAXXZ
??_D_objref_StringDef@CORBA@@IEAAXXZ
??_D_objref_StructDef@CORBA@@IEAAXXZ
??_D_objref_TypedefDef@CORBA@@IEAAXXZ
??_D_objref_UnionDef@CORBA@@IEAAXXZ
??_D_objref_ValueBoxDef@CORBA@@IEAAXXZ
??_D_objref_ValueDef@CORBA@@IEAAXXZ
??_D_objref_ValueMemberDef@CORBA@@IEAAXXZ
??_D_objref_WstringDef@CORBA@@IEAAXXZ
??_DomniNilDynAny@omni@@QEAAXXZ
??_DomniNilDynAnyFactory@omni@@QEAAXXZ
??_DomniNilDynArray@omni@@QEAAXXZ
??_DomniNilDynEnum@omni@@QEAAXXZ
??_DomniNilDynFixed@omni@@QEAAXXZ
??_DomniNilDynSequence@omni@@QEAAXXZ
??_DomniNilDynStruct@omni@@QEAAXXZ
??_DomniNilDynUnion@omni@@QEAAXXZ
??_DomniNilDynValue@omni@@QEAAXXZ
??_DomniNilDynValueBox@omni@@QEAAXXZ
??_DomniNilDynValueCommon@omni@@QEAAXXZ
?NP_aliasExpand@TypeCode_alias@omni@@UEAAPEAVTypeCode_base@2@PEAVTypeCode_pairlist@2@@Z
?NP_aliasExpand@TypeCode_array@omni@@UEAAPEAVTypeCode_base@2@PEAVTypeCode_pairlist@2@@Z
?NP_aliasExpand@TypeCode_base@omni@@UEAAPEAV12@PEAVTypeCode_pairlist@2@@Z
?NP_aliasExpand@TypeCode_except@omni@@UEAAPEAVTypeCode_base@2@PEAVTypeCode_pairlist@2@@Z
?NP_aliasExpand@TypeCode_indirect@omni@@UEAAPEAVTypeCode_base@2@PEAVTypeCode_pairlist@2@@Z
?NP_aliasExpand@TypeCode_sequence@omni@@UEAAPEAVTypeCode_base@2@PEAVTypeCode_pairlist@2@@Z
?NP_aliasExpand@TypeCode_struct@omni@@UEAAPEAVTypeCode_base@2@PEAVTypeCode_pairlist@2@@Z
?NP_aliasExpand@TypeCode_union@omni@@UEAAPEAVTypeCode_base@2@PEAVTypeCode_pairlist@2@@Z
?NP_aliasExpand@TypeCode_value@omni@@UEAAPEAVTypeCode_base@2@PEAVTypeCode_pairlist@2@@Z
?NP_aliasExpand@TypeCode_value_box@omni@@UEAAPEAVTypeCode_base@2@PEAVTypeCode_pairlist@2@@Z
?NP_alias_tc@TypeCode@CORBA@@SAPEAV12@PEBD0PEAV12@@Z
?NP_array_tc@TypeCode@CORBA@@SAPEAV12@KPEAV12@@Z
?NP_compactTc@TypeCode_base@omni@@QEAAPEAV12@XZ
?NP_complete_recursive@TypeCode_alias@omni@@UEAA_NPEAVTypeCode_base@2@PEBD@Z
?NP_complete_recursive@TypeCode_array@omni@@UEAA_NPEAVTypeCode_base@2@PEBD@Z
?NP_complete_recursive@TypeCode_base@omni@@UEAA_NPEAV12@PEBD@Z
?NP_complete_recursive@TypeCode_except@omni@@UEAA_NPEAVTypeCode_base@2@PEBD@Z
?NP_complete_recursive@TypeCode_indirect@omni@@UEAA_NPEAVTypeCode_base@2@PEBD@Z
?NP_complete_recursive@TypeCode_sequence@omni@@UEAA_NPEAVTypeCode_base@2@PEBD@Z
?NP_complete_recursive@TypeCode_struct@omni@@UEAA_NPEAVTypeCode_base@2@PEBD@Z
?NP_complete_recursive@TypeCode_union@omni@@UEAA_NPEAVTypeCode_base@2@PEBD@Z
?NP_complete_recursive@TypeCode_value@omni@@UEAA_NPEAVTypeCode_base@2@PEBD@Z
?NP_complete_recursive_sequences@TypeCode_alias@omni@@UEAA_NPEAVTypeCode_base@2@K@Z
?NP_complete_recursive_sequences@TypeCode_array@omni@@UEAA_NPEAVTypeCode_base@2@K@Z
?NP_complete_recursive_sequences@TypeCode_base@omni@@UEAA_NPEAV12@K@Z
?NP_complete_recursive_sequences@TypeCode_except@omni@@UEAA_NPEAVTypeCode_base@2@K@Z
?NP_complete_recursive_sequences@TypeCode_indirect@omni@@UEAA_NPEAVTypeCode_base@2@K@Z
?NP_complete_recursive_sequences@TypeCode_sequence@omni@@UEAA_NPEAVTypeCode_base@2@K@Z
?NP_complete_recursive_sequences@TypeCode_struct@omni@@UEAA_NPEAVTypeCode_base@2@K@Z
?NP_complete_recursive_sequences@TypeCode_union@omni@@UEAA_NPEAVTypeCode_base@2@K@Z
?NP_complete_recursive_sequences@TypeCode_value@omni@@UEAA_NPEAVTypeCode_base@2@K@Z
?NP_concrete_base_type@TypeCode_base@omni@@UEBAPEAV12@XZ
?NP_concrete_base_type@TypeCode_indirect@omni@@UEBAPEAVTypeCode_base@2@XZ
?NP_concrete_base_type@TypeCode_value@omni@@UEBAPEAVTypeCode_base@2@XZ
?NP_containsAnAlias@TypeCode_alias@omni@@UEAA_NXZ
?NP_containsAnAlias@TypeCode_array@omni@@UEAA_NXZ
?NP_containsAnAlias@TypeCode_base@omni@@UEAA_NXZ
?NP_containsAnAlias@TypeCode_except@omni@@UEAA_NXZ
?NP_containsAnAlias@TypeCode_indirect@omni@@UEAA_NXZ
?NP_containsAnAlias@TypeCode_sequence@omni@@UEAA_NXZ
?NP_containsAnAlias@TypeCode_struct@omni@@UEAA_NXZ
?NP_containsAnAlias@TypeCode_union@omni@@UEAA_NXZ
?NP_containsAnAlias@TypeCode_value@omni@@UEAA_NXZ
?NP_containsAnAlias@TypeCode_value_box@omni@@UEAA_NXZ
?NP_content_type@TypeCode_alias@omni@@UEBAPEAVTypeCode_base@2@XZ
?NP_content_type@TypeCode_array@omni@@UEBAPEAVTypeCode_base@2@XZ
?NP_content_type@TypeCode_base@omni@@UEBAPEAV12@XZ
?NP_content_type@TypeCode_indirect@omni@@UEBAPEAVTypeCode_base@2@XZ
?NP_content_type@TypeCode_sequence@omni@@UEBAPEAVTypeCode_base@2@XZ
?NP_content_type@TypeCode_value_box@omni@@UEBAPEAVTypeCode_base@2@XZ
?NP_data@?$_CORBA_PseudoValue_Sequence@PEAD@@QEAAPEAPEADXZ
?NP_data@?$_CORBA_Sequence@E@@QEBAPEAEXZ
?NP_data@?$_CORBA_Sequence@F@@QEBAPEAFXZ
?NP_data@?$_CORBA_Sequence@G@@QEBAPEAGXZ
?NP_data@?$_CORBA_Sequence@J@@QEBAPEAJXZ
?NP_data@?$_CORBA_Sequence@K@@QEBAPEAKXZ
?NP_data@?$_CORBA_Sequence@M@@QEBAPEAMXZ
?NP_data@?$_CORBA_Sequence@N@@QEBAPEANXZ
?NP_data@?$_CORBA_Sequence@_J@@QEBAPEA_JXZ
?NP_data@?$_CORBA_Sequence@_K@@QEBAPEA_KXZ
?NP_data@?$_CORBA_Sequence@_N@@QEBAPEA_NXZ
?NP_data@?$_CORBA_Sequence@_W@@QEBAPEA_WXZ
?NP_data@?$_CORBA_Sequence_Value@VValueBase@CORBA@@V?$_CORBA_Value_Element@VValueBase@CORBA@@VValueBase_Helper@2@@@VValueBase_Helper@2@@@QEBAPEAPEAVValueBase@CORBA@@XZ
?NP_default_index@TypeCode_base@omni@@UEBAJXZ
?NP_default_index@TypeCode_indirect@omni@@UEBAJXZ
?NP_default_index@TypeCode_union@omni@@UEBAJXZ
?NP_default_value@TypeCode_union@omni@@QEAA_KXZ
?NP_discriminator_type@TypeCode_base@omni@@UEBAPEAV12@XZ
?NP_discriminator_type@TypeCode_indirect@omni@@UEBAPEAVTypeCode_base@2@XZ
?NP_discriminator_type@TypeCode_union@omni@@UEBAPEAVTypeCode_base@2@XZ
?NP_duplicate@ContextImpl@omni@@UEAAPEAVContext@CORBA@@XZ
?NP_duplicate@ContextListImpl@omni@@UEAAPEAVContextList@CORBA@@XZ
?NP_duplicate@Environment@CORBA@@UEAAPEAV12@XZ
?NP_duplicate@EnvironmentImpl@omni@@UEAAPEAVEnvironment@CORBA@@XZ
?NP_duplicate@ExceptionListImpl@omni@@UEAAPEAVExceptionList@CORBA@@XZ
?NP_duplicate@NVListImpl@omni@@UEAAPEAVNVList@CORBA@@XZ
?NP_duplicate@NamedValueImpl@omni@@UEAAPEAVNamedValue@CORBA@@XZ
?NP_duplicate@RequestImpl@omni@@UEAAPEAVRequest@CORBA@@XZ
?NP_duplicate@omniNilContext@omni@@UEAAPEAVContext@CORBA@@XZ
?NP_duplicate@omniNilCtList@omni@@UEAAPEAVContextList@CORBA@@XZ
?NP_duplicate@omniNilEnv@omni@@UEAAPEAVEnvironment@CORBA@@XZ
?NP_duplicate@omniNilExList@omni@@UEAAPEAVExceptionList@CORBA@@XZ
?NP_duplicate@omniNilNV@omni@@UEAAPEAVNamedValue@CORBA@@XZ
?NP_duplicate@omniNilNVList@omni@@UEAAPEAVNVList@CORBA@@XZ
?NP_duplicate@omniNilRequest@omni@@UEAAPEAVRequest@CORBA@@XZ
?NP_enum_tc@TypeCode@CORBA@@SAPEAV12@PEBD0AEBVEnumMemberSeq@2@@Z
?NP_equal@TypeCode_base@omni@@QEBA_NPEBV12@_NPEBVTypeCode_pairlist@2@@Z
?NP_expand@TypeCode_base@omni@@SAPEBV12@PEBV12@@Z
?NP_extendedEqual@TypeCode_alias@omni@@UEBA_NPEBVTypeCode_base@2@_NPEBVTypeCode_pairlist@2@@Z
?NP_extendedEqual@TypeCode_array@omni@@UEBA_NPEBVTypeCode_base@2@_NPEBVTypeCode_pairlist@2@@Z
?NP_extendedEqual@TypeCode_base@omni@@UEBA_NPEBV12@_NPEBVTypeCode_pairlist@2@@Z
?NP_extendedEqual@TypeCode_enum@omni@@UEBA_NPEBVTypeCode_base@2@_NPEBVTypeCode_pairlist@2@@Z
?NP_extendedEqual@TypeCode_except@omni@@UEBA_NPEBVTypeCode_base@2@_NPEBVTypeCode_pairlist@2@@Z
?NP_extendedEqual@TypeCode_fixed@omni@@UEBA_NPEBVTypeCode_base@2@_NPEBVTypeCode_pairlist@2@@Z
?NP_extendedEqual@TypeCode_indirect@omni@@UEBA_NPEBVTypeCode_base@2@_NPEBVTypeCode_pairlist@2@@Z
?NP_extendedEqual@TypeCode_objref@omni@@UEBA_NPEBVTypeCode_base@2@_NPEBVTypeCode_pairlist@2@@Z
?NP_extendedEqual@TypeCode_sequence@omni@@UEBA_NPEBVTypeCode_base@2@_NPEBVTypeCode_pairlist@2@@Z
?NP_extendedEqual@TypeCode_string@omni@@UEBA_NPEBVTypeCode_base@2@_NPEBVTypeCode_pairlist@2@@Z
?NP_extendedEqual@TypeCode_struct@omni@@UEBA_NPEBVTypeCode_base@2@_NPEBVTypeCode_pairlist@2@@Z
?NP_extendedEqual@TypeCode_union@omni@@UEBA_NPEBVTypeCode_base@2@_NPEBVTypeCode_pairlist@2@@Z
?NP_extendedEqual@TypeCode_value@omni@@UEBA_NPEBVTypeCode_base@2@_NPEBVTypeCode_pairlist@2@@Z
?NP_extendedEqual@TypeCode_value_box@omni@@UEBA_NPEBVTypeCode_base@2@_NPEBVTypeCode_pairlist@2@@Z
?NP_extendedEqual@TypeCode_wstring@omni@@UEBA_NPEBVTypeCode_base@2@_NPEBVTypeCode_pairlist@2@@Z
?NP_fixed_digits@TypeCode_base@omni@@UEBAGXZ
?NP_fixed_digits@TypeCode_fixed@omni@@UEBAGXZ
?NP_fixed_digits@TypeCode_indirect@omni@@UEBAGXZ
?NP_fixed_scale@TypeCode_base@omni@@UEBAFXZ
?NP_fixed_scale@TypeCode_fixed@omni@@UEBAFXZ
?NP_fixed_scale@TypeCode_indirect@omni@@UEBAFXZ
?NP_fixed_tc@TypeCode@CORBA@@SAPEAV12@GF@Z
?NP_id@TypeCode_alias@omni@@UEBAPEBDXZ
?NP_id@TypeCode_base@omni@@UEBAPEBDXZ
?NP_id@TypeCode_enum@omni@@UEBAPEBDXZ
?NP_id@TypeCode_except@omni@@UEBAPEBDXZ
?NP_id@TypeCode_indirect@omni@@UEBAPEBDXZ
?NP_id@TypeCode_objref@omni@@UEBAPEBDXZ
?NP_id@TypeCode_struct@omni@@UEBAPEBDXZ
?NP_id@TypeCode_union@omni@@UEBAPEBDXZ
?NP_id@TypeCode_value@omni@@UEBAPEBDXZ
?NP_id@TypeCode_value_box@omni@@UEBAPEBDXZ
?NP_index_from_discriminator@TypeCode_union@omni@@QEBAJ_K@Z
?NP_interface_tc@TypeCode@CORBA@@SAPEAV12@PEBD0@Z
?NP_is_nil@ContextImpl@omni@@UEBA_NXZ
?NP_is_nil@ContextListImpl@omni@@UEBA_NXZ
?NP_is_nil@Environment@CORBA@@UEBA_NXZ
?NP_is_nil@ExceptionListImpl@omni@@UEBA_NXZ
?NP_is_nil@NVListImpl@omni@@UEBA_NXZ
?NP_is_nil@NamedValueImpl@omni@@UEBA_NXZ
?NP_is_nil@RequestImpl@omni@@UEBA_NXZ
?NP_is_nil@TypeCode@CORBA@@UEBA_NXZ
?NP_is_nil@TypeCode_base@omni@@UEBA_NXZ
?NP_is_nil@omniNilContext@omni@@UEBA_NXZ
?NP_is_nil@omniNilCtList@omni@@UEBA_NXZ
?NP_is_nil@omniNilEnv@omni@@UEBA_NXZ
?NP_is_nil@omniNilExList@omni@@UEBA_NXZ
?NP_is_nil@omniNilNV@omni@@UEBA_NXZ
?NP_is_nil@omniNilNVList@omni@@UEBA_NXZ
?NP_is_nil@omniNilRequest@omni@@UEBA_NXZ
?NP_kind@TypeCode_base@omni@@QEBA?AW4TCKind@CORBA@@XZ
?NP_length@TypeCode_array@omni@@UEBAKXZ
?NP_length@TypeCode_base@omni@@UEBAKXZ
?NP_length@TypeCode_indirect@omni@@UEBAKXZ
?NP_length@TypeCode_sequence@omni@@UEBAKXZ
?NP_length@TypeCode_string@omni@@UEBAKXZ
?NP_length@TypeCode_wstring@omni@@UEBAKXZ
?NP_list@ContextListImpl@omni@@QEAAPEBQEBDXZ
?NP_marshalComplexParams@TypeCode_alias@omni@@UEBAXAEAVcdrStream@@PEAVTypeCode_offsetTable@2@@Z
?NP_marshalComplexParams@TypeCode_array@omni@@UEBAXAEAVcdrStream@@PEAVTypeCode_offsetTable@2@@Z
?NP_marshalComplexParams@TypeCode_base@omni@@UEBAXAEAVcdrStream@@PEAVTypeCode_offsetTable@2@@Z
?NP_marshalComplexParams@TypeCode_enum@omni@@UEBAXAEAVcdrStream@@PEAVTypeCode_offsetTable@2@@Z
?NP_marshalComplexParams@TypeCode_except@omni@@UEBAXAEAVcdrStream@@PEAVTypeCode_offsetTable@2@@Z
?NP_marshalComplexParams@TypeCode_indirect@omni@@UEBAXAEAVcdrStream@@PEAVTypeCode_offsetTable@2@@Z
?NP_marshalComplexParams@TypeCode_objref@omni@@UEBAXAEAVcdrStream@@PEAVTypeCode_offsetTable@2@@Z
?NP_marshalComplexParams@TypeCode_sequence@omni@@UEBAXAEAVcdrStream@@PEAVTypeCode_offsetTable@2@@Z
?NP_marshalComplexParams@TypeCode_struct@omni@@UEBAXAEAVcdrStream@@PEAVTypeCode_offsetTable@2@@Z
?NP_marshalComplexParams@TypeCode_union@omni@@UEBAXAEAVcdrStream@@PEAVTypeCode_offsetTable@2@@Z
?NP_marshalComplexParams@TypeCode_value@omni@@UEBAXAEAVcdrStream@@PEAVTypeCode_offsetTable@2@@Z
?NP_marshalComplexParams@TypeCode_value_box@omni@@UEBAXAEAVcdrStream@@PEAVTypeCode_offsetTable@2@@Z
?NP_marshalDataOnly@Any@CORBA@@QEBAXAEAVcdrStream@@@Z
?NP_marshalExceptionDataOnly@Any@CORBA@@QEBAXAEAVcdrStream@@@Z
?NP_marshalSimpleParams@TypeCode_base@omni@@UEBAXAEAVcdrStream@@PEAVTypeCode_offsetTable@2@@Z
?NP_marshalSimpleParams@TypeCode_fixed@omni@@UEBAXAEAVcdrStream@@PEAVTypeCode_offsetTable@2@@Z
?NP_marshalSimpleParams@TypeCode_indirect@omni@@UEBAXAEAVcdrStream@@PEAVTypeCode_offsetTable@2@@Z
?NP_marshalSimpleParams@TypeCode_string@omni@@UEBAXAEAVcdrStream@@PEAVTypeCode_offsetTable@2@@Z
?NP_marshalSimpleParams@TypeCode_wstring@omni@@UEBAXAEAVcdrStream@@PEAVTypeCode_offsetTable@2@@Z
?NP_member_count@TypeCode_base@omni@@UEBAKXZ
?NP_member_count@TypeCode_enum@omni@@UEBAKXZ
?NP_member_count@TypeCode_except@omni@@UEBAKXZ
?NP_member_count@TypeCode_indirect@omni@@UEBAKXZ
?NP_member_count@TypeCode_struct@omni@@UEBAKXZ
?NP_member_count@TypeCode_union@omni@@UEBAKXZ
?NP_member_count@TypeCode_value@omni@@UEBAKXZ
?NP_member_index@TypeCode_enum@omni@@QEBAJPEBD@Z
?NP_member_label@TypeCode_base@omni@@UEBAPEAVAny@CORBA@@K@Z
?NP_member_label@TypeCode_indirect@omni@@UEBAPEAVAny@CORBA@@K@Z
?NP_member_label@TypeCode_union@omni@@UEBAPEAVAny@CORBA@@K@Z
?NP_member_label_val@TypeCode_union@omni@@QEBA_KK@Z
?NP_member_name@TypeCode_base@omni@@UEBAPEBDK@Z
?NP_member_name@TypeCode_enum@omni@@UEBAPEBDK@Z
?NP_member_name@TypeCode_except@omni@@UEBAPEBDK@Z
?NP_member_name@TypeCode_indirect@omni@@UEBAPEBDK@Z
?NP_member_name@TypeCode_struct@omni@@UEBAPEBDK@Z
?NP_member_name@TypeCode_union@omni@@UEBAPEBDK@Z
?NP_member_name@TypeCode_value@omni@@UEBAPEBDK@Z
?NP_member_type@TypeCode_base@omni@@UEBAPEAV12@K@Z
?NP_member_type@TypeCode_except@omni@@UEBAPEAVTypeCode_base@2@K@Z
?NP_member_type@TypeCode_indirect@omni@@UEBAPEAVTypeCode_base@2@K@Z
?NP_member_type@TypeCode_struct@omni@@UEBAPEAVTypeCode_base@2@K@Z
?NP_member_type@TypeCode_union@omni@@UEBAPEAVTypeCode_base@2@K@Z
?NP_member_type@TypeCode_value@omni@@UEBAPEAVTypeCode_base@2@K@Z
?NP_member_visibility@TypeCode_base@omni@@UEBAFK@Z
?NP_member_visibility@TypeCode_indirect@omni@@UEBAFK@Z
?NP_member_visibility@TypeCode_value@omni@@UEBAFK@Z
?NP_name@TypeCode_alias@omni@@UEBAPEBDXZ
?NP_name@TypeCode_base@omni@@UEBAPEBDXZ
?NP_name@TypeCode_enum@omni@@UEBAPEBDXZ
?NP_name@TypeCode_except@omni@@UEBAPEBDXZ
?NP_name@TypeCode_indirect@omni@@UEBAPEBDXZ
?NP_name@TypeCode_objref@omni@@UEBAPEBDXZ
?NP_name@TypeCode_struct@omni@@UEBAPEBDXZ
?NP_name@TypeCode_union@omni@@UEBAPEBDXZ
?NP_name@TypeCode_value@omni@@UEBAPEBDXZ
?NP_name@TypeCode_value_box@omni@@UEBAPEBDXZ
?NP_namesEqual@TypeCode_base@omni@@SA_NPEBD0@Z
?NP_nodetype@DynAnyImpl@omni@@$4PPPPPPPM@A@EBAHXZ
?NP_nodetype@DynAnyImpl@omni@@UEBAHXZ
?NP_nodetype@DynArrayImpl@omni@@$4PPPPPPPM@A@EBAHXZ
?NP_nodetype@DynArrayImpl@omni@@UEBAHXZ
?NP_nodetype@DynEnumImpl@omni@@$4PPPPPPPM@A@EBAHXZ
?NP_nodetype@DynEnumImpl@omni@@UEBAHXZ
?NP_nodetype@DynFixedImpl@omni@@$4PPPPPPPM@A@EBAHXZ
?NP_nodetype@DynFixedImpl@omni@@UEBAHXZ
?NP_nodetype@DynSequenceImpl@omni@@$4PPPPPPPM@A@EBAHXZ
?NP_nodetype@DynSequenceImpl@omni@@UEBAHXZ
?NP_nodetype@DynStructImpl@omni@@$4PPPPPPPM@A@EBAHXZ
?NP_nodetype@DynStructImpl@omni@@UEBAHXZ
?NP_nodetype@DynUnionDisc@omni@@$4PPPPPPPM@A@EBAHXZ
?NP_nodetype@DynUnionDisc@omni@@UEBAHXZ
?NP_nodetype@DynUnionEnumDisc@omni@@$4PPPPPPPM@A@EBAHXZ
?NP_nodetype@DynUnionEnumDisc@omni@@UEBAHXZ
?NP_nodetype@DynUnionImpl@omni@@$4PPPPPPPM@A@EBAHXZ
?NP_nodetype@DynUnionImpl@omni@@UEBAHXZ
?NP_nodetype@DynValueBoxImpl@omni@@$4PPPPPPPM@A@EBAHXZ
?NP_nodetype@DynValueBoxImpl@omni@@UEBAHXZ
?NP_nodetype@DynValueImpl@omni@@$4PPPPPPPM@A@EBAHXZ
?NP_nodetype@DynValueImpl@omni@@UEBAHXZ
?NP_nodetype@omniNilDynAny@omni@@$4PPPPPPPM@A@EBAHXZ
?NP_nodetype@omniNilDynAny@omni@@UEBAHXZ
?NP_paramListType@TypeCode_objref@omni@@UEBA?AW4TypeCode_paramListType@2@XZ
?NP_paramListType@TypeCode_sequence@omni@@UEBA?AW4TypeCode_paramListType@2@XZ
?NP_paramListType@TypeCode_value@omni@@UEBA?AW4TypeCode_paramListType@2@XZ
?NP_paramListType@TypeCode_value_box@omni@@UEBA?AW4TypeCode_paramListType@2@XZ
?NP_param_count@TypeCode_alias@omni@@UEBAJXZ
?NP_param_count@TypeCode_array@omni@@UEBAJXZ
?NP_param_count@TypeCode_base@omni@@UEBAJXZ
?NP_param_count@TypeCode_enum@omni@@UEBAJXZ
?NP_param_count@TypeCode_except@omni@@UEBAJXZ
?NP_param_count@TypeCode_indirect@omni@@UEBAJXZ
?NP_param_count@TypeCode_objref@omni@@UEBAJXZ
?NP_param_count@TypeCode_sequence@omni@@UEBAJXZ
?NP_param_count@TypeCode_string@omni@@UEBAJXZ
?NP_param_count@TypeCode_struct@omni@@UEBAJXZ
?NP_param_count@TypeCode_union@omni@@UEBAJXZ
?NP_param_count@TypeCode_wstring@omni@@UEBAJXZ
?NP_parameter@TypeCode_alias@omni@@UEBAPEAVAny@CORBA@@J@Z
?NP_parameter@TypeCode_array@omni@@UEBAPEAVAny@CORBA@@J@Z
?NP_parameter@TypeCode_base@omni@@UEBAPEAVAny@CORBA@@J@Z
?NP_parameter@TypeCode_enum@omni@@UEBAPEAVAny@CORBA@@J@Z
?NP_parameter@TypeCode_except@omni@@UEBAPEAVAny@CORBA@@J@Z
?NP_parameter@TypeCode_indirect@omni@@UEBAPEAVAny@CORBA@@J@Z
?NP_parameter@TypeCode_objref@omni@@UEBAPEAVAny@CORBA@@J@Z
?NP_parameter@TypeCode_sequence@omni@@UEBAPEAVAny@CORBA@@J@Z
?NP_parameter@TypeCode_string@omni@@UEBAPEAVAny@CORBA@@J@Z
?NP_parameter@TypeCode_struct@omni@@UEBAPEAVAny@CORBA@@J@Z
?NP_parameter@TypeCode_union@omni@@UEBAPEAVAny@CORBA@@J@Z
?NP_parameter@TypeCode_wstring@omni@@UEBAPEAVAny@CORBA@@J@Z
?NP_recursive_sequence_tc@TypeCode@CORBA@@SAPEAV12@KK@Z
?NP_recursive_tc@TypeCode@CORBA@@SAPEAV12@PEBD@Z
?NP_releaseChildren@TypeCode_alias@omni@@UEAAXXZ
?NP_releaseChildren@TypeCode_array@omni@@UEAAXXZ
?NP_releaseChildren@TypeCode_base@omni@@UEAAXXZ
?NP_releaseChildren@TypeCode_except@omni@@UEAAXXZ
?NP_releaseChildren@TypeCode_indirect@omni@@UEAAXXZ
?NP_releaseChildren@TypeCode_sequence@omni@@UEAAXXZ
?NP_releaseChildren@TypeCode_struct@omni@@UEAAXXZ
?NP_releaseChildren@TypeCode_union@omni@@UEAAXXZ
?NP_releaseChildren@TypeCode_value@omni@@UEAAXXZ
?NP_releaseChildren@TypeCode_value_box@omni@@UEAAXXZ
?NP_resolved@TypeCode_indirect@omni@@QEAAPEAVTypeCode_base@2@XZ
?NP_sequence_tc@TypeCode@CORBA@@SAPEAV12@KPEAV12@@Z
?NP_string_tc@TypeCode@CORBA@@SAPEAV12@K@Z
?NP_type@Any@CORBA@@QEBAPEAVTypeCode@2@XZ
?NP_type_modifier@TypeCode_base@omni@@UEBAFXZ
?NP_type_modifier@TypeCode_indirect@omni@@UEBAFXZ
?NP_type_modifier@TypeCode_value@omni@@UEBAFXZ
?NP_unmarshalComplexParams@TypeCode_abstract_interface@omni@@SAPEAVTypeCode_base@2@AEAVcdrStream@@PEAVTypeCode_offsetTable@2@@Z
?NP_unmarshalComplexParams@TypeCode_alias@omni@@SAPEAVTypeCode_base@2@AEAVcdrStream@@PEAVTypeCode_offsetTable@2@@Z
?NP_unmarshalComplexParams@TypeCode_array@omni@@SAPEAVTypeCode_base@2@AEAVcdrStream@@PEAVTypeCode_offsetTable@2@@Z
?NP_unmarshalComplexParams@TypeCode_enum@omni@@SAPEAVTypeCode_base@2@AEAVcdrStream@@PEAVTypeCode_offsetTable@2@@Z
?NP_unmarshalComplexParams@TypeCode_except@omni@@SAPEAVTypeCode_base@2@AEAVcdrStream@@PEAVTypeCode_offsetTable@2@@Z
?NP_unmarshalComplexParams@TypeCode_local_interface@omni@@SAPEAVTypeCode_base@2@AEAVcdrStream@@PEAVTypeCode_offsetTable@2@@Z
?NP_unmarshalComplexParams@TypeCode_objref@omni@@SAPEAVTypeCode_base@2@AEAVcdrStream@@PEAVTypeCode_offsetTable@2@@Z
?NP_unmarshalComplexParams@TypeCode_sequence@omni@@SAPEAVTypeCode_base@2@AEAVcdrStream@@PEAVTypeCode_offsetTable@2@@Z
?NP_unmarshalComplexParams@TypeCode_struct@omni@@SAPEAVTypeCode_base@2@AEAVcdrStream@@PEAVTypeCode_offsetTable@2@@Z
?NP_unmarshalComplexParams@TypeCode_union@omni@@SAPEAVTypeCode_base@2@AEAVcdrStream@@PEAVTypeCode_offsetTable@2@@Z
?NP_unmarshalComplexParams@TypeCode_value@omni@@SAPEAVTypeCode_base@2@AEAVcdrStream@@PEAVTypeCode_offsetTable@2@@Z
?NP_unmarshalComplexParams@TypeCode_value_box@omni@@SAPEAVTypeCode_base@2@AEAVcdrStream@@PEAVTypeCode_offsetTable@2@@Z
?NP_unmarshalDataOnly@Any@CORBA@@QEAAXAEAVcdrStream@@@Z
?NP_unmarshalExceptionDataOnly@Any@CORBA@@QEAAXAEAVcdrStream@@@Z
?NP_unmarshalSimpleParams@TypeCode_fixed@omni@@SAPEAVTypeCode_base@2@AEAVcdrStream@@PEAVTypeCode_offsetTable@2@@Z
?NP_unmarshalSimpleParams@TypeCode_string@omni@@SAPEAVTypeCode_base@2@AEAVcdrStream@@PEAVTypeCode_offsetTable@2@@Z
?NP_unmarshalSimpleParams@TypeCode_wstring@omni@@SAPEAVTypeCode_base@2@AEAVcdrStream@@PEAVTypeCode_offsetTable@2@@Z
?NP_value_box_tc@TypeCode@CORBA@@SAPEAV12@PEBD0PEAV12@@Z
?NP_value_tc@TypeCode@CORBA@@SAPEAV12@PEBD0FPEAV12@AEBVValueMemberSeq@2@@Z
?NP_wstring_tc@TypeCode@CORBA@@SAPEAV12@K@Z
?PD_MAGIC@InputValueTracker@omni@@0KB
?PD_MAGIC@OutputValueTracker@omni@@0KB
?PR_Object_tc@TypeCode@CORBA@@SAPEAV12@XZ
?PR_Principal_tc@TypeCode@CORBA@@SAPEAV12@XZ
?PR_TypeCode_tc@TypeCode@CORBA@@SAPEAV12@XZ
?PR_abstract_interface_tc@TypeCode@CORBA@@SAPEAV12@PEBD0PEAV_Tracker@12@@Z
?PR_alias_tc@TypeCode@CORBA@@SAPEAV12@PEBD0PEAV12@PEAV_Tracker@12@@Z
?PR_any_tc@TypeCode@CORBA@@SAPEAV12@XZ
?PR_array_tc@TypeCode@CORBA@@SAPEAV12@KPEAV12@PEAV_Tracker@12@@Z
?PR_boolean_tc@TypeCode@CORBA@@SAPEAV12@XZ
?PR_char_tc@TypeCode@CORBA@@SAPEAV12@XZ
?PR_clearData@Any@CORBA@@QEAAXXZ
?PR_content_is_assigned@TypeCode_sequence@omni@@QEBA_NXZ
?PR_double_tc@TypeCode@CORBA@@SAPEAV12@XZ
?PR_enum_tc@TypeCode@CORBA@@SAPEAV12@PEBD0PEAPEBDKPEAV_Tracker@12@@Z
?PR_exception_tc@TypeCode@CORBA@@SAPEAV12@PEBD0PEBUPR_structMember@2@KPEAV_Tracker@12@@Z
?PR_extract@Any@CORBA@@QEBA_NPEAVTypeCode@2@P6AXAEAVcdrStream@@AEAPEAX@ZP6AX1PEAX@ZP6AX4@Z2@Z
?PR_extract@Any@CORBA@@QEBA_NPEAVTypeCode@2@P6AXAEAVcdrStream@@AEAPEAX@ZPEAX@Z
?PR_fixed_tc@TypeCode@CORBA@@SAPEAV12@GGPEAV_Tracker@12@@Z
?PR_float_tc@TypeCode@CORBA@@SAPEAV12@XZ
?PR_forward_tc@TypeCode@CORBA@@SAPEAV12@PEBDPEAV_Tracker@12@@Z
?PR_insert@Any@CORBA@@QEAAXPEAVTypeCode@2@P6AXAEAVcdrStream@@PEAX@Z2@Z
?PR_insert@Any@CORBA@@QEAAXPEAVTypeCode@2@P6AXAEAVcdrStream@@PEAX@ZP6AX2@Z2@Z
?PR_interface_tc@TypeCode@CORBA@@SAPEAV12@PEBD0PEAV_Tracker@12@@Z
?PR_is_valid@Context@CORBA@@SA_NPEAV12@@Z
?PR_is_valid@ContextList@CORBA@@SA_NPEAV12@@Z
?PR_is_valid@DynAny@DynamicAny@@SA_NPEBV12@@Z
?PR_is_valid@Environment@CORBA@@SA_NPEAV12@@Z
?PR_is_valid@Exception@CORBA@@SA_NPEAV12@@Z
?PR_is_valid@ExceptionList@CORBA@@SA_NPEAV12@@Z
?PR_is_valid@NVList@CORBA@@SA_NPEAV12@@Z
?PR_is_valid@NamedValue@CORBA@@SA_NPEAV12@@Z
?PR_is_valid@Request@CORBA@@SA_NPEAV12@@Z
?PR_is_valid@TypeCode@CORBA@@SA_NPEAV12@@Z
?PR_local_interface_tc@TypeCode@CORBA@@SAPEAV12@PEBD0PEAV_Tracker@12@@Z
?PR_long_tc@TypeCode@CORBA@@SAPEAV12@XZ
?PR_longlong_tc@TypeCode@CORBA@@SAPEAV12@XZ
?PR_magic@Context@CORBA@@2KB
?PR_magic@ContextList@CORBA@@2KB
?PR_magic@DynAny@DynamicAny@@2KB
?PR_magic@Environment@CORBA@@2KB
?PR_magic@ExceptionList@CORBA@@2KB
?PR_magic@NVList@CORBA@@2KB
?PR_magic@NamedValue@CORBA@@2KB
?PR_magic@Request@CORBA@@2KB
?PR_magic@TypeCode@CORBA@@2KB
?PR_marshalExceptionRepoId@Any@CORBA@@SAXAEAVcdrStream@@PEBD@Z
?PR_null_tc@TypeCode@CORBA@@SAPEAV12@XZ
?PR_octet_tc@TypeCode@CORBA@@SAPEAV12@XZ
?PR_recursive_sequence_tc@TypeCode@CORBA@@SAPEAV12@KKPEAV_Tracker@12@@Z
?PR_sequence_tc@TypeCode@CORBA@@SAPEAV12@KPEAV12@PEAV_Tracker@12@@Z
?PR_short_tc@TypeCode@CORBA@@SAPEAV12@XZ
?PR_streamToRead@Any@CORBA@@QEBAAEAVcdrAnyMemoryStream@@XZ
?PR_streamToWrite@Any@CORBA@@QEAAAEAVcdrAnyMemoryStream@@XZ
?PR_string_tc@TypeCode@CORBA@@SAPEAV12@KPEAV_Tracker@12@@Z
?PR_string_tc@TypeCode@CORBA@@SAPEAV12@XZ
?PR_struct_tc@TypeCode@CORBA@@SAPEAV12@PEBD0PEBUPR_structMember@2@KPEAV_Tracker@12@@Z
?PR_ulong_tc@TypeCode@CORBA@@SAPEAV12@XZ
?PR_ulonglong_tc@TypeCode@CORBA@@SAPEAV12@XZ
?PR_union_tc@TypeCode@CORBA@@SAPEAV12@PEBD0PEAV12@PEBUPR_unionMember@2@KJPEAV_Tracker@12@@Z
?PR_unmarshalExceptionRepoId@Any@CORBA@@SAXAEAVcdrStream@@@Z
?PR_ushort_tc@TypeCode@CORBA@@SAPEAV12@XZ
?PR_value_box_tc@TypeCode@CORBA@@SAPEAV12@PEBD0PEAV12@PEAV_Tracker@12@@Z
?PR_value_tc@TypeCode@CORBA@@SAPEAV12@PEBD0FPEAV12@PEBUPR_valueMember@2@KPEAV_Tracker@12@@Z
?PR_void_tc@TypeCode@CORBA@@SAPEAV12@XZ
?PR_wchar_tc@TypeCode@CORBA@@SAPEAV12@XZ
?PR_wstring_tc@TypeCode@CORBA@@SAPEAV12@KPEAV_Tracker@12@@Z
?PR_wstring_tc@TypeCode@CORBA@@SAPEAV12@XZ
?TCS_C@cdrStream@@QEBAPEAV0omniCodeSet@omni@@XZ
?TCS_W@cdrStream@@QEBAPEAV0omniCodeSet@omni@@XZ
?ToConstTcBase_Checked@omni@@YAPEBVTypeCode_base@1@PEBVTypeCode@CORBA@@@Z
?ToDynAnyConstrBase@omni@@YAPEAVDynAnyConstrBase@1@PEAVDynAny@DynamicAny@@@Z
?ToDynAnyImpl@omni@@YAPEAVDynAnyImpl@1@PEAVDynAny@DynamicAny@@@Z
?ToDynAnyImplBase@omni@@YAPEAVDynAnyImplBase@1@PEAVDynAny@DynamicAny@@@Z
?ToDynUnionImpl@omni@@YAPEAVDynUnionImpl@1@PEAVDynAny@DynamicAny@@@Z
?ToTcBase_Checked@omni@@YAPEAVTypeCode_base@1@PEAVTypeCode@CORBA@@@Z
?_NP_box@StringValue@CORBA@@$4PPPPPPPM@A@EBA_NXZ
?_NP_box@StringValue@CORBA@@UEBA_NXZ
?_NP_box@ValueBase@CORBA@@UEBA_NXZ
?_NP_box@WStringValue@CORBA@@$4PPPPPPPM@A@EBA_NXZ
?_NP_box@WStringValue@CORBA@@UEBA_NXZ
?_NP_custom@DIIPollable@CORBA@@$4PPPPPPPM@A@EBA_NXZ
?_NP_custom@DIIPollable@CORBA@@$R4GA@M@PPPPPPPM@BA@EBA_NXZ
?_NP_custom@DIIPollable@CORBA@@UEBA_NXZ
?_NP_custom@ExceptionHolder@Messaging@@$4PPPPPPPM@A@EBA_NXZ
?_NP_custom@ExceptionHolder@Messaging@@$R4BA@7PPPPPPPM@BI@EBA_NXZ
?_NP_custom@ExceptionHolder@Messaging@@$R4BI@7PPPPPPPM@BI@EBA_NXZ
?_NP_custom@ExceptionHolder@Messaging@@UEBA_NXZ
?_NP_custom@Pollable@CORBA@@$4PPPPPPPM@A@EBA_NXZ
?_NP_custom@Pollable@CORBA@@UEBA_NXZ
?_NP_custom@Poller@Messaging@@$4PPPPPPPM@A@EBA_NXZ
?_NP_custom@Poller@Messaging@@$R4CA@M@PPPPPPPM@BI@EBA_NXZ
?_NP_custom@Poller@Messaging@@UEBA_NXZ
?_NP_custom@StringValue@CORBA@@$4PPPPPPPM@A@EBA_NXZ
?_NP_custom@StringValue@CORBA@@UEBA_NXZ
?_NP_custom@UnknownValue@omni@@$4PPPPPPPM@A@EBA_NXZ
?_NP_custom@UnknownValue@omni@@UEBA_NXZ
?_NP_custom@WStringValue@CORBA@@$4PPPPPPPM@A@EBA_NXZ
?_NP_custom@WStringValue@CORBA@@UEBA_NXZ
?_NP_decrRefCount@DynAnyFactoryImpl@omni@@UEAAXXZ
?_NP_decrRefCount@DynAnyImplBase@omni@@$4PPPPPPPM@7EAAXXZ
?_NP_decrRefCount@DynAnyImplBase@omni@@$4PPPPPPPM@A@EAAXXZ
?_NP_decrRefCount@DynAnyImplBase@omni@@$4PPPPPPPM@BA@EAAXXZ
?_NP_decrRefCount@DynAnyImplBase@omni@@$4PPPPPPPM@DA@EAAXXZ
?_NP_decrRefCount@DynAnyImplBase@omni@@UEAAXXZ
?_NP_decrRefCount@DynArrayImpl@omni@@$4PPPPPPPM@A@EAAXXZ
?_NP_decrRefCount@DynArrayImpl@omni@@UEAAXXZ
?_NP_decrRefCount@DynEnumImpl@omni@@$4PPPPPPPM@A@EAAXXZ
?_NP_decrRefCount@DynEnumImpl@omni@@UEAAXXZ
?_NP_decrRefCount@DynFixedImpl@omni@@$4PPPPPPPM@A@EAAXXZ
?_NP_decrRefCount@DynFixedImpl@omni@@UEAAXXZ
?_NP_decrRefCount@DynSequenceImpl@omni@@$4PPPPPPPM@A@EAAXXZ
?_NP_decrRefCount@DynSequenceImpl@omni@@UEAAXXZ
?_NP_decrRefCount@DynStructImpl@omni@@$4PPPPPPPM@A@EAAXXZ
?_NP_decrRefCount@DynStructImpl@omni@@UEAAXXZ
?_NP_decrRefCount@DynUnionEnumDisc@omni@@$4PPPPPPPM@A@EAAXXZ
?_NP_decrRefCount@DynUnionEnumDisc@omni@@UEAAXXZ
?_NP_decrRefCount@DynUnionImpl@omni@@$4PPPPPPPM@A@EAAXXZ
?_NP_decrRefCount@DynUnionImpl@omni@@UEAAXXZ
?_NP_decrRefCount@DynValueBoxImpl@omni@@$4PPPPPPPM@A@EAAXXZ
?_NP_decrRefCount@DynValueBoxImpl@omni@@UEAAXXZ
?_NP_decrRefCount@DynValueImpl@omni@@$4PPPPPPPM@A@EAAXXZ
?_NP_decrRefCount@DynValueImpl@omni@@UEAAXXZ
?_NP_decrRefCount@LocalObject@CORBA@@$4PPPPPPPM@A@EAAXXZ
?_NP_decrRefCount@LocalObject@CORBA@@$R4BA@7PPPPPPPM@BI@EAAXXZ
?_NP_decrRefCount@LocalObject@CORBA@@$R4HI@7PPPPPPPM@BI@EAAXXZ
?_NP_decrRefCount@Policy@CORBA@@$4PPPPPPPM@7EAAXXZ
?_NP_decrRefCount@omniNilDynAny@omni@@$4PPPPPPPM@A@EAAXXZ
?_NP_decrRefCount@omniNilDynAny@omni@@UEAAXXZ
?_NP_duplicate@BadKind@TypeCode@CORBA@@EEBAPEAVException@3@XZ
?_NP_duplicate@Bounds@ContextList@CORBA@@EEBAPEAVException@3@XZ
?_NP_duplicate@Bounds@ExceptionList@CORBA@@EEBAPEAVException@3@XZ
?_NP_duplicate@Bounds@NVList@CORBA@@EEBAPEAVException@3@XZ
?_NP_duplicate@Bounds@TypeCode@CORBA@@EEBAPEAVException@3@XZ
?_NP_duplicate@FromAnyUserException@omni@@EEBAPEAVException@CORBA@@XZ
?_NP_duplicate@InconsistentTypeCode@DynAnyFactory@DynamicAny@@EEBAPEAVException@CORBA@@XZ
?_NP_duplicate@InconsistentTypeCode@ORB@CORBA@@EEBAPEAVException@3@XZ
?_NP_duplicate@InvalidValue@DynAny@DynamicAny@@EEBAPEAVException@CORBA@@XZ
?_NP_duplicate@NoPossiblePollable@PollableSet@CORBA@@UEBAPEAVException@3@XZ
?_NP_duplicate@TypeMismatch@DynAny@DynamicAny@@EEBAPEAVException@CORBA@@XZ
?_NP_duplicate@UnknownPollable@PollableSet@CORBA@@UEBAPEAVException@3@XZ
?_NP_duplicate@UnknownUserException@CORBA@@EEBAPEAVException@2@XZ
?_NP_duplicate@WrongTransaction@CORBA@@EEBAPEAVException@2@XZ
?_NP_incrRefCount@DynAnyFactoryImpl@omni@@UEAAXXZ
?_NP_incrRefCount@DynAnyImplBase@omni@@$4PPPPPPPM@7EAAXXZ
?_NP_incrRefCount@DynAnyImplBase@omni@@$4PPPPPPPM@A@EAAXXZ
?_NP_incrRefCount@DynAnyImplBase@omni@@$4PPPPPPPM@BA@EAAXXZ
?_NP_incrRefCount@DynAnyImplBase@omni@@$4PPPPPPPM@DA@EAAXXZ
?_NP_incrRefCount@DynAnyImplBase@omni@@UEAAXXZ
?_NP_incrRefCount@DynArrayImpl@omni@@$4PPPPPPPM@A@EAAXXZ
?_NP_incrRefCount@DynArrayImpl@omni@@UEAAXXZ
?_NP_incrRefCount@DynEnumImpl@omni@@$4PPPPPPPM@A@EAAXXZ
?_NP_incrRefCount@DynEnumImpl@omni@@UEAAXXZ
?_NP_incrRefCount@DynFixedImpl@omni@@$4PPPPPPPM@A@EAAXXZ
?_NP_incrRefCount@DynFixedImpl@omni@@UEAAXXZ
?_NP_incrRefCount@DynSequenceImpl@omni@@$4PPPPPPPM@A@EAAXXZ
?_NP_incrRefCount@DynSequenceImpl@omni@@UEAAXXZ
?_NP_incrRefCount@DynStructImpl@omni@@$4PPPPPPPM@A@EAAXXZ
?_NP_incrRefCount@DynStructImpl@omni@@UEAAXXZ
?_NP_incrRefCount@DynUnionEnumDisc@omni@@$4PPPPPPPM@A@EAAXXZ
?_NP_incrRefCount@DynUnionEnumDisc@omni@@UEAAXXZ
?_NP_incrRefCount@DynUnionImpl@omni@@$4PPPPPPPM@A@EAAXXZ
?_NP_incrRefCount@DynUnionImpl@omni@@UEAAXXZ
?_NP_incrRefCount@DynValueBoxImpl@omni@@$4PPPPPPPM@A@EAAXXZ
?_NP_incrRefCount@DynValueBoxImpl@omni@@UEAAXXZ
?_NP_incrRefCount@DynValueImpl@omni@@$4PPPPPPPM@A@EAAXXZ
?_NP_incrRefCount@DynValueImpl@omni@@UEAAXXZ
?_NP_incrRefCount@LocalObject@CORBA@@$4PPPPPPPM@A@EAAXXZ
?_NP_incrRefCount@LocalObject@CORBA@@$R4BA@7PPPPPPPM@BI@EAAXXZ
?_NP_incrRefCount@LocalObject@CORBA@@$R4HI@7PPPPPPPM@BI@EAAXXZ
?_NP_incrRefCount@Policy@CORBA@@$4PPPPPPPM@7EAAXXZ
?_NP_incrRefCount@omniNilDynAny@omni@@$4PPPPPPPM@A@EAAXXZ
?_NP_incrRefCount@omniNilDynAny@omni@@UEAAXXZ
?_NP_is_nil@AbstractBase@CORBA@@UEBA_NXZ
?_NP_is_nil@Object@CORBA@@QEBA_NXZ
?_NP_is_nil@_omni_AbstractBaseObjref@CORBA@@UEBA_NXZ
?_NP_is_pseudo@Object@CORBA@@QEBA_NXZ
?_NP_marshal@BadKind@TypeCode@CORBA@@EEBAXAEAVcdrStream@@@Z
?_NP_marshal@Bounds@ContextList@CORBA@@EEBAXAEAVcdrStream@@@Z
?_NP_marshal@Bounds@ExceptionList@CORBA@@EEBAXAEAVcdrStream@@@Z
?_NP_marshal@Bounds@NVList@CORBA@@EEBAXAEAVcdrStream@@@Z
?_NP_marshal@Bounds@TypeCode@CORBA@@EEBAXAEAVcdrStream@@@Z
?_NP_marshal@DIIPollable@CORBA@@SAXPEAV12@AEAVcdrStream@@@Z
?_NP_marshal@ExceptionHolder@Messaging@@SAXPEAV12@AEAVcdrStream@@@Z
?_NP_marshal@FromAnyUserException@omni@@UEBAXAEAVcdrStream@@@Z
?_NP_marshal@InconsistentTypeCode@DynAnyFactory@DynamicAny@@EEBAXAEAVcdrStream@@@Z
?_NP_marshal@InconsistentTypeCode@ORB@CORBA@@EEBAXAEAVcdrStream@@@Z
?_NP_marshal@InvalidValue@DynAny@DynamicAny@@EEBAXAEAVcdrStream@@@Z
?_NP_marshal@NoPossiblePollable@PollableSet@CORBA@@EEBAXAEAVcdrStream@@@Z
?_NP_marshal@Pollable@CORBA@@SAXPEAV12@AEAVcdrStream@@@Z
?_NP_marshal@Poller@Messaging@@SAXPEAV12@AEAVcdrStream@@@Z
?_NP_marshal@StringValue@CORBA@@SAXPEAV12@AEAVcdrStream@@@Z
?_NP_marshal@TypeMismatch@DynAny@DynamicAny@@EEBAXAEAVcdrStream@@@Z
?_NP_marshal@UnknownPollable@PollableSet@CORBA@@EEBAXAEAVcdrStream@@@Z
?_NP_marshal@UnknownUserException@CORBA@@EEBAXAEAVcdrStream@@@Z
?_NP_marshal@ValueBase@CORBA@@SAXPEAV12@AEAVcdrStream@@@Z
?_NP_marshal@WStringValue@CORBA@@SAXPEAV12@AEAVcdrStream@@@Z
?_NP_marshal@WrongTransaction@CORBA@@EEBAXAEAVcdrStream@@@Z
?_NP_repoId@BadKind@TypeCode@CORBA@@EEBAPEBDPEAH@Z
?_NP_repoId@Bounds@ContextList@CORBA@@EEBAPEBDPEAH@Z
?_NP_repoId@Bounds@ExceptionList@CORBA@@EEBAPEBDPEAH@Z
?_NP_repoId@Bounds@NVList@CORBA@@EEBAPEBDPEAH@Z
?_NP_repoId@Bounds@TypeCode@CORBA@@EEBAPEBDPEAH@Z
?_NP_repoId@FromAnyUserException@omni@@UEBAPEBDPEAH@Z
?_NP_repoId@InconsistentTypeCode@DynAnyFactory@DynamicAny@@EEBAPEBDPEAH@Z
?_NP_repoId@InconsistentTypeCode@ORB@CORBA@@EEBAPEBDPEAH@Z
?_NP_repoId@InvalidValue@DynAny@DynamicAny@@EEBAPEBDPEAH@Z
?_NP_repoId@NoPossiblePollable@PollableSet@CORBA@@EEBAPEBDPEAH@Z
?_NP_repoId@TypeMismatch@DynAny@DynamicAny@@EEBAPEBDPEAH@Z
?_NP_repoId@UnknownPollable@PollableSet@CORBA@@EEBAPEBDPEAH@Z
?_NP_repoId@UnknownUserException@CORBA@@EEBAPEBDPEAH@Z
?_NP_repoId@WrongTransaction@CORBA@@EEBAPEBDPEAH@Z
?_NP_repositoryId@DIIPollable@CORBA@@$4PPPPPPPM@A@EBAPEBDAEAK@Z
?_NP_repositoryId@DIIPollable@CORBA@@$4PPPPPPPM@A@EBAPEBDXZ
?_NP_repositoryId@DIIPollable@CORBA@@$R4GA@M@PPPPPPPM@BA@EBAPEBDAEAK@Z
?_NP_repositoryId@DIIPollable@CORBA@@$R4GA@M@PPPPPPPM@BA@EBAPEBDXZ
?_NP_repositoryId@DIIPollable@CORBA@@UEBAPEBDAEAK@Z
?_NP_repositoryId@DIIPollable@CORBA@@UEBAPEBDXZ
?_NP_repositoryId@ExceptionHolder@Messaging@@$4PPPPPPPM@A@EBAPEBDAEAK@Z
?_NP_repositoryId@ExceptionHolder@Messaging@@$4PPPPPPPM@A@EBAPEBDXZ
?_NP_repositoryId@ExceptionHolder@Messaging@@$R4BA@7PPPPPPPM@BI@EBAPEBDAEAK@Z
?_NP_repositoryId@ExceptionHolder@Messaging@@$R4BA@7PPPPPPPM@BI@EBAPEBDXZ
?_NP_repositoryId@ExceptionHolder@Messaging@@$R4BI@7PPPPPPPM@BI@EBAPEBDAEAK@Z
?_NP_repositoryId@ExceptionHolder@Messaging@@$R4BI@7PPPPPPPM@BI@EBAPEBDXZ
?_NP_repositoryId@ExceptionHolder@Messaging@@UEBAPEBDAEAK@Z
?_NP_repositoryId@ExceptionHolder@Messaging@@UEBAPEBDXZ
?_NP_repositoryId@Pollable@CORBA@@$4PPPPPPPM@A@EBAPEBDAEAK@Z
?_NP_repositoryId@Pollable@CORBA@@$4PPPPPPPM@A@EBAPEBDXZ
?_NP_repositoryId@Pollable@CORBA@@UEBAPEBDAEAK@Z
?_NP_repositoryId@Pollable@CORBA@@UEBAPEBDXZ
?_NP_repositoryId@Poller@Messaging@@$4PPPPPPPM@A@EBAPEBDAEAK@Z
?_NP_repositoryId@Poller@Messaging@@$4PPPPPPPM@A@EBAPEBDXZ
?_NP_repositoryId@Poller@Messaging@@$R4CA@M@PPPPPPPM@BI@EBAPEBDAEAK@Z
?_NP_repositoryId@Poller@Messaging@@$R4CA@M@PPPPPPPM@BI@EBAPEBDXZ
?_NP_repositoryId@Poller@Messaging@@UEBAPEBDAEAK@Z
?_NP_repositoryId@Poller@Messaging@@UEBAPEBDXZ
?_NP_repositoryId@StringValue@CORBA@@$4PPPPPPPM@A@EBAPEBDAEAK@Z
?_NP_repositoryId@StringValue@CORBA@@$4PPPPPPPM@A@EBAPEBDXZ
?_NP_repositoryId@StringValue@CORBA@@UEBAPEBDAEAK@Z
?_NP_repositoryId@StringValue@CORBA@@UEBAPEBDXZ
?_NP_repositoryId@UnknownValue@omni@@$4PPPPPPPM@A@EBAPEBDAEAK@Z
?_NP_repositoryId@UnknownValue@omni@@$4PPPPPPPM@A@EBAPEBDXZ
?_NP_repositoryId@UnknownValue@omni@@UEBAPEBDAEAK@Z
?_NP_repositoryId@UnknownValue@omni@@UEBAPEBDXZ
?_NP_repositoryId@WStringValue@CORBA@@$4PPPPPPPM@A@EBAPEBDAEAK@Z
?_NP_repositoryId@WStringValue@CORBA@@$4PPPPPPPM@A@EBAPEBDXZ
?_NP_repositoryId@WStringValue@CORBA@@UEBAPEBDAEAK@Z
?_NP_repositoryId@WStringValue@CORBA@@UEBAPEBDXZ
?_NP_to_object@AbstractBase@CORBA@@UEAAPEAVObject@2@XZ
?_NP_to_object@_omni_AbstractBaseObjref@CORBA@@UEAAPEAVObject@2@XZ
?_NP_to_value@AbstractBase@CORBA@@UEAAPEAVValueBase@2@XZ
?_NP_truncatableIds@DIIPollable@CORBA@@$4PPPPPPPM@A@EBAPEBU_omni_ValueIds@@XZ
?_NP_truncatableIds@DIIPollable@CORBA@@$R4GA@M@PPPPPPPM@BA@EBAPEBU_omni_ValueIds@@XZ
?_NP_truncatableIds@DIIPollable@CORBA@@UEBAPEBU_omni_ValueIds@@XZ
?_NP_truncatableIds@ExceptionHolder@Messaging@@$4PPPPPPPM@A@EBAPEBU_omni_ValueIds@@XZ
?_NP_truncatableIds@ExceptionHolder@Messaging@@$R4BA@7PPPPPPPM@BI@EBAPEBU_omni_ValueIds@@XZ
?_NP_truncatableIds@ExceptionHolder@Messaging@@$R4BI@7PPPPPPPM@BI@EBAPEBU_omni_ValueIds@@XZ
?_NP_truncatableIds@ExceptionHolder@Messaging@@UEBAPEBU_omni_ValueIds@@XZ
?_NP_truncatableIds@Pollable@CORBA@@$4PPPPPPPM@A@EBAPEBU_omni_ValueIds@@XZ
?_NP_truncatableIds@Pollable@CORBA@@UEBAPEBU_omni_ValueIds@@XZ
?_NP_truncatableIds@Poller@Messaging@@$4PPPPPPPM@A@EBAPEBU_omni_ValueIds@@XZ
?_NP_truncatableIds@Poller@Messaging@@$R4CA@M@PPPPPPPM@BI@EBAPEBU_omni_ValueIds@@XZ
?_NP_truncatableIds@Poller@Messaging@@UEBAPEBU_omni_ValueIds@@XZ
?_NP_truncatableIds@StringValue@CORBA@@$4PPPPPPPM@A@EBAPEBU_omni_ValueIds@@XZ
?_NP_truncatableIds@StringValue@CORBA@@UEBAPEBU_omni_ValueIds@@XZ
?_NP_truncatableIds@UnknownValue@omni@@$4PPPPPPPM@A@EBAPEBU_omni_ValueIds@@XZ
?_NP_truncatableIds@UnknownValue@omni@@UEBAPEBU_omni_ValueIds@@XZ
?_NP_truncatableIds@WStringValue@CORBA@@$4PPPPPPPM@A@EBAPEBU_omni_ValueIds@@XZ
?_NP_truncatableIds@WStringValue@CORBA@@UEBAPEBU_omni_ValueIds@@XZ
?_NP_typeId@BadKind@TypeCode@CORBA@@EEBAPEBDXZ
?_NP_typeId@Bounds@ContextList@CORBA@@EEBAPEBDXZ
?_NP_typeId@Bounds@ExceptionList@CORBA@@EEBAPEBDXZ
?_NP_typeId@Bounds@NVList@CORBA@@EEBAPEBDXZ
?_NP_typeId@Bounds@TypeCode@CORBA@@EEBAPEBDXZ
?_NP_typeId@FromAnyUserException@omni@@EEBAPEBDXZ
?_NP_typeId@InconsistentTypeCode@DynAnyFactory@DynamicAny@@EEBAPEBDXZ
?_NP_typeId@InconsistentTypeCode@ORB@CORBA@@EEBAPEBDXZ
?_NP_typeId@InvalidValue@DynAny@DynamicAny@@EEBAPEBDXZ
?_NP_typeId@NoPossiblePollable@PollableSet@CORBA@@EEBAPEBDXZ
?_NP_typeId@TypeMismatch@DynAny@DynamicAny@@EEBAPEBDXZ
?_NP_typeId@UnknownPollable@PollableSet@CORBA@@EEBAPEBDXZ
?_NP_typeId@UnknownUserException@CORBA@@EEBAPEBDXZ
?_NP_typeId@WrongTransaction@CORBA@@EEBAPEBDXZ
?_NP_unmarshal@DIIPollable@CORBA@@SAPEAV12@AEAVcdrStream@@@Z
?_NP_unmarshal@ExceptionHolder@Messaging@@SAPEAV12@AEAVcdrStream@@@Z
?_NP_unmarshal@Pollable@CORBA@@SAPEAV12@AEAVcdrStream@@@Z
?_NP_unmarshal@Poller@Messaging@@SAPEAV12@AEAVcdrStream@@@Z
?_NP_unmarshal@StringValue@CORBA@@SAPEAV12@AEAVcdrStream@@@Z
?_NP_unmarshal@ValueBase@CORBA@@SAPEAV12@AEAVcdrStream@@@Z
?_NP_unmarshal@WStringValue@CORBA@@SAPEAV12@AEAVcdrStream@@@Z
?_PD_instance@DIIPollableImpl@omniAMI@@2V12@A
?_PD_repoId@AbstractBase@CORBA@@2PEBDEB
?_PD_repoId@AbstractInterfaceDef@CORBA@@2PEBDEB
?_PD_repoId@AliasDef@CORBA@@2PEBDEB
?_PD_repoId@ArrayDef@CORBA@@2PEBDEB
?_PD_repoId@AttributeDef@CORBA@@2PEBDEB
?_PD_repoId@BadKind@TypeCode@CORBA@@2PEBDEB
?_PD_repoId@Bounds@ContextList@CORBA@@2PEBDEB
?_PD_repoId@Bounds@ExceptionList@CORBA@@2PEBDEB
?_PD_repoId@Bounds@NVList@CORBA@@2PEBDEB
?_PD_repoId@Bounds@TypeCode@CORBA@@2PEBDEB
?_PD_repoId@ConstantDef@CORBA@@2PEBDEB
?_PD_repoId@Contained@CORBA@@2PEBDEB
?_PD_repoId@Container@CORBA@@2PEBDEB
?_PD_repoId@DIIPollable@CORBA@@2PEBDEB
?_PD_repoId@DynAny@DynamicAny@@2PEBDEB
?_PD_repoId@DynAnyConstrBase@omni@@2PEBDEB
?_PD_repoId@DynAnyFactory@DynamicAny@@2PEBDEB
?_PD_repoId@DynAnyImpl@omni@@2PEBDEB
?_PD_repoId@DynAnyImplBase@omni@@2PEBDEB
?_PD_repoId@DynArray@DynamicAny@@2PEBDEB
?_PD_repoId@DynEnum@DynamicAny@@2PEBDEB
?_PD_repoId@DynFixed@DynamicAny@@2PEBDEB
?_PD_repoId@DynSequence@DynamicAny@@2PEBDEB
?_PD_repoId@DynStruct@DynamicAny@@2PEBDEB
?_PD_repoId@DynUnion@DynamicAny@@2PEBDEB
?_PD_repoId@DynUnionImpl@omni@@2PEBDEB
?_PD_repoId@DynValue@DynamicAny@@2PEBDEB
?_PD_repoId@DynValueBox@DynamicAny@@2PEBDEB
?_PD_repoId@DynValueCommon@DynamicAny@@2PEBDEB
?_PD_repoId@EnumDef@CORBA@@2PEBDEB
?_PD_repoId@ExceptionDef@CORBA@@2PEBDEB
?_PD_repoId@ExceptionHolder@Messaging@@2PEBDEB
?_PD_repoId@FixedDef@CORBA@@2PEBDEB
?_PD_repoId@IDLType@CORBA@@2PEBDEB
?_PD_repoId@IRObject@CORBA@@2PEBDEB
?_PD_repoId@InconsistentTypeCode@DynAnyFactory@DynamicAny@@2PEBDEB
?_PD_repoId@InconsistentTypeCode@ORB@CORBA@@2PEBDEB
?_PD_repoId@InterfaceDef@CORBA@@2PEBDEB
?_PD_repoId@InvalidValue@DynAny@DynamicAny@@2PEBDEB
?_PD_repoId@ModuleDef@CORBA@@2PEBDEB
?_PD_repoId@NativeDef@CORBA@@2PEBDEB
?_PD_repoId@NoPossiblePollable@PollableSet@CORBA@@2PEBDEB
?_PD_repoId@OperationDef@CORBA@@2PEBDEB
?_PD_repoId@Pollable@CORBA@@2PEBDEB
?_PD_repoId@PollableSet@CORBA@@2PEBDEB
?_PD_repoId@Poller@Messaging@@2PEBDEB
?_PD_repoId@PollerImpl@omniAMI@@2PEBDEB
?_PD_repoId@PrimitiveDef@CORBA@@2PEBDEB
?_PD_repoId@ReplyHandler@Messaging@@2PEBDEB
?_PD_repoId@Repository@CORBA@@2PEBDEB
?_PD_repoId@SequenceDef@CORBA@@2PEBDEB
?_PD_repoId@StringDef@CORBA@@2PEBDEB
?_PD_repoId@StringValue@CORBA@@2PEBDEB
?_PD_repoId@StructDef@CORBA@@2PEBDEB
?_PD_repoId@TypeMismatch@DynAny@DynamicAny@@2PEBDEB
?_PD_repoId@TypedefDef@CORBA@@2PEBDEB
?_PD_repoId@UnionDef@CORBA@@2PEBDEB
?_PD_repoId@UnknownPollable@PollableSet@CORBA@@2PEBDEB
?_PD_repoId@UnknownValue@omni@@2PEBDEB
?_PD_repoId@ValueBase@CORBA@@2PEBDEB
?_PD_repoId@ValueBoxDef@CORBA@@2PEBDEB
?_PD_repoId@ValueDef@CORBA@@2PEBDEB
?_PD_repoId@ValueMemberDef@CORBA@@2PEBDEB
?_PD_repoId@WStringValue@CORBA@@2PEBDEB
?_PD_repoId@WrongTransaction@CORBA@@2PEBDEB
?_PD_repoId@WstringDef@CORBA@@2PEBDEB
?_PD_typeId@NoPossiblePollable@PollableSet@CORBA@@2PEBDEB
?_PD_typeId@UnknownPollable@PollableSet@CORBA@@2PEBDEB
?_PR_cd@PollerImpl@omniAMI@@QEAAPEAVomniAsyncCallDescriptor@@XZ
?_PR_copy_state@DIIPollable@CORBA@@QEAAXPEAV12@@Z
?_PR_copy_state@ExceptionHolder@Messaging@@QEAAXPEAV12@@Z
?_PR_copy_state@Pollable@CORBA@@QEAAXPEAV12@@Z
?_PR_copy_state@Poller@Messaging@@QEAAXPEAV12@@Z
?_PR_copy_state@StringValue@CORBA@@UEAAXPEAV12@@Z
?_PR_copy_state@WStringValue@CORBA@@UEAAXPEAV12@@Z
?_PR_getobj@Object@CORBA@@QEAAPEAVomniObjRef@@XZ
?_PR_is_valid@Object@CORBA@@SA_NPEAV12@@Z
?_PR_magic@ValueBase@CORBA@@2KB
?_PR_marshal_state@DIIPollable@CORBA@@$4PPPPPPPM@A@EBAXAEAVcdrStream@@@Z
?_PR_marshal_state@DIIPollable@CORBA@@$R4GA@M@PPPPPPPM@BA@EBAXAEAVcdrStream@@@Z
?_PR_marshal_state@DIIPollable@CORBA@@UEBAXAEAVcdrStream@@@Z
?_PR_marshal_state@ExceptionHolder@Messaging@@$4PPPPPPPM@A@EBAXAEAVcdrStream@@@Z
?_PR_marshal_state@ExceptionHolder@Messaging@@$R4BA@7PPPPPPPM@BI@EBAXAEAVcdrStream@@@Z
?_PR_marshal_state@ExceptionHolder@Messaging@@$R4BI@7PPPPPPPM@BI@EBAXAEAVcdrStream@@@Z
?_PR_marshal_state@ExceptionHolder@Messaging@@UEBAXAEAVcdrStream@@@Z
?_PR_marshal_state@Pollable@CORBA@@$4PPPPPPPM@A@EBAXAEAVcdrStream@@@Z
?_PR_marshal_state@Pollable@CORBA@@UEBAXAEAVcdrStream@@@Z
?_PR_marshal_state@Poller@Messaging@@$4PPPPPPPM@A@EBAXAEAVcdrStream@@@Z
?_PR_marshal_state@Poller@Messaging@@$R4CA@M@PPPPPPPM@BI@EBAXAEAVcdrStream@@@Z
?_PR_marshal_state@Poller@Messaging@@UEBAXAEAVcdrStream@@@Z
?_PR_marshal_state@StringValue@CORBA@@$4PPPPPPPM@A@EBAXAEAVcdrStream@@@Z
?_PR_marshal_state@StringValue@CORBA@@UEBAXAEAVcdrStream@@@Z
?_PR_marshal_state@UnknownValue@omni@@$4PPPPPPPM@A@EBAXAEAVcdrStream@@@Z
?_PR_marshal_state@UnknownValue@omni@@UEBAXAEAVcdrStream@@@Z
?_PR_marshal_state@WStringValue@CORBA@@$4PPPPPPPM@A@EBAXAEAVcdrStream@@@Z
?_PR_marshal_state@WStringValue@CORBA@@UEBAXAEAVcdrStream@@@Z
?_PR_retrieved@PollerImpl@omniAMI@@QEAA_NXZ
?_PR_setobj@Object@CORBA@@QEAAXPEAVomniObjRef@@@Z
?_PR_unmarshal_state@DIIPollable@CORBA@@$4PPPPPPPM@A@EAAXAEAVcdrStream@@@Z
?_PR_unmarshal_state@DIIPollable@CORBA@@$R4GA@M@PPPPPPPM@BA@EAAXAEAVcdrStream@@@Z
?_PR_unmarshal_state@DIIPollable@CORBA@@UEAAXAEAVcdrStream@@@Z
?_PR_unmarshal_state@ExceptionHolder@Messaging@@$4PPPPPPPM@A@EAAXAEAVcdrStream@@@Z
?_PR_unmarshal_state@ExceptionHolder@Messaging@@$R4BA@7PPPPPPPM@BI@EAAXAEAVcdrStream@@@Z
?_PR_unmarshal_state@ExceptionHolder@Messaging@@$R4BI@7PPPPPPPM@BI@EAAXAEAVcdrStream@@@Z
?_PR_unmarshal_state@ExceptionHolder@Messaging@@UEAAXAEAVcdrStream@@@Z
?_PR_unmarshal_state@Pollable@CORBA@@$4PPPPPPPM@A@EAAXAEAVcdrStream@@@Z
?_PR_unmarshal_state@Pollable@CORBA@@UEAAXAEAVcdrStream@@@Z
?_PR_unmarshal_state@Poller@Messaging@@$4PPPPPPPM@A@EAAXAEAVcdrStream@@@Z
?_PR_unmarshal_state@Poller@Messaging@@$R4CA@M@PPPPPPPM@BI@EAAXAEAVcdrStream@@@Z
?_PR_unmarshal_state@Poller@Messaging@@UEAAXAEAVcdrStream@@@Z
?_PR_unmarshal_state@StringValue@CORBA@@$4PPPPPPPM@A@EAAXAEAVcdrStream@@@Z
?_PR_unmarshal_state@StringValue@CORBA@@UEAAXAEAVcdrStream@@@Z
?_PR_unmarshal_state@UnknownValue@omni@@$4PPPPPPPM@A@EAAXAEAVcdrStream@@@Z
?_PR_unmarshal_state@UnknownValue@omni@@UEAAXAEAVcdrStream@@@Z
?_PR_unmarshal_state@WStringValue@CORBA@@$4PPPPPPPM@A@EAAXAEAVcdrStream@@@Z
?_PR_unmarshal_state@WStringValue@CORBA@@UEAAXAEAVcdrStream@@@Z
?_addToSet@DIIPollableImpl@omniAMI@@QEAA_NPEAVomni_tracedcondition@@@Z
?_add_ref@DIIPollableImpl@omniAMI@@$4PPPPPPPM@A@EAAXXZ
?_add_ref@DIIPollableImpl@omniAMI@@UEAAXXZ
?_add_ref@DefaultValueRefCountBase@CORBA@@$4PPPPPPPM@7EAAXXZ
?_add_ref@DefaultValueRefCountBase@CORBA@@$4PPPPPPPM@A@EAAXXZ
?_add_ref@DefaultValueRefCountBase@CORBA@@$R4BI@M@PPPPPPPM@BI@EAAXXZ
?_add_ref@DefaultValueRefCountBase@CORBA@@$R4CA@BA@PPPPPPPM@BI@EAAXXZ
?_add_ref@DefaultValueRefCountBase@CORBA@@$R4MA@7PPPPPPPM@BI@EAAXXZ
?_add_ref@DefaultValueRefCountBase@CORBA@@UEAAXXZ
?_add_ref@PollableSetImpl@omniAMI@@$4PPPPPPPM@A@EAAXXZ
?_add_ref@PollableSetImpl@omniAMI@@UEAAXXZ
?_add_ref@ServantBase@PortableServer@@$R4BA@7PPPPPPPM@CA@EAAXXZ
?_add_ref@ServantBase@PortableServer@@$R4BA@BA@PPPPPPPM@CA@EAAXXZ
?_add_ref@ServantBase@PortableServer@@$R4BA@BE@PPPPPPPM@CA@EAAXXZ
?_add_ref@ServantBase@PortableServer@@$R4BA@BI@PPPPPPPM@CA@EAAXXZ
?_add_ref@ServantBase@PortableServer@@$R4BA@BM@PPPPPPPM@CA@EAAXXZ
?_add_ref@ServantBase@PortableServer@@$R4BA@CA@PPPPPPPM@CA@EAAXXZ
?_add_ref@ServantBase@PortableServer@@$R4BA@M@PPPPPPPM@CA@EAAXXZ
?_add_ref@ValueFactoryBase@CORBA@@UEAAXXZ
?_add_ref@ValueRefCountBase@PortableServer@@$4PPPPPPPM@A@EAAXXZ
?_add_ref@ValueRefCountBase@PortableServer@@$4PPPPPPPM@BI@EAAXXZ
?_add_ref@ValueRefCountBase@PortableServer@@UEAAXXZ
?_checkResult@PollerImpl@omniAMI@@IEAAXPEBDK@Z
?_classid@cdrAnyMemoryStream@@2HA
?_copy_value@DIIPollable@CORBA@@$4PPPPPPPM@A@EAAPEAVValueBase@2@XZ
?_copy_value@DIIPollable@CORBA@@$R4GA@M@PPPPPPPM@BA@EAAPEAVValueBase@2@XZ
?_copy_value@DIIPollable@CORBA@@UEAAPEAVValueBase@2@XZ
?_copy_value@ExceptionHolder@Messaging@@$4PPPPPPPM@A@EAAPEAVValueBase@CORBA@@XZ
?_copy_value@ExceptionHolder@Messaging@@$R4BA@7PPPPPPPM@BI@EAAPEAVValueBase@CORBA@@XZ
?_copy_value@ExceptionHolder@Messaging@@$R4BI@7PPPPPPPM@BI@EAAPEAVValueBase@CORBA@@XZ
?_copy_value@ExceptionHolder@Messaging@@UEAAPEAVValueBase@CORBA@@XZ
?_copy_value@Pollable@CORBA@@$4PPPPPPPM@A@EAAPEAVValueBase@2@XZ
?_copy_value@Pollable@CORBA@@UEAAPEAVValueBase@2@XZ
?_copy_value@Poller@Messaging@@$4PPPPPPPM@A@EAAPEAVValueBase@CORBA@@XZ
?_copy_value@Poller@Messaging@@$R4CA@M@PPPPPPPM@BI@EAAPEAVValueBase@CORBA@@XZ
?_copy_value@Poller@Messaging@@UEAAPEAVValueBase@CORBA@@XZ
?_copy_value@StringValue@CORBA@@$4PPPPPPPM@A@EAAPEAVValueBase@2@XZ
?_copy_value@StringValue@CORBA@@UEAAPEAVValueBase@2@XZ
?_copy_value@UnknownValue@omni@@$4PPPPPPPM@A@EAAPEAVValueBase@CORBA@@XZ
?_copy_value@UnknownValue@omni@@UEAAPEAVValueBase@CORBA@@XZ
?_copy_value@WStringValue@CORBA@@$4PPPPPPPM@A@EAAPEAVValueBase@2@XZ
?_copy_value@WStringValue@CORBA@@UEAAPEAVValueBase@2@XZ
?_create_request@Object@CORBA@@QEAAXPEAVContext@2@PEBDPEAVNVList@2@PEAVNamedValue@2@PEAVExceptionList@2@PEAVContextList@2@V?$_CORBA_PseudoObj_Out@VRequest@CORBA@@V?$_CORBA_PseudoObj_Var@VRequest@CORBA@@@@@@K@Z
?_create_request@Object@CORBA@@QEAAXPEAVContext@2@PEBDPEAVNVList@2@PEAVNamedValue@2@V?$_CORBA_PseudoObj_Out@VRequest@CORBA@@V?$_CORBA_PseudoObj_Var@VRequest@CORBA@@@@@@K@Z
?_dispatch@DynamicImplementation@PortableServer@@$4PPPPPPPM@A@EAA_NAEAVomniCallHandle@@@Z
?_dispatch@DynamicImplementation@PortableServer@@UEAA_NAEAVomniCallHandle@@@Z
?_dispatch@_impl_AbstractInterfaceDef@CORBA@@$4PPPPPPPM@A@EAA_NAEAVomniCallHandle@@@Z
?_dispatch@_impl_AbstractInterfaceDef@CORBA@@$R4BA@BM@PPPPPPPM@BA@EAA_NAEAVomniCallHandle@@@Z
?_dispatch@_impl_AbstractInterfaceDef@CORBA@@UEAA_NAEAVomniCallHandle@@@Z
?_dispatch@_impl_AliasDef@CORBA@@$4PPPPPPPM@A@EAA_NAEAVomniCallHandle@@@Z
?_dispatch@_impl_AliasDef@CORBA@@$R4BA@BI@PPPPPPPM@BI@EAA_NAEAVomniCallHandle@@@Z
?_dispatch@_impl_AliasDef@CORBA@@UEAA_NAEAVomniCallHandle@@@Z
?_dispatch@_impl_ArrayDef@CORBA@@$4PPPPPPPM@A@EAA_NAEAVomniCallHandle@@@Z
?_dispatch@_impl_ArrayDef@CORBA@@$R4BA@BA@PPPPPPPM@BI@EAA_NAEAVomniCallHandle@@@Z
?_dispatch@_impl_ArrayDef@CORBA@@UEAA_NAEAVomniCallHandle@@@Z
?_dispatch@_impl_AttributeDef@CORBA@@$4PPPPPPPM@A@EAA_NAEAVomniCallHandle@@@Z
?_dispatch@_impl_AttributeDef@CORBA@@$R4BA@BA@PPPPPPPM@BI@EAA_NAEAVomniCallHandle@@@Z
?_dispatch@_impl_AttributeDef@CORBA@@UEAA_NAEAVomniCallHandle@@@Z
?_dispatch@_impl_ConstantDef@CORBA@@$4PPPPPPPM@A@EAA_NAEAVomniCallHandle@@@Z
?_dispatch@_impl_ConstantDef@CORBA@@$R4BA@BA@PPPPPPPM@BI@EAA_NAEAVomniCallHandle@@@Z
?_dispatch@_impl_ConstantDef@CORBA@@UEAA_NAEAVomniCallHandle@@@Z
?_dispatch@_impl_Contained@CORBA@@$4PPPPPPPM@A@EAA_NAEAVomniCallHandle@@@Z
?_dispatch@_impl_Contained@CORBA@@$R4BA@M@PPPPPPPM@BI@EAA_NAEAVomniCallHandle@@@Z
?_dispatch@_impl_Contained@CORBA@@UEAA_NAEAVomniCallHandle@@@Z
?_dispatch@_impl_Container@CORBA@@$4PPPPPPPM@A@EAA_NAEAVomniCallHandle@@@Z
?_dispatch@_impl_Container@CORBA@@$R4BA@M@PPPPPPPM@BI@EAA_NAEAVomniCallHandle@@@Z
?_dispatch@_impl_Container@CORBA@@UEAA_NAEAVomniCallHandle@@@Z
?_dispatch@_impl_EnumDef@CORBA@@$4PPPPPPPM@A@EAA_NAEAVomniCallHandle@@@Z
?_dispatch@_impl_EnumDef@CORBA@@$R4BA@BI@PPPPPPPM@BI@EAA_NAEAVomniCallHandle@@@Z
?_dispatch@_impl_EnumDef@CORBA@@UEAA_NAEAVomniCallHandle@@@Z
?_dispatch@_impl_ExceptionDef@CORBA@@$4PPPPPPPM@A@EAA_NAEAVomniCallHandle@@@Z
?_dispatch@_impl_ExceptionDef@CORBA@@$R4BA@BE@PPPPPPPM@BI@EAA_NAEAVomniCallHandle@@@Z
?_dispatch@_impl_ExceptionDef@CORBA@@UEAA_NAEAVomniCallHandle@@@Z
?_dispatch@_impl_FixedDef@CORBA@@$4PPPPPPPM@A@EAA_NAEAVomniCallHandle@@@Z
?_dispatch@_impl_FixedDef@CORBA@@$R4BA@BA@PPPPPPPM@BI@EAA_NAEAVomniCallHandle@@@Z
?_dispatch@_impl_FixedDef@CORBA@@UEAA_NAEAVomniCallHandle@@@Z
?_dispatch@_impl_IDLType@CORBA@@$4PPPPPPPM@A@EAA_NAEAVomniCallHandle@@@Z
?_dispatch@_impl_IDLType@CORBA@@$R4BA@M@PPPPPPPM@BI@EAA_NAEAVomniCallHandle@@@Z
?_dispatch@_impl_IDLType@CORBA@@UEAA_NAEAVomniCallHandle@@@Z
?_dispatch@_impl_IRObject@CORBA@@$4PPPPPPPM@A@EAA_NAEAVomniCallHandle@@@Z
?_dispatch@_impl_IRObject@CORBA@@$R4BA@7PPPPPPPM@BI@EAA_NAEAVomniCallHandle@@@Z
?_dispatch@_impl_IRObject@CORBA@@UEAA_NAEAVomniCallHandle@@@Z
?_dispatch@_impl_InterfaceDef@CORBA@@$4PPPPPPPM@A@EAA_NAEAVomniCallHandle@@@Z
?_dispatch@_impl_InterfaceDef@CORBA@@$R4BA@BI@PPPPPPPM@BI@EAA_NAEAVomniCallHandle@@@Z
?_dispatch@_impl_InterfaceDef@CORBA@@UEAA_NAEAVomniCallHandle@@@Z
?_dispatch@_impl_ModuleDef@CORBA@@$4PPPPPPPM@A@EAA_NAEAVomniCallHandle@@@Z
?_dispatch@_impl_ModuleDef@CORBA@@$R4BA@BE@PPPPPPPM@BA@EAA_NAEAVomniCallHandle@@@Z
?_dispatch@_impl_ModuleDef@CORBA@@UEAA_NAEAVomniCallHandle@@@Z
?_dispatch@_impl_NativeDef@CORBA@@$4PPPPPPPM@A@EAA_NAEAVomniCallHandle@@@Z
?_dispatch@_impl_NativeDef@CORBA@@$R4BA@BI@PPPPPPPM@BA@EAA_NAEAVomniCallHandle@@@Z
?_dispatch@_impl_NativeDef@CORBA@@UEAA_NAEAVomniCallHandle@@@Z
?_dispatch@_impl_OperationDef@CORBA@@$4PPPPPPPM@A@EAA_NAEAVomniCallHandle@@@Z
?_dispatch@_impl_OperationDef@CORBA@@$R4BA@BA@PPPPPPPM@BI@EAA_NAEAVomniCallHandle@@@Z
?_dispatch@_impl_OperationDef@CORBA@@UEAA_NAEAVomniCallHandle@@@Z
?_dispatch@_impl_PrimitiveDef@CORBA@@$4PPPPPPPM@A@EAA_NAEAVomniCallHandle@@@Z
?_dispatch@_impl_PrimitiveDef@CORBA@@$R4BA@BA@PPPPPPPM@BI@EAA_NAEAVomniCallHandle@@@Z
?_dispatch@_impl_PrimitiveDef@CORBA@@UEAA_NAEAVomniCallHandle@@@Z
?_dispatch@_impl_ReplyHandler@Messaging@@$4PPPPPPPM@A@EAA_NAEAVomniCallHandle@@@Z
?_dispatch@_impl_ReplyHandler@Messaging@@$R4BA@7PPPPPPPM@BA@EAA_NAEAVomniCallHandle@@@Z
?_dispatch@_impl_ReplyHandler@Messaging@@UEAA_NAEAVomniCallHandle@@@Z
?_dispatch@_impl_Repository@CORBA@@$4PPPPPPPM@A@EAA_NAEAVomniCallHandle@@@Z
?_dispatch@_impl_Repository@CORBA@@$R4BA@BA@PPPPPPPM@BI@EAA_NAEAVomniCallHandle@@@Z
?_dispatch@_impl_Repository@CORBA@@UEAA_NAEAVomniCallHandle@@@Z
?_dispatch@_impl_SequenceDef@CORBA@@$4PPPPPPPM@A@EAA_NAEAVomniCallHandle@@@Z
?_dispatch@_impl_SequenceDef@CORBA@@$R4BA@BA@PPPPPPPM@BI@EAA_NAEAVomniCallHandle@@@Z
?_dispatch@_impl_SequenceDef@CORBA@@UEAA_NAEAVomniCallHandle@@@Z
?_dispatch@_impl_StringDef@CORBA@@$4PPPPPPPM@A@EAA_NAEAVomniCallHandle@@@Z
?_dispatch@_impl_StringDef@CORBA@@$R4BA@BA@PPPPPPPM@BI@EAA_NAEAVomniCallHandle@@@Z
?_dispatch@_impl_StringDef@CORBA@@UEAA_NAEAVomniCallHandle@@@Z
?_dispatch@_impl_StructDef@CORBA@@$4PPPPPPPM@A@EAA_NAEAVomniCallHandle@@@Z
?_dispatch@_impl_StructDef@CORBA@@$R4BA@BM@PPPPPPPM@BI@EAA_NAEAVomniCallHandle@@@Z
?_dispatch@_impl_StructDef@CORBA@@UEAA_NAEAVomniCallHandle@@@Z
?_dispatch@_impl_TypedefDef@CORBA@@$4PPPPPPPM@A@EAA_NAEAVomniCallHandle@@@Z
?_dispatch@_impl_TypedefDef@CORBA@@$R4BA@BE@PPPPPPPM@BA@EAA_NAEAVomniCallHandle@@@Z
?_dispatch@_impl_TypedefDef@CORBA@@UEAA_NAEAVomniCallHandle@@@Z
?_dispatch@_impl_UnionDef@CORBA@@$4PPPPPPPM@A@EAA_NAEAVomniCallHandle@@@Z
?_dispatch@_impl_UnionDef@CORBA@@$R4BA@BM@PPPPPPPM@BI@EAA_NAEAVomniCallHandle@@@Z
?_dispatch@_impl_UnionDef@CORBA@@UEAA_NAEAVomniCallHandle@@@Z
?_dispatch@_impl_ValueBoxDef@CORBA@@$4PPPPPPPM@A@EAA_NAEAVomniCallHandle@@@Z
?_dispatch@_impl_ValueBoxDef@CORBA@@$R4BA@BI@PPPPPPPM@BI@EAA_NAEAVomniCallHandle@@@Z
?_dispatch@_impl_ValueBoxDef@CORBA@@UEAA_NAEAVomniCallHandle@@@Z
?_dispatch@_impl_ValueDef@CORBA@@$4PPPPPPPM@A@EAA_NAEAVomniCallHandle@@@Z
?_dispatch@_impl_ValueDef@CORBA@@$R4BA@BI@PPPPPPPM@BI@EAA_NAEAVomniCallHandle@@@Z
?_dispatch@_impl_ValueDef@CORBA@@UEAA_NAEAVomniCallHandle@@@Z
?_dispatch@_impl_ValueMemberDef@CORBA@@$4PPPPPPPM@A@EAA_NAEAVomniCallHandle@@@Z
?_dispatch@_impl_ValueMemberDef@CORBA@@$R4BA@BA@PPPPPPPM@BI@EAA_NAEAVomniCallHandle@@@Z
?_dispatch@_impl_ValueMemberDef@CORBA@@UEAA_NAEAVomniCallHandle@@@Z
?_dispatch@_impl_WstringDef@CORBA@@$4PPPPPPPM@A@EAA_NAEAVomniCallHandle@@@Z
?_dispatch@_impl_WstringDef@CORBA@@$R4BA@BA@PPPPPPPM@BI@EAA_NAEAVomniCallHandle@@@Z
?_dispatch@_impl_WstringDef@CORBA@@UEAA_NAEAVomniCallHandle@@@Z
?_do_get_interface@DynamicImplementation@PortableServer@@$0PPPPPPPM@A@EAAPEAVomniObjRef@@XZ
?_do_get_interface@DynamicImplementation@PortableServer@@EEAAPEAVomniObjRef@@XZ
?_do_get_interface@ServantBase@PortableServer@@$R0BA@BA@PPPPPPPM@CA@EAAPEAVomniObjRef@@XZ
?_do_get_interface@ServantBase@PortableServer@@$R0BA@BE@PPPPPPPM@CA@EAAPEAVomniObjRef@@XZ
?_do_get_interface@ServantBase@PortableServer@@$R0BA@BI@PPPPPPPM@CA@EAAPEAVomniObjRef@@XZ
?_do_get_interface@ServantBase@PortableServer@@$R0BA@BM@PPPPPPPM@CA@EAAPEAVomniObjRef@@XZ
?_do_get_interface@ServantBase@PortableServer@@$R0BA@CA@PPPPPPPM@CA@EAAPEAVomniObjRef@@XZ
?_do_get_interface@ServantBase@PortableServer@@$R0BA@M@PPPPPPPM@CA@EAAPEAVomniObjRef@@XZ
?_do_get_interface@ServantBase@PortableServer@@$R0CI@M@PPPPPPPM@CA@EAAPEAVomniObjRef@@XZ
?_downcast@BadKind@TypeCode@CORBA@@SAPEAV123@PEAVException@3@@Z
?_downcast@BadKind@TypeCode@CORBA@@SAPEBV123@PEBVException@3@@Z
?_downcast@Bounds@ContextList@CORBA@@SAPEAV123@PEAVException@3@@Z
?_downcast@Bounds@ContextList@CORBA@@SAPEBV123@PEBVException@3@@Z
?_downcast@Bounds@ExceptionList@CORBA@@SAPEAV123@PEAVException@3@@Z
?_downcast@Bounds@ExceptionList@CORBA@@SAPEBV123@PEBVException@3@@Z
?_downcast@Bounds@NVList@CORBA@@SAPEAV123@PEAVException@3@@Z
?_downcast@Bounds@NVList@CORBA@@SAPEBV123@PEBVException@3@@Z
?_downcast@Bounds@TypeCode@CORBA@@SAPEAV123@PEAVException@3@@Z
?_downcast@Bounds@TypeCode@CORBA@@SAPEBV123@PEBVException@3@@Z
?_downcast@DIIPollable@CORBA@@SAPEAV12@PEAVValueBase@2@@Z
?_downcast@ExceptionHolder@Messaging@@SAPEAV12@PEAVValueBase@CORBA@@@Z
?_downcast@InconsistentTypeCode@DynAnyFactory@DynamicAny@@SAPEAV123@PEAVException@CORBA@@@Z
?_downcast@InconsistentTypeCode@DynAnyFactory@DynamicAny@@SAPEBV123@PEBVException@CORBA@@@Z
?_downcast@InconsistentTypeCode@ORB@CORBA@@SAPEAV123@PEAVException@3@@Z
?_downcast@InconsistentTypeCode@ORB@CORBA@@SAPEBV123@PEBVException@3@@Z
?_downcast@InvalidValue@DynAny@DynamicAny@@SAPEAV123@PEAVException@CORBA@@@Z
?_downcast@InvalidValue@DynAny@DynamicAny@@SAPEBV123@PEBVException@CORBA@@@Z
?_downcast@NoPossiblePollable@PollableSet@CORBA@@SAPEAV123@PEAVException@3@@Z
?_downcast@NoPossiblePollable@PollableSet@CORBA@@SAPEBV123@PEBVException@3@@Z
?_downcast@Pollable@CORBA@@SAPEAV12@PEAVValueBase@2@@Z
?_downcast@Poller@Messaging@@SAPEAV12@PEAVValueBase@CORBA@@@Z
?_downcast@ServantBase@PortableServer@@$R0BA@7PPPPPPPM@CA@EAAPEAXXZ
?_downcast@ServantBase@PortableServer@@$R0BA@BA@PPPPPPPM@CA@EAAPEAXXZ
?_downcast@ServantBase@PortableServer@@$R0BA@BE@PPPPPPPM@CA@EAAPEAXXZ
?_downcast@ServantBase@PortableServer@@$R0BA@BI@PPPPPPPM@CA@EAAPEAXXZ
?_downcast@ServantBase@PortableServer@@$R0BA@BM@PPPPPPPM@CA@EAAPEAXXZ
?_downcast@ServantBase@PortableServer@@$R0BA@CA@PPPPPPPM@CA@EAAPEAXXZ
?_downcast@ServantBase@PortableServer@@$R0BA@M@PPPPPPPM@CA@EAAPEAXXZ
?_downcast@ServantBase@PortableServer@@$R0CI@M@PPPPPPPM@CA@EAAPEAXXZ
?_downcast@StringValue@CORBA@@SAPEAV12@PEAVValueBase@2@@Z
?_downcast@TypeMismatch@DynAny@DynamicAny@@SAPEAV123@PEAVException@CORBA@@@Z
?_downcast@TypeMismatch@DynAny@DynamicAny@@SAPEBV123@PEBVException@CORBA@@@Z
?_downcast@UnknownPollable@PollableSet@CORBA@@SAPEAV123@PEAVException@3@@Z
?_downcast@UnknownPollable@PollableSet@CORBA@@SAPEBV123@PEBVException@3@@Z
?_downcast@UnknownUserException@CORBA@@SAPEAV12@PEAVException@2@@Z
?_downcast@UnknownUserException@CORBA@@SAPEBV12@PEBVException@2@@Z
?_downcast@UnknownValue@omni@@SAPEAV12@PEAVValueBase@CORBA@@@Z
?_downcast@ValueBase@CORBA@@SAPEAV12@PEAV12@@Z
?_downcast@ValueFactoryBase@CORBA@@SAPEAV12@PEAV12@@Z
?_downcast@WStringValue@CORBA@@SAPEAV12@PEAVValueBase@2@@Z
?_downcast@WrongTransaction@CORBA@@SAPEAV12@PEAVException@2@@Z
?_downcast@WrongTransaction@CORBA@@SAPEBV12@PEBVException@2@@Z
?_duplicate@AbstractBase@CORBA@@SAPEAV12@PEAV12@@Z
?_duplicate@AbstractInterfaceDef@CORBA@@SAPEAV_objref_AbstractInterfaceDef@2@PEAV32@@Z
?_duplicate@AliasDef@CORBA@@SAPEAV_objref_AliasDef@2@PEAV32@@Z
?_duplicate@ArrayDef@CORBA@@SAPEAV_objref_ArrayDef@2@PEAV32@@Z
?_duplicate@AttributeDef@CORBA@@SAPEAV_objref_AttributeDef@2@PEAV32@@Z
?_duplicate@ConstantDef@CORBA@@SAPEAV_objref_ConstantDef@2@PEAV32@@Z
?_duplicate@Contained@CORBA@@SAPEAV_objref_Contained@2@PEAV32@@Z
?_duplicate@Container@CORBA@@SAPEAV_objref_Container@2@PEAV32@@Z
?_duplicate@Context@CORBA@@SAPEAV12@PEAV12@@Z
?_duplicate@ContextList@CORBA@@SAPEAV12@PEAV12@@Z
?_duplicate@DynAny@DynamicAny@@SAPEAV12@PEAV12@@Z
?_duplicate@DynAnyFactory@DynamicAny@@SAPEAV12@PEAV12@@Z
?_duplicate@DynArray@DynamicAny@@SAPEAV12@PEAV12@@Z
?_duplicate@DynEnum@DynamicAny@@SAPEAV12@PEAV12@@Z
?_duplicate@DynFixed@DynamicAny@@SAPEAV12@PEAV12@@Z
?_duplicate@DynSequence@DynamicAny@@SAPEAV12@PEAV12@@Z
?_duplicate@DynStruct@DynamicAny@@SAPEAV12@PEAV12@@Z
?_duplicate@DynUnion@DynamicAny@@SAPEAV12@PEAV12@@Z
?_duplicate@DynValue@DynamicAny@@SAPEAV12@PEAV12@@Z
?_duplicate@DynValueBox@DynamicAny@@SAPEAV12@PEAV12@@Z
?_duplicate@EnumDef@CORBA@@SAPEAV_objref_EnumDef@2@PEAV32@@Z
?_duplicate@Environment@CORBA@@SAPEAV12@PEAV12@@Z
?_duplicate@ExceptionDef@CORBA@@SAPEAV_objref_ExceptionDef@2@PEAV32@@Z
?_duplicate@ExceptionList@CORBA@@SAPEAV12@PEAV12@@Z
?_duplicate@FixedDef@CORBA@@SAPEAV_objref_FixedDef@2@PEAV32@@Z
?_duplicate@IDLType@CORBA@@SAPEAV_objref_IDLType@2@PEAV32@@Z
?_duplicate@IRObject@CORBA@@SAPEAV_objref_IRObject@2@PEAV32@@Z
?_duplicate@InterfaceDef@CORBA@@SAPEAV_objref_InterfaceDef@2@PEAV32@@Z
?_duplicate@ModuleDef@CORBA@@SAPEAV_objref_ModuleDef@2@PEAV32@@Z
?_duplicate@NVList@CORBA@@SAPEAV12@PEAV12@@Z
?_duplicate@NamedValue@CORBA@@SAPEAV12@PEAV12@@Z
?_duplicate@NativeDef@CORBA@@SAPEAV_objref_NativeDef@2@PEAV32@@Z
?_duplicate@OperationDef@CORBA@@SAPEAV_objref_OperationDef@2@PEAV32@@Z
?_duplicate@PollableSet@CORBA@@SAPEAV12@PEAV12@@Z
?_duplicate@PrimitiveDef@CORBA@@SAPEAV_objref_PrimitiveDef@2@PEAV32@@Z
?_duplicate@ReplyHandler@Messaging@@SAPEAV_objref_ReplyHandler@2@PEAV32@@Z
?_duplicate@Repository@CORBA@@SAPEAV_objref_Repository@2@PEAV32@@Z
?_duplicate@Request@CORBA@@SAPEAV12@PEAV12@@Z
?_duplicate@SequenceDef@CORBA@@SAPEAV_objref_SequenceDef@2@PEAV32@@Z
?_duplicate@StringDef@CORBA@@SAPEAV_objref_StringDef@2@PEAV32@@Z
?_duplicate@StructDef@CORBA@@SAPEAV_objref_StructDef@2@PEAV32@@Z
?_duplicate@TypeCode@CORBA@@SAPEAV12@PEAV12@@Z
?_duplicate@TypedefDef@CORBA@@SAPEAV_objref_TypedefDef@2@PEAV32@@Z
?_duplicate@UnionDef@CORBA@@SAPEAV_objref_UnionDef@2@PEAV32@@Z
?_duplicate@ValueBoxDef@CORBA@@SAPEAV_objref_ValueBoxDef@2@PEAV32@@Z
?_duplicate@ValueDef@CORBA@@SAPEAV_objref_ValueDef@2@PEAV32@@Z
?_duplicate@ValueMemberDef@CORBA@@SAPEAV_objref_ValueMemberDef@2@PEAV32@@Z
?_duplicate@WstringDef@CORBA@@SAPEAV_objref_WstringDef@2@PEAV32@@Z
?_empty@cdrAnyMemoryStream@@2PEAV1@EA
?_fromObjRef@ReplyHandler@Messaging@@SAPEAV_objref_ReplyHandler@2@PEAVomniObjRef@@@Z
?_get_interface@Object@CORBA@@QEAAPEAV_objref_InterfaceDef@2@XZ
?_is_a@DynamicImplementation@PortableServer@@$4PPPPPPPM@A@EAA_NPEBD@Z
?_is_a@DynamicImplementation@PortableServer@@UEAA_NPEBD@Z
?_lockedIsReady@DIIPollableImpl@omniAMI@@QEAA_NXZ
?_marshalObjRef@AbstractInterfaceDef@CORBA@@SAXPEAV_objref_AbstractInterfaceDef@2@AEAVcdrStream@@@Z
?_marshalObjRef@AliasDef@CORBA@@SAXPEAV_objref_AliasDef@2@AEAVcdrStream@@@Z
?_marshalObjRef@ArrayDef@CORBA@@SAXPEAV_objref_ArrayDef@2@AEAVcdrStream@@@Z
?_marshalObjRef@AttributeDef@CORBA@@SAXPEAV_objref_AttributeDef@2@AEAVcdrStream@@@Z
?_marshalObjRef@ConstantDef@CORBA@@SAXPEAV_objref_ConstantDef@2@AEAVcdrStream@@@Z
?_marshalObjRef@Contained@CORBA@@SAXPEAV_objref_Contained@2@AEAVcdrStream@@@Z
?_marshalObjRef@Container@CORBA@@SAXPEAV_objref_Container@2@AEAVcdrStream@@@Z
?_marshalObjRef@EnumDef@CORBA@@SAXPEAV_objref_EnumDef@2@AEAVcdrStream@@@Z
?_marshalObjRef@ExceptionDef@CORBA@@SAXPEAV_objref_ExceptionDef@2@AEAVcdrStream@@@Z
?_marshalObjRef@FixedDef@CORBA@@SAXPEAV_objref_FixedDef@2@AEAVcdrStream@@@Z
?_marshalObjRef@IDLType@CORBA@@SAXPEAV_objref_IDLType@2@AEAVcdrStream@@@Z
?_marshalObjRef@IRObject@CORBA@@SAXPEAV_objref_IRObject@2@AEAVcdrStream@@@Z
?_marshalObjRef@InterfaceDef@CORBA@@SAXPEAV_objref_InterfaceDef@2@AEAVcdrStream@@@Z
?_marshalObjRef@ModuleDef@CORBA@@SAXPEAV_objref_ModuleDef@2@AEAVcdrStream@@@Z
?_marshalObjRef@NativeDef@CORBA@@SAXPEAV_objref_NativeDef@2@AEAVcdrStream@@@Z
?_marshalObjRef@OperationDef@CORBA@@SAXPEAV_objref_OperationDef@2@AEAVcdrStream@@@Z
?_marshalObjRef@PollableSet@CORBA@@SAXPEAV12@AEAVcdrStream@@@Z
?_marshalObjRef@PrimitiveDef@CORBA@@SAXPEAV_objref_PrimitiveDef@2@AEAVcdrStream@@@Z
?_marshalObjRef@ReplyHandler@Messaging@@SAXPEAV_objref_ReplyHandler@2@AEAVcdrStream@@@Z
?_marshalObjRef@Repository@CORBA@@SAXPEAV_objref_Repository@2@AEAVcdrStream@@@Z
?_marshalObjRef@SequenceDef@CORBA@@SAXPEAV_objref_SequenceDef@2@AEAVcdrStream@@@Z
?_marshalObjRef@StringDef@CORBA@@SAXPEAV_objref_StringDef@2@AEAVcdrStream@@@Z
?_marshalObjRef@StructDef@CORBA@@SAXPEAV_objref_StructDef@2@AEAVcdrStream@@@Z
?_marshalObjRef@TypedefDef@CORBA@@SAXPEAV_objref_TypedefDef@2@AEAVcdrStream@@@Z
?_marshalObjRef@UnionDef@CORBA@@SAXPEAV_objref_UnionDef@2@AEAVcdrStream@@@Z
?_marshalObjRef@ValueBoxDef@CORBA@@SAXPEAV_objref_ValueBoxDef@2@AEAVcdrStream@@@Z
?_marshalObjRef@ValueDef@CORBA@@SAXPEAV_objref_ValueDef@2@AEAVcdrStream@@@Z
?_marshalObjRef@ValueMemberDef@CORBA@@SAXPEAV_objref_ValueMemberDef@2@AEAVcdrStream@@@Z
?_marshalObjRef@WstringDef@CORBA@@SAXPEAV_objref_WstringDef@2@AEAVcdrStream@@@Z
?_mostDerivedRepoId@_impl_AbstractInterfaceDef@CORBA@@$0PPPPPPPM@A@EAAPEBDXZ
?_mostDerivedRepoId@_impl_AbstractInterfaceDef@CORBA@@$R0BA@BM@PPPPPPPM@BA@EAAPEBDXZ
?_mostDerivedRepoId@_impl_AbstractInterfaceDef@CORBA@@EEAAPEBDXZ
?_mostDerivedRepoId@_impl_AliasDef@CORBA@@$0PPPPPPPM@A@EAAPEBDXZ
?_mostDerivedRepoId@_impl_AliasDef@CORBA@@$R0BA@BI@PPPPPPPM@BI@EAAPEBDXZ
?_mostDerivedRepoId@_impl_AliasDef@CORBA@@EEAAPEBDXZ
?_mostDerivedRepoId@_impl_ArrayDef@CORBA@@$0PPPPPPPM@A@EAAPEBDXZ
?_mostDerivedRepoId@_impl_ArrayDef@CORBA@@$R0BA@BA@PPPPPPPM@BI@EAAPEBDXZ
?_mostDerivedRepoId@_impl_ArrayDef@CORBA@@EEAAPEBDXZ
?_mostDerivedRepoId@_impl_AttributeDef@CORBA@@$0PPPPPPPM@A@EAAPEBDXZ
?_mostDerivedRepoId@_impl_AttributeDef@CORBA@@$R0BA@BA@PPPPPPPM@BI@EAAPEBDXZ
?_mostDerivedRepoId@_impl_AttributeDef@CORBA@@EEAAPEBDXZ
?_mostDerivedRepoId@_impl_ConstantDef@CORBA@@$0PPPPPPPM@A@EAAPEBDXZ
?_mostDerivedRepoId@_impl_ConstantDef@CORBA@@$R0BA@BA@PPPPPPPM@BI@EAAPEBDXZ
?_mostDerivedRepoId@_impl_ConstantDef@CORBA@@EEAAPEBDXZ
?_mostDerivedRepoId@_impl_Contained@CORBA@@$0PPPPPPPM@A@EAAPEBDXZ
?_mostDerivedRepoId@_impl_Contained@CORBA@@$R0BA@M@PPPPPPPM@BI@EAAPEBDXZ
?_mostDerivedRepoId@_impl_Contained@CORBA@@EEAAPEBDXZ
?_mostDerivedRepoId@_impl_Container@CORBA@@$0PPPPPPPM@A@EAAPEBDXZ
?_mostDerivedRepoId@_impl_Container@CORBA@@$R0BA@M@PPPPPPPM@BI@EAAPEBDXZ
?_mostDerivedRepoId@_impl_Container@CORBA@@EEAAPEBDXZ
?_mostDerivedRepoId@_impl_EnumDef@CORBA@@$0PPPPPPPM@A@EAAPEBDXZ
?_mostDerivedRepoId@_impl_EnumDef@CORBA@@$R0BA@BI@PPPPPPPM@BI@EAAPEBDXZ
?_mostDerivedRepoId@_impl_EnumDef@CORBA@@EEAAPEBDXZ
?_mostDerivedRepoId@_impl_ExceptionDef@CORBA@@$0PPPPPPPM@A@EAAPEBDXZ
?_mostDerivedRepoId@_impl_ExceptionDef@CORBA@@$R0BA@BE@PPPPPPPM@BI@EAAPEBDXZ
?_mostDerivedRepoId@_impl_ExceptionDef@CORBA@@EEAAPEBDXZ
?_mostDerivedRepoId@_impl_FixedDef@CORBA@@$0PPPPPPPM@A@EAAPEBDXZ
?_mostDerivedRepoId@_impl_FixedDef@CORBA@@$R0BA@BA@PPPPPPPM@BI@EAAPEBDXZ
?_mostDerivedRepoId@_impl_FixedDef@CORBA@@EEAAPEBDXZ
?_mostDerivedRepoId@_impl_IDLType@CORBA@@$0PPPPPPPM@A@EAAPEBDXZ
?_mostDerivedRepoId@_impl_IDLType@CORBA@@$R0BA@M@PPPPPPPM@BI@EAAPEBDXZ
?_mostDerivedRepoId@_impl_IDLType@CORBA@@EEAAPEBDXZ
?_mostDerivedRepoId@_impl_IRObject@CORBA@@$0PPPPPPPM@A@EAAPEBDXZ
?_mostDerivedRepoId@_impl_IRObject@CORBA@@$R0BA@7PPPPPPPM@BI@EAAPEBDXZ
?_mostDerivedRepoId@_impl_IRObject@CORBA@@EEAAPEBDXZ
?_mostDerivedRepoId@_impl_InterfaceDef@CORBA@@$0PPPPPPPM@A@EAAPEBDXZ
?_mostDerivedRepoId@_impl_InterfaceDef@CORBA@@$R0BA@BI@PPPPPPPM@BI@EAAPEBDXZ
?_mostDerivedRepoId@_impl_InterfaceDef@CORBA@@EEAAPEBDXZ
?_mostDerivedRepoId@_impl_ModuleDef@CORBA@@$0PPPPPPPM@A@EAAPEBDXZ
?_mostDerivedRepoId@_impl_ModuleDef@CORBA@@$R0BA@BE@PPPPPPPM@BA@EAAPEBDXZ
?_mostDerivedRepoId@_impl_ModuleDef@CORBA@@EEAAPEBDXZ
?_mostDerivedRepoId@_impl_NativeDef@CORBA@@$0PPPPPPPM@A@EAAPEBDXZ
?_mostDerivedRepoId@_impl_NativeDef@CORBA@@$R0BA@BI@PPPPPPPM@BA@EAAPEBDXZ
?_mostDerivedRepoId@_impl_NativeDef@CORBA@@EEAAPEBDXZ
?_mostDerivedRepoId@_impl_OperationDef@CORBA@@$0PPPPPPPM@A@EAAPEBDXZ
?_mostDerivedRepoId@_impl_OperationDef@CORBA@@$R0BA@BA@PPPPPPPM@BI@EAAPEBDXZ
?_mostDerivedRepoId@_impl_OperationDef@CORBA@@EEAAPEBDXZ
?_mostDerivedRepoId@_impl_PrimitiveDef@CORBA@@$0PPPPPPPM@A@EAAPEBDXZ
?_mostDerivedRepoId@_impl_PrimitiveDef@CORBA@@$R0BA@BA@PPPPPPPM@BI@EAAPEBDXZ
?_mostDerivedRepoId@_impl_PrimitiveDef@CORBA@@EEAAPEBDXZ
?_mostDerivedRepoId@_impl_ReplyHandler@Messaging@@$0PPPPPPPM@A@EAAPEBDXZ
?_mostDerivedRepoId@_impl_ReplyHandler@Messaging@@$R0BA@7PPPPPPPM@BA@EAAPEBDXZ
?_mostDerivedRepoId@_impl_ReplyHandler@Messaging@@EEAAPEBDXZ
?_mostDerivedRepoId@_impl_Repository@CORBA@@$0PPPPPPPM@A@EAAPEBDXZ
?_mostDerivedRepoId@_impl_Repository@CORBA@@$R0BA@BA@PPPPPPPM@BI@EAAPEBDXZ
?_mostDerivedRepoId@_impl_Repository@CORBA@@EEAAPEBDXZ
?_mostDerivedRepoId@_impl_SequenceDef@CORBA@@$0PPPPPPPM@A@EAAPEBDXZ
?_mostDerivedRepoId@_impl_SequenceDef@CORBA@@$R0BA@BA@PPPPPPPM@BI@EAAPEBDXZ
?_mostDerivedRepoId@_impl_SequenceDef@CORBA@@EEAAPEBDXZ
?_mostDerivedRepoId@_impl_StringDef@CORBA@@$0PPPPPPPM@A@EAAPEBDXZ
?_mostDerivedRepoId@_impl_StringDef@CORBA@@$R0BA@BA@PPPPPPPM@BI@EAAPEBDXZ
?_mostDerivedRepoId@_impl_StringDef@CORBA@@EEAAPEBDXZ
?_mostDerivedRepoId@_impl_StructDef@CORBA@@$0PPPPPPPM@A@EAAPEBDXZ
?_mostDerivedRepoId@_impl_StructDef@CORBA@@$R0BA@BM@PPPPPPPM@BI@EAAPEBDXZ
?_mostDerivedRepoId@_impl_StructDef@CORBA@@EEAAPEBDXZ
?_mostDerivedRepoId@_impl_TypedefDef@CORBA@@$0PPPPPPPM@A@EAAPEBDXZ
?_mostDerivedRepoId@_impl_TypedefDef@CORBA@@$R0BA@BE@PPPPPPPM@BA@EAAPEBDXZ
?_mostDerivedRepoId@_impl_TypedefDef@CORBA@@EEAAPEBDXZ
?_mostDerivedRepoId@_impl_UnionDef@CORBA@@$0PPPPPPPM@A@EAAPEBDXZ
?_mostDerivedRepoId@_impl_UnionDef@CORBA@@$R0BA@BM@PPPPPPPM@BI@EAAPEBDXZ
?_mostDerivedRepoId@_impl_UnionDef@CORBA@@EEAAPEBDXZ
?_mostDerivedRepoId@_impl_ValueBoxDef@CORBA@@$0PPPPPPPM@A@EAAPEBDXZ
?_mostDerivedRepoId@_impl_ValueBoxDef@CORBA@@$R0BA@BI@PPPPPPPM@BI@EAAPEBDXZ
?_mostDerivedRepoId@_impl_ValueBoxDef@CORBA@@EEAAPEBDXZ
?_mostDerivedRepoId@_impl_ValueDef@CORBA@@$0PPPPPPPM@A@EAAPEBDXZ
?_mostDerivedRepoId@_impl_ValueDef@CORBA@@$R0BA@BI@PPPPPPPM@BI@EAAPEBDXZ
?_mostDerivedRepoId@_impl_ValueDef@CORBA@@EEAAPEBDXZ
?_mostDerivedRepoId@_impl_ValueMemberDef@CORBA@@$0PPPPPPPM@A@EAAPEBDXZ
?_mostDerivedRepoId@_impl_ValueMemberDef@CORBA@@$R0BA@BA@PPPPPPPM@BI@EAAPEBDXZ
?_mostDerivedRepoId@_impl_ValueMemberDef@CORBA@@EEAAPEBDXZ
?_mostDerivedRepoId@_impl_WstringDef@CORBA@@$0PPPPPPPM@A@EAAPEBDXZ
?_mostDerivedRepoId@_impl_WstringDef@CORBA@@$R0BA@BA@PPPPPPPM@BI@EAAPEBDXZ
?_mostDerivedRepoId@_impl_WstringDef@CORBA@@EEAAPEBDXZ
?_mostDerivedRepoId@omniObjRef@@QEBAPEBDXZ
?_narrow@AbstractBase@CORBA@@SAPEAV12@PEAV12@@Z
?_narrow@AbstractInterfaceDef@CORBA@@SAPEAV_objref_AbstractInterfaceDef@2@PEAVObject@2@@Z
?_narrow@AliasDef@CORBA@@SAPEAV_objref_AliasDef@2@PEAVObject@2@@Z
?_narrow@ArrayDef@CORBA@@SAPEAV_objref_ArrayDef@2@PEAVObject@2@@Z
?_narrow@AttributeDef@CORBA@@SAPEAV_objref_AttributeDef@2@PEAVObject@2@@Z
?_narrow@ConstantDef@CORBA@@SAPEAV_objref_ConstantDef@2@PEAVObject@2@@Z
?_narrow@Contained@CORBA@@SAPEAV_objref_Contained@2@PEAVObject@2@@Z
?_narrow@Container@CORBA@@SAPEAV_objref_Container@2@PEAVObject@2@@Z
?_narrow@DynAny@DynamicAny@@SAPEAV12@PEAVObject@CORBA@@@Z
?_narrow@DynAnyFactory@DynamicAny@@SAPEAV12@PEAVObject@CORBA@@@Z
?_narrow@DynArray@DynamicAny@@SAPEAV12@PEAVObject@CORBA@@@Z
?_narrow@DynEnum@DynamicAny@@SAPEAV12@PEAVObject@CORBA@@@Z
?_narrow@DynFixed@DynamicAny@@SAPEAV12@PEAVObject@CORBA@@@Z
?_narrow@DynSequence@DynamicAny@@SAPEAV12@PEAVObject@CORBA@@@Z
?_narrow@DynStruct@DynamicAny@@SAPEAV12@PEAVObject@CORBA@@@Z
?_narrow@DynUnion@DynamicAny@@SAPEAV12@PEAVObject@CORBA@@@Z
?_narrow@DynValue@DynamicAny@@SAPEAV12@PEAVObject@CORBA@@@Z
?_narrow@DynValueBox@DynamicAny@@SAPEAV12@PEAVObject@CORBA@@@Z
?_narrow@EnumDef@CORBA@@SAPEAV_objref_EnumDef@2@PEAVObject@2@@Z
?_narrow@ExceptionDef@CORBA@@SAPEAV_objref_ExceptionDef@2@PEAVObject@2@@Z
?_narrow@FixedDef@CORBA@@SAPEAV_objref_FixedDef@2@PEAVObject@2@@Z
?_narrow@IDLType@CORBA@@SAPEAV_objref_IDLType@2@PEAVObject@2@@Z
?_narrow@IRObject@CORBA@@SAPEAV_objref_IRObject@2@PEAVObject@2@@Z
?_narrow@InterfaceDef@CORBA@@SAPEAV_objref_InterfaceDef@2@PEAVObject@2@@Z
?_narrow@ModuleDef@CORBA@@SAPEAV_objref_ModuleDef@2@PEAVObject@2@@Z
?_narrow@NativeDef@CORBA@@SAPEAV_objref_NativeDef@2@PEAVObject@2@@Z
?_narrow@OperationDef@CORBA@@SAPEAV_objref_OperationDef@2@PEAVObject@2@@Z
?_narrow@PollableSet@CORBA@@SAPEAV12@PEAVObject@2@@Z
?_narrow@PrimitiveDef@CORBA@@SAPEAV_objref_PrimitiveDef@2@PEAVObject@2@@Z
?_narrow@ReplyHandler@Messaging@@SAPEAV_objref_ReplyHandler@2@PEAVObject@CORBA@@@Z
?_narrow@Repository@CORBA@@SAPEAV_objref_Repository@2@PEAVObject@2@@Z
?_narrow@SequenceDef@CORBA@@SAPEAV_objref_SequenceDef@2@PEAVObject@2@@Z
?_narrow@StringDef@CORBA@@SAPEAV_objref_StringDef@2@PEAVObject@2@@Z
?_narrow@StructDef@CORBA@@SAPEAV_objref_StructDef@2@PEAVObject@2@@Z
?_narrow@TypedefDef@CORBA@@SAPEAV_objref_TypedefDef@2@PEAVObject@2@@Z
?_narrow@UnionDef@CORBA@@SAPEAV_objref_UnionDef@2@PEAVObject@2@@Z
?_narrow@ValueBoxDef@CORBA@@SAPEAV_objref_ValueBoxDef@2@PEAVObject@2@@Z
?_narrow@ValueDef@CORBA@@SAPEAV_objref_ValueDef@2@PEAVObject@2@@Z
?_narrow@ValueMemberDef@CORBA@@SAPEAV_objref_ValueMemberDef@2@PEAVObject@2@@Z
?_narrow@WstringDef@CORBA@@SAPEAV_objref_WstringDef@2@PEAVObject@2@@Z
?_nil@AbstractBase@CORBA@@SAPEAV12@XZ
?_nil@AbstractInterfaceDef@CORBA@@SAPEAV_objref_AbstractInterfaceDef@2@XZ
?_nil@AbstractInterfaceDef_Helper@CORBA@@SAPEAV_objref_AbstractInterfaceDef@2@XZ
?_nil@AliasDef@CORBA@@SAPEAV_objref_AliasDef@2@XZ
?_nil@AliasDef_Helper@CORBA@@SAPEAV_objref_AliasDef@2@XZ
?_nil@ArrayDef@CORBA@@SAPEAV_objref_ArrayDef@2@XZ
?_nil@ArrayDef_Helper@CORBA@@SAPEAV_objref_ArrayDef@2@XZ
?_nil@AttributeDef@CORBA@@SAPEAV_objref_AttributeDef@2@XZ
?_nil@AttributeDef_Helper@CORBA@@SAPEAV_objref_AttributeDef@2@XZ
?_nil@ConstantDef@CORBA@@SAPEAV_objref_ConstantDef@2@XZ
?_nil@ConstantDef_Helper@CORBA@@SAPEAV_objref_ConstantDef@2@XZ
?_nil@Contained@CORBA@@SAPEAV_objref_Contained@2@XZ
?_nil@Contained_Helper@CORBA@@SAPEAV_objref_Contained@2@XZ
?_nil@Container@CORBA@@SAPEAV_objref_Container@2@XZ
?_nil@Container_Helper@CORBA@@SAPEAV_objref_Container@2@XZ
?_nil@Context@CORBA@@SAPEAV12@XZ
?_nil@ContextList@CORBA@@SAPEAV12@XZ
?_nil@DynAny@DynamicAny@@SAPEAV12@XZ
?_nil@DynAnyFactory@DynamicAny@@SAPEAV12@XZ
?_nil@DynAny_Helper@DynamicAny@@SAPEAVDynAny@2@XZ
?_nil@DynArray@DynamicAny@@SAPEAV12@XZ
?_nil@DynEnum@DynamicAny@@SAPEAV12@XZ
?_nil@DynFixed@DynamicAny@@SAPEAV12@XZ
?_nil@DynSequence@DynamicAny@@SAPEAV12@XZ
?_nil@DynStruct@DynamicAny@@SAPEAV12@XZ
?_nil@DynUnion@DynamicAny@@SAPEAV12@XZ
?_nil@DynValue@DynamicAny@@SAPEAV12@XZ
?_nil@DynValueBox@DynamicAny@@SAPEAV12@XZ
?_nil@DynValueCommon@DynamicAny@@SAPEAV12@XZ
?_nil@EnumDef@CORBA@@SAPEAV_objref_EnumDef@2@XZ
?_nil@EnumDef_Helper@CORBA@@SAPEAV_objref_EnumDef@2@XZ
?_nil@Environment@CORBA@@SAPEAV12@XZ
?_nil@ExceptionDef@CORBA@@SAPEAV_objref_ExceptionDef@2@XZ
?_nil@ExceptionDef_Helper@CORBA@@SAPEAV_objref_ExceptionDef@2@XZ
?_nil@ExceptionList@CORBA@@SAPEAV12@XZ
?_nil@FixedDef@CORBA@@SAPEAV_objref_FixedDef@2@XZ
?_nil@FixedDef_Helper@CORBA@@SAPEAV_objref_FixedDef@2@XZ
?_nil@IDLType@CORBA@@SAPEAV_objref_IDLType@2@XZ
?_nil@IDLType_Helper@CORBA@@SAPEAV_objref_IDLType@2@XZ
?_nil@IRObject@CORBA@@SAPEAV_objref_IRObject@2@XZ
?_nil@IRObject_Helper@CORBA@@SAPEAV_objref_IRObject@2@XZ
?_nil@InterfaceDef@CORBA@@SAPEAV_objref_InterfaceDef@2@XZ
?_nil@InterfaceDef_Helper@CORBA@@SAPEAV_objref_InterfaceDef@2@XZ
?_nil@ModuleDef@CORBA@@SAPEAV_objref_ModuleDef@2@XZ
?_nil@ModuleDef_Helper@CORBA@@SAPEAV_objref_ModuleDef@2@XZ
?_nil@NVList@CORBA@@SAPEAV12@XZ
?_nil@NamedValue@CORBA@@SAPEAV12@XZ
?_nil@NativeDef@CORBA@@SAPEAV_objref_NativeDef@2@XZ
?_nil@NativeDef_Helper@CORBA@@SAPEAV_objref_NativeDef@2@XZ
?_nil@OperationDef@CORBA@@SAPEAV_objref_OperationDef@2@XZ
?_nil@OperationDef_Helper@CORBA@@SAPEAV_objref_OperationDef@2@XZ
?_nil@PollableSet@CORBA@@SAPEAV12@XZ
?_nil@PollableSet_Helper@CORBA@@SAPEAVPollableSet@2@XZ
?_nil@PrimitiveDef@CORBA@@SAPEAV_objref_PrimitiveDef@2@XZ
?_nil@PrimitiveDef_Helper@CORBA@@SAPEAV_objref_PrimitiveDef@2@XZ
?_nil@ReplyHandler@Messaging@@SAPEAV_objref_ReplyHandler@2@XZ
?_nil@ReplyHandler_Helper@Messaging@@SAPEAV_objref_ReplyHandler@2@XZ
?_nil@Repository@CORBA@@SAPEAV_objref_Repository@2@XZ
?_nil@Repository_Helper@CORBA@@SAPEAV_objref_Repository@2@XZ
?_nil@Request@CORBA@@SAPEAV12@XZ
?_nil@SequenceDef@CORBA@@SAPEAV_objref_SequenceDef@2@XZ
?_nil@SequenceDef_Helper@CORBA@@SAPEAV_objref_SequenceDef@2@XZ
?_nil@StringDef@CORBA@@SAPEAV_objref_StringDef@2@XZ
?_nil@StringDef_Helper@CORBA@@SAPEAV_objref_StringDef@2@XZ
?_nil@StructDef@CORBA@@SAPEAV_objref_StructDef@2@XZ
?_nil@StructDef_Helper@CORBA@@SAPEAV_objref_StructDef@2@XZ
?_nil@TypeCode@CORBA@@SAPEAV12@XZ
?_nil@TypedefDef@CORBA@@SAPEAV_objref_TypedefDef@2@XZ
?_nil@TypedefDef_Helper@CORBA@@SAPEAV_objref_TypedefDef@2@XZ
?_nil@UnionDef@CORBA@@SAPEAV_objref_UnionDef@2@XZ
?_nil@UnionDef_Helper@CORBA@@SAPEAV_objref_UnionDef@2@XZ
?_nil@ValueBoxDef@CORBA@@SAPEAV_objref_ValueBoxDef@2@XZ
?_nil@ValueBoxDef_Helper@CORBA@@SAPEAV_objref_ValueBoxDef@2@XZ
?_nil@ValueDef@CORBA@@SAPEAV_objref_ValueDef@2@XZ
?_nil@ValueDef_Helper@CORBA@@SAPEAV_objref_ValueDef@2@XZ
?_nil@ValueMemberDef@CORBA@@SAPEAV_objref_ValueMemberDef@2@XZ
?_nil@ValueMemberDef_Helper@CORBA@@SAPEAV_objref_ValueMemberDef@2@XZ
?_nil@WstringDef@CORBA@@SAPEAV_objref_WstringDef@2@XZ
?_nil@WstringDef_Helper@CORBA@@SAPEAV_objref_WstringDef@2@XZ
?_non_existent@LocalObject@CORBA@@$4PPPPPPPM@A@EAA_NXZ
?_non_existent@LocalObject@CORBA@@$R4BA@7PPPPPPPM@BI@EAA_NXZ
?_non_existent@LocalObject@CORBA@@$R4HI@7PPPPPPPM@BI@EAA_NXZ
?_omni_dynamicLib_should_be_linked_but_is_not_@@3HA
?_ptrToFactory@ValueFactoryBase@CORBA@@UEAAPEAXPEBD@Z
?_ptrToInterface@_impl_AbstractInterfaceDef@CORBA@@$0PPPPPPPM@A@EAAPEAXPEBD@Z
?_ptrToInterface@_impl_AbstractInterfaceDef@CORBA@@$R0BA@BM@PPPPPPPM@BA@EAAPEAXPEBD@Z
?_ptrToInterface@_impl_AbstractInterfaceDef@CORBA@@EEAAPEAXPEBD@Z
?_ptrToInterface@_impl_AliasDef@CORBA@@$0PPPPPPPM@A@EAAPEAXPEBD@Z
?_ptrToInterface@_impl_AliasDef@CORBA@@$R0BA@BI@PPPPPPPM@BI@EAAPEAXPEBD@Z
?_ptrToInterface@_impl_AliasDef@CORBA@@EEAAPEAXPEBD@Z
?_ptrToInterface@_impl_ArrayDef@CORBA@@$0PPPPPPPM@A@EAAPEAXPEBD@Z
?_ptrToInterface@_impl_ArrayDef@CORBA@@$R0BA@BA@PPPPPPPM@BI@EAAPEAXPEBD@Z
?_ptrToInterface@_impl_ArrayDef@CORBA@@EEAAPEAXPEBD@Z
?_ptrToInterface@_impl_AttributeDef@CORBA@@$0PPPPPPPM@A@EAAPEAXPEBD@Z
?_ptrToInterface@_impl_AttributeDef@CORBA@@$R0BA@BA@PPPPPPPM@BI@EAAPEAXPEBD@Z
?_ptrToInterface@_impl_AttributeDef@CORBA@@EEAAPEAXPEBD@Z
?_ptrToInterface@_impl_ConstantDef@CORBA@@$0PPPPPPPM@A@EAAPEAXPEBD@Z
?_ptrToInterface@_impl_ConstantDef@CORBA@@$R0BA@BA@PPPPPPPM@BI@EAAPEAXPEBD@Z
?_ptrToInterface@_impl_ConstantDef@CORBA@@EEAAPEAXPEBD@Z
?_ptrToInterface@_impl_Contained@CORBA@@$0PPPPPPPM@A@EAAPEAXPEBD@Z
?_ptrToInterface@_impl_Contained@CORBA@@$R0BA@M@PPPPPPPM@BI@EAAPEAXPEBD@Z
?_ptrToInterface@_impl_Contained@CORBA@@EEAAPEAXPEBD@Z
?_ptrToInterface@_impl_Container@CORBA@@$0PPPPPPPM@A@EAAPEAXPEBD@Z
?_ptrToInterface@_impl_Container@CORBA@@$R0BA@M@PPPPPPPM@BI@EAAPEAXPEBD@Z
?_ptrToInterface@_impl_Container@CORBA@@EEAAPEAXPEBD@Z
?_ptrToInterface@_impl_EnumDef@CORBA@@$0PPPPPPPM@A@EAAPEAXPEBD@Z
?_ptrToInterface@_impl_EnumDef@CORBA@@$R0BA@BI@PPPPPPPM@BI@EAAPEAXPEBD@Z
?_ptrToInterface@_impl_EnumDef@CORBA@@EEAAPEAXPEBD@Z
?_ptrToInterface@_impl_ExceptionDef@CORBA@@$0PPPPPPPM@A@EAAPEAXPEBD@Z
?_ptrToInterface@_impl_ExceptionDef@CORBA@@$R0BA@BE@PPPPPPPM@BI@EAAPEAXPEBD@Z
?_ptrToInterface@_impl_ExceptionDef@CORBA@@EEAAPEAXPEBD@Z
?_ptrToInterface@_impl_FixedDef@CORBA@@$0PPPPPPPM@A@EAAPEAXPEBD@Z
?_ptrToInterface@_impl_FixedDef@CORBA@@$R0BA@BA@PPPPPPPM@BI@EAAPEAXPEBD@Z
?_ptrToInterface@_impl_FixedDef@CORBA@@EEAAPEAXPEBD@Z
?_ptrToInterface@_impl_IDLType@CORBA@@$0PPPPPPPM@A@EAAPEAXPEBD@Z
?_ptrToInterface@_impl_IDLType@CORBA@@$R0BA@M@PPPPPPPM@BI@EAAPEAXPEBD@Z
?_ptrToInterface@_impl_IDLType@CORBA@@EEAAPEAXPEBD@Z
?_ptrToInterface@_impl_IRObject@CORBA@@$0PPPPPPPM@A@EAAPEAXPEBD@Z
?_ptrToInterface@_impl_IRObject@CORBA@@$R0BA@7PPPPPPPM@BI@EAAPEAXPEBD@Z
?_ptrToInterface@_impl_IRObject@CORBA@@EEAAPEAXPEBD@Z
?_ptrToInterface@_impl_InterfaceDef@CORBA@@$0PPPPPPPM@A@EAAPEAXPEBD@Z
?_ptrToInterface@_impl_InterfaceDef@CORBA@@$R0BA@BI@PPPPPPPM@BI@EAAPEAXPEBD@Z
?_ptrToInterface@_impl_InterfaceDef@CORBA@@EEAAPEAXPEBD@Z
?_ptrToInterface@_impl_ModuleDef@CORBA@@$0PPPPPPPM@A@EAAPEAXPEBD@Z
?_ptrToInterface@_impl_ModuleDef@CORBA@@$R0BA@BE@PPPPPPPM@BA@EAAPEAXPEBD@Z
?_ptrToInterface@_impl_ModuleDef@CORBA@@EEAAPEAXPEBD@Z
?_ptrToInterface@_impl_NativeDef@CORBA@@$0PPPPPPPM@A@EAAPEAXPEBD@Z
?_ptrToInterface@_impl_NativeDef@CORBA@@$R0BA@BI@PPPPPPPM@BA@EAAPEAXPEBD@Z
?_ptrToInterface@_impl_NativeDef@CORBA@@EEAAPEAXPEBD@Z
?_ptrToInterface@_impl_OperationDef@CORBA@@$0PPPPPPPM@A@EAAPEAXPEBD@Z
?_ptrToInterface@_impl_OperationDef@CORBA@@$R0BA@BA@PPPPPPPM@BI@EAAPEAXPEBD@Z
?_ptrToInterface@_impl_OperationDef@CORBA@@EEAAPEAXPEBD@Z
?_ptrToInterface@_impl_PrimitiveDef@CORBA@@$0PPPPPPPM@A@EAAPEAXPEBD@Z
?_ptrToInterface@_impl_PrimitiveDef@CORBA@@$R0BA@BA@PPPPPPPM@BI@EAAPEAXPEBD@Z
?_ptrToInterface@_impl_PrimitiveDef@CORBA@@EEAAPEAXPEBD@Z
?_ptrToInterface@_impl_ReplyHandler@Messaging@@$0PPPPPPPM@A@EAAPEAXPEBD@Z
?_ptrToInterface@_impl_ReplyHandler@Messaging@@$R0BA@7PPPPPPPM@BA@EAAPEAXPEBD@Z
?_ptrToInterface@_impl_ReplyHandler@Messaging@@EEAAPEAXPEBD@Z
?_ptrToInterface@_impl_Repository@CORBA@@$0PPPPPPPM@A@EAAPEAXPEBD@Z
?_ptrToInterface@_impl_Repository@CORBA@@$R0BA@BA@PPPPPPPM@BI@EAAPEAXPEBD@Z
?_ptrToInterface@_impl_Repository@CORBA@@EEAAPEAXPEBD@Z
?_ptrToInterface@_impl_SequenceDef@CORBA@@$0PPPPPPPM@A@EAAPEAXPEBD@Z
?_ptrToInterface@_impl_SequenceDef@CORBA@@$R0BA@BA@PPPPPPPM@BI@EAAPEAXPEBD@Z
?_ptrToInterface@_impl_SequenceDef@CORBA@@EEAAPEAXPEBD@Z
?_ptrToInterface@_impl_StringDef@CORBA@@$0PPPPPPPM@A@EAAPEAXPEBD@Z
?_ptrToInterface@_impl_StringDef@CORBA@@$R0BA@BA@PPPPPPPM@BI@EAAPEAXPEBD@Z
?_ptrToInterface@_impl_StringDef@CORBA@@EEAAPEAXPEBD@Z
?_ptrToInterface@_impl_StructDef@CORBA@@$0PPPPPPPM@A@EAAPEAXPEBD@Z
?_ptrToInterface@_impl_StructDef@CORBA@@$R0BA@BM@PPPPPPPM@BI@EAAPEAXPEBD@Z
?_ptrToInterface@_impl_StructDef@CORBA@@EEAAPEAXPEBD@Z
?_ptrToInterface@_impl_TypedefDef@CORBA@@$0PPPPPPPM@A@EAAPEAXPEBD@Z
?_ptrToInterface@_impl_TypedefDef@CORBA@@$R0BA@BE@PPPPPPPM@BA@EAAPEAXPEBD@Z
?_ptrToInterface@_impl_TypedefDef@CORBA@@EEAAPEAXPEBD@Z
?_ptrToInterface@_impl_UnionDef@CORBA@@$0PPPPPPPM@A@EAAPEAXPEBD@Z
?_ptrToInterface@_impl_UnionDef@CORBA@@$R0BA@BM@PPPPPPPM@BI@EAAPEAXPEBD@Z
?_ptrToInterface@_impl_UnionDef@CORBA@@EEAAPEAXPEBD@Z
?_ptrToInterface@_impl_ValueBoxDef@CORBA@@$0PPPPPPPM@A@EAAPEAXPEBD@Z
?_ptrToInterface@_impl_ValueBoxDef@CORBA@@$R0BA@BI@PPPPPPPM@BI@EAAPEAXPEBD@Z
?_ptrToInterface@_impl_ValueBoxDef@CORBA@@EEAAPEAXPEBD@Z
?_ptrToInterface@_impl_ValueDef@CORBA@@$0PPPPPPPM@A@EAAPEAXPEBD@Z
?_ptrToInterface@_impl_ValueDef@CORBA@@$R0BA@BI@PPPPPPPM@BI@EAAPEAXPEBD@Z
?_ptrToInterface@_impl_ValueDef@CORBA@@EEAAPEAXPEBD@Z
?_ptrToInterface@_impl_ValueMemberDef@CORBA@@$0PPPPPPPM@A@EAAPEAXPEBD@Z
?_ptrToInterface@_impl_ValueMemberDef@CORBA@@$R0BA@BA@PPPPPPPM@BI@EAAPEAXPEBD@Z
?_ptrToInterface@_impl_ValueMemberDef@CORBA@@EEAAPEAXPEBD@Z
?_ptrToInterface@_impl_WstringDef@CORBA@@$0PPPPPPPM@A@EAAPEAXPEBD@Z
?_ptrToInterface@_impl_WstringDef@CORBA@@$R0BA@BA@PPPPPPPM@BI@EAAPEAXPEBD@Z
?_ptrToInterface@_impl_WstringDef@CORBA@@EEAAPEAXPEBD@Z
?_ptrToObjRef@BidirectionalPolicy@BiDirPolicy@@$4PPPPPPPM@A@EAAPEAXPEBD@Z
?_ptrToObjRef@DynAnyFactoryImpl@omni@@UEAAPEAXPEBD@Z
?_ptrToObjRef@DynAnyImpl@omni@@$4PPPPPPPM@7EAAPEAXPEBD@Z
?_ptrToObjRef@DynAnyImpl@omni@@$4PPPPPPPM@A@EAAPEAXPEBD@Z
?_ptrToObjRef@DynAnyImpl@omni@@UEAAPEAXPEBD@Z
?_ptrToObjRef@DynArrayImpl@omni@@$4PPPPPPPM@A@EAAPEAXPEBD@Z
?_ptrToObjRef@DynArrayImpl@omni@@UEAAPEAXPEBD@Z
?_ptrToObjRef@DynEnumImpl@omni@@$4PPPPPPPM@A@EAAPEAXPEBD@Z
?_ptrToObjRef@DynEnumImpl@omni@@UEAAPEAXPEBD@Z
?_ptrToObjRef@DynFixedImpl@omni@@$4PPPPPPPM@A@EAAPEAXPEBD@Z
?_ptrToObjRef@DynFixedImpl@omni@@UEAAPEAXPEBD@Z
?_ptrToObjRef@DynSequenceImpl@omni@@$4PPPPPPPM@A@EAAPEAXPEBD@Z
?_ptrToObjRef@DynSequenceImpl@omni@@UEAAPEAXPEBD@Z
?_ptrToObjRef@DynStructImpl@omni@@$4PPPPPPPM@A@EAAPEAXPEBD@Z
?_ptrToObjRef@DynStructImpl@omni@@UEAAPEAXPEBD@Z
?_ptrToObjRef@DynUnionEnumDisc@omni@@$4PPPPPPPM@A@EAAPEAXPEBD@Z
?_ptrToObjRef@DynUnionEnumDisc@omni@@UEAAPEAXPEBD@Z
?_ptrToObjRef@DynUnionImpl@omni@@$4PPPPPPPM@A@EAAPEAXPEBD@Z
?_ptrToObjRef@DynUnionImpl@omni@@UEAAPEAXPEBD@Z
?_ptrToObjRef@DynValueBoxImpl@omni@@$4PPPPPPPM@A@EAAPEAXPEBD@Z
?_ptrToObjRef@DynValueBoxImpl@omni@@UEAAPEAXPEBD@Z
?_ptrToObjRef@DynValueImpl@omni@@$4PPPPPPPM@A@EAAPEAXPEBD@Z
?_ptrToObjRef@DynValueImpl@omni@@UEAAPEAXPEBD@Z
?_ptrToObjRef@IdAssignmentPolicy@PortableServer@@$4PPPPPPPM@A@EAAPEAXPEBD@Z
?_ptrToObjRef@IdUniquenessPolicy@PortableServer@@$4PPPPPPPM@A@EAAPEAXPEBD@Z
?_ptrToObjRef@ImplicitActivationPolicy@PortableServer@@$4PPPPPPPM@A@EAAPEAXPEBD@Z
?_ptrToObjRef@LifespanPolicy@PortableServer@@$4PPPPPPPM@A@EAAPEAXPEBD@Z
?_ptrToObjRef@LocalObject@CORBA@@$4PPPPPPPM@A@EAAPEAXPEBD@Z
?_ptrToObjRef@LocalShortcutPolicy@omniPolicy@@$4PPPPPPPM@A@EAAPEAXPEBD@Z
?_ptrToObjRef@PlainObjectKeysPolicy@omniPolicy@@$4PPPPPPPM@A@EAAPEAXPEBD@Z
?_ptrToObjRef@PollableSet@CORBA@@$0PPPPPPPM@A@EAAPEAXPEBD@Z
?_ptrToObjRef@PollableSet@CORBA@@$R0BA@M@PPPPPPPM@BI@EAAPEAXPEBD@Z
?_ptrToObjRef@PollableSet@CORBA@@$R0HI@M@PPPPPPPM@BI@EAAPEAXPEBD@Z
?_ptrToObjRef@PollableSet@CORBA@@EEAAPEAXPEBD@Z
?_ptrToObjRef@RequestProcessingPolicy@PortableServer@@$4PPPPPPPM@A@EAAPEAXPEBD@Z
?_ptrToObjRef@ServantRetentionPolicy@PortableServer@@$4PPPPPPPM@A@EAAPEAXPEBD@Z
?_ptrToObjRef@ThreadPolicy@PortableServer@@$4PPPPPPPM@A@EAAPEAXPEBD@Z
?_ptrToObjRef@_objref_AbstractInterfaceDef@CORBA@@$0PPPPPPPM@A@EAAPEAXPEBD@Z
?_ptrToObjRef@_objref_AbstractInterfaceDef@CORBA@@$0PPPPPPPM@CA@EAAPEAXPEBD@Z
?_ptrToObjRef@_objref_AbstractInterfaceDef@CORBA@@EEAAPEAXPEBD@Z
?_ptrToObjRef@_objref_AliasDef@CORBA@@$0PPPPPPPM@A@EAAPEAXPEBD@Z
?_ptrToObjRef@_objref_AliasDef@CORBA@@$0PPPPPPPM@CA@EAAPEAXPEBD@Z
?_ptrToObjRef@_objref_AliasDef@CORBA@@EEAAPEAXPEBD@Z
?_ptrToObjRef@_objref_ArrayDef@CORBA@@$0PPPPPPPM@A@EAAPEAXPEBD@Z
?_ptrToObjRef@_objref_ArrayDef@CORBA@@$0PPPPPPPM@CA@EAAPEAXPEBD@Z
?_ptrToObjRef@_objref_ArrayDef@CORBA@@EEAAPEAXPEBD@Z
?_ptrToObjRef@_objref_AttributeDef@CORBA@@$0PPPPPPPM@A@EAAPEAXPEBD@Z
?_ptrToObjRef@_objref_AttributeDef@CORBA@@$0PPPPPPPM@CA@EAAPEAXPEBD@Z
?_ptrToObjRef@_objref_AttributeDef@CORBA@@EEAAPEAXPEBD@Z
?_ptrToObjRef@_objref_ConstantDef@CORBA@@$0PPPPPPPM@A@EAAPEAXPEBD@Z
?_ptrToObjRef@_objref_ConstantDef@CORBA@@$0PPPPPPPM@CA@EAAPEAXPEBD@Z
?_ptrToObjRef@_objref_ConstantDef@CORBA@@EEAAPEAXPEBD@Z
?_ptrToObjRef@_objref_Contained@CORBA@@$0PPPPPPPM@A@EAAPEAXPEBD@Z
?_ptrToObjRef@_objref_Contained@CORBA@@$0PPPPPPPM@CA@EAAPEAXPEBD@Z
?_ptrToObjRef@_objref_Contained@CORBA@@EEAAPEAXPEBD@Z
?_ptrToObjRef@_objref_Container@CORBA@@$0PPPPPPPM@A@EAAPEAXPEBD@Z
?_ptrToObjRef@_objref_Container@CORBA@@$0PPPPPPPM@CA@EAAPEAXPEBD@Z
?_ptrToObjRef@_objref_Container@CORBA@@EEAAPEAXPEBD@Z
?_ptrToObjRef@_objref_EnumDef@CORBA@@$0PPPPPPPM@A@EAAPEAXPEBD@Z
?_ptrToObjRef@_objref_EnumDef@CORBA@@$0PPPPPPPM@CA@EAAPEAXPEBD@Z
?_ptrToObjRef@_objref_EnumDef@CORBA@@EEAAPEAXPEBD@Z
?_ptrToObjRef@_objref_ExceptionDef@CORBA@@$0PPPPPPPM@A@EAAPEAXPEBD@Z
?_ptrToObjRef@_objref_ExceptionDef@CORBA@@$0PPPPPPPM@CA@EAAPEAXPEBD@Z
?_ptrToObjRef@_objref_ExceptionDef@CORBA@@EEAAPEAXPEBD@Z
?_ptrToObjRef@_objref_FixedDef@CORBA@@$0PPPPPPPM@A@EAAPEAXPEBD@Z
?_ptrToObjRef@_objref_FixedDef@CORBA@@$0PPPPPPPM@CA@EAAPEAXPEBD@Z
?_ptrToObjRef@_objref_FixedDef@CORBA@@EEAAPEAXPEBD@Z
?_ptrToObjRef@_objref_IDLType@CORBA@@$0PPPPPPPM@A@EAAPEAXPEBD@Z
?_ptrToObjRef@_objref_IDLType@CORBA@@$0PPPPPPPM@CA@EAAPEAXPEBD@Z
?_ptrToObjRef@_objref_IDLType@CORBA@@EEAAPEAXPEBD@Z
?_ptrToObjRef@_objref_IRObject@CORBA@@$0PPPPPPPM@A@EAAPEAXPEBD@Z
?_ptrToObjRef@_objref_IRObject@CORBA@@$0PPPPPPPM@CA@EAAPEAXPEBD@Z
?_ptrToObjRef@_objref_IRObject@CORBA@@EEAAPEAXPEBD@Z
?_ptrToObjRef@_objref_InterfaceDef@CORBA@@$0PPPPPPPM@A@EAAPEAXPEBD@Z
?_ptrToObjRef@_objref_InterfaceDef@CORBA@@$0PPPPPPPM@CA@EAAPEAXPEBD@Z
?_ptrToObjRef@_objref_InterfaceDef@CORBA@@EEAAPEAXPEBD@Z
?_ptrToObjRef@_objref_ModuleDef@CORBA@@$0PPPPPPPM@A@EAAPEAXPEBD@Z
?_ptrToObjRef@_objref_ModuleDef@CORBA@@$0PPPPPPPM@CA@EAAPEAXPEBD@Z
?_ptrToObjRef@_objref_ModuleDef@CORBA@@EEAAPEAXPEBD@Z
?_ptrToObjRef@_objref_NativeDef@CORBA@@$0PPPPPPPM@A@EAAPEAXPEBD@Z
?_ptrToObjRef@_objref_NativeDef@CORBA@@$0PPPPPPPM@CA@EAAPEAXPEBD@Z
?_ptrToObjRef@_objref_NativeDef@CORBA@@EEAAPEAXPEBD@Z
?_ptrToObjRef@_objref_OperationDef@CORBA@@$0PPPPPPPM@A@EAAPEAXPEBD@Z
?_ptrToObjRef@_objref_OperationDef@CORBA@@$0PPPPPPPM@CA@EAAPEAXPEBD@Z
?_ptrToObjRef@_objref_OperationDef@CORBA@@EEAAPEAXPEBD@Z
?_ptrToObjRef@_objref_PrimitiveDef@CORBA@@$0PPPPPPPM@A@EAAPEAXPEBD@Z
?_ptrToObjRef@_objref_PrimitiveDef@CORBA@@$0PPPPPPPM@CA@EAAPEAXPEBD@Z
?_ptrToObjRef@_objref_PrimitiveDef@CORBA@@EEAAPEAXPEBD@Z
?_ptrToObjRef@_objref_ReplyHandler@Messaging@@$0PPPPPPPM@A@EAAPEAXPEBD@Z
?_ptrToObjRef@_objref_ReplyHandler@Messaging@@$0PPPPPPPM@CA@EAAPEAXPEBD@Z
?_ptrToObjRef@_objref_ReplyHandler@Messaging@@EEAAPEAXPEBD@Z
?_ptrToObjRef@_objref_Repository@CORBA@@$0PPPPPPPM@A@EAAPEAXPEBD@Z
?_ptrToObjRef@_objref_Repository@CORBA@@$0PPPPPPPM@CA@EAAPEAXPEBD@Z
?_ptrToObjRef@_objref_Repository@CORBA@@EEAAPEAXPEBD@Z
?_ptrToObjRef@_objref_SequenceDef@CORBA@@$0PPPPPPPM@A@EAAPEAXPEBD@Z
?_ptrToObjRef@_objref_SequenceDef@CORBA@@$0PPPPPPPM@CA@EAAPEAXPEBD@Z
?_ptrToObjRef@_objref_SequenceDef@CORBA@@EEAAPEAXPEBD@Z
?_ptrToObjRef@_objref_StringDef@CORBA@@$0PPPPPPPM@A@EAAPEAXPEBD@Z
?_ptrToObjRef@_objref_StringDef@CORBA@@$0PPPPPPPM@CA@EAAPEAXPEBD@Z
?_ptrToObjRef@_objref_StringDef@CORBA@@EEAAPEAXPEBD@Z
?_ptrToObjRef@_objref_StructDef@CORBA@@$0PPPPPPPM@A@EAAPEAXPEBD@Z
?_ptrToObjRef@_objref_StructDef@CORBA@@$0PPPPPPPM@CA@EAAPEAXPEBD@Z
?_ptrToObjRef@_objref_StructDef@CORBA@@EEAAPEAXPEBD@Z
?_ptrToObjRef@_objref_TypedefDef@CORBA@@$0PPPPPPPM@A@EAAPEAXPEBD@Z
?_ptrToObjRef@_objref_TypedefDef@CORBA@@$0PPPPPPPM@CA@EAAPEAXPEBD@Z
?_ptrToObjRef@_objref_TypedefDef@CORBA@@EEAAPEAXPEBD@Z
?_ptrToObjRef@_objref_UnionDef@CORBA@@$0PPPPPPPM@A@EAAPEAXPEBD@Z
?_ptrToObjRef@_objref_UnionDef@CORBA@@$0PPPPPPPM@CA@EAAPEAXPEBD@Z
?_ptrToObjRef@_objref_UnionDef@CORBA@@EEAAPEAXPEBD@Z
?_ptrToObjRef@_objref_ValueBoxDef@CORBA@@$0PPPPPPPM@A@EAAPEAXPEBD@Z
?_ptrToObjRef@_objref_ValueBoxDef@CORBA@@$0PPPPPPPM@CA@EAAPEAXPEBD@Z
?_ptrToObjRef@_objref_ValueBoxDef@CORBA@@EEAAPEAXPEBD@Z
?_ptrToObjRef@_objref_ValueDef@CORBA@@$0PPPPPPPM@A@EAAPEAXPEBD@Z
?_ptrToObjRef@_objref_ValueDef@CORBA@@$0PPPPPPPM@CA@EAAPEAXPEBD@Z
?_ptrToObjRef@_objref_ValueDef@CORBA@@EEAAPEAXPEBD@Z
?_ptrToObjRef@_objref_ValueMemberDef@CORBA@@$0PPPPPPPM@A@EAAPEAXPEBD@Z
?_ptrToObjRef@_objref_ValueMemberDef@CORBA@@$0PPPPPPPM@CA@EAAPEAXPEBD@Z
?_ptrToObjRef@_objref_ValueMemberDef@CORBA@@EEAAPEAXPEBD@Z
?_ptrToObjRef@_objref_WstringDef@CORBA@@$0PPPPPPPM@A@EAAPEAXPEBD@Z
?_ptrToObjRef@_objref_WstringDef@CORBA@@$0PPPPPPPM@CA@EAAPEAXPEBD@Z
?_ptrToObjRef@_objref_WstringDef@CORBA@@EEAAPEAXPEBD@Z
?_ptrToObjRef@omniNilDynAny@omni@@$4PPPPPPPM@A@EAAPEAXPEBD@Z
?_ptrToObjRef@omniNilDynAny@omni@@UEAAPEAXPEBD@Z
?_ptrToObjRef@omniNilDynAnyFactory@omni@@$4PPPPPPPM@A@EAAPEAXPEBD@Z
?_ptrToObjRef@omniNilDynAnyFactory@omni@@UEAAPEAXPEBD@Z
?_ptrToObjRef@omniNilDynArray@omni@@$4PPPPPPPM@A@EAAPEAXPEBD@Z
?_ptrToObjRef@omniNilDynArray@omni@@UEAAPEAXPEBD@Z
?_ptrToObjRef@omniNilDynEnum@omni@@$4PPPPPPPM@A@EAAPEAXPEBD@Z
?_ptrToObjRef@omniNilDynEnum@omni@@UEAAPEAXPEBD@Z
?_ptrToObjRef@omniNilDynFixed@omni@@$4PPPPPPPM@A@EAAPEAXPEBD@Z
?_ptrToObjRef@omniNilDynFixed@omni@@UEAAPEAXPEBD@Z
?_ptrToObjRef@omniNilDynSequence@omni@@$4PPPPPPPM@A@EAAPEAXPEBD@Z
?_ptrToObjRef@omniNilDynSequence@omni@@UEAAPEAXPEBD@Z
?_ptrToObjRef@omniNilDynStruct@omni@@$4PPPPPPPM@A@EAAPEAXPEBD@Z
?_ptrToObjRef@omniNilDynStruct@omni@@UEAAPEAXPEBD@Z
?_ptrToObjRef@omniNilDynUnion@omni@@$4PPPPPPPM@A@EAAPEAXPEBD@Z
?_ptrToObjRef@omniNilDynUnion@omni@@UEAAPEAXPEBD@Z
?_ptrToObjRef@omniNilDynValue@omni@@$4PPPPPPPM@A@EAAPEAXPEBD@Z
?_ptrToObjRef@omniNilDynValue@omni@@UEAAPEAXPEBD@Z
?_ptrToObjRef@omniNilDynValueBox@omni@@$4PPPPPPPM@A@EAAPEAXPEBD@Z
?_ptrToObjRef@omniNilDynValueBox@omni@@UEAAPEAXPEBD@Z
?_ptrToObjRef@omniNilDynValueCommon@omni@@$4PPPPPPPM@A@EAAPEAXPEBD@Z
?_ptrToObjRef@omniNilDynValueCommon@omni@@UEAAPEAXPEBD@Z
?_ptrToValue@DIIPollable@CORBA@@$4PPPPPPPM@A@EAAPEAXPEBD@Z
?_ptrToValue@DIIPollable@CORBA@@$R4GA@M@PPPPPPPM@BA@EAAPEAXPEBD@Z
?_ptrToValue@DIIPollable@CORBA@@UEAAPEAXPEBD@Z
?_ptrToValue@ExceptionHolder@Messaging@@$4PPPPPPPM@A@EAAPEAXPEBD@Z
?_ptrToValue@ExceptionHolder@Messaging@@$R4BA@7PPPPPPPM@BI@EAAPEAXPEBD@Z
?_ptrToValue@ExceptionHolder@Messaging@@$R4BI@7PPPPPPPM@BI@EAAPEAXPEBD@Z
?_ptrToValue@ExceptionHolder@Messaging@@UEAAPEAXPEBD@Z
?_ptrToValue@Pollable@CORBA@@$4PPPPPPPM@A@EAAPEAXPEBD@Z
?_ptrToValue@Pollable@CORBA@@UEAAPEAXPEBD@Z
?_ptrToValue@Poller@Messaging@@$4PPPPPPPM@A@EAAPEAXPEBD@Z
?_ptrToValue@Poller@Messaging@@$R4CA@M@PPPPPPPM@BI@EAAPEAXPEBD@Z
?_ptrToValue@Poller@Messaging@@UEAAPEAXPEBD@Z
?_ptrToValue@StringValue@CORBA@@$4PPPPPPPM@A@EAAPEAXPEBD@Z
?_ptrToValue@StringValue@CORBA@@UEAAPEAXPEBD@Z
?_ptrToValue@UnknownValue@omni@@$4PPPPPPPM@A@EAAPEAXPEBD@Z
?_ptrToValue@UnknownValue@omni@@UEAAPEAXPEBD@Z
?_ptrToValue@ValueBase@CORBA@@UEAAPEAXPEBD@Z
?_ptrToValue@WStringValue@CORBA@@$4PPPPPPPM@A@EAAPEAXPEBD@Z
?_ptrToValue@WStringValue@CORBA@@UEAAPEAXPEBD@Z
?_raise@BadKind@TypeCode@CORBA@@UEBAXXZ
?_raise@Bounds@ContextList@CORBA@@UEBAXXZ
?_raise@Bounds@ExceptionList@CORBA@@UEBAXXZ
?_raise@Bounds@NVList@CORBA@@UEBAXXZ
?_raise@Bounds@TypeCode@CORBA@@UEBAXXZ
?_raise@FromAnyUserException@omni@@EEBAXXZ
?_raise@InconsistentTypeCode@DynAnyFactory@DynamicAny@@UEBAXXZ
?_raise@InconsistentTypeCode@ORB@CORBA@@UEBAXXZ
?_raise@InvalidValue@DynAny@DynamicAny@@UEBAXXZ
?_raise@NoPossiblePollable@PollableSet@CORBA@@UEBAXXZ
?_raise@TypeMismatch@DynAny@DynamicAny@@UEBAXXZ
?_raise@UnknownPollable@PollableSet@CORBA@@UEBAXXZ
?_raise@UnknownUserException@CORBA@@UEBAXXZ
?_raise@WrongTransaction@CORBA@@UEBAXXZ
?_refcount_value@DIIPollableImpl@omniAMI@@$4PPPPPPPM@A@EAAKXZ
?_refcount_value@DIIPollableImpl@omniAMI@@UEAAKXZ
?_refcount_value@DefaultValueRefCountBase@CORBA@@$4PPPPPPPM@7EAAKXZ
?_refcount_value@DefaultValueRefCountBase@CORBA@@$4PPPPPPPM@A@EAAKXZ
?_refcount_value@DefaultValueRefCountBase@CORBA@@$R4BI@M@PPPPPPPM@BI@EAAKXZ
?_refcount_value@DefaultValueRefCountBase@CORBA@@$R4CA@BA@PPPPPPPM@BI@EAAKXZ
?_refcount_value@DefaultValueRefCountBase@CORBA@@$R4MA@7PPPPPPPM@BI@EAAKXZ
?_refcount_value@DefaultValueRefCountBase@CORBA@@UEAAKXZ
?_refcount_value@ValueRefCountBase@PortableServer@@$4PPPPPPPM@A@EAAKXZ
?_refcount_value@ValueRefCountBase@PortableServer@@$4PPPPPPPM@EA@EAAKXZ
?_refcount_value@ValueRefCountBase@PortableServer@@UEAAKXZ
?_remFromSet@DIIPollableImpl@omniAMI@@QEAA_NPEAVomni_tracedcondition@@@Z
?_remove_ref@DIIPollableImpl@omniAMI@@$4PPPPPPPM@A@EAAXXZ
?_remove_ref@DIIPollableImpl@omniAMI@@UEAAXXZ
?_remove_ref@DefaultValueRefCountBase@CORBA@@$4PPPPPPPM@7EAAXXZ
?_remove_ref@DefaultValueRefCountBase@CORBA@@$4PPPPPPPM@A@EAAXXZ
?_remove_ref@DefaultValueRefCountBase@CORBA@@$R4BI@M@PPPPPPPM@BI@EAAXXZ
?_remove_ref@DefaultValueRefCountBase@CORBA@@$R4CA@BA@PPPPPPPM@BI@EAAXXZ
?_remove_ref@DefaultValueRefCountBase@CORBA@@$R4MA@7PPPPPPPM@BI@EAAXXZ
?_remove_ref@DefaultValueRefCountBase@CORBA@@UEAAXXZ
?_remove_ref@PollableSetImpl@omniAMI@@$4PPPPPPPM@A@EAAXXZ
?_remove_ref@PollableSetImpl@omniAMI@@UEAAXXZ
?_remove_ref@ServantBase@PortableServer@@$R4BA@7PPPPPPPM@CA@EAAXXZ
?_remove_ref@ServantBase@PortableServer@@$R4BA@BA@PPPPPPPM@CA@EAAXXZ
?_remove_ref@ServantBase@PortableServer@@$R4BA@BE@PPPPPPPM@CA@EAAXXZ
?_remove_ref@ServantBase@PortableServer@@$R4BA@BI@PPPPPPPM@CA@EAAXXZ
?_remove_ref@ServantBase@PortableServer@@$R4BA@BM@PPPPPPPM@CA@EAAXXZ
?_remove_ref@ServantBase@PortableServer@@$R4BA@CA@PPPPPPPM@CA@EAAXXZ
?_remove_ref@ServantBase@PortableServer@@$R4BA@M@PPPPPPPM@CA@EAAXXZ
?_remove_ref@ValueFactoryBase@CORBA@@UEAAXXZ
?_remove_ref@ValueRefCountBase@PortableServer@@$4PPPPPPPM@A@EAAXXZ
?_remove_ref@ValueRefCountBase@PortableServer@@$4PPPPPPPM@BI@EAAXXZ
?_remove_ref@ValueRefCountBase@PortableServer@@UEAAXXZ
?_replyCollected@DIIPollableImpl@omniAMI@@QEAAXXZ
?_replyReady@DIIPollableImpl@omniAMI@@QEAAXXZ
?_request@Object@CORBA@@QEAAPEAVRequest@2@PEBD@Z
?_retn@?$_CORBA_ConstrType_Variable_Var@UDescription@Contained@CORBA@@@@QEAAPEAUDescription@Contained@CORBA@@XZ
?_retn@?$_CORBA_ConstrType_Variable_Var@UFullInterfaceDescription@InterfaceDef@CORBA@@@@QEAAPEAUFullInterfaceDescription@InterfaceDef@CORBA@@XZ
?_retn@?$_CORBA_ConstrType_Variable_Var@UFullValueDescription@ValueDef@CORBA@@@@QEAAPEAUFullValueDescription@ValueDef@CORBA@@XZ
?_retn@?$_CORBA_ObjRef_Var@V_objref_AbstractInterfaceDef@CORBA@@VAbstractInterfaceDef_Helper@2@@@QEAAPEAV_objref_AbstractInterfaceDef@CORBA@@XZ
?_retn@?$_CORBA_ObjRef_Var@V_objref_AliasDef@CORBA@@VAliasDef_Helper@2@@@QEAAPEAV_objref_AliasDef@CORBA@@XZ
?_retn@?$_CORBA_ObjRef_Var@V_objref_ArrayDef@CORBA@@VArrayDef_Helper@2@@@QEAAPEAV_objref_ArrayDef@CORBA@@XZ
?_retn@?$_CORBA_ObjRef_Var@V_objref_AttributeDef@CORBA@@VAttributeDef_Helper@2@@@QEAAPEAV_objref_AttributeDef@CORBA@@XZ
?_retn@?$_CORBA_ObjRef_Var@V_objref_ConstantDef@CORBA@@VConstantDef_Helper@2@@@QEAAPEAV_objref_ConstantDef@CORBA@@XZ
?_retn@?$_CORBA_ObjRef_Var@V_objref_Contained@CORBA@@VContained_Helper@2@@@QEAAPEAV_objref_Contained@CORBA@@XZ
?_retn@?$_CORBA_ObjRef_Var@V_objref_Container@CORBA@@VContainer_Helper@2@@@QEAAPEAV_objref_Container@CORBA@@XZ
?_retn@?$_CORBA_ObjRef_Var@V_objref_EnumDef@CORBA@@VEnumDef_Helper@2@@@QEAAPEAV_objref_EnumDef@CORBA@@XZ
?_retn@?$_CORBA_ObjRef_Var@V_objref_ExceptionDef@CORBA@@VExceptionDef_Helper@2@@@QEAAPEAV_objref_ExceptionDef@CORBA@@XZ
?_retn@?$_CORBA_ObjRef_Var@V_objref_FixedDef@CORBA@@VFixedDef_Helper@2@@@QEAAPEAV_objref_FixedDef@CORBA@@XZ
?_retn@?$_CORBA_ObjRef_Var@V_objref_IDLType@CORBA@@VIDLType_Helper@2@@@QEAAPEAV_objref_IDLType@CORBA@@XZ
?_retn@?$_CORBA_ObjRef_Var@V_objref_InterfaceDef@CORBA@@VInterfaceDef_Helper@2@@@QEAAPEAV_objref_InterfaceDef@CORBA@@XZ
?_retn@?$_CORBA_ObjRef_Var@V_objref_ModuleDef@CORBA@@VModuleDef_Helper@2@@@QEAAPEAV_objref_ModuleDef@CORBA@@XZ
?_retn@?$_CORBA_ObjRef_Var@V_objref_NativeDef@CORBA@@VNativeDef_Helper@2@@@QEAAPEAV_objref_NativeDef@CORBA@@XZ
?_retn@?$_CORBA_ObjRef_Var@V_objref_OperationDef@CORBA@@VOperationDef_Helper@2@@@QEAAPEAV_objref_OperationDef@CORBA@@XZ
?_retn@?$_CORBA_ObjRef_Var@V_objref_PrimitiveDef@CORBA@@VPrimitiveDef_Helper@2@@@QEAAPEAV_objref_PrimitiveDef@CORBA@@XZ
?_retn@?$_CORBA_ObjRef_Var@V_objref_Repository@CORBA@@VRepository_Helper@2@@@QEAAPEAV_objref_Repository@CORBA@@XZ
?_retn@?$_CORBA_ObjRef_Var@V_objref_SequenceDef@CORBA@@VSequenceDef_Helper@2@@@QEAAPEAV_objref_SequenceDef@CORBA@@XZ
?_retn@?$_CORBA_ObjRef_Var@V_objref_StringDef@CORBA@@VStringDef_Helper@2@@@QEAAPEAV_objref_StringDef@CORBA@@XZ
?_retn@?$_CORBA_ObjRef_Var@V_objref_StructDef@CORBA@@VStructDef_Helper@2@@@QEAAPEAV_objref_StructDef@CORBA@@XZ
?_retn@?$_CORBA_ObjRef_Var@V_objref_UnionDef@CORBA@@VUnionDef_Helper@2@@@QEAAPEAV_objref_UnionDef@CORBA@@XZ
?_retn@?$_CORBA_ObjRef_Var@V_objref_ValueBoxDef@CORBA@@VValueBoxDef_Helper@2@@@QEAAPEAV_objref_ValueBoxDef@CORBA@@XZ
?_retn@?$_CORBA_ObjRef_Var@V_objref_ValueDef@CORBA@@VValueDef_Helper@2@@@QEAAPEAV_objref_ValueDef@CORBA@@XZ
?_retn@?$_CORBA_ObjRef_Var@V_objref_ValueMemberDef@CORBA@@VValueMemberDef_Helper@2@@@QEAAPEAV_objref_ValueMemberDef@CORBA@@XZ
?_retn@?$_CORBA_ObjRef_Var@V_objref_WstringDef@CORBA@@VWstringDef_Helper@2@@@QEAAPEAV_objref_WstringDef@CORBA@@XZ
?_retn@Any_var@CORBA@@QEAAPEAVAny@2@XZ
?_retn@BooleanSeq_var@CORBA@@QEAAPEAVBooleanSeq@2@XZ
?_retn@CharSeq_var@CORBA@@QEAAPEAVCharSeq@2@XZ
?_retn@ContainedSeq_var@CORBA@@QEAAPEAVContainedSeq@2@XZ
?_retn@ContextIdSeq_var@CORBA@@QEAAPEAVContextIdSeq@2@XZ
?_retn@DescriptionSeq_var@Container@CORBA@@QEAAPEAVDescriptionSeq@23@XZ
?_retn@DoubleSeq_var@CORBA@@QEAAPEAVDoubleSeq@2@XZ
?_retn@EnumMemberSeq_var@CORBA@@QEAAPEAVEnumMemberSeq@2@XZ
?_retn@ExceptionDefSeq_var@CORBA@@QEAAPEAVExceptionDefSeq@2@XZ
?_retn@FloatSeq_var@CORBA@@QEAAPEAVFloatSeq@2@XZ
?_retn@InitializerSeq_var@CORBA@@QEAAPEAVInitializerSeq@2@XZ
?_retn@InterfaceDefSeq_var@CORBA@@QEAAPEAVInterfaceDefSeq@2@XZ
?_retn@LongLongSeq_var@CORBA@@QEAAPEAVLongLongSeq@2@XZ
?_retn@LongSeq_var@CORBA@@QEAAPEAVLongSeq@2@XZ
?_retn@Object_var@CORBA@@QEAAPEAVObject@2@XZ
?_retn@OctetSeq_var@CORBA@@QEAAPEAVOctetSeq@2@XZ
?_retn@ParDescriptionSeq_var@CORBA@@QEAAPEAVParDescriptionSeq@2@XZ
?_retn@ShortSeq_var@CORBA@@QEAAPEAVShortSeq@2@XZ
?_retn@StructMemberSeq_var@CORBA@@QEAAPEAVStructMemberSeq@2@XZ
?_retn@TypeCode_member@CORBA@@QEAAPEAVTypeCode@2@XZ
?_retn@TypeCode_var@CORBA@@QEAAPEAVTypeCode@2@XZ
?_retn@ULongLongSeq_var@CORBA@@QEAAPEAVULongLongSeq@2@XZ
?_retn@ULongSeq_var@CORBA@@QEAAPEAVULongSeq@2@XZ
?_retn@UShortSeq_var@CORBA@@QEAAPEAVUShortSeq@2@XZ
?_retn@UnionMemberSeq_var@CORBA@@QEAAPEAVUnionMemberSeq@2@XZ
?_retn@ValueBase_var@CORBA@@QEAAPEAVValueBase@2@XZ
?_retn@ValueDefSeq_var@CORBA@@QEAAPEAVValueDefSeq@2@XZ
?_retn@WCharSeq_var@CORBA@@QEAAPEAVWCharSeq@2@XZ
?_retn@_CORBA_String_var@@QEAAPEADXZ
?_tc_AbstractInterfaceDef@CORBA@@3QEAVTypeCode@1@EA
?_tc_AbstractInterfaceDefSeq@CORBA@@3QEAVTypeCode@1@EA
?_tc_Address@NamingContextExt@CosNaming@@2QEAVTypeCode@CORBA@@EA
?_tc_AliasDef@CORBA@@3QEAVTypeCode@1@EA
?_tc_AlreadyBound@NamingContext@CosNaming@@2QEAVTypeCode@CORBA@@EA
?_tc_AnySeq@CORBA@@3QEAVTypeCode@1@EA
?_tc_ArrayDef@CORBA@@3QEAVTypeCode@1@EA
?_tc_AttrDescriptionSeq@CORBA@@3QEAVTypeCode@1@EA
?_tc_AttributeDef@CORBA@@3QEAVTypeCode@1@EA
?_tc_AttributeDescription@CORBA@@3QEAVTypeCode@1@EA
?_tc_AttributeMode@CORBA@@3QEAVTypeCode@1@EA
?_tc_BAD_CONTEXT@CORBA@@3PEAVTypeCode@1@EA
?_tc_BAD_INV_ORDER@CORBA@@3PEAVTypeCode@1@EA
?_tc_BAD_OPERATION@CORBA@@3PEAVTypeCode@1@EA
?_tc_BAD_PARAM@CORBA@@3PEAVTypeCode@1@EA
?_tc_BAD_QOS@CORBA@@3PEAVTypeCode@1@EA
?_tc_BAD_TYPECODE@CORBA@@3PEAVTypeCode@1@EA
?_tc_Binding@CosNaming@@3QEAVTypeCode@CORBA@@EA
?_tc_BindingIterator@CosNaming@@3QEAVTypeCode@CORBA@@EA
?_tc_BindingList@CosNaming@@3QEAVTypeCode@CORBA@@EA
?_tc_BindingType@CosNaming@@3QEAVTypeCode@CORBA@@EA
?_tc_BooleanSeq@CORBA@@3QEAVTypeCode@1@EA
?_tc_CODESET_INCOMPATIBLE@CORBA@@3PEAVTypeCode@1@EA
?_tc_COMM_FAILURE@CORBA@@3PEAVTypeCode@1@EA
?_tc_CORBA_InitialReferences@@3QEAVTypeCode@CORBA@@EA
?_tc_CannotProceed@NamingContext@CosNaming@@2QEAVTypeCode@CORBA@@EA
?_tc_CharSeq@CORBA@@3QEAVTypeCode@1@EA
?_tc_ConstantDef@CORBA@@3QEAVTypeCode@1@EA
?_tc_ConstantDescription@CORBA@@3QEAVTypeCode@1@EA
?_tc_Contained@CORBA@@3QEAVTypeCode@1@EA
?_tc_ContainedSeq@CORBA@@3QEAVTypeCode@1@EA
?_tc_Container@CORBA@@3QEAVTypeCode@1@EA
?_tc_ContextIdSeq@CORBA@@3QEAVTypeCode@1@EA
?_tc_ContextIdentifier@CORBA@@3QEAVTypeCode@1@EA
?_tc_DATA_CONVERSION@CORBA@@3PEAVTypeCode@1@EA
?_tc_DIIPollable@CORBA@@3QEAVTypeCode@1@EA
?_tc_DefinitionKind@CORBA@@3QEAVTypeCode@1@EA
?_tc_Description@Contained@CORBA@@2QEAVTypeCode@2@EA
?_tc_Description@Container@CORBA@@2QEAVTypeCode@2@EA
?_tc_DescriptionSeq@Container@CORBA@@2QEAVTypeCode@2@EA
?_tc_DoubleSeq@CORBA@@3QEAVTypeCode@1@EA
?_tc_EnumDef@CORBA@@3QEAVTypeCode@1@EA
?_tc_EnumMemberSeq@CORBA@@3QEAVTypeCode@1@EA
?_tc_ExcDescriptionSeq@CORBA@@3QEAVTypeCode@1@EA
?_tc_ExceptionDef@CORBA@@3QEAVTypeCode@1@EA
?_tc_ExceptionDefSeq@CORBA@@3QEAVTypeCode@1@EA
?_tc_ExceptionDescription@CORBA@@3QEAVTypeCode@1@EA
?_tc_FREE_MEM@CORBA@@3PEAVTypeCode@1@EA
?_tc_FixedDef@CORBA@@3QEAVTypeCode@1@EA
?_tc_FloatSeq@CORBA@@3QEAVTypeCode@1@EA
?_tc_ForwardRequest@PortableServer@@3QEAVTypeCode@CORBA@@EA
?_tc_FullInterfaceDescription@InterfaceDef@CORBA@@2QEAVTypeCode@2@EA
?_tc_FullValueDescription@ValueDef@CORBA@@2QEAVTypeCode@2@EA
?_tc_IDLType@CORBA@@3QEAVTypeCode@1@EA
?_tc_IMP_LIMIT@CORBA@@3PEAVTypeCode@1@EA
?_tc_INITIALIZE@CORBA@@3PEAVTypeCode@1@EA
?_tc_INTERNAL@CORBA@@3PEAVTypeCode@1@EA
?_tc_INTF_REPOS@CORBA@@3PEAVTypeCode@1@EA
?_tc_INVALID_TRANSACTION@CORBA@@3PEAVTypeCode@1@EA
?_tc_INV_FLAG@CORBA@@3PEAVTypeCode@1@EA
?_tc_INV_IDENT@CORBA@@3PEAVTypeCode@1@EA
?_tc_INV_OBJREF@CORBA@@3PEAVTypeCode@1@EA
?_tc_INV_POLICY@CORBA@@3PEAVTypeCode@1@EA
?_tc_IRObject@CORBA@@3QEAVTypeCode@1@EA
?_tc_IdAssignmentPolicyValue@PortableServer@@3QEAVTypeCode@CORBA@@EA
?_tc_IdUniquenessPolicyValue@PortableServer@@3QEAVTypeCode@CORBA@@EA
?_tc_Identifier@CORBA@@3QEAVTypeCode@1@EA
?_tc_ImplicitActivationPolicyValue@PortableServer@@3QEAVTypeCode@CORBA@@EA
?_tc_Initializer@CORBA@@3QEAVTypeCode@1@EA
?_tc_InitializerSeq@CORBA@@3QEAVTypeCode@1@EA
?_tc_InterfaceDef@CORBA@@3QEAVTypeCode@1@EA
?_tc_InterfaceDefSeq@CORBA@@3QEAVTypeCode@1@EA
?_tc_InterfaceDescription@CORBA@@3QEAVTypeCode@1@EA
?_tc_InvalidAddress@NamingContextExt@CosNaming@@2QEAVTypeCode@CORBA@@EA
?_tc_InvalidName@NamingContext@CosNaming@@2QEAVTypeCode@CORBA@@EA
?_tc_InvalidPolicy@POA@PortableServer@@2QEAVTypeCode@CORBA@@EA
?_tc_Istring@CosNaming@@3QEAVTypeCode@CORBA@@EA
?_tc_LifespanPolicyValue@PortableServer@@3QEAVTypeCode@CORBA@@EA
?_tc_LongLongSeq@CORBA@@3QEAVTypeCode@1@EA
?_tc_LongSeq@CORBA@@3QEAVTypeCode@1@EA
?_tc_MARSHAL@CORBA@@3PEAVTypeCode@1@EA
?_tc_ModuleDef@CORBA@@3QEAVTypeCode@1@EA
?_tc_ModuleDescription@CORBA@@3QEAVTypeCode@1@EA
?_tc_NO_IMPLEMENT@CORBA@@3PEAVTypeCode@1@EA
?_tc_NO_MEMORY@CORBA@@3PEAVTypeCode@1@EA
?_tc_NO_PERMISSION@CORBA@@3PEAVTypeCode@1@EA
?_tc_NO_RESOURCES@CORBA@@3PEAVTypeCode@1@EA
?_tc_NO_RESPONSE@CORBA@@3PEAVTypeCode@1@EA
?_tc_Name@CosNaming@@3QEAVTypeCode@CORBA@@EA
?_tc_NameComponent@CosNaming@@3QEAVTypeCode@CORBA@@EA
?_tc_NamedValue@CORBA@@3PEAVTypeCode@1@EA
?_tc_NamingContext@CosNaming@@3QEAVTypeCode@CORBA@@EA
?_tc_NamingContextExt@CosNaming@@3QEAVTypeCode@CORBA@@EA
?_tc_NativeDef@CORBA@@3QEAVTypeCode@1@EA
?_tc_NoPossiblePollable@PollableSet@CORBA@@2QEAVTypeCode@2@EA
?_tc_NotEmpty@NamingContext@CosNaming@@2QEAVTypeCode@CORBA@@EA
?_tc_NotFound@NamingContext@CosNaming@@2QEAVTypeCode@CORBA@@EA
?_tc_NotFoundReason@NamingContext@CosNaming@@2QEAVTypeCode@CORBA@@EA
?_tc_OBJECT_NOT_EXIST@CORBA@@3PEAVTypeCode@1@EA
?_tc_OBJ_ADAPTER@CORBA@@3PEAVTypeCode@1@EA
?_tc_ObjId@CORBA_InitialReferences@@2QEAVTypeCode@CORBA@@EA
?_tc_ObjIdList@CORBA_InitialReferences@@2QEAVTypeCode@CORBA@@EA
?_tc_Object@CORBA@@3PEAVTypeCode@1@EA
?_tc_OctetSeq@CORBA@@3QEAVTypeCode@1@EA
?_tc_OpDescriptionSeq@CORBA@@3QEAVTypeCode@1@EA
?_tc_OperationDef@CORBA@@3QEAVTypeCode@1@EA
?_tc_OperationDescription@CORBA@@3QEAVTypeCode@1@EA
?_tc_OperationMode@CORBA@@3QEAVTypeCode@1@EA
?_tc_PERSIST_STORE@CORBA@@3PEAVTypeCode@1@EA
?_tc_ParDescriptionSeq@CORBA@@3QEAVTypeCode@1@EA
?_tc_ParameterDescription@CORBA@@3QEAVTypeCode@1@EA
?_tc_ParameterMode@CORBA@@3QEAVTypeCode@1@EA
?_tc_PolicyError@CORBA@@3QEAVTypeCode@1@EA
?_tc_PolicyErrorCode@CORBA@@3QEAVTypeCode@1@EA
?_tc_Pollable@CORBA@@3QEAVTypeCode@1@EA
?_tc_PollableSet@CORBA@@3QEAVTypeCode@1@EA
?_tc_PrimitiveDef@CORBA@@3QEAVTypeCode@1@EA
?_tc_PrimitiveKind@CORBA@@3QEAVTypeCode@1@EA
?_tc_Principal@CORBA@@3PEAVTypeCode@1@EA
?_tc_REBIND@CORBA@@3PEAVTypeCode@1@EA
?_tc_Repository@CORBA@@3QEAVTypeCode@1@EA
?_tc_RepositoryId@CORBA@@3QEAVTypeCode@1@EA
?_tc_RepositoryIdSeq@CORBA@@3QEAVTypeCode@1@EA
?_tc_RequestProcessingPolicyValue@PortableServer@@3QEAVTypeCode@CORBA@@EA
?_tc_ScopedName@CORBA@@3QEAVTypeCode@1@EA
?_tc_SequenceDef@CORBA@@3QEAVTypeCode@1@EA
?_tc_ServantRetentionPolicyValue@PortableServer@@3QEAVTypeCode@CORBA@@EA
?_tc_ShortSeq@CORBA@@3QEAVTypeCode@1@EA
?_tc_StringDef@CORBA@@3QEAVTypeCode@1@EA
?_tc_StringName@NamingContextExt@CosNaming@@2QEAVTypeCode@CORBA@@EA
?_tc_StringSeq@CORBA@@3QEAVTypeCode@1@EA
?_tc_StringValue@CORBA@@3QEAVTypeCode@1@EA
?_tc_StructDef@CORBA@@3QEAVTypeCode@1@EA
?_tc_StructMember@CORBA@@3QEAVTypeCode@1@EA
?_tc_StructMemberSeq@CORBA@@3QEAVTypeCode@1@EA
?_tc_TIMEOUT@CORBA@@3PEAVTypeCode@1@EA
?_tc_TRANSACTION_MODE@CORBA@@3PEAVTypeCode@1@EA
?_tc_TRANSACTION_REQUIRED@CORBA@@3PEAVTypeCode@1@EA
?_tc_TRANSACTION_ROLLEDBACK@CORBA@@3PEAVTypeCode@1@EA
?_tc_TRANSACTION_UNAVAILABLE@CORBA@@3PEAVTypeCode@1@EA
?_tc_TRANSIENT@CORBA@@3PEAVTypeCode@1@EA
?_tc_ThreadPolicyValue@PortableServer@@3QEAVTypeCode@CORBA@@EA
?_tc_TypeCode@CORBA@@3PEAVTypeCode@1@EA
?_tc_TypeDescription@CORBA@@3QEAVTypeCode@1@EA
?_tc_TypedefDef@CORBA@@3QEAVTypeCode@1@EA
?_tc_ULongLongSeq@CORBA@@3QEAVTypeCode@1@EA
?_tc_ULongSeq@CORBA@@3QEAVTypeCode@1@EA
?_tc_UNKNOWN@CORBA@@3PEAVTypeCode@1@EA
?_tc_URLString@NamingContextExt@CosNaming@@2QEAVTypeCode@CORBA@@EA
?_tc_UShortSeq@CORBA@@3QEAVTypeCode@1@EA
?_tc_UnionDef@CORBA@@3QEAVTypeCode@1@EA
?_tc_UnionMember@CORBA@@3QEAVTypeCode@1@EA
?_tc_UnionMemberSeq@CORBA@@3QEAVTypeCode@1@EA
?_tc_UnknownPollable@PollableSet@CORBA@@2QEAVTypeCode@2@EA
?_tc_ValueBoxDef@CORBA@@3QEAVTypeCode@1@EA
?_tc_ValueDef@CORBA@@3QEAVTypeCode@1@EA
?_tc_ValueDefSeq@CORBA@@3QEAVTypeCode@1@EA
?_tc_ValueDescription@CORBA@@3QEAVTypeCode@1@EA
?_tc_ValueMember@CORBA@@3QEAVTypeCode@1@EA
?_tc_ValueMemberDef@CORBA@@3QEAVTypeCode@1@EA
?_tc_ValueMemberSeq@CORBA@@3QEAVTypeCode@1@EA
?_tc_VersionSpec@CORBA@@3QEAVTypeCode@1@EA
?_tc_Visibility@CORBA@@3QEAVTypeCode@1@EA
?_tc_WCharSeq@CORBA@@3QEAVTypeCode@1@EA
?_tc_WStringSeq@CORBA@@3QEAVTypeCode@1@EA
?_tc_WStringValue@CORBA@@3QEAVTypeCode@1@EA
?_tc_WstringDef@CORBA@@3QEAVTypeCode@1@EA
?_tc_any@CORBA@@3PEAVTypeCode@1@EA
?_tc_boolean@CORBA@@3PEAVTypeCode@1@EA
?_tc_char@CORBA@@3PEAVTypeCode@1@EA
?_tc_double@CORBA@@3PEAVTypeCode@1@EA
?_tc_float@CORBA@@3PEAVTypeCode@1@EA
?_tc_long@CORBA@@3PEAVTypeCode@1@EA
?_tc_longlong@CORBA@@3PEAVTypeCode@1@EA
?_tc_null@CORBA@@3PEAVTypeCode@1@EA
?_tc_octet@CORBA@@3PEAVTypeCode@1@EA
?_tc_short@CORBA@@3PEAVTypeCode@1@EA
?_tc_string@CORBA@@3PEAVTypeCode@1@EA
?_tc_ulong@CORBA@@3PEAVTypeCode@1@EA
?_tc_ulonglong@CORBA@@3PEAVTypeCode@1@EA
?_tc_ushort@CORBA@@3PEAVTypeCode@1@EA
?_tc_void@CORBA@@3PEAVTypeCode@1@EA
?_tc_wchar@CORBA@@3PEAVTypeCode@1@EA
?_tc_wstring@CORBA@@3PEAVTypeCode@1@EA
?_this@DynamicImplementation@PortableServer@@QEAAPEAVObject@CORBA@@XZ
?_to_object@AbstractBase@CORBA@@QEAAPEAVObject@2@XZ
?_to_value@AbstractBase@CORBA@@QEAAPEAVValueBase@2@XZ
?_unchecked_narrow@AbstractInterfaceDef@CORBA@@SAPEAV_objref_AbstractInterfaceDef@2@PEAVObject@2@@Z
?_unchecked_narrow@AliasDef@CORBA@@SAPEAV_objref_AliasDef@2@PEAVObject@2@@Z
?_unchecked_narrow@ArrayDef@CORBA@@SAPEAV_objref_ArrayDef@2@PEAVObject@2@@Z
?_unchecked_narrow@AttributeDef@CORBA@@SAPEAV_objref_AttributeDef@2@PEAVObject@2@@Z
?_unchecked_narrow@ConstantDef@CORBA@@SAPEAV_objref_ConstantDef@2@PEAVObject@2@@Z
?_unchecked_narrow@Contained@CORBA@@SAPEAV_objref_Contained@2@PEAVObject@2@@Z
?_unchecked_narrow@Container@CORBA@@SAPEAV_objref_Container@2@PEAVObject@2@@Z
?_unchecked_narrow@EnumDef@CORBA@@SAPEAV_objref_EnumDef@2@PEAVObject@2@@Z
?_unchecked_narrow@ExceptionDef@CORBA@@SAPEAV_objref_ExceptionDef@2@PEAVObject@2@@Z
?_unchecked_narrow@FixedDef@CORBA@@SAPEAV_objref_FixedDef@2@PEAVObject@2@@Z
?_unchecked_narrow@IDLType@CORBA@@SAPEAV_objref_IDLType@2@PEAVObject@2@@Z
?_unchecked_narrow@IRObject@CORBA@@SAPEAV_objref_IRObject@2@PEAVObject@2@@Z
?_unchecked_narrow@InterfaceDef@CORBA@@SAPEAV_objref_InterfaceDef@2@PEAVObject@2@@Z
?_unchecked_narrow@ModuleDef@CORBA@@SAPEAV_objref_ModuleDef@2@PEAVObject@2@@Z
?_unchecked_narrow@NativeDef@CORBA@@SAPEAV_objref_NativeDef@2@PEAVObject@2@@Z
?_unchecked_narrow@OperationDef@CORBA@@SAPEAV_objref_OperationDef@2@PEAVObject@2@@Z
?_unchecked_narrow@PollableSet@CORBA@@SAPEAV12@PEAVObject@2@@Z
?_unchecked_narrow@PrimitiveDef@CORBA@@SAPEAV_objref_PrimitiveDef@2@PEAVObject@2@@Z
?_unchecked_narrow@ReplyHandler@Messaging@@SAPEAV_objref_ReplyHandler@2@PEAVObject@CORBA@@@Z
?_unchecked_narrow@Repository@CORBA@@SAPEAV_objref_Repository@2@PEAVObject@2@@Z
?_unchecked_narrow@SequenceDef@CORBA@@SAPEAV_objref_SequenceDef@2@PEAVObject@2@@Z
?_unchecked_narrow@StringDef@CORBA@@SAPEAV_objref_StringDef@2@PEAVObject@2@@Z
?_unchecked_narrow@StructDef@CORBA@@SAPEAV_objref_StructDef@2@PEAVObject@2@@Z
?_unchecked_narrow@TypedefDef@CORBA@@SAPEAV_objref_TypedefDef@2@PEAVObject@2@@Z
?_unchecked_narrow@UnionDef@CORBA@@SAPEAV_objref_UnionDef@2@PEAVObject@2@@Z
?_unchecked_narrow@ValueBoxDef@CORBA@@SAPEAV_objref_ValueBoxDef@2@PEAVObject@2@@Z
?_unchecked_narrow@ValueDef@CORBA@@SAPEAV_objref_ValueDef@2@PEAVObject@2@@Z
?_unchecked_narrow@ValueMemberDef@CORBA@@SAPEAV_objref_ValueMemberDef@2@PEAVObject@2@@Z
?_unchecked_narrow@WstringDef@CORBA@@SAPEAV_objref_WstringDef@2@PEAVObject@2@@Z
?_unmarshalObjRef@AbstractInterfaceDef@CORBA@@SAPEAV_objref_AbstractInterfaceDef@2@AEAVcdrStream@@@Z
?_unmarshalObjRef@AliasDef@CORBA@@SAPEAV_objref_AliasDef@2@AEAVcdrStream@@@Z
?_unmarshalObjRef@ArrayDef@CORBA@@SAPEAV_objref_ArrayDef@2@AEAVcdrStream@@@Z
?_unmarshalObjRef@AttributeDef@CORBA@@SAPEAV_objref_AttributeDef@2@AEAVcdrStream@@@Z
?_unmarshalObjRef@ConstantDef@CORBA@@SAPEAV_objref_ConstantDef@2@AEAVcdrStream@@@Z
?_unmarshalObjRef@Contained@CORBA@@SAPEAV_objref_Contained@2@AEAVcdrStream@@@Z
?_unmarshalObjRef@Container@CORBA@@SAPEAV_objref_Container@2@AEAVcdrStream@@@Z
?_unmarshalObjRef@EnumDef@CORBA@@SAPEAV_objref_EnumDef@2@AEAVcdrStream@@@Z
?_unmarshalObjRef@ExceptionDef@CORBA@@SAPEAV_objref_ExceptionDef@2@AEAVcdrStream@@@Z
?_unmarshalObjRef@FixedDef@CORBA@@SAPEAV_objref_FixedDef@2@AEAVcdrStream@@@Z
?_unmarshalObjRef@IDLType@CORBA@@SAPEAV_objref_IDLType@2@AEAVcdrStream@@@Z
?_unmarshalObjRef@IRObject@CORBA@@SAPEAV_objref_IRObject@2@AEAVcdrStream@@@Z
?_unmarshalObjRef@InterfaceDef@CORBA@@SAPEAV_objref_InterfaceDef@2@AEAVcdrStream@@@Z
?_unmarshalObjRef@ModuleDef@CORBA@@SAPEAV_objref_ModuleDef@2@AEAVcdrStream@@@Z
?_unmarshalObjRef@NativeDef@CORBA@@SAPEAV_objref_NativeDef@2@AEAVcdrStream@@@Z
?_unmarshalObjRef@OperationDef@CORBA@@SAPEAV_objref_OperationDef@2@AEAVcdrStream@@@Z
?_unmarshalObjRef@PollableSet@CORBA@@SAPEAV12@AEAVcdrStream@@@Z
?_unmarshalObjRef@PrimitiveDef@CORBA@@SAPEAV_objref_PrimitiveDef@2@AEAVcdrStream@@@Z
?_unmarshalObjRef@ReplyHandler@Messaging@@SAPEAV_objref_ReplyHandler@2@AEAVcdrStream@@@Z
?_unmarshalObjRef@Repository@CORBA@@SAPEAV_objref_Repository@2@AEAVcdrStream@@@Z
?_unmarshalObjRef@SequenceDef@CORBA@@SAPEAV_objref_SequenceDef@2@AEAVcdrStream@@@Z
?_unmarshalObjRef@StringDef@CORBA@@SAPEAV_objref_StringDef@2@AEAVcdrStream@@@Z
?_unmarshalObjRef@StructDef@CORBA@@SAPEAV_objref_StructDef@2@AEAVcdrStream@@@Z
?_unmarshalObjRef@TypedefDef@CORBA@@SAPEAV_objref_TypedefDef@2@AEAVcdrStream@@@Z
?_unmarshalObjRef@UnionDef@CORBA@@SAPEAV_objref_UnionDef@2@AEAVcdrStream@@@Z
?_unmarshalObjRef@ValueBoxDef@CORBA@@SAPEAV_objref_ValueBoxDef@2@AEAVcdrStream@@@Z
?_unmarshalObjRef@ValueDef@CORBA@@SAPEAV_objref_ValueDef@2@AEAVcdrStream@@@Z
?_unmarshalObjRef@ValueMemberDef@CORBA@@SAPEAV_objref_ValueMemberDef@2@AEAVcdrStream@@@Z
?_unmarshalObjRef@WstringDef@CORBA@@SAPEAV_objref_WstringDef@2@AEAVcdrStream@@@Z
?_user_exns@_0RL_cd_7963219a43724a61_00000000@@2QBQEBDB
?_user_exns@_0RL_cd_7963219a43724a61_04000000@@2QBQEBDB
?_user_exns@_0RL_cd_7963219a43724a61_06000000@@2QBQEBDB
?_user_exns@_0RL_cd_7963219a43724a61_08000000@@2QBQEBDB
?_user_exns@_0RL_cd_7963219a43724a61_0b000000@@2QBQEBDB
?_user_exns@_0RL_cd_7963219a43724a61_11000000@@2QBQEBDB
?_user_exns@_0RL_cd_7963219a43724a61_12000000@@2QBQEBDB
?_user_exns@_0RL_cd_7963219a43724a61_13000000@@2QBQEBDB
?_user_exns@_0RL_cd_7963219a43724a61_15000000@@2QBQEBDB
?_user_exns@_0RL_cd_7963219a43724a61_19000000@@2QBQEBDB
?_user_exns@_0RL_cd_7963219a43724a61_1a000000@@2QBQEBDB
?_user_exns@_0RL_cd_7963219a43724a61_1c000000@@2QBQEBDB
?_user_exns@_0RL_cd_7963219a43724a61_20000000@@2QBQEBDB
?_user_exns@_0RL_cd_7963219a43724a61_24000000@@2QBQEBDB
?_user_exns@_0RL_cd_7963219a43724a61_26000000@@2QBQEBDB
?_user_exns@_0RL_cd_7963219a43724a61_28000000@@2QBQEBDB
?_user_exns@_0RL_cd_7963219a43724a61_2b000000@@2QBQEBDB
?_user_exns@_0RL_cd_7963219a43724a61_31000000@@2QBQEBDB
?_user_exns@_0RL_cd_7963219a43724a61_32000000@@2QBQEBDB
?_user_exns@_0RL_cd_7963219a43724a61_33000000@@2QBQEBDB
?_user_exns@_0RL_cd_7963219a43724a61_39000000@@2QBQEBDB
?_user_exns@_0RL_cd_7963219a43724a61_40000000@@2QBQEBDB
?_user_exns@_0RL_cd_7963219a43724a61_44000000@@2QBQEBDB
?_user_exns@_0RL_cd_7963219a43724a61_46000000@@2QBQEBDB
?_user_exns@_0RL_cd_7963219a43724a61_4b000000@@2QBQEBDB
?_user_exns@_0RL_cd_7963219a43724a61_51000000@@2QBQEBDB
?_user_exns@_0RL_cd_7963219a43724a61_52000000@@2QBQEBDB
?_user_exns@_0RL_cd_7963219a43724a61_53000000@@2QBQEBDB
?_user_exns@_0RL_cd_7963219a43724a61_59000000@@2QBQEBDB
?_user_exns@_0RL_cd_7963219a43724a61_60000000@@2QBQEBDB
?_user_exns@_0RL_cd_7963219a43724a61_65000000@@2QBQEBDB
?_user_exns@_0RL_cd_7963219a43724a61_6b000000@@2QBQEBDB
?_user_exns@_0RL_cd_7963219a43724a61_71000000@@2QBQEBDB
?_user_exns@_0RL_cd_7963219a43724a61_72000000@@2QBQEBDB
?_user_exns@_0RL_cd_7963219a43724a61_74000000@@2QBQEBDB
?_user_exns@_0RL_cd_7963219a43724a61_78000000@@2QBQEBDB
?_user_exns@_0RL_cd_7963219a43724a61_79000000@@2QBQEBDB
?_user_exns@_0RL_cd_7963219a43724a61_83000000@@2QBQEBDB
?_user_exns@_0RL_cd_7963219a43724a61_85000000@@2QBQEBDB
?_user_exns@_0RL_cd_7963219a43724a61_86000000@@2QBQEBDB
?_user_exns@_0RL_cd_7963219a43724a61_8b000000@@2QBQEBDB
?_user_exns@_0RL_cd_7963219a43724a61_91000000@@2QBQEBDB
?_user_exns@_0RL_cd_7963219a43724a61_92000000@@2QBQEBDB
?_user_exns@_0RL_cd_7963219a43724a61_94000000@@2QBQEBDB
?_user_exns@_0RL_cd_7963219a43724a61_98000000@@2QBQEBDB
?_user_exns@_0RL_cd_7963219a43724a61_99000000@@2QBQEBDB
?_user_exns@_0RL_cd_7963219a43724a61_a3000000@@2QBQEBDB
?_user_exns@_0RL_cd_7963219a43724a61_a5000000@@2QBQEBDB
?_user_exns@_0RL_cd_7963219a43724a61_a6000000@@2QBQEBDB
?_user_exns@_0RL_cd_7963219a43724a61_aa000000@@2QBQEBDB
?_user_exns@_0RL_cd_7963219a43724a61_b1000000@@2QBQEBDB
?_user_exns@_0RL_cd_7963219a43724a61_b2000000@@2QBQEBDB
?_user_exns@_0RL_cd_7963219a43724a61_b4000000@@2QBQEBDB
?_user_exns@_0RL_cd_7963219a43724a61_b8000000@@2QBQEBDB
?_user_exns@_0RL_cd_7963219a43724a61_b9000000@@2QBQEBDB
?_user_exns@_0RL_cd_7963219a43724a61_c0000000@@2QBQEBDB
?_user_exns@_0RL_cd_7963219a43724a61_c3000000@@2QBQEBDB
?_user_exns@_0RL_cd_7963219a43724a61_c5000000@@2QBQEBDB
?_user_exns@_0RL_cd_7963219a43724a61_c6000000@@2QBQEBDB
?_user_exns@_0RL_cd_7963219a43724a61_ca000000@@2QBQEBDB
?_user_exns@_0RL_cd_7963219a43724a61_d1000000@@2QBQEBDB
?_user_exns@_0RL_cd_7963219a43724a61_d2000000@@2QBQEBDB
?_user_exns@_0RL_cd_7963219a43724a61_d4000000@@2QBQEBDB
?_user_exns@_0RL_cd_7963219a43724a61_d8000000@@2QBQEBDB
?_user_exns@_0RL_cd_7963219a43724a61_d9000000@@2QBQEBDB
?_user_exns@_0RL_cd_7963219a43724a61_e3000000@@2QBQEBDB
?_user_exns@_0RL_cd_7963219a43724a61_e6000000@@2QBQEBDB
?_user_exns@_0RL_cd_7963219a43724a61_ea000000@@2QBQEBDB
?_user_exns@_0RL_cd_7963219a43724a61_f0000000@@2QBQEBDB
?_user_exns@_0RL_cd_7963219a43724a61_f1000000@@2QBQEBDB
?_user_exns@_0RL_cd_7963219a43724a61_f2000000@@2QBQEBDB
?_user_exns@_0RL_cd_7963219a43724a61_f4000000@@2QBQEBDB
?_user_exns@_0RL_cd_7963219a43724a61_f8000000@@2QBQEBDB
?_user_exns@_0RL_cd_7963219a43724a61_f9000000@@2QBQEBDB
?_user_exns@_0RL_cd_7963219a43724a61_fb000000@@2QBQEBDB
?_wrongOperation@PollerImpl@omniAMI@@IEAAXXZ
?absolute_name@_objref_Contained@CORBA@@QEAAPEADXZ
?abstract_base_values@_objref_ValueDef@CORBA@@QEAAPEAVValueDefSeq@2@XZ
?abstract_base_values@_objref_ValueDef@CORBA@@QEAAXAEBVValueDefSeq@2@@Z
?access@_objref_ValueMemberDef@CORBA@@QEAAFXZ
?access@_objref_ValueMemberDef@CORBA@@QEAAXF@Z
?actualTc@DynAnyImplBase@omni@@QEBAPEAVTypeCode_base@2@XZ
?actualTc@DynEnumImpl@omni@@QEBAPEAVTypeCode_enum@2@XZ
?actualTc@DynFixedImpl@omni@@QEBAPEAVTypeCode_fixed@2@XZ
?actualTc@DynUnionEnumDisc@omni@@QEBAPEAVTypeCode_enum@2@XZ
?actualTc@DynUnionImpl@omni@@QEBAPEAVTypeCode_union@2@XZ
?add@ContextListImpl@omni@@UEAAXPEBD@Z
?add@ExceptionListImpl@omni@@UEAAXPEAVTypeCode@CORBA@@@Z
?add@InputValueTracker@omni@@AEAAXXZ
?add@NVListImpl@omni@@UEAAPEAVNamedValue@CORBA@@K@Z
?add@OutputValueTracker@omni@@AEAAXXZ
?add@TypeCode_alignTable@omni@@QEAAXAEBV12@I@Z
?add@_Tracker@TypeCode@CORBA@@QEAAXPEAV23@@Z
?add@omniNilCtList@omni@@UEAAXPEBD@Z
?add@omniNilExList@omni@@UEAAXPEAVTypeCode@CORBA@@@Z
?add@omniNilNVList@omni@@UEAAPEAVNamedValue@CORBA@@K@Z
?add@omniTypeCodeCollection@omni@@QEAAXPEBDPEAVTypeCode@CORBA@@@Z
?addChild@ContextImpl@omni@@AEAAXPEAV12@@Z
?addEntry@TypeCode_offsetTable@omni@@QEAAX_JPEAVTypeCode_base@2@@Z
?addNasty@TypeCode_alignTable@omni@@QEAAXPEAVTypeCode_base@2@@Z
?addRepoId@InputValueTracker@omni@@QEAAXPEAD_J@Z
?addRepoId@OutputValueTracker@omni@@QEAA_JPEBDK_J@Z
?addRepoIds@InputValueTracker@omni@@QEAAXPEAU_omni_ValueIds@@_J@Z
?addRepoIds@OutputValueTracker@omni@@QEAA_JPEBU_omni_ValueIds@@_J@Z
?addSimple@TypeCode_alignTable@omni@@QEAAXW4alignment_t@2@_K@Z
?addToSet@omniAsyncCallDescriptor@@QEAA_NPEAVomni_tracedcondition@@@Z
?addValue@InputValueTracker@omni@@QEAAXPEAVValueBase@CORBA@@_J@Z
?addValue@OutputValueTracker@omni@@QEAA_JPEBVValueBase@CORBA@@_J@Z
?add_consume@ContextListImpl@omni@@UEAAXPEAD@Z
?add_consume@ExceptionListImpl@omni@@UEAAXPEAVTypeCode@CORBA@@@Z
?add_consume@omniNilCtList@omni@@UEAAXPEAD@Z
?add_consume@omniNilExList@omni@@UEAAXPEAVTypeCode@CORBA@@@Z
?add_in_arg@RequestImpl@omni@@UEAAAEAVAny@CORBA@@PEBD@Z
?add_in_arg@RequestImpl@omni@@UEAAAEAVAny@CORBA@@XZ
?add_in_arg@omniNilRequest@omni@@UEAAAEAVAny@CORBA@@PEBD@Z
?add_in_arg@omniNilRequest@omni@@UEAAAEAVAny@CORBA@@XZ
?add_inout_arg@RequestImpl@omni@@UEAAAEAVAny@CORBA@@PEBD@Z
?add_inout_arg@RequestImpl@omni@@UEAAAEAVAny@CORBA@@XZ
?add_inout_arg@omniNilRequest@omni@@UEAAAEAVAny@CORBA@@PEBD@Z
?add_inout_arg@omniNilRequest@omni@@UEAAAEAVAny@CORBA@@XZ
?add_item@NVListImpl@omni@@UEAAPEAVNamedValue@CORBA@@PEBDK@Z
?add_item@omniNilNVList@omni@@UEAAPEAVNamedValue@CORBA@@PEBDK@Z
?add_item_consume@NVListImpl@omni@@UEAAPEAVNamedValue@CORBA@@PEADK@Z
?add_item_consume@omniNilNVList@omni@@UEAAPEAVNamedValue@CORBA@@PEADK@Z
?add_out_arg@RequestImpl@omni@@UEAAAEAVAny@CORBA@@PEBD@Z
?add_out_arg@RequestImpl@omni@@UEAAAEAVAny@CORBA@@XZ
?add_out_arg@omniNilRequest@omni@@UEAAAEAVAny@CORBA@@PEBD@Z
?add_out_arg@omniNilRequest@omni@@UEAAAEAVAny@CORBA@@XZ
?add_pollable@PollableSetImpl@omniAMI@@$4PPPPPPPM@A@EAAXPEAVPollable@CORBA@@@Z
?add_pollable@PollableSetImpl@omniAMI@@UEAAXPEAVPollable@CORBA@@@Z
?add_pollable@_nil_PollableSet@CORBA@@$4PPPPPPPM@A@EAAXPEAVPollable@2@@Z
?add_pollable@_nil_PollableSet@CORBA@@UEAAXPEAVPollable@2@@Z
?add_ref@CORBA@@YAXPEAVValueBase@1@@Z
?add_ref@DIIPollable_Helper@CORBA@@SAXPEAVDIIPollable@2@@Z
?add_ref@ExceptionHolder_Helper@Messaging@@SAXPEAVExceptionHolder@2@@Z
?add_ref@Pollable_Helper@CORBA@@SAXPEAVPollable@2@@Z
?add_ref@Poller_Helper@Messaging@@SAXPEAVPoller@2@@Z
?add_ref@StringValue_Helper@CORBA@@SAXPEAVStringValue@2@@Z
?add_ref@ValueBase_Helper@CORBA@@SAXPEAVValueBase@2@@Z
?add_ref@WStringValue_Helper@CORBA@@SAXPEAVWStringValue@2@@Z
?add_ref@cdrAnyMemoryStream@@QEAAXXZ
?add_value@NVListImpl@omni@@UEAAPEAVNamedValue@CORBA@@PEBDAEBVAny@4@K@Z
?add_value@omniNilNVList@omni@@UEAAPEAVNamedValue@CORBA@@PEBDAEBVAny@4@K@Z
?add_value_consume@NVListImpl@omni@@UEAAPEAVNamedValue@CORBA@@PEADPEAVAny@4@K@Z
?add_value_consume@omniNilNVList@omni@@UEAAPEAVNamedValue@CORBA@@PEADPEAVAny@4@K@Z
?add_values@ContextImpl@omni@@CAXPEAV12@KPEBDHPEAVNVList@CORBA@@@Z
?aliasExpand@TypeCode_base@omni@@SAPEAV12@PEAV12@@Z
?aliasExpandedTc@TypeCode_base@omni@@QEAAPEAV12@XZ
?alignInput@cdrStream@@QEAAXW4alignment_t@omni@@@Z
?alignOutput@cdrStream@@QEAAXW4alignment_t@omni@@@Z
?align_to@omni@@YA_K_KW4alignment_t@1@@Z
?alignmentTable@TypeCode_base@omni@@QEBAAEBVTypeCode_alignTable@2@XZ
?alloc@_CORBA_String_helper@@SAPEADH@Z
?alloc@_CORBA_WString_helper@@SAPEA_WH@Z
?allocate@?$omnivector@PEAVDynAnyImplBase@omni@@@@AEAAPEAPEAVDynAnyImplBase@omni@@_K@Z
?allocbuf@?$_CORBA_PseudoValue_Sequence@PEAD@@SAPEAPEADK@Z
?allocbuf@?$_CORBA_PseudoValue_Sequence@PEAVNamedValue@CORBA@@@@SAPEAPEAVNamedValue@CORBA@@K@Z
?allocbuf@?$_CORBA_PseudoValue_Sequence@PEAVTypeCode@CORBA@@@@SAPEAPEAVTypeCode@CORBA@@K@Z
?allocbuf@?$_CORBA_PseudoValue_Sequence@UEntry@ContextImpl@omni@@@@SAPEAUEntry@ContextImpl@omni@@K@Z
?allocbuf@?$_CORBA_PseudoValue_Sequence@UTcUnionMember@TypeCode_union@omni@@@@SAPEAUTcUnionMember@TypeCode_union@omni@@K@Z
?allocbuf@?$_CORBA_Sequence@E@@SAPEAEK@Z
?allocbuf@?$_CORBA_Sequence@F@@SAPEAFK@Z
?allocbuf@?$_CORBA_Sequence@G@@SAPEAGK@Z
?allocbuf@?$_CORBA_Sequence@J@@SAPEAJK@Z
?allocbuf@?$_CORBA_Sequence@K@@SAPEAKK@Z
?allocbuf@?$_CORBA_Sequence@M@@SAPEAMK@Z
?allocbuf@?$_CORBA_Sequence@N@@SAPEANK@Z
?allocbuf@?$_CORBA_Sequence@UAttributeDescription@CORBA@@@@SAPEAUAttributeDescription@CORBA@@K@Z
?allocbuf@?$_CORBA_Sequence@UBinding@CosNaming@@@@SAPEAUBinding@CosNaming@@K@Z
?allocbuf@?$_CORBA_Sequence@UDescription@Container@CORBA@@@@SAPEAUDescription@Container@CORBA@@K@Z
?allocbuf@?$_CORBA_Sequence@UExceptionDescription@CORBA@@@@SAPEAUExceptionDescription@CORBA@@K@Z
?allocbuf@?$_CORBA_Sequence@UInitializer@CORBA@@@@SAPEAUInitializer@CORBA@@K@Z
?allocbuf@?$_CORBA_Sequence@UNameComponent@CosNaming@@@@SAPEAUNameComponent@CosNaming@@K@Z
?allocbuf@?$_CORBA_Sequence@UNameDynAnyPair@DynamicAny@@@@SAPEAUNameDynAnyPair@DynamicAny@@K@Z
?allocbuf@?$_CORBA_Sequence@UNameValuePair@DynamicAny@@@@SAPEAUNameValuePair@DynamicAny@@K@Z
?allocbuf@?$_CORBA_Sequence@UOperationDescription@CORBA@@@@SAPEAUOperationDescription@CORBA@@K@Z
?allocbuf@?$_CORBA_Sequence@UParameterDescription@CORBA@@@@SAPEAUParameterDescription@CORBA@@K@Z
?allocbuf@?$_CORBA_Sequence@UStructMember@CORBA@@@@SAPEAUStructMember@CORBA@@K@Z
?allocbuf@?$_CORBA_Sequence@UUnionMember@CORBA@@@@SAPEAUUnionMember@CORBA@@K@Z
?allocbuf@?$_CORBA_Sequence@UValueMember@CORBA@@@@SAPEAUValueMember@CORBA@@K@Z
?allocbuf@?$_CORBA_Sequence@VAny@CORBA@@@@SAPEAVAny@CORBA@@K@Z
?allocbuf@?$_CORBA_Sequence@VTypeCode_member@CORBA@@@@SAPEAVTypeCode_member@CORBA@@K@Z
?allocbuf@?$_CORBA_Sequence@_J@@SAPEA_JK@Z
?allocbuf@?$_CORBA_Sequence@_K@@SAPEA_KK@Z
?allocbuf@?$_CORBA_Sequence@_N@@SAPEA_NK@Z
?allocbuf@?$_CORBA_Sequence@_W@@SAPEA_WK@Z
?allocbuf@?$_CORBA_Sequence_ObjRef@VDynAny@DynamicAny@@V?$_CORBA_ObjRef_Element@VDynAny@DynamicAny@@VDynAny_Helper@2@@@VDynAny_Helper@2@@@SAPEAPEAVDynAny@DynamicAny@@K@Z
?allocbuf@?$_CORBA_Sequence_ObjRef@V_objref_AbstractInterfaceDef@CORBA@@V?$_CORBA_ObjRef_Element@V_objref_AbstractInterfaceDef@CORBA@@VAbstractInterfaceDef_Helper@2@@@VAbstractInterfaceDef_Helper@2@@@SAPEAPEAV_objref_AbstractInterfaceDef@CORBA@@K@Z
?allocbuf@?$_CORBA_Sequence_ObjRef@V_objref_Contained@CORBA@@V?$_CORBA_ObjRef_Element@V_objref_Contained@CORBA@@VContained_Helper@2@@@VContained_Helper@2@@@SAPEAPEAV_objref_Contained@CORBA@@K@Z
?allocbuf@?$_CORBA_Sequence_ObjRef@V_objref_ExceptionDef@CORBA@@V?$_CORBA_ObjRef_Element@V_objref_ExceptionDef@CORBA@@VExceptionDef_Helper@2@@@VExceptionDef_Helper@2@@@SAPEAPEAV_objref_ExceptionDef@CORBA@@K@Z
?allocbuf@?$_CORBA_Sequence_ObjRef@V_objref_InterfaceDef@CORBA@@V?$_CORBA_ObjRef_Element@V_objref_InterfaceDef@CORBA@@VInterfaceDef_Helper@2@@@VInterfaceDef_Helper@2@@@SAPEAPEAV_objref_InterfaceDef@CORBA@@K@Z
?allocbuf@?$_CORBA_Sequence_ObjRef@V_objref_ValueDef@CORBA@@V?$_CORBA_ObjRef_Element@V_objref_ValueDef@CORBA@@VValueDef_Helper@2@@@VValueDef_Helper@2@@@SAPEAPEAV_objref_ValueDef@CORBA@@K@Z
?allocbuf@?$_CORBA_Sequence_Value@VPollerImpl@omniAMI@@V?$_CORBA_Value_Element@VPollerImpl@omniAMI@@VPoller_Helper@Messaging@@@@VPoller_Helper@Messaging@@@@SAPEAPEAVPollerImpl@omniAMI@@K@Z
?allocbuf@?$_CORBA_Sequence_Value@VValueBase@CORBA@@V?$_CORBA_Value_Element@VValueBase@CORBA@@VValueBase_Helper@2@@@VValueBase_Helper@2@@@SAPEAPEAVValueBase@CORBA@@K@Z
?allocbuf@_CORBA_Sequence_String@@SAPEAPEADK@Z
?allocbuf@_CORBA_Sequence_WString@@SAPEAPEA_WK@Z
?arguments@DIICallDescriptor@omni@@QEBAPEAVNVList@CORBA@@XZ
?arguments@RequestImpl@omni@@UEAAPEAVNVList@CORBA@@XZ
?arguments@omniNilRequest@omni@@UEAAPEAVNVList@CORBA@@XZ
?arguments@omniServerRequest@omni@@UEAAXAEAPEAVNVList@CORBA@@@Z
?assign@DynAnyConstrBase@omni@@$4PPPPPPPM@A@EAAXPEAVDynAny@DynamicAny@@@Z
?assign@DynAnyConstrBase@omni@@$4PPPPPPPM@BA@EAAXPEAVDynAny@DynamicAny@@@Z
?assign@DynAnyConstrBase@omni@@$4PPPPPPPM@BI@EAAXPEAVDynAny@DynamicAny@@@Z
?assign@DynAnyConstrBase@omni@@$4PPPPPPPM@EI@EAAXPEAVDynAny@DynamicAny@@@Z
?assign@DynAnyConstrBase@omni@@UEAAXPEAVDynAny@DynamicAny@@@Z
?assign@DynAnyImpl@omni@@$4PPPPPPPM@A@EAAXPEAVDynAny@DynamicAny@@@Z
?assign@DynAnyImpl@omni@@$4PPPPPPPM@BA@EAAXPEAVDynAny@DynamicAny@@@Z
?assign@DynAnyImpl@omni@@UEAAXPEAVDynAny@DynamicAny@@@Z
?assign@DynUnionDisc@omni@@$4PPPPPPPM@A@EAAXPEAVDynAny@DynamicAny@@@Z
?assign@DynUnionDisc@omni@@$4PPPPPPPM@BA@EAAXPEAVDynAny@DynamicAny@@@Z
?assign@DynUnionDisc@omni@@UEAAXPEAVDynAny@DynamicAny@@@Z
?assign@DynUnionImpl@omni@@$4PPPPPPPM@A@EAAXPEAVDynAny@DynamicAny@@@Z
?assign@DynUnionImpl@omni@@UEAAXPEAVDynAny@DynamicAny@@@Z
?assign@omniNilDynAny@omni@@$4PPPPPPPM@A@EAAXPEAVDynAny@DynamicAny@@@Z
?assign@omniNilDynAny@omni@@UEAAXPEAVDynAny@DynamicAny@@@Z
?associated_handler@PollerImpl@omniAMI@@$4PPPPPPPM@A@EAAPEAV_objref_ReplyHandler@Messaging@@XZ
?associated_handler@PollerImpl@omniAMI@@$4PPPPPPPM@A@EAAXPEAV_objref_ReplyHandler@Messaging@@@Z
?associated_handler@PollerImpl@omniAMI@@UEAAPEAV_objref_ReplyHandler@Messaging@@XZ
?associated_handler@PollerImpl@omniAMI@@UEAAXPEAV_objref_ReplyHandler@Messaging@@@Z
?attach@DynAnyImplBase@omni@@QEAAXXZ
?attach@dynException_Singleton@@QEAAXXZ
?attach@omni_dynAny_initialiser@omni@@UEAAXXZ
?attach@omni_valueFactory_initialiser@omni@@UEAAXXZ
?base_interfaces@_objref_InterfaceDef@CORBA@@QEAAPEAVInterfaceDefSeq@2@XZ
?base_interfaces@_objref_InterfaceDef@CORBA@@QEAAXAEBVInterfaceDefSeq@2@@Z
?base_value@_objref_ValueDef@CORBA@@QEAAPEAV12@XZ
?base_value@_objref_ValueDef@CORBA@@QEAAXPEAV12@@Z
?bound@_objref_SequenceDef@CORBA@@QEAAKXZ
?bound@_objref_SequenceDef@CORBA@@QEAAXK@Z
?bound@_objref_StringDef@CORBA@@QEAAKXZ
?bound@_objref_StringDef@CORBA@@QEAAXK@Z
?bound@_objref_WstringDef@CORBA@@QEAAKXZ
?bound@_objref_WstringDef@CORBA@@QEAAXK@Z
?bufPtr@cdrMemoryStream@@QEBAPEAXXZ
?bufSize@cdrMemoryStream@@QEBAKXZ
?byteSwap@cdrStream@@SAFF@Z
?byteSwap@cdrStream@@SAGG@Z
?byteSwap@cdrStream@@SAJJ@Z
?byteSwap@cdrStream@@SAKK@Z
?byteSwap@cdrStream@@SA_J_J@Z
?byteSwap@cdrStream@@SA_K_K@Z
?callDescriptor@omniCurrent@@QEAAPEAVomniCallDescriptor@@XZ
?call_desc@omniCallHandle@@QEBAPEAVomniCallDescriptor@@XZ
?calldesc@omniServerRequest@omni@@QEAAPEAVserverRequestCallDescriptor@2@XZ
?canAppendComponent@DynAnyConstrBase@omni@@IEBA_NI@Z
?capacity@?$omnivector@PEAVDynAnyImplBase@omni@@@@QEBA_KXZ
?checkInternalRefs@TypeCode_collector@omni@@CA_NPEAVTypeCode_base@2@K@Z
?check_context_name@ContextImpl@omni@@AEAAXPEBD@Z
?check_property_name@ContextImpl@omni@@AEAAXPEBD@Z
?clear@Environment@CORBA@@UEAAXXZ
?clear@omniNilEnv@omni@@UEAAXXZ
?complete@TypeCode_base@omni@@QEAA_NXZ
?completeCallback@DIICallDescriptor@omni@@UEAAXXZ
?completed@SystemException@CORBA@@QEBA?AW4CompletionStatus@2@XZ
?component_count@DynAnyConstrBase@omni@@$4PPPPPPPM@A@EAAKXZ
?component_count@DynAnyConstrBase@omni@@$4PPPPPPPM@BA@EAAKXZ
?component_count@DynAnyConstrBase@omni@@$4PPPPPPPM@BI@EAAKXZ
?component_count@DynAnyConstrBase@omni@@$4PPPPPPPM@EI@EAAKXZ
?component_count@DynAnyConstrBase@omni@@UEAAKXZ
?component_count@DynAnyImpl@omni@@$4PPPPPPPM@7EAAKXZ
?component_count@DynAnyImpl@omni@@$4PPPPPPPM@A@EAAKXZ
?component_count@DynAnyImpl@omni@@$4PPPPPPPM@BA@EAAKXZ
?component_count@DynAnyImpl@omni@@$4PPPPPPPM@BI@EAAKXZ
?component_count@DynAnyImpl@omni@@UEAAKXZ
?component_count@DynUnionImpl@omni@@$4PPPPPPPM@A@EAAKXZ
?component_count@DynUnionImpl@omni@@UEAAKXZ
?component_count@omniNilDynAny@omni@@$4PPPPPPPM@A@EAAKXZ
?component_count@omniNilDynAny@omni@@UEAAKXZ
?component_from_any@DynAnyConstrBase@omni@@IEAAHIAEBVAny@CORBA@@@Z
?component_to_any@DynAnyConstrBase@omni@@IEAAHIAEAVAny@CORBA@@@Z
?concrete_base_type@TypeCode@CORBA@@QEBAPEAV12@XZ
?containing_repository@_objref_Contained@CORBA@@QEAAPEAV_objref_Repository@2@XZ
?contains@TypeCode_pairlist@omni@@SAHPEBV12@PEBVTypeCode_base@2@1@Z
?content_type@TypeCode@CORBA@@QEBAPEAV12@XZ
?contents@_objref_Container@CORBA@@QEAAPEAVContainedSeq@2@W4DefinitionKind@2@_N@Z
?context@DIICallDescriptor@omni@@QEAAXPEAVContext@CORBA@@@Z
?context@DIICallDescriptor@omni@@QEBAPEAVContext@CORBA@@XZ
?context_name@ContextImpl@omni@@UEBAPEBDXZ
?context_name@omniNilContext@omni@@UEBAPEBDXZ
?contexts@DIICallDescriptor@omni@@QEAAPEAVContextList@CORBA@@XZ
?contexts@RequestImpl@omni@@UEAAPEAVContextList@CORBA@@XZ
?contexts@_objref_OperationDef@CORBA@@QEAAPEAVContextIdSeq@2@XZ
?contexts@_objref_OperationDef@CORBA@@QEAAXAEBVContextIdSeq@2@@Z
?contexts@omniNilRequest@omni@@UEAAPEAVContextList@CORBA@@XZ
?copy@DynAnyImpl@omni@@$4PPPPPPPM@7EAAPEAVDynAny@DynamicAny@@XZ
?copy@DynAnyImpl@omni@@$4PPPPPPPM@A@EAAPEAVDynAny@DynamicAny@@XZ
?copy@DynAnyImpl@omni@@UEAAPEAVDynAny@DynamicAny@@XZ
?copy@DynArrayImpl@omni@@$4PPPPPPPM@A@EAAPEAVDynAny@DynamicAny@@XZ
?copy@DynArrayImpl@omni@@UEAAPEAVDynAny@DynamicAny@@XZ
?copy@DynEnumImpl@omni@@$4PPPPPPPM@A@EAAPEAVDynAny@DynamicAny@@XZ
?copy@DynEnumImpl@omni@@UEAAPEAVDynAny@DynamicAny@@XZ
?copy@DynFixedImpl@omni@@$4PPPPPPPM@A@EAAPEAVDynAny@DynamicAny@@XZ
?copy@DynFixedImpl@omni@@UEAAPEAVDynAny@DynamicAny@@XZ
?copy@DynSequenceImpl@omni@@$4PPPPPPPM@A@EAAPEAVDynAny@DynamicAny@@XZ
?copy@DynSequenceImpl@omni@@UEAAPEAVDynAny@DynamicAny@@XZ
?copy@DynStructImpl@omni@@$4PPPPPPPM@A@EAAPEAVDynAny@DynamicAny@@XZ
?copy@DynStructImpl@omni@@UEAAPEAVDynAny@DynamicAny@@XZ
?copy@DynUnionEnumDisc@omni@@$4PPPPPPPM@A@EAAPEAVDynAny@DynamicAny@@XZ
?copy@DynUnionEnumDisc@omni@@UEAAPEAVDynAny@DynamicAny@@XZ
?copy@DynUnionImpl@omni@@$4PPPPPPPM@A@EAAPEAVDynAny@DynamicAny@@XZ
?copy@DynUnionImpl@omni@@UEAAPEAVDynAny@DynamicAny@@XZ
?copy@DynValueBoxImpl@omni@@$4PPPPPPPM@A@EAAPEAVDynAny@DynamicAny@@XZ
?copy@DynValueBoxImpl@omni@@UEAAPEAVDynAny@DynamicAny@@XZ
?copy@DynValueImpl@omni@@$4PPPPPPPM@A@EAAPEAVDynAny@DynamicAny@@XZ
?copy@DynValueImpl@omni@@UEAAPEAVDynAny@DynamicAny@@XZ
?copy@omniNilDynAny@omni@@$4PPPPPPPM@A@EAAPEAVDynAny@DynamicAny@@XZ
?copy@omniNilDynAny@omni@@UEAAPEAVDynAny@DynamicAny@@XZ
?copyMemStreamToStream_rdonly@tcParser@omni@@YAXQEAVTypeCode@CORBA@@AEBVcdrAnyMemoryStream@@AEAVcdrStream@@@Z
?copyStateFromActual@cdrValueChunkStream@@QEAAXXZ
?copyStreamToMemStream_flush@tcParser@omni@@YAXQEAVTypeCode@CORBA@@AEAVcdrStream@@AEAVcdrAnyMemoryStream@@@Z
?copyStreamToStream@tcParser@omni@@YAXQEAVTypeCode@CORBA@@AEAVcdrStream@@1@Z
?copyUsingTC@omni@@YAXPEAVTypeCode_base@1@AEAVcdrStream@@1@Z
?copy_from@DynAnyConstrBase@omni@@UEAAHAEAVcdrAnyMemoryStream@@@Z
?copy_from@DynAnyImpl@omni@@UEAAHAEAVcdrAnyMemoryStream@@@Z
?copy_from@DynSequenceImpl@omni@@UEAAHAEAVcdrAnyMemoryStream@@@Z
?copy_from@DynUnionImpl@omni@@UEAAHAEAVcdrAnyMemoryStream@@@Z
?copy_from@DynValueBoxImpl@omni@@UEAAHAEAVcdrAnyMemoryStream@@@Z
?copy_from@DynValueImpl@omni@@UEAAHAEAVcdrAnyMemoryStream@@@Z
?copy_to@DynAnyConstrBase@omni@@UEAAHAEAVcdrAnyMemoryStream@@@Z
?copy_to@DynAnyImpl@omni@@UEAAHAEAVcdrAnyMemoryStream@@@Z
?copy_to@DynSequenceImpl@omni@@UEAAHAEAVcdrAnyMemoryStream@@@Z
?copy_to@DynUnionImpl@omni@@UEAAHAEAVcdrAnyMemoryStream@@@Z
?copy_to@DynValueBoxImpl@omni@@UEAAHAEAVcdrAnyMemoryStream@@@Z
?copy_to@DynValueImpl@omni@@UEAAHAEAVcdrAnyMemoryStream@@@Z
?copybuffer@?$_CORBA_Sequence@E@@IEAAXK@Z
?copybuffer@?$_CORBA_Sequence@F@@IEAAXK@Z
?copybuffer@?$_CORBA_Sequence@G@@IEAAXK@Z
?copybuffer@?$_CORBA_Sequence@J@@IEAAXK@Z
?copybuffer@?$_CORBA_Sequence@K@@IEAAXK@Z
?copybuffer@?$_CORBA_Sequence@M@@IEAAXK@Z
?copybuffer@?$_CORBA_Sequence@N@@IEAAXK@Z
?copybuffer@?$_CORBA_Sequence@UAttributeDescription@CORBA@@@@IEAAXK@Z
?copybuffer@?$_CORBA_Sequence@UBinding@CosNaming@@@@IEAAXK@Z
?copybuffer@?$_CORBA_Sequence@UDescription@Container@CORBA@@@@IEAAXK@Z
?copybuffer@?$_CORBA_Sequence@UExceptionDescription@CORBA@@@@IEAAXK@Z
?copybuffer@?$_CORBA_Sequence@UInitializer@CORBA@@@@IEAAXK@Z
?copybuffer@?$_CORBA_Sequence@UNameComponent@CosNaming@@@@IEAAXK@Z
?copybuffer@?$_CORBA_Sequence@UNameDynAnyPair@DynamicAny@@@@IEAAXK@Z
?copybuffer@?$_CORBA_Sequence@UNameValuePair@DynamicAny@@@@IEAAXK@Z
?copybuffer@?$_CORBA_Sequence@UOperationDescription@CORBA@@@@IEAAXK@Z
?copybuffer@?$_CORBA_Sequence@UParameterDescription@CORBA@@@@IEAAXK@Z
?copybuffer@?$_CORBA_Sequence@UStructMember@CORBA@@@@IEAAXK@Z
?copybuffer@?$_CORBA_Sequence@UUnionMember@CORBA@@@@IEAAXK@Z
?copybuffer@?$_CORBA_Sequence@UValueMember@CORBA@@@@IEAAXK@Z
?copybuffer@?$_CORBA_Sequence@VAny@CORBA@@@@IEAAXK@Z
?copybuffer@?$_CORBA_Sequence@VTypeCode_member@CORBA@@@@IEAAXK@Z
?copybuffer@?$_CORBA_Sequence@_J@@IEAAXK@Z
?copybuffer@?$_CORBA_Sequence@_K@@IEAAXK@Z
?copybuffer@?$_CORBA_Sequence@_N@@IEAAXK@Z
?copybuffer@?$_CORBA_Sequence@_W@@IEAAXK@Z
?copybuffer@?$_CORBA_Sequence_ObjRef@VDynAny@DynamicAny@@V?$_CORBA_ObjRef_Element@VDynAny@DynamicAny@@VDynAny_Helper@2@@@VDynAny_Helper@2@@@IEAAXK@Z
?copybuffer@?$_CORBA_Sequence_ObjRef@V_objref_AbstractInterfaceDef@CORBA@@V?$_CORBA_ObjRef_Element@V_objref_AbstractInterfaceDef@CORBA@@VAbstractInterfaceDef_Helper@2@@@VAbstractInterfaceDef_Helper@2@@@IEAAXK@Z
?copybuffer@?$_CORBA_Sequence_ObjRef@V_objref_Contained@CORBA@@V?$_CORBA_ObjRef_Element@V_objref_Contained@CORBA@@VContained_Helper@2@@@VContained_Helper@2@@@IEAAXK@Z
?copybuffer@?$_CORBA_Sequence_ObjRef@V_objref_ExceptionDef@CORBA@@V?$_CORBA_ObjRef_Element@V_objref_ExceptionDef@CORBA@@VExceptionDef_Helper@2@@@VExceptionDef_Helper@2@@@IEAAXK@Z
?copybuffer@?$_CORBA_Sequence_ObjRef@V_objref_InterfaceDef@CORBA@@V?$_CORBA_ObjRef_Element@V_objref_InterfaceDef@CORBA@@VInterfaceDef_Helper@2@@@VInterfaceDef_Helper@2@@@IEAAXK@Z
?copybuffer@?$_CORBA_Sequence_ObjRef@V_objref_ValueDef@CORBA@@V?$_CORBA_ObjRef_Element@V_objref_ValueDef@CORBA@@VValueDef_Helper@2@@@VValueDef_Helper@2@@@IEAAXK@Z
?copybuffer@?$_CORBA_Sequence_Value@VPollerImpl@omniAMI@@V?$_CORBA_Value_Element@VPollerImpl@omniAMI@@VPoller_Helper@Messaging@@@@VPoller_Helper@Messaging@@@@IEAAXK@Z
?copybuffer@?$_CORBA_Sequence_Value@VValueBase@CORBA@@V?$_CORBA_Value_Element@VValueBase@CORBA@@VValueBase_Helper@2@@@VValueBase_Helper@2@@@IEAAXK@Z
?copybuffer@_CORBA_Sequence_String@@AEAAXK@Z
?copybuffer@_CORBA_Sequence_WString@@AEAAXK@Z
?count@ContextListImpl@omni@@UEBAKXZ
?count@ExceptionListImpl@omni@@UEBAKXZ
?count@NVListImpl@omni@@UEBAKXZ
?count@omniNilCtList@omni@@UEBAKXZ
?count@omniNilExList@omni@@UEBAKXZ
?count@omniNilNVList@omni@@UEBAKXZ
?countInternalRefs@TypeCode_collector@omni@@CAXPEAVTypeCode_base@2@@Z
?cpy@_CORBA_WString_helper@@SAXPEA_WPEB_W@Z
?createComponent@DynAnyConstrBase@omni@@IEAAXI@Z
?create_abstract_interface@_objref_Container@CORBA@@QEAAPEAV_objref_AbstractInterfaceDef@2@PEBD00AEBVAbstractInterfaceDefSeq@2@@Z
?create_alias@_objref_Container@CORBA@@QEAAPEAV_objref_AliasDef@2@PEBD00PEAV_objref_IDLType@2@@Z
?create_alias_tc@ORB@CORBA@@QEAAPEAVTypeCode@2@PEBD0PEAV32@@Z
?create_array@_objref_Repository@CORBA@@QEAAPEAV_objref_ArrayDef@2@KPEAV_objref_IDLType@2@@Z
?create_array_tc@ORB@CORBA@@QEAAPEAVTypeCode@2@KPEAV32@@Z
?create_attribute@_objref_InterfaceDef@CORBA@@QEAAPEAV_objref_AttributeDef@2@PEBD00PEAV_objref_IDLType@2@W4AttributeMode@2@@Z
?create_attribute@_objref_ValueDef@CORBA@@QEAAPEAV_objref_AttributeDef@2@PEBD00PEAV_objref_IDLType@2@W4AttributeMode@2@@Z
?create_child@ContextImpl@omni@@UEAAXPEBDV?$_CORBA_PseudoObj_Out@VContext@CORBA@@V?$_CORBA_PseudoObj_Var@VContext@CORBA@@@@@@@Z
?create_child@omniNilContext@omni@@UEAAXPEBDV?$_CORBA_PseudoObj_Out@VContext@CORBA@@V?$_CORBA_PseudoObj_Var@VContext@CORBA@@@@@@@Z
?create_constant@_objref_Container@CORBA@@QEAAPEAV_objref_ConstantDef@2@PEBD00PEAV_objref_IDLType@2@AEBVAny@2@@Z
?create_context_list@ORB@CORBA@@QEAAXV?$_CORBA_PseudoObj_Out@VContextList@CORBA@@V?$_CORBA_PseudoObj_Var@VContextList@CORBA@@@@@@@Z
?create_dii_pollable@PollableSetImpl@omniAMI@@$4PPPPPPPM@A@EAAPEAVDIIPollable@CORBA@@XZ
?create_dii_pollable@PollableSetImpl@omniAMI@@UEAAPEAVDIIPollable@CORBA@@XZ
?create_dii_pollable@_nil_PollableSet@CORBA@@$4PPPPPPPM@A@EAAPEAVDIIPollable@2@XZ
?create_dii_pollable@_nil_PollableSet@CORBA@@UEAAPEAVDIIPollable@2@XZ
?create_dyn_any@DynAnyFactoryImpl@omni@@UEAAPEAVDynAny@DynamicAny@@AEBVAny@CORBA@@@Z
?create_dyn_any@omniNilDynAnyFactory@omni@@$4PPPPPPPM@A@EAAPEAVDynAny@DynamicAny@@AEBVAny@CORBA@@@Z
?create_dyn_any@omniNilDynAnyFactory@omni@@UEAAPEAVDynAny@DynamicAny@@AEBVAny@CORBA@@@Z
?create_dyn_any_from_type_code@DynAnyFactoryImpl@omni@@UEAAPEAVDynAny@DynamicAny@@PEAVTypeCode@CORBA@@@Z
?create_dyn_any_from_type_code@omniNilDynAnyFactory@omni@@$4PPPPPPPM@A@EAAPEAVDynAny@DynamicAny@@PEAVTypeCode@CORBA@@@Z
?create_dyn_any_from_type_code@omniNilDynAnyFactory@omni@@UEAAPEAVDynAny@DynamicAny@@PEAVTypeCode@CORBA@@@Z
?create_enum@_objref_Container@CORBA@@QEAAPEAV_objref_EnumDef@2@PEBD00AEBVEnumMemberSeq@2@@Z
?create_enum_tc@ORB@CORBA@@QEAAPEAVTypeCode@2@PEBD0AEBVEnumMemberSeq@2@@Z
?create_environment@ORB@CORBA@@QEAAXV?$_CORBA_PseudoObj_Out@VEnvironment@CORBA@@V?$_CORBA_PseudoObj_Var@VEnvironment@CORBA@@@@@@@Z
?create_exception@_objref_Container@CORBA@@QEAAPEAV_objref_ExceptionDef@2@PEBD00AEBVStructMemberSeq@2@@Z
?create_exception_list@ORB@CORBA@@QEAAXV?$_CORBA_PseudoObj_Out@VExceptionList@CORBA@@V?$_CORBA_PseudoObj_Var@VExceptionList@CORBA@@@@@@@Z
?create_exception_tc@ORB@CORBA@@QEAAPEAVTypeCode@2@PEBD0AEBVStructMemberSeq@2@@Z
?create_fixed@_objref_Repository@CORBA@@QEAAPEAV_objref_FixedDef@2@GF@Z
?create_fixed_tc@ORB@CORBA@@QEAAPEAVTypeCode@2@GF@Z
?create_for_unmarshal@_0RL_CORBA_StringValue_init@@UEAAPEAVValueBase@CORBA@@XZ
?create_for_unmarshal@_0RL_CORBA_WStringValue_init@@UEAAPEAVValueBase@CORBA@@XZ
?create_for_unmarshal@_omni_ValueFactoryManager@@SAPEAVValueBase@CORBA@@PEBDK@Z
?create_interface@_objref_Container@CORBA@@QEAAPEAV_objref_InterfaceDef@2@PEBD00AEBVInterfaceDefSeq@2@@Z
?create_interface_tc@ORB@CORBA@@QEAAPEAVTypeCode@2@PEBD0@Z
?create_list@ORB@CORBA@@QEAAXJV?$_CORBA_PseudoObj_Out@VNVList@CORBA@@V?$_CORBA_PseudoObj_Var@VNVList@CORBA@@@@@@@Z
?create_module@_objref_Container@CORBA@@QEAAPEAV_objref_ModuleDef@2@PEBD00@Z
?create_named_value@ORB@CORBA@@QEAAXV?$_CORBA_PseudoObj_Out@VNamedValue@CORBA@@V?$_CORBA_PseudoObj_Var@VNamedValue@CORBA@@@@@@@Z
?create_native@_objref_Container@CORBA@@QEAAPEAV_objref_NativeDef@2@PEBD00@Z
?create_operation@_objref_InterfaceDef@CORBA@@QEAAPEAV_objref_OperationDef@2@PEBD00PEAV_objref_IDLType@2@W4OperationMode@2@AEBVParDescriptionSeq@2@AEBVExceptionDefSeq@2@AEBVContextIdSeq@2@@Z
?create_operation@_objref_ValueDef@CORBA@@QEAAPEAV_objref_OperationDef@2@PEBD00PEAV_objref_IDLType@2@W4OperationMode@2@AEBVParDescriptionSeq@2@AEBVExceptionDefSeq@2@AEBVContextIdSeq@2@@Z
?create_operation_list@ORB@CORBA@@QEAAXPEAV_objref_OperationDef@2@V?$_CORBA_PseudoObj_Out@VNVList@CORBA@@V?$_CORBA_PseudoObj_Var@VNVList@CORBA@@@@@@@Z
?create_policy@ORB@CORBA@@QEAAPEAVPolicy@2@KAEBVAny@2@@Z
?create_pollable_set@DIIPollableImpl@omniAMI@@$4PPPPPPPM@A@EAAPEAVPollableSet@CORBA@@XZ
?create_pollable_set@DIIPollableImpl@omniAMI@@UEAAPEAVPollableSet@CORBA@@XZ
?create_pollable_set@PollerImpl@omniAMI@@$4PPPPPPPM@A@EAAPEAVPollableSet@CORBA@@XZ
?create_pollable_set@PollerImpl@omniAMI@@UEAAPEAVPollableSet@CORBA@@XZ
?create_recursive_sequence_tc@ORB@CORBA@@QEAAPEAVTypeCode@2@KK@Z
?create_recursive_tc@ORB@CORBA@@QEAAPEAVTypeCode@2@PEBD@Z
?create_sequence@_objref_Repository@CORBA@@QEAAPEAV_objref_SequenceDef@2@KPEAV_objref_IDLType@2@@Z
?create_sequence_tc@ORB@CORBA@@QEAAPEAVTypeCode@2@KPEAV32@@Z
?create_string@_objref_Repository@CORBA@@QEAAPEAV_objref_StringDef@2@K@Z
?create_string_tc@ORB@CORBA@@QEAAPEAVTypeCode@2@K@Z
?create_struct@_objref_Container@CORBA@@QEAAPEAV_objref_StructDef@2@PEBD00AEBVStructMemberSeq@2@@Z
?create_struct_tc@ORB@CORBA@@QEAAPEAVTypeCode@2@PEBD0AEBVStructMemberSeq@2@@Z
?create_union@_objref_Container@CORBA@@QEAAPEAV_objref_UnionDef@2@PEBD00PEAV_objref_IDLType@2@AEBVUnionMemberSeq@2@@Z
?create_union_tc@ORB@CORBA@@QEAAPEAVTypeCode@2@PEBD0PEAV32@AEBVUnionMemberSeq@2@@Z
?create_value@_objref_Container@CORBA@@QEAAPEAV_objref_ValueDef@2@PEBD00_N1PEAV32@1AEBVValueDefSeq@2@AEBVInterfaceDefSeq@2@AEBVInitializerSeq@2@@Z
?create_value_box@_objref_Container@CORBA@@QEAAPEAV_objref_ValueBoxDef@2@PEBD00PEAV_objref_IDLType@2@@Z
?create_value_box_tc@ORB@CORBA@@QEAAPEAVTypeCode@2@PEBD0PEAV32@@Z
?create_value_member@_objref_ValueDef@CORBA@@QEAAPEAV_objref_ValueMemberDef@2@PEBD00PEAV_objref_IDLType@2@F@Z
?create_value_tc@ORB@CORBA@@QEAAPEAVTypeCode@2@PEBD0FPEAV32@AEBVValueMemberSeq@2@@Z
?create_wstring@_objref_Repository@CORBA@@QEAAPEAV_objref_WstringDef@2@K@Z
?create_wstring_tc@ORB@CORBA@@QEAAPEAVTypeCode@2@K@Z
?ctx@RequestImpl@omni@@UEAAXPEAVContext@CORBA@@@Z
?ctx@RequestImpl@omni@@UEBAPEAVContext@CORBA@@XZ
?ctx@omniNilRequest@omni@@UEAAXPEAVContext@CORBA@@@Z
?ctx@omniNilRequest@omni@@UEBAPEAVContext@CORBA@@XZ
?ctx@omniServerRequest@omni@@UEAAPEAVContext@CORBA@@XZ
?currentKind@DynAnyConstrBase@omni@@IEAA?AW4TCKind@CORBA@@XZ
?currentOffset@TypeCode_offsetTable@omni@@QEAA_JXZ
?current_component@DynAnyConstrBase@omni@@$4PPPPPPPM@A@EAAPEAVDynAny@DynamicAny@@XZ
?current_component@DynAnyConstrBase@omni@@$4PPPPPPPM@BA@EAAPEAVDynAny@DynamicAny@@XZ
?current_component@DynAnyConstrBase@omni@@$4PPPPPPPM@BI@EAAPEAVDynAny@DynamicAny@@XZ
?current_component@DynAnyConstrBase@omni@@$4PPPPPPPM@EI@EAAPEAVDynAny@DynamicAny@@XZ
?current_component@DynAnyConstrBase@omni@@UEAAPEAVDynAny@DynamicAny@@XZ
?current_component@DynAnyImpl@omni@@$4PPPPPPPM@7EAAPEAVDynAny@DynamicAny@@XZ
?current_component@DynAnyImpl@omni@@$4PPPPPPPM@A@EAAPEAVDynAny@DynamicAny@@XZ
?current_component@DynAnyImpl@omni@@$4PPPPPPPM@BA@EAAPEAVDynAny@DynamicAny@@XZ
?current_component@DynAnyImpl@omni@@$4PPPPPPPM@BI@EAAPEAVDynAny@DynamicAny@@XZ
?current_component@DynAnyImpl@omni@@UEAAPEAVDynAny@DynamicAny@@XZ
?current_component@DynUnionImpl@omni@@$4PPPPPPPM@A@EAAPEAVDynAny@DynamicAny@@XZ
?current_component@DynUnionImpl@omni@@UEAAPEAVDynAny@DynamicAny@@XZ
?current_component@omniNilDynAny@omni@@$4PPPPPPPM@A@EAAPEAVDynAny@DynamicAny@@XZ
?current_component@omniNilDynAny@omni@@UEAAPEAVDynAny@DynamicAny@@XZ
?current_member_kind@DynStructImpl@omni@@UEAA?AW4TCKind@CORBA@@XZ
?current_member_kind@DynValueImpl@omni@@UEAA?AW4TCKind@CORBA@@XZ
?current_member_kind@omniNilDynStruct@omni@@UEAA?AW4TCKind@CORBA@@XZ
?current_member_kind@omniNilDynValue@omni@@UEAA?AW4TCKind@CORBA@@XZ
?current_member_name@DynStructImpl@omni@@UEAAPEADXZ
?current_member_name@DynValueImpl@omni@@UEAAPEADXZ
?current_member_name@omniNilDynStruct@omni@@UEAAPEADXZ
?current_member_name@omniNilDynValue@omni@@UEAAPEADXZ
?dealloc@_CORBA_String_helper@@SAXPEAD@Z
?dealloc@_CORBA_WString_helper@@SAXPEA_W@Z
?deallocate@?$omnivector@PEAVDynAnyImplBase@omni@@@@AEAAXXZ
?dec@omni_refcount@@QEAAHXZ
?decrRefCount@ContextImpl@omni@@QEAAXXZ
?decrRefCount@PseudoObjBase@omni@@QEAAXXZ
?def_kind@_objref_IRObject@CORBA@@QEAA?AW4DefinitionKind@2@XZ
?default_index@TypeCode@CORBA@@QEBAJXZ
?defined_in@_objref_Contained@CORBA@@QEAAPEAV_objref_Container@2@XZ
?delete_values@ContextImpl@omni@@UEAAXPEBD@Z
?delete_values@omniNilContext@omni@@UEAAXPEBD@Z
?describe@_objref_Contained@CORBA@@QEAAPEAUDescription@Contained@2@XZ
?describe_contents@_objref_Container@CORBA@@QEAAPEAVDescriptionSeq@Container@2@W4DefinitionKind@2@_NJ@Z
?describe_interface@_objref_InterfaceDef@CORBA@@QEAAPEAUFullInterfaceDescription@InterfaceDef@2@XZ
?describe_value@_objref_ValueDef@CORBA@@QEAAPEAUFullValueDescription@ValueDef@2@XZ
?destroy@DynAnyImplBase@omni@@$4PPPPPPPM@7EAAXXZ
?destroy@DynAnyImplBase@omni@@$4PPPPPPPM@A@EAAXXZ
?destroy@DynAnyImplBase@omni@@$4PPPPPPPM@BA@EAAXXZ
?destroy@DynAnyImplBase@omni@@$4PPPPPPPM@BI@EAAXXZ
?destroy@DynAnyImplBase@omni@@$4PPPPPPPM@CA@EAAXXZ
?destroy@DynAnyImplBase@omni@@$4PPPPPPPM@DA@EAAXXZ
?destroy@DynAnyImplBase@omni@@$4PPPPPPPM@EA@EAAXXZ
?destroy@DynAnyImplBase@omni@@$4PPPPPPPM@EI@EAAXXZ
?destroy@DynAnyImplBase@omni@@$4PPPPPPPM@HI@EAAXXZ
?destroy@DynAnyImplBase@omni@@UEAAXXZ
?destroy@_objref_IRObject@CORBA@@QEAAXXZ
?destroy@omniNilDynAny@omni@@$4PPPPPPPM@A@EAAXXZ
?destroy@omniNilDynAny@omni@@UEAAXXZ
?destroyed@DynAnyImplBase@omni@@QEBA_NXZ
?detach@DynAnyImplBase@omni@@QEAAXXZ
?detach@DynUnionDisc@omni@@QEAAXXZ
?detach@omni_dynAny_initialiser@omni@@UEAAXXZ
?detach@omni_valueFactory_initialiser@omni@@UEAAXXZ
?detachMember@DynUnionImpl@omni@@AEAAXXZ
?digits@_objref_FixedDef@CORBA@@QEAAGXZ
?digits@_objref_FixedDef@CORBA@@QEAAXG@Z
?discriminatorHasChanged@DynUnionImpl@omni@@QEAAXXZ
?discriminator_kind@DynUnionImpl@omni@@UEAA?AW4TCKind@CORBA@@XZ
?discriminator_kind@omniNilDynUnion@omni@@UEAA?AW4TCKind@CORBA@@XZ
?discriminator_type@TypeCode@CORBA@@QEBAPEAV12@XZ
?discriminator_type@_objref_UnionDef@CORBA@@QEAAPEAVTypeCode@2@XZ
?discriminator_type_def@_objref_UnionDef@CORBA@@QEAAPEAV_objref_IDLType@2@XZ
?discriminator_type_def@_objref_UnionDef@CORBA@@QEAAXPEAV_objref_IDLType@2@@Z
?doRead@DynAnyImpl@omni@@IEAAAEAVcdrAnyMemoryStream@@W4TCKind@CORBA@@@Z
?doWrite@DynAnyImpl@omni@@IEAAAEAVcdrAnyMemoryStream@@W4TCKind@CORBA@@@Z
?do_reply@omniServerRequest@omni@@QEAAXXZ
?downcast@GIOP_C@omni@@SAPEAV12@PEAVcdrStream@@@Z
?downcast@GIOP_S@omni@@SAPEAV12@PEAVcdrStream@@@Z
?downcast@cdrAnyMemoryStream@@SAPEAV1@PEAVcdrStream@@@Z
?downcast@cdrValueChunkStream@@SAPEAV1@PEAVcdrStream@@@Z
?downcast@giopStream@omni@@SAPEAV12@PEAVcdrStream@@@Z
?dup@_CORBA_String_helper@@SAPEADPEBD@Z
?dup@_CORBA_WString_helper@@SAPEA_WPEB_W@Z
?duplicate@AbstractInterfaceDef_Helper@CORBA@@SAXPEAV_objref_AbstractInterfaceDef@2@@Z
?duplicate@AliasDef_Helper@CORBA@@SAXPEAV_objref_AliasDef@2@@Z
?duplicate@ArrayDef_Helper@CORBA@@SAXPEAV_objref_ArrayDef@2@@Z
?duplicate@AttributeDef_Helper@CORBA@@SAXPEAV_objref_AttributeDef@2@@Z
?duplicate@ConstantDef_Helper@CORBA@@SAXPEAV_objref_ConstantDef@2@@Z
?duplicate@Contained_Helper@CORBA@@SAXPEAV_objref_Contained@2@@Z
?duplicate@Container_Helper@CORBA@@SAXPEAV_objref_Container@2@@Z
?duplicate@DynAny_Helper@DynamicAny@@SAXPEAVDynAny@2@@Z
?duplicate@EnumDef_Helper@CORBA@@SAXPEAV_objref_EnumDef@2@@Z
?duplicate@ExceptionDef_Helper@CORBA@@SAXPEAV_objref_ExceptionDef@2@@Z
?duplicate@FixedDef_Helper@CORBA@@SAXPEAV_objref_FixedDef@2@@Z
?duplicate@IDLType_Helper@CORBA@@SAXPEAV_objref_IDLType@2@@Z
?duplicate@IRObject_Helper@CORBA@@SAXPEAV_objref_IRObject@2@@Z
?duplicate@InterfaceDef_Helper@CORBA@@SAXPEAV_objref_InterfaceDef@2@@Z
?duplicate@ModuleDef_Helper@CORBA@@SAXPEAV_objref_ModuleDef@2@@Z
?duplicate@NativeDef_Helper@CORBA@@SAXPEAV_objref_NativeDef@2@@Z
?duplicate@OperationDef_Helper@CORBA@@SAXPEAV_objref_OperationDef@2@@Z
?duplicate@PollableSet_Helper@CORBA@@SAXPEAVPollableSet@2@@Z
?duplicate@PrimitiveDef_Helper@CORBA@@SAXPEAV_objref_PrimitiveDef@2@@Z
?duplicate@ReplyHandler_Helper@Messaging@@SAXPEAV_objref_ReplyHandler@2@@Z
?duplicate@Repository_Helper@CORBA@@SAXPEAV_objref_Repository@2@@Z
?duplicate@SequenceDef_Helper@CORBA@@SAXPEAV_objref_SequenceDef@2@@Z
?duplicate@StringDef_Helper@CORBA@@SAXPEAV_objref_StringDef@2@@Z
?duplicate@StructDef_Helper@CORBA@@SAXPEAV_objref_StructDef@2@@Z
?duplicate@TypedefDef_Helper@CORBA@@SAXPEAV_objref_TypedefDef@2@@Z
?duplicate@UnionDef_Helper@CORBA@@SAXPEAV_objref_UnionDef@2@@Z
?duplicate@ValueBoxDef_Helper@CORBA@@SAXPEAV_objref_ValueBoxDef@2@@Z
?duplicate@ValueDef_Helper@CORBA@@SAXPEAV_objref_ValueDef@2@@Z
?duplicate@ValueMemberDef_Helper@CORBA@@SAXPEAV_objref_ValueMemberDef@2@@Z
?duplicate@WstringDef_Helper@CORBA@@SAXPEAV_objref_WstringDef@2@@Z
?duplicateRef@TypeCode_collector@omni@@SAPEAVTypeCode_base@2@PEAV32@@Z
?element_type@_objref_ArrayDef@CORBA@@QEAAPEAVTypeCode@2@XZ
?element_type@_objref_SequenceDef@CORBA@@QEAAPEAVTypeCode@2@XZ
?element_type_def@_objref_ArrayDef@CORBA@@QEAAPEAV_objref_IDLType@2@XZ
?element_type_def@_objref_ArrayDef@CORBA@@QEAAXPEAV_objref_IDLType@2@@Z
?element_type_def@_objref_SequenceDef@CORBA@@QEAAPEAV_objref_IDLType@2@XZ
?element_type_def@_objref_SequenceDef@CORBA@@QEAAXPEAV_objref_IDLType@2@@Z
?endTruncatable@OutputValueTracker@omni@@QEAAXXZ
?entries@TypeCode_alignTable@omni@@QEBAIXZ
?env@RequestImpl@omni@@UEAAPEAVEnvironment@CORBA@@XZ
?env@omniNilRequest@omni@@UEAAPEAVEnvironment@CORBA@@XZ
?environment@DIICallDescriptor@omni@@QEBAPEAVEnvironment@CORBA@@XZ
?equal@DynAnyConstrBase@omni@@$4PPPPPPPM@A@EAA_NPEAVDynAny@DynamicAny@@@Z
?equal@DynAnyConstrBase@omni@@$4PPPPPPPM@BA@EAA_NPEAVDynAny@DynamicAny@@@Z
?equal@DynAnyConstrBase@omni@@$4PPPPPPPM@BI@EAA_NPEAVDynAny@DynamicAny@@@Z
?equal@DynAnyConstrBase@omni@@$4PPPPPPPM@EI@EAA_NPEAVDynAny@DynamicAny@@@Z
?equal@DynAnyConstrBase@omni@@UEAA_NPEAVDynAny@DynamicAny@@@Z
?equal@DynAnyImpl@omni@@$4PPPPPPPM@7EAA_NPEAVDynAny@DynamicAny@@@Z
?equal@DynAnyImpl@omni@@$4PPPPPPPM@A@EAA_NPEAVDynAny@DynamicAny@@@Z
?equal@DynAnyImpl@omni@@$4PPPPPPPM@BA@EAA_NPEAVDynAny@DynamicAny@@@Z
?equal@DynAnyImpl@omni@@$4PPPPPPPM@BI@EAA_NPEAVDynAny@DynamicAny@@@Z
?equal@DynAnyImpl@omni@@UEAA_NPEAVDynAny@DynamicAny@@@Z
?equal@DynUnionImpl@omni@@$4PPPPPPPM@A@EAA_NPEAVDynAny@DynamicAny@@@Z
?equal@DynUnionImpl@omni@@UEAA_NPEAVDynAny@DynamicAny@@@Z
?equal@TypeCode@CORBA@@QEBA_NPEAV12@@Z
?equal@omniNilDynAny@omni@@$4PPPPPPPM@A@EAA_NPEAVDynAny@DynamicAny@@@Z
?equal@omniNilDynAny@omni@@UEAA_NPEAVDynAny@DynamicAny@@@Z
?equivalent@TypeCode@CORBA@@QEBA_NPEAV12@@Z
?exception@Environment@CORBA@@UEAAXPEAVException@2@@Z
?exception@Environment@CORBA@@UEBAPEAVException@2@XZ
?exception@UnknownUserException@CORBA@@QEAAAEAVAny@2@XZ
?exception@omniNilEnv@omni@@UEAAXPEAVException@CORBA@@@Z
?exception@omniNilEnv@omni@@UEBAPEAVException@CORBA@@XZ
?exceptionOccurred@cdrValueChunkStream@@QEAAXXZ
?exceptionOccurred@omniAsyncCallDescriptor@@QEAA_NXZ
?exceptions@DIICallDescriptor@omni@@QEAAPEAVExceptionList@CORBA@@XZ
?exceptions@RequestImpl@omni@@UEAAPEAVExceptionList@CORBA@@XZ
?exceptions@_objref_OperationDef@CORBA@@QEAAPEAVExceptionDefSeq@2@XZ
?exceptions@_objref_OperationDef@CORBA@@QEAAXAEBVExceptionDefSeq@2@@Z
?exceptions@omniNilRequest@omni@@UEAAPEAVExceptionList@CORBA@@XZ
?extractLabel@TypeCode_union_helper@omni@@SA_KAEBVAny@CORBA@@PEAVTypeCode@4@@Z
?fastCopyUsingTC@omni@@YAXPEAVTypeCode_base@1@AEAVcdrStream@@1@Z
?filterContext@Context@CORBA@@SAPEAV12@PEAV12@PEBQEBDH@Z
?find@omniTypeCodeCollection@omni@@QEAAPEAVTypeCode@CORBA@@PEBD@Z
?fixed_digits@TypeCode@CORBA@@QEBAGXZ
?fixed_scale@TypeCode@CORBA@@QEBAFXZ
?flags@NamedValueImpl@omni@@UEBAKXZ
?flags@omniNilNV@omni@@UEBAKXZ
?freeU@omniCodeSetUtil@omni@@SAXPEA_W@Z
?free_entries@ContextListImpl@omni@@AEAAXXZ
?free_entries@ExceptionListImpl@omni@@AEAAXXZ
?freebuf@?$_CORBA_Sequence@E@@SAXPEAE@Z
?freebuf@?$_CORBA_Sequence@F@@SAXPEAF@Z
?freebuf@?$_CORBA_Sequence@G@@SAXPEAG@Z
?freebuf@?$_CORBA_Sequence@J@@SAXPEAJ@Z
?freebuf@?$_CORBA_Sequence@K@@SAXPEAK@Z
?freebuf@?$_CORBA_Sequence@M@@SAXPEAM@Z
?freebuf@?$_CORBA_Sequence@N@@SAXPEAN@Z
?freebuf@?$_CORBA_Sequence@UAttributeDescription@CORBA@@@@SAXPEAUAttributeDescription@CORBA@@@Z
?freebuf@?$_CORBA_Sequence@UBinding@CosNaming@@@@SAXPEAUBinding@CosNaming@@@Z
?freebuf@?$_CORBA_Sequence@UDescription@Container@CORBA@@@@SAXPEAUDescription@Container@CORBA@@@Z
?freebuf@?$_CORBA_Sequence@UExceptionDescription@CORBA@@@@SAXPEAUExceptionDescription@CORBA@@@Z
?freebuf@?$_CORBA_Sequence@UInitializer@CORBA@@@@SAXPEAUInitializer@CORBA@@@Z
?freebuf@?$_CORBA_Sequence@UNameComponent@CosNaming@@@@SAXPEAUNameComponent@CosNaming@@@Z
?freebuf@?$_CORBA_Sequence@UNameDynAnyPair@DynamicAny@@@@SAXPEAUNameDynAnyPair@DynamicAny@@@Z
?freebuf@?$_CORBA_Sequence@UNameValuePair@DynamicAny@@@@SAXPEAUNameValuePair@DynamicAny@@@Z
?freebuf@?$_CORBA_Sequence@UOperationDescription@CORBA@@@@SAXPEAUOperationDescription@CORBA@@@Z
?freebuf@?$_CORBA_Sequence@UParameterDescription@CORBA@@@@SAXPEAUParameterDescription@CORBA@@@Z
?freebuf@?$_CORBA_Sequence@UStructMember@CORBA@@@@SAXPEAUStructMember@CORBA@@@Z
?freebuf@?$_CORBA_Sequence@UUnionMember@CORBA@@@@SAXPEAUUnionMember@CORBA@@@Z
?freebuf@?$_CORBA_Sequence@UValueMember@CORBA@@@@SAXPEAUValueMember@CORBA@@@Z
?freebuf@?$_CORBA_Sequence@VAny@CORBA@@@@SAXPEAVAny@CORBA@@@Z
?freebuf@?$_CORBA_Sequence@VTypeCode_member@CORBA@@@@SAXPEAVTypeCode_member@CORBA@@@Z
?freebuf@?$_CORBA_Sequence@_J@@SAXPEA_J@Z
?freebuf@?$_CORBA_Sequence@_K@@SAXPEA_K@Z
?freebuf@?$_CORBA_Sequence@_N@@SAXPEA_N@Z
?freebuf@?$_CORBA_Sequence@_W@@SAXPEA_W@Z
?freebuf@?$_CORBA_Sequence_ObjRef@VDynAny@DynamicAny@@V?$_CORBA_ObjRef_Element@VDynAny@DynamicAny@@VDynAny_Helper@2@@@VDynAny_Helper@2@@@SAXPEAPEAVDynAny@DynamicAny@@@Z
?freebuf@?$_CORBA_Sequence_ObjRef@V_objref_AbstractInterfaceDef@CORBA@@V?$_CORBA_ObjRef_Element@V_objref_AbstractInterfaceDef@CORBA@@VAbstractInterfaceDef_Helper@2@@@VAbstractInterfaceDef_Helper@2@@@SAXPEAPEAV_objref_AbstractInterfaceDef@CORBA@@@Z
?freebuf@?$_CORBA_Sequence_ObjRef@V_objref_Contained@CORBA@@V?$_CORBA_ObjRef_Element@V_objref_Contained@CORBA@@VContained_Helper@2@@@VContained_Helper@2@@@SAXPEAPEAV_objref_Contained@CORBA@@@Z
?freebuf@?$_CORBA_Sequence_ObjRef@V_objref_ExceptionDef@CORBA@@V?$_CORBA_ObjRef_Element@V_objref_ExceptionDef@CORBA@@VExceptionDef_Helper@2@@@VExceptionDef_Helper@2@@@SAXPEAPEAV_objref_ExceptionDef@CORBA@@@Z
?freebuf@?$_CORBA_Sequence_ObjRef@V_objref_InterfaceDef@CORBA@@V?$_CORBA_ObjRef_Element@V_objref_InterfaceDef@CORBA@@VInterfaceDef_Helper@2@@@VInterfaceDef_Helper@2@@@SAXPEAPEAV_objref_InterfaceDef@CORBA@@@Z
?freebuf@?$_CORBA_Sequence_ObjRef@V_objref_ValueDef@CORBA@@V?$_CORBA_ObjRef_Element@V_objref_ValueDef@CORBA@@VValueDef_Helper@2@@@VValueDef_Helper@2@@@SAXPEAPEAV_objref_ValueDef@CORBA@@@Z
?freebuf@?$_CORBA_Sequence_Value@VPollerImpl@omniAMI@@V?$_CORBA_Value_Element@VPollerImpl@omniAMI@@VPoller_Helper@Messaging@@@@VPoller_Helper@Messaging@@@@SAXPEAPEAVPollerImpl@omniAMI@@@Z
?freebuf@?$_CORBA_Sequence_Value@VValueBase@CORBA@@V?$_CORBA_Value_Element@VValueBase@CORBA@@VValueBase_Helper@2@@@VValueBase_Helper@2@@@SAXPEAPEAVValueBase@CORBA@@@Z
?freebuf@_CORBA_Sequence_String@@SAXPEAPEAD@Z
?freebuf@_CORBA_Sequence_WString@@SAXPEAPEA_W@Z
?from_any@DynAnyImplBase@omni@@$4PPPPPPPM@7EAAXAEBVAny@CORBA@@@Z
?from_any@DynAnyImplBase@omni@@$4PPPPPPPM@A@EAAXAEBVAny@CORBA@@@Z
?from_any@DynAnyImplBase@omni@@$4PPPPPPPM@BA@EAAXAEBVAny@CORBA@@@Z
?from_any@DynAnyImplBase@omni@@$4PPPPPPPM@BI@EAAXAEBVAny@CORBA@@@Z
?from_any@DynAnyImplBase@omni@@$4PPPPPPPM@CA@EAAXAEBVAny@CORBA@@@Z
?from_any@DynAnyImplBase@omni@@$4PPPPPPPM@DA@EAAXAEBVAny@CORBA@@@Z
?from_any@DynAnyImplBase@omni@@$4PPPPPPPM@EA@EAAXAEBVAny@CORBA@@@Z
?from_any@DynAnyImplBase@omni@@$4PPPPPPPM@EI@EAAXAEBVAny@CORBA@@@Z
?from_any@DynAnyImplBase@omni@@$4PPPPPPPM@HI@EAAXAEBVAny@CORBA@@@Z
?from_any@DynAnyImplBase@omni@@UEAAXAEBVAny@CORBA@@@Z
?from_any@omniNilDynAny@omni@@$4PPPPPPPM@A@EAAXAEBVAny@CORBA@@@Z
?from_any@omniNilDynAny@omni@@UEAAXAEBVAny@CORBA@@@Z
?generateAlignmentTable@TypeCode_array@omni@@AEAAXXZ
?generateAlignmentTable@TypeCode_struct@omni@@AEAAXXZ
?get@omniCurrent@@SAPEAV1@PEAVomni_thread@@@Z
?get@omniCurrent@@SAPEAV1@XZ
?getAndRemoveReadyPollable@PollableSetImpl@omniAMI@@AEAAPEAVPollable@CORBA@@XZ
?getCurrent@DynAnyConstrBase@omni@@IEAAPEAVDynAnyImplBase@2@XZ
?getException@omniAsyncCallDescriptor@@QEAAPEAVException@CORBA@@XZ
?get_abstract@DynAnyConstrBase@omni@@$4PPPPPPPM@A@EAAPEAVAbstractBase@CORBA@@XZ
?get_abstract@DynAnyConstrBase@omni@@$4PPPPPPPM@BA@EAAPEAVAbstractBase@CORBA@@XZ
?get_abstract@DynAnyConstrBase@omni@@$4PPPPPPPM@BI@EAAPEAVAbstractBase@CORBA@@XZ
?get_abstract@DynAnyConstrBase@omni@@$4PPPPPPPM@EI@EAAPEAVAbstractBase@CORBA@@XZ
?get_abstract@DynAnyConstrBase@omni@@UEAAPEAVAbstractBase@CORBA@@XZ
?get_abstract@DynAnyImpl@omni@@$4PPPPPPPM@7EAAPEAVAbstractBase@CORBA@@XZ
?get_abstract@DynAnyImpl@omni@@$4PPPPPPPM@A@EAAPEAVAbstractBase@CORBA@@XZ
?get_abstract@DynAnyImpl@omni@@$4PPPPPPPM@BA@EAAPEAVAbstractBase@CORBA@@XZ
?get_abstract@DynAnyImpl@omni@@$4PPPPPPPM@BI@EAAPEAVAbstractBase@CORBA@@XZ
?get_abstract@DynAnyImpl@omni@@UEAAPEAVAbstractBase@CORBA@@XZ
?get_abstract@DynUnionImpl@omni@@$4PPPPPPPM@A@EAAPEAVAbstractBase@CORBA@@XZ
?get_abstract@DynUnionImpl@omni@@UEAAPEAVAbstractBase@CORBA@@XZ
?get_abstract@omniNilDynAny@omni@@$4PPPPPPPM@A@EAAPEAVAbstractBase@CORBA@@XZ
?get_abstract@omniNilDynAny@omni@@UEAAPEAVAbstractBase@CORBA@@XZ
?get_any@DynAnyConstrBase@omni@@$4PPPPPPPM@A@EAAPEAVAny@CORBA@@XZ
?get_any@DynAnyConstrBase@omni@@$4PPPPPPPM@BA@EAAPEAVAny@CORBA@@XZ
?get_any@DynAnyConstrBase@omni@@$4PPPPPPPM@BI@EAAPEAVAny@CORBA@@XZ
?get_any@DynAnyConstrBase@omni@@$4PPPPPPPM@EI@EAAPEAVAny@CORBA@@XZ
?get_any@DynAnyConstrBase@omni@@UEAAPEAVAny@CORBA@@XZ
?get_any@DynAnyImpl@omni@@$4PPPPPPPM@7EAAPEAVAny@CORBA@@XZ
?get_any@DynAnyImpl@omni@@$4PPPPPPPM@A@EAAPEAVAny@CORBA@@XZ
?get_any@DynAnyImpl@omni@@$4PPPPPPPM@BA@EAAPEAVAny@CORBA@@XZ
?get_any@DynAnyImpl@omni@@$4PPPPPPPM@BI@EAAPEAVAny@CORBA@@XZ
?get_any@DynAnyImpl@omni@@UEAAPEAVAny@CORBA@@XZ
?get_any@DynUnionImpl@omni@@$4PPPPPPPM@A@EAAPEAVAny@CORBA@@XZ
?get_any@DynUnionImpl@omni@@UEAAPEAVAny@CORBA@@XZ
?get_any@omniNilDynAny@omni@@$4PPPPPPPM@A@EAAPEAVAny@CORBA@@XZ
?get_any@omniNilDynAny@omni@@UEAAPEAVAny@CORBA@@XZ
?get_as_string@DynEnumImpl@omni@@UEAAPEADXZ
?get_as_string@DynUnionEnumDisc@omni@@UEAAPEADXZ
?get_as_string@omniNilDynEnum@omni@@UEAAPEADXZ
?get_as_ulong@DynEnumImpl@omni@@UEAAKXZ
?get_as_ulong@DynUnionEnumDisc@omni@@UEAAKXZ
?get_as_ulong@omniNilDynEnum@omni@@UEAAKXZ
?get_boolean@DynAnyConstrBase@omni@@$4PPPPPPPM@A@EAA_NXZ
?get_boolean@DynAnyConstrBase@omni@@$4PPPPPPPM@BA@EAA_NXZ
?get_boolean@DynAnyConstrBase@omni@@$4PPPPPPPM@BI@EAA_NXZ
?get_boolean@DynAnyConstrBase@omni@@$4PPPPPPPM@EI@EAA_NXZ
?get_boolean@DynAnyConstrBase@omni@@UEAA_NXZ
?get_boolean@DynAnyImpl@omni@@$4PPPPPPPM@7EAA_NXZ
?get_boolean@DynAnyImpl@omni@@$4PPPPPPPM@A@EAA_NXZ
?get_boolean@DynAnyImpl@omni@@$4PPPPPPPM@BA@EAA_NXZ
?get_boolean@DynAnyImpl@omni@@$4PPPPPPPM@BI@EAA_NXZ
?get_boolean@DynAnyImpl@omni@@UEAA_NXZ
?get_boolean@DynUnionImpl@omni@@$4PPPPPPPM@A@EAA_NXZ
?get_boolean@DynUnionImpl@omni@@UEAA_NXZ
?get_boolean@omniNilDynAny@omni@@$4PPPPPPPM@A@EAA_NXZ
?get_boolean@omniNilDynAny@omni@@UEAA_NXZ
?get_boolean_seq@DynAnyConstrBase@omni@@$4PPPPPPPM@A@EAAPEAVBooleanSeq@CORBA@@XZ
?get_boolean_seq@DynAnyConstrBase@omni@@$4PPPPPPPM@BA@EAAPEAVBooleanSeq@CORBA@@XZ
?get_boolean_seq@DynAnyConstrBase@omni@@$4PPPPPPPM@BI@EAAPEAVBooleanSeq@CORBA@@XZ
?get_boolean_seq@DynAnyConstrBase@omni@@$4PPPPPPPM@EI@EAAPEAVBooleanSeq@CORBA@@XZ
?get_boolean_seq@DynAnyConstrBase@omni@@UEAAPEAVBooleanSeq@CORBA@@XZ
?get_boolean_seq@DynAnyImpl@omni@@$4PPPPPPPM@7EAAPEAVBooleanSeq@CORBA@@XZ
?get_boolean_seq@DynAnyImpl@omni@@$4PPPPPPPM@A@EAAPEAVBooleanSeq@CORBA@@XZ
?get_boolean_seq@DynAnyImpl@omni@@$4PPPPPPPM@BA@EAAPEAVBooleanSeq@CORBA@@XZ
?get_boolean_seq@DynAnyImpl@omni@@$4PPPPPPPM@BI@EAAPEAVBooleanSeq@CORBA@@XZ
?get_boolean_seq@DynAnyImpl@omni@@UEAAPEAVBooleanSeq@CORBA@@XZ
?get_boolean_seq@DynUnionImpl@omni@@$4PPPPPPPM@A@EAAPEAVBooleanSeq@CORBA@@XZ
?get_boolean_seq@DynUnionImpl@omni@@UEAAPEAVBooleanSeq@CORBA@@XZ
?get_boolean_seq@omniNilDynAny@omni@@$4PPPPPPPM@A@EAAPEAVBooleanSeq@CORBA@@XZ
?get_boolean_seq@omniNilDynAny@omni@@UEAAPEAVBooleanSeq@CORBA@@XZ
?get_boxed_value@DynValueBoxImpl@omni@@UEAAPEAVAny@CORBA@@XZ
?get_boxed_value@omniNilDynValueBox@omni@@UEAAPEAVAny@CORBA@@XZ
?get_boxed_value_as_dyn_any@DynValueBoxImpl@omni@@UEAAPEAVDynAny@DynamicAny@@XZ
?get_boxed_value_as_dyn_any@omniNilDynValueBox@omni@@UEAAPEAVDynAny@DynamicAny@@XZ
?get_buffer@_CORBA_Sequence_String@@QEAAPEAPEAD_N@Z
?get_buffer@_CORBA_Sequence_String@@QEBAPEBQEBDXZ
?get_canonical_typecode@_objref_Repository@CORBA@@QEAAPEAVTypeCode@2@PEAV32@@Z
?get_char@DynAnyConstrBase@omni@@$4PPPPPPPM@A@EAAEXZ
?get_char@DynAnyConstrBase@omni@@$4PPPPPPPM@BA@EAAEXZ
?get_char@DynAnyConstrBase@omni@@$4PPPPPPPM@BI@EAAEXZ
?get_char@DynAnyConstrBase@omni@@$4PPPPPPPM@EI@EAAEXZ
?get_char@DynAnyConstrBase@omni@@UEAAEXZ
?get_char@DynAnyImpl@omni@@$4PPPPPPPM@7EAAEXZ
?get_char@DynAnyImpl@omni@@$4PPPPPPPM@A@EAAEXZ
?get_char@DynAnyImpl@omni@@$4PPPPPPPM@BA@EAAEXZ
?get_char@DynAnyImpl@omni@@$4PPPPPPPM@BI@EAAEXZ
?get_char@DynAnyImpl@omni@@UEAAEXZ
?get_char@DynUnionImpl@omni@@$4PPPPPPPM@A@EAAEXZ
?get_char@DynUnionImpl@omni@@UEAAEXZ
?get_char@omniNilDynAny@omni@@$4PPPPPPPM@A@EAAEXZ
?get_char@omniNilDynAny@omni@@UEAAEXZ
?get_char_seq@DynAnyConstrBase@omni@@$4PPPPPPPM@A@EAAPEAVCharSeq@CORBA@@XZ
?get_char_seq@DynAnyConstrBase@omni@@$4PPPPPPPM@BA@EAAPEAVCharSeq@CORBA@@XZ
?get_char_seq@DynAnyConstrBase@omni@@$4PPPPPPPM@BI@EAAPEAVCharSeq@CORBA@@XZ
?get_char_seq@DynAnyConstrBase@omni@@$4PPPPPPPM@EI@EAAPEAVCharSeq@CORBA@@XZ
?get_char_seq@DynAnyConstrBase@omni@@UEAAPEAVCharSeq@CORBA@@XZ
?get_char_seq@DynAnyImpl@omni@@$4PPPPPPPM@7EAAPEAVCharSeq@CORBA@@XZ
?get_char_seq@DynAnyImpl@omni@@$4PPPPPPPM@A@EAAPEAVCharSeq@CORBA@@XZ
?get_char_seq@DynAnyImpl@omni@@$4PPPPPPPM@BA@EAAPEAVCharSeq@CORBA@@XZ
?get_char_seq@DynAnyImpl@omni@@$4PPPPPPPM@BI@EAAPEAVCharSeq@CORBA@@XZ
?get_char_seq@DynAnyImpl@omni@@UEAAPEAVCharSeq@CORBA@@XZ
?get_char_seq@DynUnionImpl@omni@@$4PPPPPPPM@A@EAAPEAVCharSeq@CORBA@@XZ
?get_char_seq@DynUnionImpl@omni@@UEAAPEAVCharSeq@CORBA@@XZ
?get_char_seq@omniNilDynAny@omni@@$4PPPPPPPM@A@EAAPEAVCharSeq@CORBA@@XZ
?get_char_seq@omniNilDynAny@omni@@UEAAPEAVCharSeq@CORBA@@XZ
?get_compact_typecode@TypeCode@CORBA@@QEBAPEAV12@XZ
?get_default_context@ORB@CORBA@@QEAAXV?$_CORBA_PseudoObj_Out@VContext@CORBA@@V?$_CORBA_PseudoObj_Var@VContext@CORBA@@@@@@@Z
?get_discriminator@DynUnionImpl@omni@@UEAAPEAVDynAny@DynamicAny@@XZ
?get_discriminator@omniNilDynUnion@omni@@UEAAPEAVDynAny@DynamicAny@@XZ
?get_double@DynAnyConstrBase@omni@@$4PPPPPPPM@A@EAANXZ
?get_double@DynAnyConstrBase@omni@@$4PPPPPPPM@BA@EAANXZ
?get_double@DynAnyConstrBase@omni@@$4PPPPPPPM@BI@EAANXZ
?get_double@DynAnyConstrBase@omni@@$4PPPPPPPM@EI@EAANXZ
?get_double@DynAnyConstrBase@omni@@UEAANXZ
?get_double@DynAnyImpl@omni@@$4PPPPPPPM@7EAANXZ
?get_double@DynAnyImpl@omni@@$4PPPPPPPM@A@EAANXZ
?get_double@DynAnyImpl@omni@@$4PPPPPPPM@BA@EAANXZ
?get_double@DynAnyImpl@omni@@$4PPPPPPPM@BI@EAANXZ
?get_double@DynAnyImpl@omni@@UEAANXZ
?get_double@DynUnionImpl@omni@@$4PPPPPPPM@A@EAANXZ
?get_double@DynUnionImpl@omni@@UEAANXZ
?get_double@omniNilDynAny@omni@@$4PPPPPPPM@A@EAANXZ
?get_double@omniNilDynAny@omni@@UEAANXZ
?get_double_seq@DynAnyConstrBase@omni@@$4PPPPPPPM@A@EAAPEAVDoubleSeq@CORBA@@XZ
?get_double_seq@DynAnyConstrBase@omni@@$4PPPPPPPM@BA@EAAPEAVDoubleSeq@CORBA@@XZ
?get_double_seq@DynAnyConstrBase@omni@@$4PPPPPPPM@BI@EAAPEAVDoubleSeq@CORBA@@XZ
?get_double_seq@DynAnyConstrBase@omni@@$4PPPPPPPM@EI@EAAPEAVDoubleSeq@CORBA@@XZ
?get_double_seq@DynAnyConstrBase@omni@@UEAAPEAVDoubleSeq@CORBA@@XZ
?get_double_seq@DynAnyImpl@omni@@$4PPPPPPPM@7EAAPEAVDoubleSeq@CORBA@@XZ
?get_double_seq@DynAnyImpl@omni@@$4PPPPPPPM@A@EAAPEAVDoubleSeq@CORBA@@XZ
?get_double_seq@DynAnyImpl@omni@@$4PPPPPPPM@BA@EAAPEAVDoubleSeq@CORBA@@XZ
?get_double_seq@DynAnyImpl@omni@@$4PPPPPPPM@BI@EAAPEAVDoubleSeq@CORBA@@XZ
?get_double_seq@DynAnyImpl@omni@@UEAAPEAVDoubleSeq@CORBA@@XZ
?get_double_seq@DynUnionImpl@omni@@$4PPPPPPPM@A@EAAPEAVDoubleSeq@CORBA@@XZ
?get_double_seq@DynUnionImpl@omni@@UEAAPEAVDoubleSeq@CORBA@@XZ
?get_double_seq@omniNilDynAny@omni@@$4PPPPPPPM@A@EAAPEAVDoubleSeq@CORBA@@XZ
?get_double_seq@omniNilDynAny@omni@@UEAAPEAVDoubleSeq@CORBA@@XZ
?get_dyn_any@DynAnyConstrBase@omni@@$4PPPPPPPM@A@EAAPEAVDynAny@DynamicAny@@XZ
?get_dyn_any@DynAnyConstrBase@omni@@$4PPPPPPPM@BA@EAAPEAVDynAny@DynamicAny@@XZ
?get_dyn_any@DynAnyConstrBase@omni@@$4PPPPPPPM@BI@EAAPEAVDynAny@DynamicAny@@XZ
?get_dyn_any@DynAnyConstrBase@omni@@$4PPPPPPPM@EI@EAAPEAVDynAny@DynamicAny@@XZ
?get_dyn_any@DynAnyConstrBase@omni@@UEAAPEAVDynAny@DynamicAny@@XZ
?get_dyn_any@DynAnyImpl@omni@@$4PPPPPPPM@7EAAPEAVDynAny@DynamicAny@@XZ
?get_dyn_any@DynAnyImpl@omni@@$4PPPPPPPM@A@EAAPEAVDynAny@DynamicAny@@XZ
?get_dyn_any@DynAnyImpl@omni@@$4PPPPPPPM@BA@EAAPEAVDynAny@DynamicAny@@XZ
?get_dyn_any@DynAnyImpl@omni@@$4PPPPPPPM@BI@EAAPEAVDynAny@DynamicAny@@XZ
?get_dyn_any@DynAnyImpl@omni@@UEAAPEAVDynAny@DynamicAny@@XZ
?get_dyn_any@DynUnionImpl@omni@@$4PPPPPPPM@A@EAAPEAVDynAny@DynamicAny@@XZ
?get_dyn_any@DynUnionImpl@omni@@UEAAPEAVDynAny@DynamicAny@@XZ
?get_dyn_any@omniNilDynAny@omni@@$4PPPPPPPM@A@EAAPEAVDynAny@DynamicAny@@XZ
?get_dyn_any@omniNilDynAny@omni@@UEAAPEAVDynAny@DynamicAny@@XZ
?get_elements@DynArrayImpl@omni@@UEAAPEAVAnySeq@DynamicAny@@XZ
?get_elements@DynSequenceImpl@omni@@UEAAPEAVAnySeq@DynamicAny@@XZ
?get_elements@omniNilDynArray@omni@@UEAAPEAVAnySeq@DynamicAny@@XZ
?get_elements@omniNilDynSequence@omni@@UEAAPEAVAnySeq@DynamicAny@@XZ
?get_elements_as_dyn_any@DynArrayImpl@omni@@UEAAPEAVDynAnySeq@DynamicAny@@XZ
?get_elements_as_dyn_any@DynSequenceImpl@omni@@UEAAPEAVDynAnySeq@DynamicAny@@XZ
?get_elements_as_dyn_any@omniNilDynArray@omni@@UEAAPEAVDynAnySeq@DynamicAny@@XZ
?get_elements_as_dyn_any@omniNilDynSequence@omni@@UEAAPEAVDynAnySeq@DynamicAny@@XZ
?get_float@DynAnyConstrBase@omni@@$4PPPPPPPM@A@EAAMXZ
?get_float@DynAnyConstrBase@omni@@$4PPPPPPPM@BA@EAAMXZ
?get_float@DynAnyConstrBase@omni@@$4PPPPPPPM@BI@EAAMXZ
?get_float@DynAnyConstrBase@omni@@$4PPPPPPPM@EI@EAAMXZ
?get_float@DynAnyConstrBase@omni@@UEAAMXZ
?get_float@DynAnyImpl@omni@@$4PPPPPPPM@7EAAMXZ
?get_float@DynAnyImpl@omni@@$4PPPPPPPM@A@EAAMXZ
?get_float@DynAnyImpl@omni@@$4PPPPPPPM@BA@EAAMXZ
?get_float@DynAnyImpl@omni@@$4PPPPPPPM@BI@EAAMXZ
?get_float@DynAnyImpl@omni@@UEAAMXZ
?get_float@DynUnionImpl@omni@@$4PPPPPPPM@A@EAAMXZ
?get_float@DynUnionImpl@omni@@UEAAMXZ
?get_float@omniNilDynAny@omni@@$4PPPPPPPM@A@EAAMXZ
?get_float@omniNilDynAny@omni@@UEAAMXZ
?get_float_seq@DynAnyConstrBase@omni@@$4PPPPPPPM@A@EAAPEAVFloatSeq@CORBA@@XZ
?get_float_seq@DynAnyConstrBase@omni@@$4PPPPPPPM@BA@EAAPEAVFloatSeq@CORBA@@XZ
?get_float_seq@DynAnyConstrBase@omni@@$4PPPPPPPM@BI@EAAPEAVFloatSeq@CORBA@@XZ
?get_float_seq@DynAnyConstrBase@omni@@$4PPPPPPPM@EI@EAAPEAVFloatSeq@CORBA@@XZ
?get_float_seq@DynAnyConstrBase@omni@@UEAAPEAVFloatSeq@CORBA@@XZ
?get_float_seq@DynAnyImpl@omni@@$4PPPPPPPM@7EAAPEAVFloatSeq@CORBA@@XZ
?get_float_seq@DynAnyImpl@omni@@$4PPPPPPPM@A@EAAPEAVFloatSeq@CORBA@@XZ
?get_float_seq@DynAnyImpl@omni@@$4PPPPPPPM@BA@EAAPEAVFloatSeq@CORBA@@XZ
?get_float_seq@DynAnyImpl@omni@@$4PPPPPPPM@BI@EAAPEAVFloatSeq@CORBA@@XZ
?get_float_seq@DynAnyImpl@omni@@UEAAPEAVFloatSeq@CORBA@@XZ
?get_float_seq@DynUnionImpl@omni@@$4PPPPPPPM@A@EAAPEAVFloatSeq@CORBA@@XZ
?get_float_seq@DynUnionImpl@omni@@UEAAPEAVFloatSeq@CORBA@@XZ
?get_float_seq@omniNilDynAny@omni@@$4PPPPPPPM@A@EAAPEAVFloatSeq@CORBA@@XZ
?get_float_seq@omniNilDynAny@omni@@UEAAPEAVFloatSeq@CORBA@@XZ
?get_large_octet_array@cdrStream@@QEAAXPEAE_KW4alignment_t@omni@@@Z
?get_length@DynSequenceImpl@omni@@UEAAKXZ
?get_length@omniNilDynSequence@omni@@UEAAKXZ
?get_long@DynAnyConstrBase@omni@@$4PPPPPPPM@A@EAAJXZ
?get_long@DynAnyConstrBase@omni@@$4PPPPPPPM@BA@EAAJXZ
?get_long@DynAnyConstrBase@omni@@$4PPPPPPPM@BI@EAAJXZ
?get_long@DynAnyConstrBase@omni@@$4PPPPPPPM@EI@EAAJXZ
?get_long@DynAnyConstrBase@omni@@UEAAJXZ
?get_long@DynAnyImpl@omni@@$4PPPPPPPM@7EAAJXZ
?get_long@DynAnyImpl@omni@@$4PPPPPPPM@A@EAAJXZ
?get_long@DynAnyImpl@omni@@$4PPPPPPPM@BA@EAAJXZ
?get_long@DynAnyImpl@omni@@$4PPPPPPPM@BI@EAAJXZ
?get_long@DynAnyImpl@omni@@UEAAJXZ
?get_long@DynUnionImpl@omni@@$4PPPPPPPM@A@EAAJXZ
?get_long@DynUnionImpl@omni@@UEAAJXZ
?get_long@omniNilDynAny@omni@@$4PPPPPPPM@A@EAAJXZ
?get_long@omniNilDynAny@omni@@UEAAJXZ
?get_long_seq@DynAnyConstrBase@omni@@$4PPPPPPPM@A@EAAPEAVLongSeq@CORBA@@XZ
?get_long_seq@DynAnyConstrBase@omni@@$4PPPPPPPM@BA@EAAPEAVLongSeq@CORBA@@XZ
?get_long_seq@DynAnyConstrBase@omni@@$4PPPPPPPM@BI@EAAPEAVLongSeq@CORBA@@XZ
?get_long_seq@DynAnyConstrBase@omni@@$4PPPPPPPM@EI@EAAPEAVLongSeq@CORBA@@XZ
?get_long_seq@DynAnyConstrBase@omni@@UEAAPEAVLongSeq@CORBA@@XZ
?get_long_seq@DynAnyImpl@omni@@$4PPPPPPPM@7EAAPEAVLongSeq@CORBA@@XZ
?get_long_seq@DynAnyImpl@omni@@$4PPPPPPPM@A@EAAPEAVLongSeq@CORBA@@XZ
?get_long_seq@DynAnyImpl@omni@@$4PPPPPPPM@BA@EAAPEAVLongSeq@CORBA@@XZ
?get_long_seq@DynAnyImpl@omni@@$4PPPPPPPM@BI@EAAPEAVLongSeq@CORBA@@XZ
?get_long_seq@DynAnyImpl@omni@@UEAAPEAVLongSeq@CORBA@@XZ
?get_long_seq@DynUnionImpl@omni@@$4PPPPPPPM@A@EAAPEAVLongSeq@CORBA@@XZ
?get_long_seq@DynUnionImpl@omni@@UEAAPEAVLongSeq@CORBA@@XZ
?get_long_seq@omniNilDynAny@omni@@$4PPPPPPPM@A@EAAPEAVLongSeq@CORBA@@XZ
?get_long_seq@omniNilDynAny@omni@@UEAAPEAVLongSeq@CORBA@@XZ
?get_longlong@DynAnyConstrBase@omni@@$4PPPPPPPM@A@EAA_JXZ
?get_longlong@DynAnyConstrBase@omni@@$4PPPPPPPM@BA@EAA_JXZ
?get_longlong@DynAnyConstrBase@omni@@$4PPPPPPPM@BI@EAA_JXZ
?get_longlong@DynAnyConstrBase@omni@@$4PPPPPPPM@EI@EAA_JXZ
?get_longlong@DynAnyConstrBase@omni@@UEAA_JXZ
?get_longlong@DynAnyImpl@omni@@$4PPPPPPPM@7EAA_JXZ
?get_longlong@DynAnyImpl@omni@@$4PPPPPPPM@A@EAA_JXZ
?get_longlong@DynAnyImpl@omni@@$4PPPPPPPM@BA@EAA_JXZ
?get_longlong@DynAnyImpl@omni@@$4PPPPPPPM@BI@EAA_JXZ
?get_longlong@DynAnyImpl@omni@@UEAA_JXZ
?get_longlong@DynUnionImpl@omni@@$4PPPPPPPM@A@EAA_JXZ
?get_longlong@DynUnionImpl@omni@@UEAA_JXZ
?get_longlong@omniNilDynAny@omni@@$4PPPPPPPM@A@EAA_JXZ
?get_longlong@omniNilDynAny@omni@@UEAA_JXZ
?get_longlong_seq@DynAnyConstrBase@omni@@$4PPPPPPPM@A@EAAPEAVLongLongSeq@CORBA@@XZ
?get_longlong_seq@DynAnyConstrBase@omni@@$4PPPPPPPM@BA@EAAPEAVLongLongSeq@CORBA@@XZ
?get_longlong_seq@DynAnyConstrBase@omni@@$4PPPPPPPM@BI@EAAPEAVLongLongSeq@CORBA@@XZ
?get_longlong_seq@DynAnyConstrBase@omni@@$4PPPPPPPM@EI@EAAPEAVLongLongSeq@CORBA@@XZ
?get_longlong_seq@DynAnyConstrBase@omni@@UEAAPEAVLongLongSeq@CORBA@@XZ
?get_longlong_seq@DynAnyImpl@omni@@$4PPPPPPPM@7EAAPEAVLongLongSeq@CORBA@@XZ
?get_longlong_seq@DynAnyImpl@omni@@$4PPPPPPPM@A@EAAPEAVLongLongSeq@CORBA@@XZ
?get_longlong_seq@DynAnyImpl@omni@@$4PPPPPPPM@BA@EAAPEAVLongLongSeq@CORBA@@XZ
?get_longlong_seq@DynAnyImpl@omni@@$4PPPPPPPM@BI@EAAPEAVLongLongSeq@CORBA@@XZ
?get_longlong_seq@DynAnyImpl@omni@@UEAAPEAVLongLongSeq@CORBA@@XZ
?get_longlong_seq@DynUnionImpl@omni@@$4PPPPPPPM@A@EAAPEAVLongLongSeq@CORBA@@XZ
?get_longlong_seq@DynUnionImpl@omni@@UEAAPEAVLongLongSeq@CORBA@@XZ
?get_longlong_seq@omniNilDynAny@omni@@$4PPPPPPPM@A@EAAPEAVLongLongSeq@CORBA@@XZ
?get_longlong_seq@omniNilDynAny@omni@@UEAAPEAVLongLongSeq@CORBA@@XZ
?get_members@DynStructImpl@omni@@UEAAPEAVNameValuePairSeq@DynamicAny@@XZ
?get_members@DynValueImpl@omni@@UEAAPEAVNameValuePairSeq@DynamicAny@@XZ
?get_members@omniNilDynStruct@omni@@UEAAPEAVNameValuePairSeq@DynamicAny@@XZ
?get_members@omniNilDynValue@omni@@UEAAPEAVNameValuePairSeq@DynamicAny@@XZ
?get_members_as_dyn_any@DynStructImpl@omni@@UEAAPEAVNameDynAnyPairSeq@DynamicAny@@XZ
?get_members_as_dyn_any@DynValueImpl@omni@@UEAAPEAVNameDynAnyPairSeq@DynamicAny@@XZ
?get_members_as_dyn_any@omniNilDynStruct@omni@@UEAAPEAVNameDynAnyPairSeq@DynamicAny@@XZ
?get_members_as_dyn_any@omniNilDynValue@omni@@UEAAPEAVNameDynAnyPairSeq@DynamicAny@@XZ
?get_next_response@ORB@CORBA@@QEAAXV?$_CORBA_PseudoObj_Out@VRequest@CORBA@@V?$_CORBA_PseudoObj_Var@VRequest@CORBA@@@@@@@Z
?get_octet@DynAnyConstrBase@omni@@$4PPPPPPPM@A@EAAEXZ
?get_octet@DynAnyConstrBase@omni@@$4PPPPPPPM@BA@EAAEXZ
?get_octet@DynAnyConstrBase@omni@@$4PPPPPPPM@BI@EAAEXZ
?get_octet@DynAnyConstrBase@omni@@$4PPPPPPPM@EI@EAAEXZ
?get_octet@DynAnyConstrBase@omni@@UEAAEXZ
?get_octet@DynAnyImpl@omni@@$4PPPPPPPM@7EAAEXZ
?get_octet@DynAnyImpl@omni@@$4PPPPPPPM@A@EAAEXZ
?get_octet@DynAnyImpl@omni@@$4PPPPPPPM@BA@EAAEXZ
?get_octet@DynAnyImpl@omni@@$4PPPPPPPM@BI@EAAEXZ
?get_octet@DynAnyImpl@omni@@UEAAEXZ
?get_octet@DynUnionImpl@omni@@$4PPPPPPPM@A@EAAEXZ
?get_octet@DynUnionImpl@omni@@UEAAEXZ
?get_octet@omniNilDynAny@omni@@$4PPPPPPPM@A@EAAEXZ
?get_octet@omniNilDynAny@omni@@UEAAEXZ
?get_octet_seq@DynAnyConstrBase@omni@@$4PPPPPPPM@A@EAAPEAVOctetSeq@CORBA@@XZ
?get_octet_seq@DynAnyConstrBase@omni@@$4PPPPPPPM@BA@EAAPEAVOctetSeq@CORBA@@XZ
?get_octet_seq@DynAnyConstrBase@omni@@$4PPPPPPPM@BI@EAAPEAVOctetSeq@CORBA@@XZ
?get_octet_seq@DynAnyConstrBase@omni@@$4PPPPPPPM@EI@EAAPEAVOctetSeq@CORBA@@XZ
?get_octet_seq@DynAnyConstrBase@omni@@UEAAPEAVOctetSeq@CORBA@@XZ
?get_octet_seq@DynAnyImpl@omni@@$4PPPPPPPM@7EAAPEAVOctetSeq@CORBA@@XZ
?get_octet_seq@DynAnyImpl@omni@@$4PPPPPPPM@A@EAAPEAVOctetSeq@CORBA@@XZ
?get_octet_seq@DynAnyImpl@omni@@$4PPPPPPPM@BA@EAAPEAVOctetSeq@CORBA@@XZ
?get_octet_seq@DynAnyImpl@omni@@$4PPPPPPPM@BI@EAAPEAVOctetSeq@CORBA@@XZ
?get_octet_seq@DynAnyImpl@omni@@UEAAPEAVOctetSeq@CORBA@@XZ
?get_octet_seq@DynUnionImpl@omni@@$4PPPPPPPM@A@EAAPEAVOctetSeq@CORBA@@XZ
?get_octet_seq@DynUnionImpl@omni@@UEAAPEAVOctetSeq@CORBA@@XZ
?get_octet_seq@omniNilDynAny@omni@@$4PPPPPPPM@A@EAAPEAVOctetSeq@CORBA@@XZ
?get_octet_seq@omniNilDynAny@omni@@UEAAPEAVOctetSeq@CORBA@@XZ
?get_primitive@_objref_Repository@CORBA@@QEAAPEAV_objref_PrimitiveDef@2@W4PrimitiveKind@2@@Z
?get_ready_pollable@PollableSetImpl@omniAMI@@$4PPPPPPPM@A@EAAPEAVPollable@CORBA@@K@Z
?get_ready_pollable@PollableSetImpl@omniAMI@@UEAAPEAVPollable@CORBA@@K@Z
?get_ready_pollable@_nil_PollableSet@CORBA@@$4PPPPPPPM@A@EAAPEAVPollable@2@K@Z
?get_ready_pollable@_nil_PollableSet@CORBA@@UEAAPEAVPollable@2@K@Z
?get_reference@DynAnyConstrBase@omni@@$4PPPPPPPM@A@EAAPEAVObject@CORBA@@XZ
?get_reference@DynAnyConstrBase@omni@@$4PPPPPPPM@BA@EAAPEAVObject@CORBA@@XZ
?get_reference@DynAnyConstrBase@omni@@$4PPPPPPPM@BI@EAAPEAVObject@CORBA@@XZ
?get_reference@DynAnyConstrBase@omni@@$4PPPPPPPM@EI@EAAPEAVObject@CORBA@@XZ
?get_reference@DynAnyConstrBase@omni@@UEAAPEAVObject@CORBA@@XZ
?get_reference@DynAnyImpl@omni@@$4PPPPPPPM@7EAAPEAVObject@CORBA@@XZ
?get_reference@DynAnyImpl@omni@@$4PPPPPPPM@A@EAAPEAVObject@CORBA@@XZ
?get_reference@DynAnyImpl@omni@@$4PPPPPPPM@BA@EAAPEAVObject@CORBA@@XZ
?get_reference@DynAnyImpl@omni@@$4PPPPPPPM@BI@EAAPEAVObject@CORBA@@XZ
?get_reference@DynAnyImpl@omni@@UEAAPEAVObject@CORBA@@XZ
?get_reference@DynUnionImpl@omni@@$4PPPPPPPM@A@EAAPEAVObject@CORBA@@XZ
?get_reference@DynUnionImpl@omni@@UEAAPEAVObject@CORBA@@XZ
?get_reference@omniNilDynAny@omni@@$4PPPPPPPM@A@EAAPEAVObject@CORBA@@XZ
?get_reference@omniNilDynAny@omni@@UEAAPEAVObject@CORBA@@XZ
?get_response@RequestImpl@omni@@UEAAXXZ
?get_response@omniNilRequest@omni@@UEAAXXZ
?get_short@DynAnyConstrBase@omni@@$4PPPPPPPM@A@EAAFXZ
?get_short@DynAnyConstrBase@omni@@$4PPPPPPPM@BA@EAAFXZ
?get_short@DynAnyConstrBase@omni@@$4PPPPPPPM@BI@EAAFXZ
?get_short@DynAnyConstrBase@omni@@$4PPPPPPPM@EI@EAAFXZ
?get_short@DynAnyConstrBase@omni@@UEAAFXZ
?get_short@DynAnyImpl@omni@@$4PPPPPPPM@7EAAFXZ
?get_short@DynAnyImpl@omni@@$4PPPPPPPM@A@EAAFXZ
?get_short@DynAnyImpl@omni@@$4PPPPPPPM@BA@EAAFXZ
?get_short@DynAnyImpl@omni@@$4PPPPPPPM@BI@EAAFXZ
?get_short@DynAnyImpl@omni@@UEAAFXZ
?get_short@DynUnionImpl@omni@@$4PPPPPPPM@A@EAAFXZ
?get_short@DynUnionImpl@omni@@UEAAFXZ
?get_short@omniNilDynAny@omni@@$4PPPPPPPM@A@EAAFXZ
?get_short@omniNilDynAny@omni@@UEAAFXZ
?get_short_seq@DynAnyConstrBase@omni@@$4PPPPPPPM@A@EAAPEAVShortSeq@CORBA@@XZ
?get_short_seq@DynAnyConstrBase@omni@@$4PPPPPPPM@BA@EAAPEAVShortSeq@CORBA@@XZ
?get_short_seq@DynAnyConstrBase@omni@@$4PPPPPPPM@BI@EAAPEAVShortSeq@CORBA@@XZ
?get_short_seq@DynAnyConstrBase@omni@@$4PPPPPPPM@EI@EAAPEAVShortSeq@CORBA@@XZ
?get_short_seq@DynAnyConstrBase@omni@@UEAAPEAVShortSeq@CORBA@@XZ
?get_short_seq@DynAnyImpl@omni@@$4PPPPPPPM@7EAAPEAVShortSeq@CORBA@@XZ
?get_short_seq@DynAnyImpl@omni@@$4PPPPPPPM@A@EAAPEAVShortSeq@CORBA@@XZ
?get_short_seq@DynAnyImpl@omni@@$4PPPPPPPM@BA@EAAPEAVShortSeq@CORBA@@XZ
?get_short_seq@DynAnyImpl@omni@@$4PPPPPPPM@BI@EAAPEAVShortSeq@CORBA@@XZ
?get_short_seq@DynAnyImpl@omni@@UEAAPEAVShortSeq@CORBA@@XZ
?get_short_seq@DynUnionImpl@omni@@$4PPPPPPPM@A@EAAPEAVShortSeq@CORBA@@XZ
?get_short_seq@DynUnionImpl@omni@@UEAAPEAVShortSeq@CORBA@@XZ
?get_short_seq@omniNilDynAny@omni@@$4PPPPPPPM@A@EAAPEAVShortSeq@CORBA@@XZ
?get_short_seq@omniNilDynAny@omni@@UEAAPEAVShortSeq@CORBA@@XZ
?get_string@DynAnyConstrBase@omni@@$4PPPPPPPM@A@EAAPEADXZ
?get_string@DynAnyConstrBase@omni@@$4PPPPPPPM@BA@EAAPEADXZ
?get_string@DynAnyConstrBase@omni@@$4PPPPPPPM@BI@EAAPEADXZ
?get_string@DynAnyConstrBase@omni@@$4PPPPPPPM@EI@EAAPEADXZ
?get_string@DynAnyConstrBase@omni@@UEAAPEADXZ
?get_string@DynAnyImpl@omni@@$4PPPPPPPM@7EAAPEADXZ
?get_string@DynAnyImpl@omni@@$4PPPPPPPM@A@EAAPEADXZ
?get_string@DynAnyImpl@omni@@$4PPPPPPPM@BA@EAAPEADXZ
?get_string@DynAnyImpl@omni@@$4PPPPPPPM@BI@EAAPEADXZ
?get_string@DynAnyImpl@omni@@UEAAPEADXZ
?get_string@DynUnionImpl@omni@@$4PPPPPPPM@A@EAAPEADXZ
?get_string@DynUnionImpl@omni@@UEAAPEADXZ
?get_string@omniNilDynAny@omni@@$4PPPPPPPM@A@EAAPEADXZ
?get_string@omniNilDynAny@omni@@UEAAPEADXZ
?get_time@omni_thread@@SAXAEAUomni_time_t@@@Z
?get_time@omni_thread@@SAXAEAUomni_time_t@@AEBU2@@Z
?get_typecode@DynAnyConstrBase@omni@@$4PPPPPPPM@A@EAAPEAVTypeCode@CORBA@@XZ
?get_typecode@DynAnyConstrBase@omni@@$4PPPPPPPM@BA@EAAPEAVTypeCode@CORBA@@XZ
?get_typecode@DynAnyConstrBase@omni@@$4PPPPPPPM@BI@EAAPEAVTypeCode@CORBA@@XZ
?get_typecode@DynAnyConstrBase@omni@@$4PPPPPPPM@EI@EAAPEAVTypeCode@CORBA@@XZ
?get_typecode@DynAnyConstrBase@omni@@UEAAPEAVTypeCode@CORBA@@XZ
?get_typecode@DynAnyImpl@omni@@$4PPPPPPPM@7EAAPEAVTypeCode@CORBA@@XZ
?get_typecode@DynAnyImpl@omni@@$4PPPPPPPM@A@EAAPEAVTypeCode@CORBA@@XZ
?get_typecode@DynAnyImpl@omni@@$4PPPPPPPM@BA@EAAPEAVTypeCode@CORBA@@XZ
?get_typecode@DynAnyImpl@omni@@$4PPPPPPPM@BI@EAAPEAVTypeCode@CORBA@@XZ
?get_typecode@DynAnyImpl@omni@@UEAAPEAVTypeCode@CORBA@@XZ
?get_typecode@DynUnionImpl@omni@@$4PPPPPPPM@A@EAAPEAVTypeCode@CORBA@@XZ
?get_typecode@DynUnionImpl@omni@@UEAAPEAVTypeCode@CORBA@@XZ
?get_typecode@omniNilDynAny@omni@@$4PPPPPPPM@A@EAAPEAVTypeCode@CORBA@@XZ
?get_typecode@omniNilDynAny@omni@@UEAAPEAVTypeCode@CORBA@@XZ
?get_ulong@DynAnyConstrBase@omni@@$4PPPPPPPM@A@EAAKXZ
?get_ulong@DynAnyConstrBase@omni@@$4PPPPPPPM@BA@EAAKXZ
?get_ulong@DynAnyConstrBase@omni@@$4PPPPPPPM@BI@EAAKXZ
?get_ulong@DynAnyConstrBase@omni@@$4PPPPPPPM@EI@EAAKXZ
?get_ulong@DynAnyConstrBase@omni@@UEAAKXZ
?get_ulong@DynAnyImpl@omni@@$4PPPPPPPM@7EAAKXZ
?get_ulong@DynAnyImpl@omni@@$4PPPPPPPM@A@EAAKXZ
?get_ulong@DynAnyImpl@omni@@$4PPPPPPPM@BA@EAAKXZ
?get_ulong@DynAnyImpl@omni@@$4PPPPPPPM@BI@EAAKXZ
?get_ulong@DynAnyImpl@omni@@UEAAKXZ
?get_ulong@DynUnionImpl@omni@@$4PPPPPPPM@A@EAAKXZ
?get_ulong@DynUnionImpl@omni@@UEAAKXZ
?get_ulong@omniNilDynAny@omni@@$4PPPPPPPM@A@EAAKXZ
?get_ulong@omniNilDynAny@omni@@UEAAKXZ
?get_ulong_seq@DynAnyConstrBase@omni@@$4PPPPPPPM@A@EAAPEAVULongSeq@CORBA@@XZ
?get_ulong_seq@DynAnyConstrBase@omni@@$4PPPPPPPM@BA@EAAPEAVULongSeq@CORBA@@XZ
?get_ulong_seq@DynAnyConstrBase@omni@@$4PPPPPPPM@BI@EAAPEAVULongSeq@CORBA@@XZ
?get_ulong_seq@DynAnyConstrBase@omni@@$4PPPPPPPM@EI@EAAPEAVULongSeq@CORBA@@XZ
?get_ulong_seq@DynAnyConstrBase@omni@@UEAAPEAVULongSeq@CORBA@@XZ
?get_ulong_seq@DynAnyImpl@omni@@$4PPPPPPPM@7EAAPEAVULongSeq@CORBA@@XZ
?get_ulong_seq@DynAnyImpl@omni@@$4PPPPPPPM@A@EAAPEAVULongSeq@CORBA@@XZ
?get_ulong_seq@DynAnyImpl@omni@@$4PPPPPPPM@BA@EAAPEAVULongSeq@CORBA@@XZ
?get_ulong_seq@DynAnyImpl@omni@@$4PPPPPPPM@BI@EAAPEAVULongSeq@CORBA@@XZ
?get_ulong_seq@DynAnyImpl@omni@@UEAAPEAVULongSeq@CORBA@@XZ
?get_ulong_seq@DynUnionImpl@omni@@$4PPPPPPPM@A@EAAPEAVULongSeq@CORBA@@XZ
?get_ulong_seq@DynUnionImpl@omni@@UEAAPEAVULongSeq@CORBA@@XZ
?get_ulong_seq@omniNilDynAny@omni@@$4PPPPPPPM@A@EAAPEAVULongSeq@CORBA@@XZ
?get_ulong_seq@omniNilDynAny@omni@@UEAAPEAVULongSeq@CORBA@@XZ
?get_ulonglong@DynAnyConstrBase@omni@@$4PPPPPPPM@A@EAA_KXZ
?get_ulonglong@DynAnyConstrBase@omni@@$4PPPPPPPM@BA@EAA_KXZ
?get_ulonglong@DynAnyConstrBase@omni@@$4PPPPPPPM@BI@EAA_KXZ
?get_ulonglong@DynAnyConstrBase@omni@@$4PPPPPPPM@EI@EAA_KXZ
?get_ulonglong@DynAnyConstrBase@omni@@UEAA_KXZ
?get_ulonglong@DynAnyImpl@omni@@$4PPPPPPPM@7EAA_KXZ
?get_ulonglong@DynAnyImpl@omni@@$4PPPPPPPM@A@EAA_KXZ
?get_ulonglong@DynAnyImpl@omni@@$4PPPPPPPM@BA@EAA_KXZ
?get_ulonglong@DynAnyImpl@omni@@$4PPPPPPPM@BI@EAA_KXZ
?get_ulonglong@DynAnyImpl@omni@@UEAA_KXZ
?get_ulonglong@DynUnionImpl@omni@@$4PPPPPPPM@A@EAA_KXZ
?get_ulonglong@DynUnionImpl@omni@@UEAA_KXZ
?get_ulonglong@omniNilDynAny@omni@@$4PPPPPPPM@A@EAA_KXZ
?get_ulonglong@omniNilDynAny@omni@@UEAA_KXZ
?get_ulonglong_seq@DynAnyConstrBase@omni@@$4PPPPPPPM@A@EAAPEAVULongLongSeq@CORBA@@XZ
?get_ulonglong_seq@DynAnyConstrBase@omni@@$4PPPPPPPM@BA@EAAPEAVULongLongSeq@CORBA@@XZ
?get_ulonglong_seq@DynAnyConstrBase@omni@@$4PPPPPPPM@BI@EAAPEAVULongLongSeq@CORBA@@XZ
?get_ulonglong_seq@DynAnyConstrBase@omni@@$4PPPPPPPM@EI@EAAPEAVULongLongSeq@CORBA@@XZ
?get_ulonglong_seq@DynAnyConstrBase@omni@@UEAAPEAVULongLongSeq@CORBA@@XZ
?get_ulonglong_seq@DynAnyImpl@omni@@$4PPPPPPPM@7EAAPEAVULongLongSeq@CORBA@@XZ
?get_ulonglong_seq@DynAnyImpl@omni@@$4PPPPPPPM@A@EAAPEAVULongLongSeq@CORBA@@XZ
?get_ulonglong_seq@DynAnyImpl@omni@@$4PPPPPPPM@BA@EAAPEAVULongLongSeq@CORBA@@XZ
?get_ulonglong_seq@DynAnyImpl@omni@@$4PPPPPPPM@BI@EAAPEAVULongLongSeq@CORBA@@XZ
?get_ulonglong_seq@DynAnyImpl@omni@@UEAAPEAVULongLongSeq@CORBA@@XZ
?get_ulonglong_seq@DynUnionImpl@omni@@$4PPPPPPPM@A@EAAPEAVULongLongSeq@CORBA@@XZ
?get_ulonglong_seq@DynUnionImpl@omni@@UEAAPEAVULongLongSeq@CORBA@@XZ
?get_ulonglong_seq@omniNilDynAny@omni@@$4PPPPPPPM@A@EAAPEAVULongLongSeq@CORBA@@XZ
?get_ulonglong_seq@omniNilDynAny@omni@@UEAAPEAVULongLongSeq@CORBA@@XZ
?get_ushort@DynAnyConstrBase@omni@@$4PPPPPPPM@A@EAAGXZ
?get_ushort@DynAnyConstrBase@omni@@$4PPPPPPPM@BA@EAAGXZ
?get_ushort@DynAnyConstrBase@omni@@$4PPPPPPPM@BI@EAAGXZ
?get_ushort@DynAnyConstrBase@omni@@$4PPPPPPPM@EI@EAAGXZ
?get_ushort@DynAnyConstrBase@omni@@UEAAGXZ
?get_ushort@DynAnyImpl@omni@@$4PPPPPPPM@7EAAGXZ
?get_ushort@DynAnyImpl@omni@@$4PPPPPPPM@A@EAAGXZ
?get_ushort@DynAnyImpl@omni@@$4PPPPPPPM@BA@EAAGXZ
?get_ushort@DynAnyImpl@omni@@$4PPPPPPPM@BI@EAAGXZ
?get_ushort@DynAnyImpl@omni@@UEAAGXZ
?get_ushort@DynUnionImpl@omni@@$4PPPPPPPM@A@EAAGXZ
?get_ushort@DynUnionImpl@omni@@UEAAGXZ
?get_ushort@omniNilDynAny@omni@@$4PPPPPPPM@A@EAAGXZ
?get_ushort@omniNilDynAny@omni@@UEAAGXZ
?get_ushort_seq@DynAnyConstrBase@omni@@$4PPPPPPPM@A@EAAPEAVUShortSeq@CORBA@@XZ
?get_ushort_seq@DynAnyConstrBase@omni@@$4PPPPPPPM@BA@EAAPEAVUShortSeq@CORBA@@XZ
?get_ushort_seq@DynAnyConstrBase@omni@@$4PPPPPPPM@BI@EAAPEAVUShortSeq@CORBA@@XZ
?get_ushort_seq@DynAnyConstrBase@omni@@$4PPPPPPPM@EI@EAAPEAVUShortSeq@CORBA@@XZ
?get_ushort_seq@DynAnyConstrBase@omni@@UEAAPEAVUShortSeq@CORBA@@XZ
?get_ushort_seq@DynAnyImpl@omni@@$4PPPPPPPM@7EAAPEAVUShortSeq@CORBA@@XZ
?get_ushort_seq@DynAnyImpl@omni@@$4PPPPPPPM@A@EAAPEAVUShortSeq@CORBA@@XZ
?get_ushort_seq@DynAnyImpl@omni@@$4PPPPPPPM@BA@EAAPEAVUShortSeq@CORBA@@XZ
?get_ushort_seq@DynAnyImpl@omni@@$4PPPPPPPM@BI@EAAPEAVUShortSeq@CORBA@@XZ
?get_ushort_seq@DynAnyImpl@omni@@UEAAPEAVUShortSeq@CORBA@@XZ
?get_ushort_seq@DynUnionImpl@omni@@$4PPPPPPPM@A@EAAPEAVUShortSeq@CORBA@@XZ
?get_ushort_seq@DynUnionImpl@omni@@UEAAPEAVUShortSeq@CORBA@@XZ
?get_ushort_seq@omniNilDynAny@omni@@$4PPPPPPPM@A@EAAPEAVUShortSeq@CORBA@@XZ
?get_ushort_seq@omniNilDynAny@omni@@UEAAPEAVUShortSeq@CORBA@@XZ
?get_val@DynAnyConstrBase@omni@@$4PPPPPPPM@A@EAAPEAVValueBase@CORBA@@XZ
?get_val@DynAnyConstrBase@omni@@$4PPPPPPPM@BA@EAAPEAVValueBase@CORBA@@XZ
?get_val@DynAnyConstrBase@omni@@$4PPPPPPPM@BI@EAAPEAVValueBase@CORBA@@XZ
?get_val@DynAnyConstrBase@omni@@$4PPPPPPPM@EI@EAAPEAVValueBase@CORBA@@XZ
?get_val@DynAnyConstrBase@omni@@UEAAPEAVValueBase@CORBA@@XZ
?get_val@DynAnyImpl@omni@@$4PPPPPPPM@7EAAPEAVValueBase@CORBA@@XZ
?get_val@DynAnyImpl@omni@@$4PPPPPPPM@A@EAAPEAVValueBase@CORBA@@XZ
?get_val@DynAnyImpl@omni@@$4PPPPPPPM@BA@EAAPEAVValueBase@CORBA@@XZ
?get_val@DynAnyImpl@omni@@$4PPPPPPPM@BI@EAAPEAVValueBase@CORBA@@XZ
?get_val@DynAnyImpl@omni@@UEAAPEAVValueBase@CORBA@@XZ
?get_val@DynUnionImpl@omni@@$4PPPPPPPM@A@EAAPEAVValueBase@CORBA@@XZ
?get_val@DynUnionImpl@omni@@UEAAPEAVValueBase@CORBA@@XZ
?get_val@omniNilDynAny@omni@@$4PPPPPPPM@A@EAAPEAVValueBase@CORBA@@XZ
?get_val@omniNilDynAny@omni@@UEAAPEAVValueBase@CORBA@@XZ
?get_value@DynFixedImpl@omni@@UEAAPEADXZ
?get_value@omniNilDynFixed@omni@@UEAAPEADXZ
?get_values@ContextImpl@omni@@UEAAXPEBDK0V?$_CORBA_PseudoObj_Out@VNVList@CORBA@@V?$_CORBA_PseudoObj_Var@VNVList@CORBA@@@@@@@Z
?get_values@omniNilContext@omni@@UEAAXPEBDK0V?$_CORBA_PseudoObj_Out@VNVList@CORBA@@V?$_CORBA_PseudoObj_Var@VNVList@CORBA@@@@@@@Z
?get_wchar@DynAnyConstrBase@omni@@$4PPPPPPPM@A@EAA_WXZ
?get_wchar@DynAnyConstrBase@omni@@$4PPPPPPPM@BA@EAA_WXZ
?get_wchar@DynAnyConstrBase@omni@@$4PPPPPPPM@BI@EAA_WXZ
?get_wchar@DynAnyConstrBase@omni@@$4PPPPPPPM@EI@EAA_WXZ
?get_wchar@DynAnyConstrBase@omni@@UEAA_WXZ
?get_wchar@DynAnyImpl@omni@@$4PPPPPPPM@7EAA_WXZ
?get_wchar@DynAnyImpl@omni@@$4PPPPPPPM@A@EAA_WXZ
?get_wchar@DynAnyImpl@omni@@$4PPPPPPPM@BA@EAA_WXZ
?get_wchar@DynAnyImpl@omni@@$4PPPPPPPM@BI@EAA_WXZ
?get_wchar@DynAnyImpl@omni@@UEAA_WXZ
?get_wchar@DynUnionImpl@omni@@$4PPPPPPPM@A@EAA_WXZ
?get_wchar@DynUnionImpl@omni@@UEAA_WXZ
?get_wchar@omniNilDynAny@omni@@$4PPPPPPPM@A@EAA_WXZ
?get_wchar@omniNilDynAny@omni@@UEAA_WXZ
?get_wchar_seq@DynAnyConstrBase@omni@@$4PPPPPPPM@A@EAAPEAVWCharSeq@CORBA@@XZ
?get_wchar_seq@DynAnyConstrBase@omni@@$4PPPPPPPM@BA@EAAPEAVWCharSeq@CORBA@@XZ
?get_wchar_seq@DynAnyConstrBase@omni@@$4PPPPPPPM@BI@EAAPEAVWCharSeq@CORBA@@XZ
?get_wchar_seq@DynAnyConstrBase@omni@@$4PPPPPPPM@EI@EAAPEAVWCharSeq@CORBA@@XZ
?get_wchar_seq@DynAnyConstrBase@omni@@UEAAPEAVWCharSeq@CORBA@@XZ
?get_wchar_seq@DynAnyImpl@omni@@$4PPPPPPPM@7EAAPEAVWCharSeq@CORBA@@XZ
?get_wchar_seq@DynAnyImpl@omni@@$4PPPPPPPM@A@EAAPEAVWCharSeq@CORBA@@XZ
?get_wchar_seq@DynAnyImpl@omni@@$4PPPPPPPM@BA@EAAPEAVWCharSeq@CORBA@@XZ
?get_wchar_seq@DynAnyImpl@omni@@$4PPPPPPPM@BI@EAAPEAVWCharSeq@CORBA@@XZ
?get_wchar_seq@DynAnyImpl@omni@@UEAAPEAVWCharSeq@CORBA@@XZ
?get_wchar_seq@DynUnionImpl@omni@@$4PPPPPPPM@A@EAAPEAVWCharSeq@CORBA@@XZ
?get_wchar_seq@DynUnionImpl@omni@@UEAAPEAVWCharSeq@CORBA@@XZ
?get_wchar_seq@omniNilDynAny@omni@@$4PPPPPPPM@A@EAAPEAVWCharSeq@CORBA@@XZ
?get_wchar_seq@omniNilDynAny@omni@@UEAAPEAVWCharSeq@CORBA@@XZ
?get_wstring@DynAnyConstrBase@omni@@$4PPPPPPPM@A@EAAPEA_WXZ
?get_wstring@DynAnyConstrBase@omni@@$4PPPPPPPM@BA@EAAPEA_WXZ
?get_wstring@DynAnyConstrBase@omni@@$4PPPPPPPM@BI@EAAPEA_WXZ
?get_wstring@DynAnyConstrBase@omni@@$4PPPPPPPM@EI@EAAPEA_WXZ
?get_wstring@DynAnyConstrBase@omni@@UEAAPEA_WXZ
?get_wstring@DynAnyImpl@omni@@$4PPPPPPPM@7EAAPEA_WXZ
?get_wstring@DynAnyImpl@omni@@$4PPPPPPPM@A@EAAPEA_WXZ
?get_wstring@DynAnyImpl@omni@@$4PPPPPPPM@BA@EAAPEA_WXZ
?get_wstring@DynAnyImpl@omni@@$4PPPPPPPM@BI@EAAPEA_WXZ
?get_wstring@DynAnyImpl@omni@@UEAAPEA_WXZ
?get_wstring@DynUnionImpl@omni@@$4PPPPPPPM@A@EAAPEA_WXZ
?get_wstring@DynUnionImpl@omni@@UEAAPEA_WXZ
?get_wstring@omniNilDynAny@omni@@$4PPPPPPPM@A@EAAPEA_WXZ
?get_wstring@omniNilDynAny@omni@@UEAAPEA_WXZ
?handleIncompatibleValue@omniValueType@@SAPEAVValueBase@CORBA@@PEBDKPEAV23@W4CompletionStatus@3@@Z
?has_implicit_default@TypeCode_union_helper@omni@@SA_NPEAVTypeCode_base@2@@Z
?has_no_active_member@DynUnionImpl@omni@@UEAA_NXZ
?has_no_active_member@omniNilDynUnion@omni@@UEAA_NXZ
?has_only_simple@TypeCode_alignTable@omni@@QEBA_NXZ
?hash_id@omniTypeCodeCollection@omni@@AEAAKPEBD@Z
?hash_id@omniValueType@@SAKPEBD@Z
?hash_ids@omniValueType@@SAKPEBU_omni_ValueIds@@@Z
?i_own@TypeCode_alignTable@omni@@AEBAHI@Z
?id@TypeCode@CORBA@@QEBAPEBDXZ
?id@_objref_Contained@CORBA@@QEAAPEADXZ
?id@_objref_Contained@CORBA@@QEAAXPEBD@Z
?in@?$_CORBA_ObjRef_Var@V_objref_Container@CORBA@@VContainer_Helper@2@@@QEBAPEAV_objref_Container@CORBA@@XZ
?in@?$_CORBA_ObjRef_Var@V_objref_IDLType@CORBA@@VIDLType_Helper@2@@@QEBAPEAV_objref_IDLType@CORBA@@XZ
?in@?$_CORBA_ObjRef_Var@V_objref_ValueDef@CORBA@@VValueDef_Helper@2@@@QEBAPEAV_objref_ValueDef@CORBA@@XZ
?in@AbstractInterfaceDefSeq_var@CORBA@@QEBAAEBVAbstractInterfaceDefSeq@2@XZ
?in@Any_var@CORBA@@QEBAAEBVAny@2@XZ
?in@ContextIdSeq_var@CORBA@@QEBAAEBVContextIdSeq@2@XZ
?in@EnumMemberSeq_var@CORBA@@QEBAAEBVEnumMemberSeq@2@XZ
?in@ExceptionDefSeq_var@CORBA@@QEBAAEBVExceptionDefSeq@2@XZ
?in@InitializerSeq_var@CORBA@@QEBAAEBVInitializerSeq@2@XZ
?in@InterfaceDefSeq_var@CORBA@@QEBAAEBVInterfaceDefSeq@2@XZ
?in@ParDescriptionSeq_var@CORBA@@QEBAAEBVParDescriptionSeq@2@XZ
?in@StructMemberSeq_var@CORBA@@QEBAAEBVStructMemberSeq@2@XZ
?in@TypeCode_var@CORBA@@QEBAPEAVTypeCode@2@XZ
?in@UnionMemberSeq_var@CORBA@@QEBAAEBVUnionMemberSeq@2@XZ
?in@ValueBase_var@CORBA@@QEBAPEAVValueBase@2@XZ
?in@ValueDefSeq_var@CORBA@@QEBAAEBVValueDefSeq@2@XZ
?in@_CORBA_String_var@@QEBAPEBDXZ
?inMkr@cdrStream@@IEBA_KW4alignment_t@omni@@@Z
?inMkr@cdrStream@@IEBA_KXZ
?inTruncatable@OutputValueTracker@omni@@QEAA_NXZ
?inc@omni_refcount@@QEAAHXZ
?incrRefCount@PseudoObjBase@omni@@QEAAXXZ
?initializers@_objref_ValueDef@CORBA@@QEAAPEAVInitializerSeq@2@XZ
?initializers@_objref_ValueDef@CORBA@@QEAAXAEBVInitializerSeq@2@@Z
?insertLabel@TypeCode_union_helper@omni@@SAXAEAVAny@CORBA@@_KPEAVTypeCode@4@@Z
?insertToAnyFn@BadKind@TypeCode@CORBA@@2P6AXAEAVAny@3@AEBVException@3@@ZEA
?insertToAnyFn@Bounds@ContextList@CORBA@@2P6AXAEAVAny@3@AEBVException@3@@ZEA
?insertToAnyFn@Bounds@ExceptionList@CORBA@@2P6AXAEAVAny@3@AEBVException@3@@ZEA
?insertToAnyFn@Bounds@NVList@CORBA@@2P6AXAEAVAny@3@AEBVException@3@@ZEA
?insertToAnyFn@Bounds@TypeCode@CORBA@@2P6AXAEAVAny@3@AEBVException@3@@ZEA
?insertToAnyFn@Exception@CORBA@@QEBAP6AXAEAVAny@2@AEBV12@@ZXZ
?insertToAnyFn@InconsistentTypeCode@DynAnyFactory@DynamicAny@@2P6AXAEAVAny@CORBA@@AEBVException@5@@ZEA
?insertToAnyFn@InconsistentTypeCode@ORB@CORBA@@2P6AXAEAVAny@3@AEBVException@3@@ZEA
?insertToAnyFn@InvalidValue@DynAny@DynamicAny@@2P6AXAEAVAny@CORBA@@AEBVException@5@@ZEA
?insertToAnyFn@NoPossiblePollable@PollableSet@CORBA@@2P6AXAEAVAny@3@AEBVException@3@@ZEA
?insertToAnyFn@TypeMismatch@DynAny@DynamicAny@@2P6AXAEAVAny@CORBA@@AEBVException@5@@ZEA
?insertToAnyFn@UnknownPollable@PollableSet@CORBA@@2P6AXAEAVAny@3@AEBVException@3@@ZEA
?insertToAnyFn@UnknownUserException@CORBA@@2P6AXAEAVAny@2@AEBVException@2@@ZEA
?insertToAnyFn@WrongTransaction@CORBA@@2P6AXAEAVAny@2@AEBVException@2@@ZEA
?insertToAnyFnNCP@BadKind@TypeCode@CORBA@@2P6AXAEAVAny@3@PEBVException@3@@ZEA
?insertToAnyFnNCP@Bounds@ContextList@CORBA@@2P6AXAEAVAny@3@PEBVException@3@@ZEA
?insertToAnyFnNCP@Bounds@ExceptionList@CORBA@@2P6AXAEAVAny@3@PEBVException@3@@ZEA
?insertToAnyFnNCP@Bounds@NVList@CORBA@@2P6AXAEAVAny@3@PEBVException@3@@ZEA
?insertToAnyFnNCP@Bounds@TypeCode@CORBA@@2P6AXAEAVAny@3@PEBVException@3@@ZEA
?insertToAnyFnNCP@Exception@CORBA@@QEBAP6AXAEAVAny@2@PEBV12@@ZXZ
?insertToAnyFnNCP@InconsistentTypeCode@DynAnyFactory@DynamicAny@@2P6AXAEAVAny@CORBA@@PEBVException@5@@ZEA
?insertToAnyFnNCP@InconsistentTypeCode@ORB@CORBA@@2P6AXAEAVAny@3@PEBVException@3@@ZEA
?insertToAnyFnNCP@InvalidValue@DynAny@DynamicAny@@2P6AXAEAVAny@CORBA@@PEBVException@5@@ZEA
?insertToAnyFnNCP@NoPossiblePollable@PollableSet@CORBA@@2P6AXAEAVAny@3@PEBVException@3@@ZEA
?insertToAnyFnNCP@TypeMismatch@DynAny@DynamicAny@@2P6AXAEAVAny@CORBA@@PEBVException@5@@ZEA
?insertToAnyFnNCP@UnknownPollable@PollableSet@CORBA@@2P6AXAEAVAny@3@PEBVException@3@@ZEA
?insertToAnyFnNCP@UnknownUserException@CORBA@@2P6AXAEAVAny@2@PEBVException@2@@ZEA
?insertToAnyFnNCP@WrongTransaction@CORBA@@2P6AXAEAVAny@2@PEBVException@2@@ZEA
?insert_abstract@DynAnyConstrBase@omni@@$4PPPPPPPM@A@EAAXPEAVAbstractBase@CORBA@@@Z
?insert_abstract@DynAnyConstrBase@omni@@$4PPPPPPPM@BA@EAAXPEAVAbstractBase@CORBA@@@Z
?insert_abstract@DynAnyConstrBase@omni@@$4PPPPPPPM@BI@EAAXPEAVAbstractBase@CORBA@@@Z
?insert_abstract@DynAnyConstrBase@omni@@$4PPPPPPPM@EI@EAAXPEAVAbstractBase@CORBA@@@Z
?insert_abstract@DynAnyConstrBase@omni@@UEAAXPEAVAbstractBase@CORBA@@@Z
?insert_abstract@DynAnyImpl@omni@@$4PPPPPPPM@A@EAAXPEAVAbstractBase@CORBA@@@Z
?insert_abstract@DynAnyImpl@omni@@$4PPPPPPPM@BA@EAAXPEAVAbstractBase@CORBA@@@Z
?insert_abstract@DynAnyImpl@omni@@UEAAXPEAVAbstractBase@CORBA@@@Z
?insert_abstract@DynUnionDisc@omni@@$4PPPPPPPM@A@EAAXPEAVAbstractBase@CORBA@@@Z
?insert_abstract@DynUnionDisc@omni@@$4PPPPPPPM@BA@EAAXPEAVAbstractBase@CORBA@@@Z
?insert_abstract@DynUnionDisc@omni@@UEAAXPEAVAbstractBase@CORBA@@@Z
?insert_abstract@DynUnionImpl@omni@@$4PPPPPPPM@A@EAAXPEAVAbstractBase@CORBA@@@Z
?insert_abstract@DynUnionImpl@omni@@UEAAXPEAVAbstractBase@CORBA@@@Z
?insert_abstract@omniNilDynAny@omni@@$4PPPPPPPM@A@EAAXPEAVAbstractBase@CORBA@@@Z
?insert_abstract@omniNilDynAny@omni@@UEAAXPEAVAbstractBase@CORBA@@@Z
?insert_any@DynAnyConstrBase@omni@@$4PPPPPPPM@A@EAAXAEBVAny@CORBA@@@Z
?insert_any@DynAnyConstrBase@omni@@$4PPPPPPPM@BA@EAAXAEBVAny@CORBA@@@Z
?insert_any@DynAnyConstrBase@omni@@$4PPPPPPPM@BI@EAAXAEBVAny@CORBA@@@Z
?insert_any@DynAnyConstrBase@omni@@$4PPPPPPPM@EI@EAAXAEBVAny@CORBA@@@Z
?insert_any@DynAnyConstrBase@omni@@UEAAXAEBVAny@CORBA@@@Z
?insert_any@DynAnyImpl@omni@@$4PPPPPPPM@A@EAAXAEBVAny@CORBA@@@Z
?insert_any@DynAnyImpl@omni@@$4PPPPPPPM@BA@EAAXAEBVAny@CORBA@@@Z
?insert_any@DynAnyImpl@omni@@UEAAXAEBVAny@CORBA@@@Z
?insert_any@DynUnionDisc@omni@@$4PPPPPPPM@A@EAAXAEBVAny@CORBA@@@Z
?insert_any@DynUnionDisc@omni@@$4PPPPPPPM@BA@EAAXAEBVAny@CORBA@@@Z
?insert_any@DynUnionDisc@omni@@UEAAXAEBVAny@CORBA@@@Z
?insert_any@DynUnionImpl@omni@@$4PPPPPPPM@A@EAAXAEBVAny@CORBA@@@Z
?insert_any@DynUnionImpl@omni@@UEAAXAEBVAny@CORBA@@@Z
?insert_any@omniNilDynAny@omni@@$4PPPPPPPM@A@EAAXAEBVAny@CORBA@@@Z
?insert_any@omniNilDynAny@omni@@UEAAXAEBVAny@CORBA@@@Z
?insert_boolean@DynAnyConstrBase@omni@@$4PPPPPPPM@A@EAAX_N@Z
?insert_boolean@DynAnyConstrBase@omni@@$4PPPPPPPM@BA@EAAX_N@Z
?insert_boolean@DynAnyConstrBase@omni@@$4PPPPPPPM@BI@EAAX_N@Z
?insert_boolean@DynAnyConstrBase@omni@@$4PPPPPPPM@EI@EAAX_N@Z
?insert_boolean@DynAnyConstrBase@omni@@UEAAX_N@Z
?insert_boolean@DynAnyImpl@omni@@$4PPPPPPPM@A@EAAX_N@Z
?insert_boolean@DynAnyImpl@omni@@$4PPPPPPPM@BA@EAAX_N@Z
?insert_boolean@DynAnyImpl@omni@@UEAAX_N@Z
?insert_boolean@DynUnionDisc@omni@@$4PPPPPPPM@A@EAAX_N@Z
?insert_boolean@DynUnionDisc@omni@@$4PPPPPPPM@BA@EAAX_N@Z
?insert_boolean@DynUnionDisc@omni@@UEAAX_N@Z
?insert_boolean@DynUnionImpl@omni@@$4PPPPPPPM@A@EAAX_N@Z
?insert_boolean@DynUnionImpl@omni@@UEAAX_N@Z
?insert_boolean@omniNilDynAny@omni@@$4PPPPPPPM@A@EAAX_N@Z
?insert_boolean@omniNilDynAny@omni@@UEAAX_N@Z
?insert_boolean_seq@DynAnyConstrBase@omni@@$4PPPPPPPM@A@EAAXAEAVBooleanSeq@CORBA@@@Z
?insert_boolean_seq@DynAnyConstrBase@omni@@$4PPPPPPPM@BA@EAAXAEAVBooleanSeq@CORBA@@@Z
?insert_boolean_seq@DynAnyConstrBase@omni@@$4PPPPPPPM@BI@EAAXAEAVBooleanSeq@CORBA@@@Z
?insert_boolean_seq@DynAnyConstrBase@omni@@$4PPPPPPPM@EI@EAAXAEAVBooleanSeq@CORBA@@@Z
?insert_boolean_seq@DynAnyConstrBase@omni@@UEAAXAEAVBooleanSeq@CORBA@@@Z
?insert_boolean_seq@DynAnyImpl@omni@@$4PPPPPPPM@7EAAXAEAVBooleanSeq@CORBA@@@Z
?insert_boolean_seq@DynAnyImpl@omni@@$4PPPPPPPM@A@EAAXAEAVBooleanSeq@CORBA@@@Z
?insert_boolean_seq@DynAnyImpl@omni@@$4PPPPPPPM@BA@EAAXAEAVBooleanSeq@CORBA@@@Z
?insert_boolean_seq@DynAnyImpl@omni@@$4PPPPPPPM@BI@EAAXAEAVBooleanSeq@CORBA@@@Z
?insert_boolean_seq@DynAnyImpl@omni@@UEAAXAEAVBooleanSeq@CORBA@@@Z
?insert_boolean_seq@DynUnionImpl@omni@@$4PPPPPPPM@A@EAAXAEAVBooleanSeq@CORBA@@@Z
?insert_boolean_seq@DynUnionImpl@omni@@UEAAXAEAVBooleanSeq@CORBA@@@Z
?insert_boolean_seq@omniNilDynAny@omni@@$4PPPPPPPM@A@EAAXAEAVBooleanSeq@CORBA@@@Z
?insert_boolean_seq@omniNilDynAny@omni@@UEAAXAEAVBooleanSeq@CORBA@@@Z
?insert_char@DynAnyConstrBase@omni@@$4PPPPPPPM@A@EAAXE@Z
?insert_char@DynAnyConstrBase@omni@@$4PPPPPPPM@BA@EAAXE@Z
?insert_char@DynAnyConstrBase@omni@@$4PPPPPPPM@BI@EAAXE@Z
?insert_char@DynAnyConstrBase@omni@@$4PPPPPPPM@EI@EAAXE@Z
?insert_char@DynAnyConstrBase@omni@@UEAAXE@Z
?insert_char@DynAnyImpl@omni@@$4PPPPPPPM@A@EAAXE@Z
?insert_char@DynAnyImpl@omni@@$4PPPPPPPM@BA@EAAXE@Z
?insert_char@DynAnyImpl@omni@@UEAAXE@Z
?insert_char@DynUnionDisc@omni@@$4PPPPPPPM@A@EAAXE@Z
?insert_char@DynUnionDisc@omni@@$4PPPPPPPM@BA@EAAXE@Z
?insert_char@DynUnionDisc@omni@@UEAAXE@Z
?insert_char@DynUnionImpl@omni@@$4PPPPPPPM@A@EAAXE@Z
?insert_char@DynUnionImpl@omni@@UEAAXE@Z
?insert_char@omniNilDynAny@omni@@$4PPPPPPPM@A@EAAXE@Z
?insert_char@omniNilDynAny@omni@@UEAAXE@Z
?insert_char_seq@DynAnyConstrBase@omni@@$4PPPPPPPM@A@EAAXAEAVCharSeq@CORBA@@@Z
?insert_char_seq@DynAnyConstrBase@omni@@$4PPPPPPPM@BA@EAAXAEAVCharSeq@CORBA@@@Z
?insert_char_seq@DynAnyConstrBase@omni@@$4PPPPPPPM@BI@EAAXAEAVCharSeq@CORBA@@@Z
?insert_char_seq@DynAnyConstrBase@omni@@$4PPPPPPPM@EI@EAAXAEAVCharSeq@CORBA@@@Z
?insert_char_seq@DynAnyConstrBase@omni@@UEAAXAEAVCharSeq@CORBA@@@Z
?insert_char_seq@DynAnyImpl@omni@@$4PPPPPPPM@7EAAXAEAVCharSeq@CORBA@@@Z
?insert_char_seq@DynAnyImpl@omni@@$4PPPPPPPM@A@EAAXAEAVCharSeq@CORBA@@@Z
?insert_char_seq@DynAnyImpl@omni@@$4PPPPPPPM@BA@EAAXAEAVCharSeq@CORBA@@@Z
?insert_char_seq@DynAnyImpl@omni@@$4PPPPPPPM@BI@EAAXAEAVCharSeq@CORBA@@@Z
?insert_char_seq@DynAnyImpl@omni@@UEAAXAEAVCharSeq@CORBA@@@Z
?insert_char_seq@DynUnionImpl@omni@@$4PPPPPPPM@A@EAAXAEAVCharSeq@CORBA@@@Z
?insert_char_seq@DynUnionImpl@omni@@UEAAXAEAVCharSeq@CORBA@@@Z
?insert_char_seq@omniNilDynAny@omni@@$4PPPPPPPM@A@EAAXAEAVCharSeq@CORBA@@@Z
?insert_char_seq@omniNilDynAny@omni@@UEAAXAEAVCharSeq@CORBA@@@Z
?insert_double@DynAnyConstrBase@omni@@$4PPPPPPPM@A@EAAXN@Z
?insert_double@DynAnyConstrBase@omni@@$4PPPPPPPM@BA@EAAXN@Z
?insert_double@DynAnyConstrBase@omni@@$4PPPPPPPM@BI@EAAXN@Z
?insert_double@DynAnyConstrBase@omni@@$4PPPPPPPM@EI@EAAXN@Z
?insert_double@DynAnyConstrBase@omni@@UEAAXN@Z
?insert_double@DynAnyImpl@omni@@$4PPPPPPPM@A@EAAXN@Z
?insert_double@DynAnyImpl@omni@@$4PPPPPPPM@BA@EAAXN@Z
?insert_double@DynAnyImpl@omni@@UEAAXN@Z
?insert_double@DynUnionDisc@omni@@$4PPPPPPPM@A@EAAXN@Z
?insert_double@DynUnionDisc@omni@@$4PPPPPPPM@BA@EAAXN@Z
?insert_double@DynUnionDisc@omni@@UEAAXN@Z
?insert_double@DynUnionImpl@omni@@$4PPPPPPPM@A@EAAXN@Z
?insert_double@DynUnionImpl@omni@@UEAAXN@Z
?insert_double@omniNilDynAny@omni@@$4PPPPPPPM@A@EAAXN@Z
?insert_double@omniNilDynAny@omni@@UEAAXN@Z
?insert_double_seq@DynAnyConstrBase@omni@@$4PPPPPPPM@A@EAAXAEAVDoubleSeq@CORBA@@@Z
?insert_double_seq@DynAnyConstrBase@omni@@$4PPPPPPPM@BA@EAAXAEAVDoubleSeq@CORBA@@@Z
?insert_double_seq@DynAnyConstrBase@omni@@$4PPPPPPPM@BI@EAAXAEAVDoubleSeq@CORBA@@@Z
?insert_double_seq@DynAnyConstrBase@omni@@$4PPPPPPPM@EI@EAAXAEAVDoubleSeq@CORBA@@@Z
?insert_double_seq@DynAnyConstrBase@omni@@UEAAXAEAVDoubleSeq@CORBA@@@Z
?insert_double_seq@DynAnyImpl@omni@@$4PPPPPPPM@7EAAXAEAVDoubleSeq@CORBA@@@Z
?insert_double_seq@DynAnyImpl@omni@@$4PPPPPPPM@A@EAAXAEAVDoubleSeq@CORBA@@@Z
?insert_double_seq@DynAnyImpl@omni@@$4PPPPPPPM@BA@EAAXAEAVDoubleSeq@CORBA@@@Z
?insert_double_seq@DynAnyImpl@omni@@$4PPPPPPPM@BI@EAAXAEAVDoubleSeq@CORBA@@@Z
?insert_double_seq@DynAnyImpl@omni@@UEAAXAEAVDoubleSeq@CORBA@@@Z
?insert_double_seq@DynUnionImpl@omni@@$4PPPPPPPM@A@EAAXAEAVDoubleSeq@CORBA@@@Z
?insert_double_seq@DynUnionImpl@omni@@UEAAXAEAVDoubleSeq@CORBA@@@Z
?insert_double_seq@omniNilDynAny@omni@@$4PPPPPPPM@A@EAAXAEAVDoubleSeq@CORBA@@@Z
?insert_double_seq@omniNilDynAny@omni@@UEAAXAEAVDoubleSeq@CORBA@@@Z
?insert_dyn_any@DynAnyConstrBase@omni@@$4PPPPPPPM@A@EAAXPEAVDynAny@DynamicAny@@@Z
?insert_dyn_any@DynAnyConstrBase@omni@@$4PPPPPPPM@BA@EAAXPEAVDynAny@DynamicAny@@@Z
?insert_dyn_any@DynAnyConstrBase@omni@@$4PPPPPPPM@BI@EAAXPEAVDynAny@DynamicAny@@@Z
?insert_dyn_any@DynAnyConstrBase@omni@@$4PPPPPPPM@EI@EAAXPEAVDynAny@DynamicAny@@@Z
?insert_dyn_any@DynAnyConstrBase@omni@@UEAAXPEAVDynAny@DynamicAny@@@Z
?insert_dyn_any@DynAnyImpl@omni@@$4PPPPPPPM@A@EAAXPEAVDynAny@DynamicAny@@@Z
?insert_dyn_any@DynAnyImpl@omni@@$4PPPPPPPM@BA@EAAXPEAVDynAny@DynamicAny@@@Z
?insert_dyn_any@DynAnyImpl@omni@@UEAAXPEAVDynAny@DynamicAny@@@Z
?insert_dyn_any@DynUnionDisc@omni@@$4PPPPPPPM@A@EAAXPEAVDynAny@DynamicAny@@@Z
?insert_dyn_any@DynUnionDisc@omni@@$4PPPPPPPM@BA@EAAXPEAVDynAny@DynamicAny@@@Z
?insert_dyn_any@DynUnionDisc@omni@@UEAAXPEAVDynAny@DynamicAny@@@Z
?insert_dyn_any@DynUnionImpl@omni@@$4PPPPPPPM@A@EAAXPEAVDynAny@DynamicAny@@@Z
?insert_dyn_any@DynUnionImpl@omni@@UEAAXPEAVDynAny@DynamicAny@@@Z
?insert_dyn_any@omniNilDynAny@omni@@$4PPPPPPPM@A@EAAXPEAVDynAny@DynamicAny@@@Z
?insert_dyn_any@omniNilDynAny@omni@@UEAAXPEAVDynAny@DynamicAny@@@Z
?insert_float@DynAnyConstrBase@omni@@$4PPPPPPPM@A@EAAXM@Z
?insert_float@DynAnyConstrBase@omni@@$4PPPPPPPM@BA@EAAXM@Z
?insert_float@DynAnyConstrBase@omni@@$4PPPPPPPM@BI@EAAXM@Z
?insert_float@DynAnyConstrBase@omni@@$4PPPPPPPM@EI@EAAXM@Z
?insert_float@DynAnyConstrBase@omni@@UEAAXM@Z
?insert_float@DynAnyImpl@omni@@$4PPPPPPPM@A@EAAXM@Z
?insert_float@DynAnyImpl@omni@@$4PPPPPPPM@BA@EAAXM@Z
?insert_float@DynAnyImpl@omni@@UEAAXM@Z
?insert_float@DynUnionDisc@omni@@$4PPPPPPPM@A@EAAXM@Z
?insert_float@DynUnionDisc@omni@@$4PPPPPPPM@BA@EAAXM@Z
?insert_float@DynUnionDisc@omni@@UEAAXM@Z
?insert_float@DynUnionImpl@omni@@$4PPPPPPPM@A@EAAXM@Z
?insert_float@DynUnionImpl@omni@@UEAAXM@Z
?insert_float@omniNilDynAny@omni@@$4PPPPPPPM@A@EAAXM@Z
?insert_float@omniNilDynAny@omni@@UEAAXM@Z
?insert_float_seq@DynAnyConstrBase@omni@@$4PPPPPPPM@A@EAAXAEAVFloatSeq@CORBA@@@Z
?insert_float_seq@DynAnyConstrBase@omni@@$4PPPPPPPM@BA@EAAXAEAVFloatSeq@CORBA@@@Z
?insert_float_seq@DynAnyConstrBase@omni@@$4PPPPPPPM@BI@EAAXAEAVFloatSeq@CORBA@@@Z
?insert_float_seq@DynAnyConstrBase@omni@@$4PPPPPPPM@EI@EAAXAEAVFloatSeq@CORBA@@@Z
?insert_float_seq@DynAnyConstrBase@omni@@UEAAXAEAVFloatSeq@CORBA@@@Z
?insert_float_seq@DynAnyImpl@omni@@$4PPPPPPPM@7EAAXAEAVFloatSeq@CORBA@@@Z
?insert_float_seq@DynAnyImpl@omni@@$4PPPPPPPM@A@EAAXAEAVFloatSeq@CORBA@@@Z
?insert_float_seq@DynAnyImpl@omni@@$4PPPPPPPM@BA@EAAXAEAVFloatSeq@CORBA@@@Z
?insert_float_seq@DynAnyImpl@omni@@$4PPPPPPPM@BI@EAAXAEAVFloatSeq@CORBA@@@Z
?insert_float_seq@DynAnyImpl@omni@@UEAAXAEAVFloatSeq@CORBA@@@Z
?insert_float_seq@DynUnionImpl@omni@@$4PPPPPPPM@A@EAAXAEAVFloatSeq@CORBA@@@Z
?insert_float_seq@DynUnionImpl@omni@@UEAAXAEAVFloatSeq@CORBA@@@Z
?insert_float_seq@omniNilDynAny@omni@@$4PPPPPPPM@A@EAAXAEAVFloatSeq@CORBA@@@Z
?insert_float_seq@omniNilDynAny@omni@@UEAAXAEAVFloatSeq@CORBA@@@Z
?insert_long@DynAnyConstrBase@omni@@$4PPPPPPPM@A@EAAXJ@Z
?insert_long@DynAnyConstrBase@omni@@$4PPPPPPPM@BA@EAAXJ@Z
?insert_long@DynAnyConstrBase@omni@@$4PPPPPPPM@BI@EAAXJ@Z
?insert_long@DynAnyConstrBase@omni@@$4PPPPPPPM@EI@EAAXJ@Z
?insert_long@DynAnyConstrBase@omni@@UEAAXJ@Z
?insert_long@DynAnyImpl@omni@@$4PPPPPPPM@A@EAAXJ@Z
?insert_long@DynAnyImpl@omni@@$4PPPPPPPM@BA@EAAXJ@Z
?insert_long@DynAnyImpl@omni@@UEAAXJ@Z
?insert_long@DynUnionDisc@omni@@$4PPPPPPPM@A@EAAXJ@Z
?insert_long@DynUnionDisc@omni@@$4PPPPPPPM@BA@EAAXJ@Z
?insert_long@DynUnionDisc@omni@@UEAAXJ@Z
?insert_long@DynUnionImpl@omni@@$4PPPPPPPM@A@EAAXJ@Z
?insert_long@DynUnionImpl@omni@@UEAAXJ@Z
?insert_long@omniNilDynAny@omni@@$4PPPPPPPM@A@EAAXJ@Z
?insert_long@omniNilDynAny@omni@@UEAAXJ@Z
?insert_long_seq@DynAnyConstrBase@omni@@$4PPPPPPPM@A@EAAXAEAVLongSeq@CORBA@@@Z
?insert_long_seq@DynAnyConstrBase@omni@@$4PPPPPPPM@BA@EAAXAEAVLongSeq@CORBA@@@Z
?insert_long_seq@DynAnyConstrBase@omni@@$4PPPPPPPM@BI@EAAXAEAVLongSeq@CORBA@@@Z
?insert_long_seq@DynAnyConstrBase@omni@@$4PPPPPPPM@EI@EAAXAEAVLongSeq@CORBA@@@Z
?insert_long_seq@DynAnyConstrBase@omni@@UEAAXAEAVLongSeq@CORBA@@@Z
?insert_long_seq@DynAnyImpl@omni@@$4PPPPPPPM@7EAAXAEAVLongSeq@CORBA@@@Z
?insert_long_seq@DynAnyImpl@omni@@$4PPPPPPPM@A@EAAXAEAVLongSeq@CORBA@@@Z
?insert_long_seq@DynAnyImpl@omni@@$4PPPPPPPM@BA@EAAXAEAVLongSeq@CORBA@@@Z
?insert_long_seq@DynAnyImpl@omni@@$4PPPPPPPM@BI@EAAXAEAVLongSeq@CORBA@@@Z
?insert_long_seq@DynAnyImpl@omni@@UEAAXAEAVLongSeq@CORBA@@@Z
?insert_long_seq@DynUnionImpl@omni@@$4PPPPPPPM@A@EAAXAEAVLongSeq@CORBA@@@Z
?insert_long_seq@DynUnionImpl@omni@@UEAAXAEAVLongSeq@CORBA@@@Z
?insert_long_seq@omniNilDynAny@omni@@$4PPPPPPPM@A@EAAXAEAVLongSeq@CORBA@@@Z
?insert_long_seq@omniNilDynAny@omni@@UEAAXAEAVLongSeq@CORBA@@@Z
?insert_longlong@DynAnyConstrBase@omni@@$4PPPPPPPM@A@EAAX_J@Z
?insert_longlong@DynAnyConstrBase@omni@@$4PPPPPPPM@BA@EAAX_J@Z
?insert_longlong@DynAnyConstrBase@omni@@$4PPPPPPPM@BI@EAAX_J@Z
?insert_longlong@DynAnyConstrBase@omni@@$4PPPPPPPM@EI@EAAX_J@Z
?insert_longlong@DynAnyConstrBase@omni@@UEAAX_J@Z
?insert_longlong@DynAnyImpl@omni@@$4PPPPPPPM@A@EAAX_J@Z
?insert_longlong@DynAnyImpl@omni@@$4PPPPPPPM@BA@EAAX_J@Z
?insert_longlong@DynAnyImpl@omni@@UEAAX_J@Z
?insert_longlong@DynUnionDisc@omni@@$4PPPPPPPM@A@EAAX_J@Z
?insert_longlong@DynUnionDisc@omni@@$4PPPPPPPM@BA@EAAX_J@Z
?insert_longlong@DynUnionDisc@omni@@UEAAX_J@Z
?insert_longlong@DynUnionImpl@omni@@$4PPPPPPPM@A@EAAX_J@Z
?insert_longlong@DynUnionImpl@omni@@UEAAX_J@Z
?insert_longlong@omniNilDynAny@omni@@$4PPPPPPPM@A@EAAX_J@Z
?insert_longlong@omniNilDynAny@omni@@UEAAX_J@Z
?insert_longlong_seq@DynAnyConstrBase@omni@@$4PPPPPPPM@A@EAAXAEAVLongLongSeq@CORBA@@@Z
?insert_longlong_seq@DynAnyConstrBase@omni@@$4PPPPPPPM@BA@EAAXAEAVLongLongSeq@CORBA@@@Z
?insert_longlong_seq@DynAnyConstrBase@omni@@$4PPPPPPPM@BI@EAAXAEAVLongLongSeq@CORBA@@@Z
?insert_longlong_seq@DynAnyConstrBase@omni@@$4PPPPPPPM@EI@EAAXAEAVLongLongSeq@CORBA@@@Z
?insert_longlong_seq@DynAnyConstrBase@omni@@UEAAXAEAVLongLongSeq@CORBA@@@Z
?insert_longlong_seq@DynAnyImpl@omni@@$4PPPPPPPM@7EAAXAEAVLongLongSeq@CORBA@@@Z
?insert_longlong_seq@DynAnyImpl@omni@@$4PPPPPPPM@A@EAAXAEAVLongLongSeq@CORBA@@@Z
?insert_longlong_seq@DynAnyImpl@omni@@$4PPPPPPPM@BA@EAAXAEAVLongLongSeq@CORBA@@@Z
?insert_longlong_seq@DynAnyImpl@omni@@$4PPPPPPPM@BI@EAAXAEAVLongLongSeq@CORBA@@@Z
?insert_longlong_seq@DynAnyImpl@omni@@UEAAXAEAVLongLongSeq@CORBA@@@Z
?insert_longlong_seq@DynUnionImpl@omni@@$4PPPPPPPM@A@EAAXAEAVLongLongSeq@CORBA@@@Z
?insert_longlong_seq@DynUnionImpl@omni@@UEAAXAEAVLongLongSeq@CORBA@@@Z
?insert_longlong_seq@omniNilDynAny@omni@@$4PPPPPPPM@A@EAAXAEAVLongLongSeq@CORBA@@@Z
?insert_longlong_seq@omniNilDynAny@omni@@UEAAXAEAVLongLongSeq@CORBA@@@Z
?insert_octet@DynAnyConstrBase@omni@@$4PPPPPPPM@A@EAAXE@Z
?insert_octet@DynAnyConstrBase@omni@@$4PPPPPPPM@BA@EAAXE@Z
?insert_octet@DynAnyConstrBase@omni@@$4PPPPPPPM@BI@EAAXE@Z
?insert_octet@DynAnyConstrBase@omni@@$4PPPPPPPM@EI@EAAXE@Z
?insert_octet@DynAnyConstrBase@omni@@UEAAXE@Z
?insert_octet@DynAnyImpl@omni@@$4PPPPPPPM@A@EAAXE@Z
?insert_octet@DynAnyImpl@omni@@$4PPPPPPPM@BA@EAAXE@Z
?insert_octet@DynAnyImpl@omni@@UEAAXE@Z
?insert_octet@DynUnionDisc@omni@@$4PPPPPPPM@A@EAAXE@Z
?insert_octet@DynUnionDisc@omni@@$4PPPPPPPM@BA@EAAXE@Z
?insert_octet@DynUnionDisc@omni@@UEAAXE@Z
?insert_octet@DynUnionImpl@omni@@$4PPPPPPPM@A@EAAXE@Z
?insert_octet@DynUnionImpl@omni@@UEAAXE@Z
?insert_octet@omniNilDynAny@omni@@$4PPPPPPPM@A@EAAXE@Z
?insert_octet@omniNilDynAny@omni@@UEAAXE@Z
?insert_octet_seq@DynAnyConstrBase@omni@@$4PPPPPPPM@A@EAAXAEAVOctetSeq@CORBA@@@Z
?insert_octet_seq@DynAnyConstrBase@omni@@$4PPPPPPPM@BA@EAAXAEAVOctetSeq@CORBA@@@Z
?insert_octet_seq@DynAnyConstrBase@omni@@$4PPPPPPPM@BI@EAAXAEAVOctetSeq@CORBA@@@Z
?insert_octet_seq@DynAnyConstrBase@omni@@$4PPPPPPPM@EI@EAAXAEAVOctetSeq@CORBA@@@Z
?insert_octet_seq@DynAnyConstrBase@omni@@UEAAXAEAVOctetSeq@CORBA@@@Z
?insert_octet_seq@DynAnyImpl@omni@@$4PPPPPPPM@7EAAXAEAVOctetSeq@CORBA@@@Z
?insert_octet_seq@DynAnyImpl@omni@@$4PPPPPPPM@A@EAAXAEAVOctetSeq@CORBA@@@Z
?insert_octet_seq@DynAnyImpl@omni@@$4PPPPPPPM@BA@EAAXAEAVOctetSeq@CORBA@@@Z
?insert_octet_seq@DynAnyImpl@omni@@$4PPPPPPPM@BI@EAAXAEAVOctetSeq@CORBA@@@Z
?insert_octet_seq@DynAnyImpl@omni@@UEAAXAEAVOctetSeq@CORBA@@@Z
?insert_octet_seq@DynUnionImpl@omni@@$4PPPPPPPM@A@EAAXAEAVOctetSeq@CORBA@@@Z
?insert_octet_seq@DynUnionImpl@omni@@UEAAXAEAVOctetSeq@CORBA@@@Z
?insert_octet_seq@omniNilDynAny@omni@@$4PPPPPPPM@A@EAAXAEAVOctetSeq@CORBA@@@Z
?insert_octet_seq@omniNilDynAny@omni@@UEAAXAEAVOctetSeq@CORBA@@@Z
?insert_reference@DynAnyConstrBase@omni@@$4PPPPPPPM@A@EAAXPEAVObject@CORBA@@@Z
?insert_reference@DynAnyConstrBase@omni@@$4PPPPPPPM@BA@EAAXPEAVObject@CORBA@@@Z
?insert_reference@DynAnyConstrBase@omni@@$4PPPPPPPM@BI@EAAXPEAVObject@CORBA@@@Z
?insert_reference@DynAnyConstrBase@omni@@$4PPPPPPPM@EI@EAAXPEAVObject@CORBA@@@Z
?insert_reference@DynAnyConstrBase@omni@@UEAAXPEAVObject@CORBA@@@Z
?insert_reference@DynAnyImpl@omni@@$4PPPPPPPM@A@EAAXPEAVObject@CORBA@@@Z
?insert_reference@DynAnyImpl@omni@@$4PPPPPPPM@BA@EAAXPEAVObject@CORBA@@@Z
?insert_reference@DynAnyImpl@omni@@UEAAXPEAVObject@CORBA@@@Z
?insert_reference@DynUnionDisc@omni@@$4PPPPPPPM@A@EAAXPEAVObject@CORBA@@@Z
?insert_reference@DynUnionDisc@omni@@$4PPPPPPPM@BA@EAAXPEAVObject@CORBA@@@Z
?insert_reference@DynUnionDisc@omni@@UEAAXPEAVObject@CORBA@@@Z
?insert_reference@DynUnionImpl@omni@@$4PPPPPPPM@A@EAAXPEAVObject@CORBA@@@Z
?insert_reference@DynUnionImpl@omni@@UEAAXPEAVObject@CORBA@@@Z
?insert_reference@omniNilDynAny@omni@@$4PPPPPPPM@A@EAAXPEAVObject@CORBA@@@Z
?insert_reference@omniNilDynAny@omni@@UEAAXPEAVObject@CORBA@@@Z
?insert_short@DynAnyConstrBase@omni@@$4PPPPPPPM@A@EAAXF@Z
?insert_short@DynAnyConstrBase@omni@@$4PPPPPPPM@BA@EAAXF@Z
?insert_short@DynAnyConstrBase@omni@@$4PPPPPPPM@BI@EAAXF@Z
?insert_short@DynAnyConstrBase@omni@@$4PPPPPPPM@EI@EAAXF@Z
?insert_short@DynAnyConstrBase@omni@@UEAAXF@Z
?insert_short@DynAnyImpl@omni@@$4PPPPPPPM@A@EAAXF@Z
?insert_short@DynAnyImpl@omni@@$4PPPPPPPM@BA@EAAXF@Z
?insert_short@DynAnyImpl@omni@@UEAAXF@Z
?insert_short@DynUnionDisc@omni@@$4PPPPPPPM@A@EAAXF@Z
?insert_short@DynUnionDisc@omni@@$4PPPPPPPM@BA@EAAXF@Z
?insert_short@DynUnionDisc@omni@@UEAAXF@Z
?insert_short@DynUnionImpl@omni@@$4PPPPPPPM@A@EAAXF@Z
?insert_short@DynUnionImpl@omni@@UEAAXF@Z
?insert_short@omniNilDynAny@omni@@$4PPPPPPPM@A@EAAXF@Z
?insert_short@omniNilDynAny@omni@@UEAAXF@Z
?insert_short_seq@DynAnyConstrBase@omni@@$4PPPPPPPM@A@EAAXAEAVShortSeq@CORBA@@@Z
?insert_short_seq@DynAnyConstrBase@omni@@$4PPPPPPPM@BA@EAAXAEAVShortSeq@CORBA@@@Z
?insert_short_seq@DynAnyConstrBase@omni@@$4PPPPPPPM@BI@EAAXAEAVShortSeq@CORBA@@@Z
?insert_short_seq@DynAnyConstrBase@omni@@$4PPPPPPPM@EI@EAAXAEAVShortSeq@CORBA@@@Z
?insert_short_seq@DynAnyConstrBase@omni@@UEAAXAEAVShortSeq@CORBA@@@Z
?insert_short_seq@DynAnyImpl@omni@@$4PPPPPPPM@7EAAXAEAVShortSeq@CORBA@@@Z
?insert_short_seq@DynAnyImpl@omni@@$4PPPPPPPM@A@EAAXAEAVShortSeq@CORBA@@@Z
?insert_short_seq@DynAnyImpl@omni@@$4PPPPPPPM@BA@EAAXAEAVShortSeq@CORBA@@@Z
?insert_short_seq@DynAnyImpl@omni@@$4PPPPPPPM@BI@EAAXAEAVShortSeq@CORBA@@@Z
?insert_short_seq@DynAnyImpl@omni@@UEAAXAEAVShortSeq@CORBA@@@Z
?insert_short_seq@DynUnionImpl@omni@@$4PPPPPPPM@A@EAAXAEAVShortSeq@CORBA@@@Z
?insert_short_seq@DynUnionImpl@omni@@UEAAXAEAVShortSeq@CORBA@@@Z
?insert_short_seq@omniNilDynAny@omni@@$4PPPPPPPM@A@EAAXAEAVShortSeq@CORBA@@@Z
?insert_short_seq@omniNilDynAny@omni@@UEAAXAEAVShortSeq@CORBA@@@Z
?insert_single_consume@ContextImpl@omni@@QEAAXPEAD0@Z
?insert_string@DynAnyConstrBase@omni@@$4PPPPPPPM@A@EAAXPEBD@Z
?insert_string@DynAnyConstrBase@omni@@$4PPPPPPPM@BA@EAAXPEBD@Z
?insert_string@DynAnyConstrBase@omni@@$4PPPPPPPM@BI@EAAXPEBD@Z
?insert_string@DynAnyConstrBase@omni@@$4PPPPPPPM@EI@EAAXPEBD@Z
?insert_string@DynAnyConstrBase@omni@@UEAAXPEBD@Z
?insert_string@DynAnyImpl@omni@@$4PPPPPPPM@A@EAAXPEBD@Z
?insert_string@DynAnyImpl@omni@@$4PPPPPPPM@BA@EAAXPEBD@Z
?insert_string@DynAnyImpl@omni@@UEAAXPEBD@Z
?insert_string@DynUnionDisc@omni@@$4PPPPPPPM@A@EAAXPEBD@Z
?insert_string@DynUnionDisc@omni@@$4PPPPPPPM@BA@EAAXPEBD@Z
?insert_string@DynUnionDisc@omni@@UEAAXPEBD@Z
?insert_string@DynUnionImpl@omni@@$4PPPPPPPM@A@EAAXPEBD@Z
?insert_string@DynUnionImpl@omni@@UEAAXPEBD@Z
?insert_string@omniNilDynAny@omni@@$4PPPPPPPM@A@EAAXPEBD@Z
?insert_string@omniNilDynAny@omni@@UEAAXPEBD@Z
?insert_typecode@DynAnyConstrBase@omni@@$4PPPPPPPM@A@EAAXPEAVTypeCode@CORBA@@@Z
?insert_typecode@DynAnyConstrBase@omni@@$4PPPPPPPM@BA@EAAXPEAVTypeCode@CORBA@@@Z
?insert_typecode@DynAnyConstrBase@omni@@$4PPPPPPPM@BI@EAAXPEAVTypeCode@CORBA@@@Z
?insert_typecode@DynAnyConstrBase@omni@@$4PPPPPPPM@EI@EAAXPEAVTypeCode@CORBA@@@Z
?insert_typecode@DynAnyConstrBase@omni@@UEAAXPEAVTypeCode@CORBA@@@Z
?insert_typecode@DynAnyImpl@omni@@$4PPPPPPPM@A@EAAXPEAVTypeCode@CORBA@@@Z
?insert_typecode@DynAnyImpl@omni@@$4PPPPPPPM@BA@EAAXPEAVTypeCode@CORBA@@@Z
?insert_typecode@DynAnyImpl@omni@@UEAAXPEAVTypeCode@CORBA@@@Z
?insert_typecode@DynUnionDisc@omni@@$4PPPPPPPM@A@EAAXPEAVTypeCode@CORBA@@@Z
?insert_typecode@DynUnionDisc@omni@@$4PPPPPPPM@BA@EAAXPEAVTypeCode@CORBA@@@Z
?insert_typecode@DynUnionDisc@omni@@UEAAXPEAVTypeCode@CORBA@@@Z
?insert_typecode@DynUnionImpl@omni@@$4PPPPPPPM@A@EAAXPEAVTypeCode@CORBA@@@Z
?insert_typecode@DynUnionImpl@omni@@UEAAXPEAVTypeCode@CORBA@@@Z
?insert_typecode@omniNilDynAny@omni@@$4PPPPPPPM@A@EAAXPEAVTypeCode@CORBA@@@Z
?insert_typecode@omniNilDynAny@omni@@UEAAXPEAVTypeCode@CORBA@@@Z
?insert_ulong@DynAnyConstrBase@omni@@$4PPPPPPPM@A@EAAXK@Z
?insert_ulong@DynAnyConstrBase@omni@@$4PPPPPPPM@BA@EAAXK@Z
?insert_ulong@DynAnyConstrBase@omni@@$4PPPPPPPM@BI@EAAXK@Z
?insert_ulong@DynAnyConstrBase@omni@@$4PPPPPPPM@EI@EAAXK@Z
?insert_ulong@DynAnyConstrBase@omni@@UEAAXK@Z
?insert_ulong@DynAnyImpl@omni@@$4PPPPPPPM@A@EAAXK@Z
?insert_ulong@DynAnyImpl@omni@@$4PPPPPPPM@BA@EAAXK@Z
?insert_ulong@DynAnyImpl@omni@@UEAAXK@Z
?insert_ulong@DynUnionDisc@omni@@$4PPPPPPPM@A@EAAXK@Z
?insert_ulong@DynUnionDisc@omni@@$4PPPPPPPM@BA@EAAXK@Z
?insert_ulong@DynUnionDisc@omni@@UEAAXK@Z
?insert_ulong@DynUnionImpl@omni@@$4PPPPPPPM@A@EAAXK@Z
?insert_ulong@DynUnionImpl@omni@@UEAAXK@Z
?insert_ulong@omniNilDynAny@omni@@$4PPPPPPPM@A@EAAXK@Z
?insert_ulong@omniNilDynAny@omni@@UEAAXK@Z
?insert_ulong_seq@DynAnyConstrBase@omni@@$4PPPPPPPM@A@EAAXAEAVULongSeq@CORBA@@@Z
?insert_ulong_seq@DynAnyConstrBase@omni@@$4PPPPPPPM@BA@EAAXAEAVULongSeq@CORBA@@@Z
?insert_ulong_seq@DynAnyConstrBase@omni@@$4PPPPPPPM@BI@EAAXAEAVULongSeq@CORBA@@@Z
?insert_ulong_seq@DynAnyConstrBase@omni@@$4PPPPPPPM@EI@EAAXAEAVULongSeq@CORBA@@@Z
?insert_ulong_seq@DynAnyConstrBase@omni@@UEAAXAEAVULongSeq@CORBA@@@Z
?insert_ulong_seq@DynAnyImpl@omni@@$4PPPPPPPM@7EAAXAEAVULongSeq@CORBA@@@Z
?insert_ulong_seq@DynAnyImpl@omni@@$4PPPPPPPM@A@EAAXAEAVULongSeq@CORBA@@@Z
?insert_ulong_seq@DynAnyImpl@omni@@$4PPPPPPPM@BA@EAAXAEAVULongSeq@CORBA@@@Z
?insert_ulong_seq@DynAnyImpl@omni@@$4PPPPPPPM@BI@EAAXAEAVULongSeq@CORBA@@@Z
?insert_ulong_seq@DynAnyImpl@omni@@UEAAXAEAVULongSeq@CORBA@@@Z
?insert_ulong_seq@DynUnionImpl@omni@@$4PPPPPPPM@A@EAAXAEAVULongSeq@CORBA@@@Z
?insert_ulong_seq@DynUnionImpl@omni@@UEAAXAEAVULongSeq@CORBA@@@Z
?insert_ulong_seq@omniNilDynAny@omni@@$4PPPPPPPM@A@EAAXAEAVULongSeq@CORBA@@@Z
?insert_ulong_seq@omniNilDynAny@omni@@UEAAXAEAVULongSeq@CORBA@@@Z
?insert_ulonglong@DynAnyConstrBase@omni@@$4PPPPPPPM@A@EAAX_K@Z
?insert_ulonglong@DynAnyConstrBase@omni@@$4PPPPPPPM@BA@EAAX_K@Z
?insert_ulonglong@DynAnyConstrBase@omni@@$4PPPPPPPM@BI@EAAX_K@Z
?insert_ulonglong@DynAnyConstrBase@omni@@$4PPPPPPPM@EI@EAAX_K@Z
?insert_ulonglong@DynAnyConstrBase@omni@@UEAAX_K@Z
?insert_ulonglong@DynAnyImpl@omni@@$4PPPPPPPM@A@EAAX_K@Z
?insert_ulonglong@DynAnyImpl@omni@@$4PPPPPPPM@BA@EAAX_K@Z
?insert_ulonglong@DynAnyImpl@omni@@UEAAX_K@Z
?insert_ulonglong@DynUnionDisc@omni@@$4PPPPPPPM@A@EAAX_K@Z
?insert_ulonglong@DynUnionDisc@omni@@$4PPPPPPPM@BA@EAAX_K@Z
?insert_ulonglong@DynUnionDisc@omni@@UEAAX_K@Z
?insert_ulonglong@DynUnionImpl@omni@@$4PPPPPPPM@A@EAAX_K@Z
?insert_ulonglong@DynUnionImpl@omni@@UEAAX_K@Z
?insert_ulonglong@omniNilDynAny@omni@@$4PPPPPPPM@A@EAAX_K@Z
?insert_ulonglong@omniNilDynAny@omni@@UEAAX_K@Z
?insert_ulonglong_seq@DynAnyConstrBase@omni@@$4PPPPPPPM@A@EAAXAEAVULongLongSeq@CORBA@@@Z
?insert_ulonglong_seq@DynAnyConstrBase@omni@@$4PPPPPPPM@BA@EAAXAEAVULongLongSeq@CORBA@@@Z
?insert_ulonglong_seq@DynAnyConstrBase@omni@@$4PPPPPPPM@BI@EAAXAEAVULongLongSeq@CORBA@@@Z
?insert_ulonglong_seq@DynAnyConstrBase@omni@@$4PPPPPPPM@EI@EAAXAEAVULongLongSeq@CORBA@@@Z
?insert_ulonglong_seq@DynAnyConstrBase@omni@@UEAAXAEAVULongLongSeq@CORBA@@@Z
?insert_ulonglong_seq@DynAnyImpl@omni@@$4PPPPPPPM@7EAAXAEAVULongLongSeq@CORBA@@@Z
?insert_ulonglong_seq@DynAnyImpl@omni@@$4PPPPPPPM@A@EAAXAEAVULongLongSeq@CORBA@@@Z
?insert_ulonglong_seq@DynAnyImpl@omni@@$4PPPPPPPM@BA@EAAXAEAVULongLongSeq@CORBA@@@Z
?insert_ulonglong_seq@DynAnyImpl@omni@@$4PPPPPPPM@BI@EAAXAEAVULongLongSeq@CORBA@@@Z
?insert_ulonglong_seq@DynAnyImpl@omni@@UEAAXAEAVULongLongSeq@CORBA@@@Z
?insert_ulonglong_seq@DynUnionImpl@omni@@$4PPPPPPPM@A@EAAXAEAVULongLongSeq@CORBA@@@Z
?insert_ulonglong_seq@DynUnionImpl@omni@@UEAAXAEAVULongLongSeq@CORBA@@@Z
?insert_ulonglong_seq@omniNilDynAny@omni@@$4PPPPPPPM@A@EAAXAEAVULongLongSeq@CORBA@@@Z
?insert_ulonglong_seq@omniNilDynAny@omni@@UEAAXAEAVULongLongSeq@CORBA@@@Z
?insert_ushort@DynAnyConstrBase@omni@@$4PPPPPPPM@A@EAAXG@Z
?insert_ushort@DynAnyConstrBase@omni@@$4PPPPPPPM@BA@EAAXG@Z
?insert_ushort@DynAnyConstrBase@omni@@$4PPPPPPPM@BI@EAAXG@Z
?insert_ushort@DynAnyConstrBase@omni@@$4PPPPPPPM@EI@EAAXG@Z
?insert_ushort@DynAnyConstrBase@omni@@UEAAXG@Z
?insert_ushort@DynAnyImpl@omni@@$4PPPPPPPM@A@EAAXG@Z
?insert_ushort@DynAnyImpl@omni@@$4PPPPPPPM@BA@EAAXG@Z
?insert_ushort@DynAnyImpl@omni@@UEAAXG@Z
?insert_ushort@DynUnionDisc@omni@@$4PPPPPPPM@A@EAAXG@Z
?insert_ushort@DynUnionDisc@omni@@$4PPPPPPPM@BA@EAAXG@Z
?insert_ushort@DynUnionDisc@omni@@UEAAXG@Z
?insert_ushort@DynUnionImpl@omni@@$4PPPPPPPM@A@EAAXG@Z
?insert_ushort@DynUnionImpl@omni@@UEAAXG@Z
?insert_ushort@omniNilDynAny@omni@@$4PPPPPPPM@A@EAAXG@Z
?insert_ushort@omniNilDynAny@omni@@UEAAXG@Z
?insert_ushort_seq@DynAnyConstrBase@omni@@$4PPPPPPPM@A@EAAXAEAVUShortSeq@CORBA@@@Z
?insert_ushort_seq@DynAnyConstrBase@omni@@$4PPPPPPPM@BA@EAAXAEAVUShortSeq@CORBA@@@Z
?insert_ushort_seq@DynAnyConstrBase@omni@@$4PPPPPPPM@BI@EAAXAEAVUShortSeq@CORBA@@@Z
?insert_ushort_seq@DynAnyConstrBase@omni@@$4PPPPPPPM@EI@EAAXAEAVUShortSeq@CORBA@@@Z
?insert_ushort_seq@DynAnyConstrBase@omni@@UEAAXAEAVUShortSeq@CORBA@@@Z
?insert_ushort_seq@DynAnyImpl@omni@@$4PPPPPPPM@7EAAXAEAVUShortSeq@CORBA@@@Z
?insert_ushort_seq@DynAnyImpl@omni@@$4PPPPPPPM@A@EAAXAEAVUShortSeq@CORBA@@@Z
?insert_ushort_seq@DynAnyImpl@omni@@$4PPPPPPPM@BA@EAAXAEAVUShortSeq@CORBA@@@Z
?insert_ushort_seq@DynAnyImpl@omni@@$4PPPPPPPM@BI@EAAXAEAVUShortSeq@CORBA@@@Z
?insert_ushort_seq@DynAnyImpl@omni@@UEAAXAEAVUShortSeq@CORBA@@@Z
?insert_ushort_seq@DynUnionImpl@omni@@$4PPPPPPPM@A@EAAXAEAVUShortSeq@CORBA@@@Z
?insert_ushort_seq@DynUnionImpl@omni@@UEAAXAEAVUShortSeq@CORBA@@@Z
?insert_ushort_seq@omniNilDynAny@omni@@$4PPPPPPPM@A@EAAXAEAVUShortSeq@CORBA@@@Z
?insert_ushort_seq@omniNilDynAny@omni@@UEAAXAEAVUShortSeq@CORBA@@@Z
?insert_val@DynAnyConstrBase@omni@@$4PPPPPPPM@A@EAAXPEAVValueBase@CORBA@@@Z
?insert_val@DynAnyConstrBase@omni@@$4PPPPPPPM@BA@EAAXPEAVValueBase@CORBA@@@Z
?insert_val@DynAnyConstrBase@omni@@$4PPPPPPPM@BI@EAAXPEAVValueBase@CORBA@@@Z
?insert_val@DynAnyConstrBase@omni@@$4PPPPPPPM@EI@EAAXPEAVValueBase@CORBA@@@Z
?insert_val@DynAnyConstrBase@omni@@UEAAXPEAVValueBase@CORBA@@@Z
?insert_val@DynAnyImpl@omni@@$4PPPPPPPM@A@EAAXPEAVValueBase@CORBA@@@Z
?insert_val@DynAnyImpl@omni@@$4PPPPPPPM@BA@EAAXPEAVValueBase@CORBA@@@Z
?insert_val@DynAnyImpl@omni@@UEAAXPEAVValueBase@CORBA@@@Z
?insert_val@DynUnionDisc@omni@@$4PPPPPPPM@A@EAAXPEAVValueBase@CORBA@@@Z
?insert_val@DynUnionDisc@omni@@$4PPPPPPPM@BA@EAAXPEAVValueBase@CORBA@@@Z
?insert_val@DynUnionDisc@omni@@UEAAXPEAVValueBase@CORBA@@@Z
?insert_val@DynUnionImpl@omni@@$4PPPPPPPM@A@EAAXPEAVValueBase@CORBA@@@Z
?insert_val@DynUnionImpl@omni@@UEAAXPEAVValueBase@CORBA@@@Z
?insert_val@omniNilDynAny@omni@@$4PPPPPPPM@A@EAAXPEAVValueBase@CORBA@@@Z
?insert_val@omniNilDynAny@omni@@UEAAXPEAVValueBase@CORBA@@@Z
?insert_wchar@DynAnyConstrBase@omni@@$4PPPPPPPM@A@EAAX_W@Z
?insert_wchar@DynAnyConstrBase@omni@@$4PPPPPPPM@BA@EAAX_W@Z
?insert_wchar@DynAnyConstrBase@omni@@$4PPPPPPPM@BI@EAAX_W@Z
?insert_wchar@DynAnyConstrBase@omni@@$4PPPPPPPM@EI@EAAX_W@Z
?insert_wchar@DynAnyConstrBase@omni@@UEAAX_W@Z
?insert_wchar@DynAnyImpl@omni@@$4PPPPPPPM@A@EAAX_W@Z
?insert_wchar@DynAnyImpl@omni@@$4PPPPPPPM@BA@EAAX_W@Z
?insert_wchar@DynAnyImpl@omni@@UEAAX_W@Z
?insert_wchar@DynUnionDisc@omni@@$4PPPPPPPM@A@EAAX_W@Z
?insert_wchar@DynUnionDisc@omni@@$4PPPPPPPM@BA@EAAX_W@Z
?insert_wchar@DynUnionDisc@omni@@UEAAX_W@Z
?insert_wchar@DynUnionImpl@omni@@$4PPPPPPPM@A@EAAX_W@Z
?insert_wchar@DynUnionImpl@omni@@UEAAX_W@Z
?insert_wchar@omniNilDynAny@omni@@$4PPPPPPPM@A@EAAX_W@Z
?insert_wchar@omniNilDynAny@omni@@UEAAX_W@Z
?insert_wchar_seq@DynAnyConstrBase@omni@@$4PPPPPPPM@A@EAAXAEAVWCharSeq@CORBA@@@Z
?insert_wchar_seq@DynAnyConstrBase@omni@@$4PPPPPPPM@BA@EAAXAEAVWCharSeq@CORBA@@@Z
?insert_wchar_seq@DynAnyConstrBase@omni@@$4PPPPPPPM@BI@EAAXAEAVWCharSeq@CORBA@@@Z
?insert_wchar_seq@DynAnyConstrBase@omni@@$4PPPPPPPM@EI@EAAXAEAVWCharSeq@CORBA@@@Z
?insert_wchar_seq@DynAnyConstrBase@omni@@UEAAXAEAVWCharSeq@CORBA@@@Z
?insert_wchar_seq@DynAnyImpl@omni@@$4PPPPPPPM@7EAAXAEAVWCharSeq@CORBA@@@Z
?insert_wchar_seq@DynAnyImpl@omni@@$4PPPPPPPM@A@EAAXAEAVWCharSeq@CORBA@@@Z
?insert_wchar_seq@DynAnyImpl@omni@@$4PPPPPPPM@BA@EAAXAEAVWCharSeq@CORBA@@@Z
?insert_wchar_seq@DynAnyImpl@omni@@$4PPPPPPPM@BI@EAAXAEAVWCharSeq@CORBA@@@Z
?insert_wchar_seq@DynAnyImpl@omni@@UEAAXAEAVWCharSeq@CORBA@@@Z
?insert_wchar_seq@DynUnionImpl@omni@@$4PPPPPPPM@A@EAAXAEAVWCharSeq@CORBA@@@Z
?insert_wchar_seq@DynUnionImpl@omni@@UEAAXAEAVWCharSeq@CORBA@@@Z
?insert_wchar_seq@omniNilDynAny@omni@@$4PPPPPPPM@A@EAAXAEAVWCharSeq@CORBA@@@Z
?insert_wchar_seq@omniNilDynAny@omni@@UEAAXAEAVWCharSeq@CORBA@@@Z
?insert_wstring@DynAnyConstrBase@omni@@$4PPPPPPPM@A@EAAXPEB_W@Z
?insert_wstring@DynAnyConstrBase@omni@@$4PPPPPPPM@BA@EAAXPEB_W@Z
?insert_wstring@DynAnyConstrBase@omni@@$4PPPPPPPM@BI@EAAXPEB_W@Z
?insert_wstring@DynAnyConstrBase@omni@@$4PPPPPPPM@EI@EAAXPEB_W@Z
?insert_wstring@DynAnyConstrBase@omni@@UEAAXPEB_W@Z
?insert_wstring@DynAnyImpl@omni@@$4PPPPPPPM@A@EAAXPEB_W@Z
?insert_wstring@DynAnyImpl@omni@@$4PPPPPPPM@BA@EAAXPEB_W@Z
?insert_wstring@DynAnyImpl@omni@@UEAAXPEB_W@Z
?insert_wstring@DynUnionDisc@omni@@$4PPPPPPPM@A@EAAXPEB_W@Z
?insert_wstring@DynUnionDisc@omni@@$4PPPPPPPM@BA@EAAXPEB_W@Z
?insert_wstring@DynUnionDisc@omni@@UEAAXPEB_W@Z
?insert_wstring@DynUnionImpl@omni@@$4PPPPPPPM@A@EAAXPEB_W@Z
?insert_wstring@DynUnionImpl@omni@@UEAAXPEB_W@Z
?insert_wstring@omniNilDynAny@omni@@$4PPPPPPPM@A@EAAXPEB_W@Z
?insert_wstring@omniNilDynAny@omni@@UEAAXPEB_W@Z
?instance@omniDynamicLib_initialiser@omni@@2U12@A
?invoke@RequestImpl@omni@@UEAAXXZ
?invoke@omniNilRequest@omni@@UEAAXXZ
?iop_s@omniCallHandle@@QEBAPEAVIOP_S@omni@@XZ
?isCalledBack@DIICallDescriptor@omni@@QEAA_NXZ
?isComplete@omniAsyncCallDescriptor@@QEAA_NXZ
?isReady@omniAsyncCallDescriptor@@QEAA_NK@Z
?isValid@DynAnyImpl@omni@@QEBA_NXZ
?is_a@_objref_InterfaceDef@CORBA@@QEAA_NPEBD@Z
?is_a@_objref_ValueDef@CORBA@@QEAA_NPEBD@Z
?is_a@_pof_AbstractInterfaceDef@CORBA@@UEBA_NPEBD@Z
?is_a@_pof_AliasDef@CORBA@@UEBA_NPEBD@Z
?is_a@_pof_ArrayDef@CORBA@@UEBA_NPEBD@Z
?is_a@_pof_AttributeDef@CORBA@@UEBA_NPEBD@Z
?is_a@_pof_ConstantDef@CORBA@@UEBA_NPEBD@Z
?is_a@_pof_Contained@CORBA@@UEBA_NPEBD@Z
?is_a@_pof_Container@CORBA@@UEBA_NPEBD@Z
?is_a@_pof_EnumDef@CORBA@@UEBA_NPEBD@Z
?is_a@_pof_ExceptionDef@CORBA@@UEBA_NPEBD@Z
?is_a@_pof_FixedDef@CORBA@@UEBA_NPEBD@Z
?is_a@_pof_IDLType@CORBA@@UEBA_NPEBD@Z
?is_a@_pof_IRObject@CORBA@@UEBA_NPEBD@Z
?is_a@_pof_InterfaceDef@CORBA@@UEBA_NPEBD@Z
?is_a@_pof_ModuleDef@CORBA@@UEBA_NPEBD@Z
?is_a@_pof_NativeDef@CORBA@@UEBA_NPEBD@Z
?is_a@_pof_OperationDef@CORBA@@UEBA_NPEBD@Z
?is_a@_pof_PrimitiveDef@CORBA@@UEBA_NPEBD@Z
?is_a@_pof_ReplyHandler@Messaging@@UEBA_NPEBD@Z
?is_a@_pof_Repository@CORBA@@UEBA_NPEBD@Z
?is_a@_pof_SequenceDef@CORBA@@UEBA_NPEBD@Z
?is_a@_pof_StringDef@CORBA@@UEBA_NPEBD@Z
?is_a@_pof_StructDef@CORBA@@UEBA_NPEBD@Z
?is_a@_pof_TypedefDef@CORBA@@UEBA_NPEBD@Z
?is_a@_pof_UnionDef@CORBA@@UEBA_NPEBD@Z
?is_a@_pof_ValueBoxDef@CORBA@@UEBA_NPEBD@Z
?is_a@_pof_ValueDef@CORBA@@UEBA_NPEBD@Z
?is_a@_pof_ValueMemberDef@CORBA@@UEBA_NPEBD@Z
?is_a@_pof_WstringDef@CORBA@@UEBA_NPEBD@Z
?is_abstract@_objref_ValueDef@CORBA@@QEAAX_N@Z
?is_abstract@_objref_ValueDef@CORBA@@QEAA_NXZ
?is_custom@_objref_ValueDef@CORBA@@QEAAX_N@Z
?is_custom@_objref_ValueDef@CORBA@@QEAA_NXZ
?is_from_poller@PollerImpl@omniAMI@@$4PPPPPPPM@A@EAA_NXZ
?is_from_poller@PollerImpl@omniAMI@@UEAA_NXZ
?is_nil@AbstractInterfaceDef_Helper@CORBA@@SA_NPEAV_objref_AbstractInterfaceDef@2@@Z
?is_nil@AliasDef_Helper@CORBA@@SA_NPEAV_objref_AliasDef@2@@Z
?is_nil@ArrayDef_Helper@CORBA@@SA_NPEAV_objref_ArrayDef@2@@Z
?is_nil@AttributeDef_Helper@CORBA@@SA_NPEAV_objref_AttributeDef@2@@Z
?is_nil@CORBA@@YA_NPEAVContext@1@@Z
?is_nil@CORBA@@YA_NPEAVContextList@1@@Z
?is_nil@CORBA@@YA_NPEAVEnvironment@1@@Z
?is_nil@CORBA@@YA_NPEAVExceptionList@1@@Z
?is_nil@CORBA@@YA_NPEAVNVList@1@@Z
?is_nil@CORBA@@YA_NPEAVNamedValue@1@@Z
?is_nil@CORBA@@YA_NPEAVObject@1@@Z
?is_nil@CORBA@@YA_NPEAVRequest@1@@Z
?is_nil@CORBA@@YA_NPEAVTypeCode@1@@Z
?is_nil@ConstantDef_Helper@CORBA@@SA_NPEAV_objref_ConstantDef@2@@Z
?is_nil@Contained_Helper@CORBA@@SA_NPEAV_objref_Contained@2@@Z
?is_nil@Container_Helper@CORBA@@SA_NPEAV_objref_Container@2@@Z
?is_nil@DynAny_Helper@DynamicAny@@SA_NPEAVDynAny@2@@Z
?is_nil@EnumDef_Helper@CORBA@@SA_NPEAV_objref_EnumDef@2@@Z
?is_nil@ExceptionDef_Helper@CORBA@@SA_NPEAV_objref_ExceptionDef@2@@Z
?is_nil@FixedDef_Helper@CORBA@@SA_NPEAV_objref_FixedDef@2@@Z
?is_nil@IDLType_Helper@CORBA@@SA_NPEAV_objref_IDLType@2@@Z
?is_nil@IRObject_Helper@CORBA@@SA_NPEAV_objref_IRObject@2@@Z
?is_nil@InterfaceDef_Helper@CORBA@@SA_NPEAV_objref_InterfaceDef@2@@Z
?is_nil@ModuleDef_Helper@CORBA@@SA_NPEAV_objref_ModuleDef@2@@Z
?is_nil@NativeDef_Helper@CORBA@@SA_NPEAV_objref_NativeDef@2@@Z
?is_nil@OperationDef_Helper@CORBA@@SA_NPEAV_objref_OperationDef@2@@Z
?is_nil@PollableSet_Helper@CORBA@@SA_NPEAVPollableSet@2@@Z
?is_nil@PrimitiveDef_Helper@CORBA@@SA_NPEAV_objref_PrimitiveDef@2@@Z
?is_nil@ReplyHandler_Helper@Messaging@@SA_NPEAV_objref_ReplyHandler@2@@Z
?is_nil@Repository_Helper@CORBA@@SA_NPEAV_objref_Repository@2@@Z
?is_nil@SequenceDef_Helper@CORBA@@SA_NPEAV_objref_SequenceDef@2@@Z
?is_nil@StringDef_Helper@CORBA@@SA_NPEAV_objref_StringDef@2@@Z
?is_nil@StructDef_Helper@CORBA@@SA_NPEAV_objref_StructDef@2@@Z
?is_nil@TypedefDef_Helper@CORBA@@SA_NPEAV_objref_TypedefDef@2@@Z
?is_nil@UnionDef_Helper@CORBA@@SA_NPEAV_objref_UnionDef@2@@Z
?is_nil@ValueBoxDef_Helper@CORBA@@SA_NPEAV_objref_ValueBoxDef@2@@Z
?is_nil@ValueDef_Helper@CORBA@@SA_NPEAV_objref_ValueDef@2@@Z
?is_nil@ValueMemberDef_Helper@CORBA@@SA_NPEAV_objref_ValueMemberDef@2@@Z
?is_nil@WstringDef_Helper@CORBA@@SA_NPEAV_objref_WstringDef@2@@Z
?is_null@DynValueBoxImpl@omni@@$4PPPPPPPM@A@EAA_NXZ
?is_null@DynValueBoxImpl@omni@@UEAA_NXZ
?is_null@DynValueImpl@omni@@$4PPPPPPPM@A@EAA_NXZ
?is_null@DynValueImpl@omni@@UEAA_NXZ
?is_null@omniNilDynValue@omni@@$4PPPPPPPM@A@EAA_NXZ
?is_null@omniNilDynValue@omni@@UEAA_NXZ
?is_null@omniNilDynValueBox@omni@@$4PPPPPPPM@A@EAA_NXZ
?is_null@omniNilDynValueBox@omni@@UEAA_NXZ
?is_null@omniNilDynValueCommon@omni@@UEAA_NXZ
?is_ready@DIIPollableImpl@omniAMI@@$4PPPPPPPM@A@EAA_NK@Z
?is_ready@DIIPollableImpl@omniAMI@@UEAA_NK@Z
?is_ready@PollerImpl@omniAMI@@$4PPPPPPPM@A@EAA_NK@Z
?is_ready@PollerImpl@omniAMI@@UEAA_NK@Z
?is_root@DynAnyImplBase@omni@@QEBA_NXZ
?is_set_to_default_member@DynUnionImpl@omni@@UEAA_NXZ
?is_set_to_default_member@omniNilDynUnion@omni@@UEAA_NXZ
?is_simple@TypeCode_alignTable@omni@@QEBA_NXZ
?is_truncatable@_objref_ValueDef@CORBA@@QEAAX_N@Z
?is_truncatable@_objref_ValueDef@CORBA@@QEAA_NXZ
?is_upcall@omniCallDescriptor@@QEBA_NXZ
?item@ContextListImpl@omni@@UEAAPEBDK@Z
?item@ExceptionListImpl@omni@@UEAAPEAVTypeCode@CORBA@@K@Z
?item@NVListImpl@omni@@UEAAPEAVNamedValue@CORBA@@K@Z
?item@omniNilCtList@omni@@UEAAPEBDK@Z
?item@omniNilExList@omni@@UEAAPEAVTypeCode@CORBA@@K@Z
?item@omniNilNVList@omni@@UEAAPEAVNamedValue@CORBA@@K@Z
?kind@TypeCode@CORBA@@QEBA?AW4TCKind@2@XZ
?kind@_objref_PrimitiveDef@CORBA@@QEAA?AW4PrimitiveKind@2@XZ
?len@_CORBA_WString_helper@@SAHPEB_W@Z
?length@?$_CORBA_PseudoValue_Sequence@PEAD@@QEAAXK@Z
?length@?$_CORBA_PseudoValue_Sequence@PEAD@@QEBAKXZ
?length@?$_CORBA_PseudoValue_Sequence@PEAVNamedValue@CORBA@@@@QEAAXK@Z
?length@?$_CORBA_PseudoValue_Sequence@PEAVNamedValue@CORBA@@@@QEBAKXZ
?length@?$_CORBA_PseudoValue_Sequence@PEAVTypeCode@CORBA@@@@QEAAXK@Z
?length@?$_CORBA_PseudoValue_Sequence@PEAVTypeCode@CORBA@@@@QEBAKXZ
?length@?$_CORBA_PseudoValue_Sequence@UEntry@ContextImpl@omni@@@@QEAAXK@Z
?length@?$_CORBA_PseudoValue_Sequence@UEntry@ContextImpl@omni@@@@QEBAKXZ
?length@?$_CORBA_PseudoValue_Sequence@UTcUnionMember@TypeCode_union@omni@@@@QEAAXK@Z
?length@?$_CORBA_PseudoValue_Sequence@UTcUnionMember@TypeCode_union@omni@@@@QEBAKXZ
?length@?$_CORBA_Pseudo_Unbounded_Sequence@VRequest@CORBA@@V?$_CORBA_PseudoObj_Member@VRequest@CORBA@@V?$_CORBA_PseudoObj_Var@VRequest@CORBA@@@@@@@@QEBAKXZ
?length@?$_CORBA_Sequence@E@@QEAAXK@Z
?length@?$_CORBA_Sequence@E@@QEBAKXZ
?length@?$_CORBA_Sequence@F@@QEAAXK@Z
?length@?$_CORBA_Sequence@F@@QEBAKXZ
?length@?$_CORBA_Sequence@G@@QEAAXK@Z
?length@?$_CORBA_Sequence@G@@QEBAKXZ
?length@?$_CORBA_Sequence@J@@QEAAXK@Z
?length@?$_CORBA_Sequence@J@@QEBAKXZ
?length@?$_CORBA_Sequence@K@@QEAAXK@Z
?length@?$_CORBA_Sequence@K@@QEBAKXZ
?length@?$_CORBA_Sequence@M@@QEAAXK@Z
?length@?$_CORBA_Sequence@M@@QEBAKXZ
?length@?$_CORBA_Sequence@N@@QEAAXK@Z
?length@?$_CORBA_Sequence@N@@QEBAKXZ
?length@?$_CORBA_Sequence@UAttributeDescription@CORBA@@@@QEAAXK@Z
?length@?$_CORBA_Sequence@UBinding@CosNaming@@@@QEAAXK@Z
?length@?$_CORBA_Sequence@UDescription@Container@CORBA@@@@QEAAXK@Z
?length@?$_CORBA_Sequence@UExceptionDescription@CORBA@@@@QEAAXK@Z
?length@?$_CORBA_Sequence@UInitializer@CORBA@@@@QEAAXK@Z
?length@?$_CORBA_Sequence@UNameComponent@CosNaming@@@@QEAAXK@Z
?length@?$_CORBA_Sequence@UNameDynAnyPair@DynamicAny@@@@QEAAXK@Z
?length@?$_CORBA_Sequence@UNameDynAnyPair@DynamicAny@@@@QEBAKXZ
?length@?$_CORBA_Sequence@UNameValuePair@DynamicAny@@@@QEAAXK@Z
?length@?$_CORBA_Sequence@UNameValuePair@DynamicAny@@@@QEBAKXZ
?length@?$_CORBA_Sequence@UOperationDescription@CORBA@@@@QEAAXK@Z
?length@?$_CORBA_Sequence@UParameterDescription@CORBA@@@@QEAAXK@Z
?length@?$_CORBA_Sequence@UStructMember@CORBA@@@@QEAAXK@Z
?length@?$_CORBA_Sequence@UStructMember@CORBA@@@@QEBAKXZ
?length@?$_CORBA_Sequence@UUnionMember@CORBA@@@@QEAAXK@Z
?length@?$_CORBA_Sequence@UUnionMember@CORBA@@@@QEBAKXZ
?length@?$_CORBA_Sequence@UValueMember@CORBA@@@@QEAAXK@Z
?length@?$_CORBA_Sequence@UValueMember@CORBA@@@@QEBAKXZ
?length@?$_CORBA_Sequence@VAny@CORBA@@@@QEAAXK@Z
?length@?$_CORBA_Sequence@VAny@CORBA@@@@QEBAKXZ
?length@?$_CORBA_Sequence@VTypeCode_member@CORBA@@@@QEAAXK@Z
?length@?$_CORBA_Sequence@VTypeCode_member@CORBA@@@@QEBAKXZ
?length@?$_CORBA_Sequence@_J@@QEAAXK@Z
?length@?$_CORBA_Sequence@_J@@QEBAKXZ
?length@?$_CORBA_Sequence@_K@@QEAAXK@Z
?length@?$_CORBA_Sequence@_K@@QEBAKXZ
?length@?$_CORBA_Sequence@_N@@QEAAXK@Z
?length@?$_CORBA_Sequence@_N@@QEBAKXZ
?length@?$_CORBA_Sequence@_W@@QEAAXK@Z
?length@?$_CORBA_Sequence@_W@@QEBAKXZ
?length@?$_CORBA_Sequence_ObjRef@VDynAny@DynamicAny@@V?$_CORBA_ObjRef_Element@VDynAny@DynamicAny@@VDynAny_Helper@2@@@VDynAny_Helper@2@@@QEAAXK@Z
?length@?$_CORBA_Sequence_ObjRef@VDynAny@DynamicAny@@V?$_CORBA_ObjRef_Element@VDynAny@DynamicAny@@VDynAny_Helper@2@@@VDynAny_Helper@2@@@QEBAKXZ
?length@?$_CORBA_Sequence_ObjRef@V_objref_AbstractInterfaceDef@CORBA@@V?$_CORBA_ObjRef_Element@V_objref_AbstractInterfaceDef@CORBA@@VAbstractInterfaceDef_Helper@2@@@VAbstractInterfaceDef_Helper@2@@@QEAAXK@Z
?length@?$_CORBA_Sequence_ObjRef@V_objref_Contained@CORBA@@V?$_CORBA_ObjRef_Element@V_objref_Contained@CORBA@@VContained_Helper@2@@@VContained_Helper@2@@@QEAAXK@Z
?length@?$_CORBA_Sequence_ObjRef@V_objref_ExceptionDef@CORBA@@V?$_CORBA_ObjRef_Element@V_objref_ExceptionDef@CORBA@@VExceptionDef_Helper@2@@@VExceptionDef_Helper@2@@@QEAAXK@Z
?length@?$_CORBA_Sequence_ObjRef@V_objref_InterfaceDef@CORBA@@V?$_CORBA_ObjRef_Element@V_objref_InterfaceDef@CORBA@@VInterfaceDef_Helper@2@@@VInterfaceDef_Helper@2@@@QEAAXK@Z
?length@?$_CORBA_Sequence_ObjRef@V_objref_ValueDef@CORBA@@V?$_CORBA_ObjRef_Element@V_objref_ValueDef@CORBA@@VValueDef_Helper@2@@@VValueDef_Helper@2@@@QEAAXK@Z
?length@?$_CORBA_Sequence_Value@VPollerImpl@omniAMI@@V?$_CORBA_Value_Element@VPollerImpl@omniAMI@@VPoller_Helper@Messaging@@@@VPoller_Helper@Messaging@@@@QEAAXK@Z
?length@?$_CORBA_Sequence_Value@VPollerImpl@omniAMI@@V?$_CORBA_Value_Element@VPollerImpl@omniAMI@@VPoller_Helper@Messaging@@@@VPoller_Helper@Messaging@@@@QEBAKXZ
?length@?$_CORBA_Sequence_Value@VValueBase@CORBA@@V?$_CORBA_Value_Element@VValueBase@CORBA@@VValueBase_Helper@2@@@VValueBase_Helper@2@@@QEAAXK@Z
?length@?$_CORBA_Sequence_Value@VValueBase@CORBA@@V?$_CORBA_Value_Element@VValueBase@CORBA@@VValueBase_Helper@2@@@VValueBase_Helper@2@@@QEBAKXZ
?length@TypeCode@CORBA@@QEBAKXZ
?length@_CORBA_Sequence_String@@QEAAXK@Z
?length@_CORBA_Sequence_String@@QEBAKXZ
?length@_CORBA_Sequence_WString@@QEAAXK@Z
?length@_objref_ArrayDef@CORBA@@QEAAKXZ
?length@_objref_ArrayDef@CORBA@@QEAAXK@Z
?localId@omniCallDescriptor@@QEAAPEAVomniLocalIdentity@@XZ
?localId@omniCallDescriptor@@QEAAXPEAVomniLocalIdentity@@@Z
?localId@omniCallHandle@@QEAAPEAVomniLocalIdentity@@XZ
?lock@omni_mutex@@QEAAXXZ
?lockedIsComplete@omniAsyncCallDescriptor@@QEAA_NXZ
?logs@omniORB@@YAXKPEBD@Z
?lookup@_objref_Container@CORBA@@QEAAPEAV_objref_Contained@2@PEBD@Z
?lookup@_omni_ValueFactoryManager@@SAPEAVValueFactoryBase@CORBA@@PEBDK@Z
?lookupOffset@TypeCode_offsetTable@omni@@QEAAPEAVTypeCode_base@2@_J@Z
?lookupRepoId@InputValueTracker@omni@@QEAAPEBD_J0W4CompletionStatus@CORBA@@@Z
?lookupRepoIds@InputValueTracker@omni@@QEAAPEBU_omni_ValueIds@@_J0W4CompletionStatus@CORBA@@@Z
?lookupTypeCode@TypeCode_offsetTable@omni@@QEAA_NPEBVTypeCode_base@2@AEA_J@Z
?lookupValue@InputValueTracker@omni@@QEAAPEAVValueBase@CORBA@@_J0W4CompletionStatus@4@@Z
?lookup_id@_objref_Repository@CORBA@@QEAAPEAV_objref_Contained@2@PEBD@Z
?lookup_name@_objref_Container@CORBA@@QEAAPEAVContainedSeq@2@PEBDJW4DefinitionKind@2@_N@Z
?lookup_value_factory@ORB@CORBA@@QEAAPEAVValueFactoryBase@2@PEBD@Z
?loseChild@ContextImpl@omni@@AEAAXPEAV12@@Z
?mainthread_cond@omniCallHandle@@QEAAPEAVomni_tracedcondition@@XZ
?mainthread_mu@omniCallHandle@@QEAAPEAVomni_tracedmutex@@XZ
?markLoopMembers@TypeCode_collector@omni@@SAXPEAVTypeCode_base@2@@Z
?markLoops@TypeCode_collector@omni@@CAKPEAVTypeCode_base@2@K@Z
?marshal@DIIPollable_Helper@CORBA@@SAXPEAVDIIPollable@2@AEAVcdrStream@@@Z
?marshal@ExceptionHolder_Helper@Messaging@@SAXPEAVExceptionHolder@2@AEAVcdrStream@@@Z
?marshal@Pollable_Helper@CORBA@@SAXPEAVPollable@2@AEAVcdrStream@@@Z
?marshal@Poller_Helper@Messaging@@SAXPEAVPoller@2@AEAVcdrStream@@@Z
?marshal@StringValue_Helper@CORBA@@SAXPEAVStringValue@2@AEAVcdrStream@@@Z
?marshal@TypeCode_marshaller@omni@@SAXPEAVTypeCode_base@2@AEAVcdrStream@@PEAVTypeCode_offsetTable@2@@Z
?marshal@WStringValue_Helper@CORBA@@SAXPEAVWStringValue@2@AEAVcdrStream@@@Z
?marshal@omniValueType@@SAXPEAVValueBase@CORBA@@PEBDAEAVcdrStream@@@Z
?marshalArguments@DIICallDescriptor@omni@@UEAAXAEAVcdrStream@@@Z
?marshalArguments@_0RL_cd_7963219a43724a61_04000000@@UEAAXAEAVcdrStream@@@Z
?marshalArguments@_0RL_cd_7963219a43724a61_0b000000@@UEAAXAEAVcdrStream@@@Z
?marshalArguments@_0RL_cd_7963219a43724a61_12000000@@UEAAXAEAVcdrStream@@@Z
?marshalArguments@_0RL_cd_7963219a43724a61_13000000@@UEAAXAEAVcdrStream@@@Z
?marshalArguments@_0RL_cd_7963219a43724a61_15000000@@UEAAXAEAVcdrStream@@@Z
?marshalArguments@_0RL_cd_7963219a43724a61_19000000@@UEAAXAEAVcdrStream@@@Z
?marshalArguments@_0RL_cd_7963219a43724a61_1a000000@@UEAAXAEAVcdrStream@@@Z
?marshalArguments@_0RL_cd_7963219a43724a61_1c000000@@UEAAXAEAVcdrStream@@@Z
?marshalArguments@_0RL_cd_7963219a43724a61_24000000@@UEAAXAEAVcdrStream@@@Z
?marshalArguments@_0RL_cd_7963219a43724a61_28000000@@UEAAXAEAVcdrStream@@@Z
?marshalArguments@_0RL_cd_7963219a43724a61_31000000@@UEAAXAEAVcdrStream@@@Z
?marshalArguments@_0RL_cd_7963219a43724a61_32000000@@UEAAXAEAVcdrStream@@@Z
?marshalArguments@_0RL_cd_7963219a43724a61_33000000@@UEAAXAEAVcdrStream@@@Z
?marshalArguments@_0RL_cd_7963219a43724a61_44000000@@UEAAXAEAVcdrStream@@@Z
?marshalArguments@_0RL_cd_7963219a43724a61_46000000@@UEAAXAEAVcdrStream@@@Z
?marshalArguments@_0RL_cd_7963219a43724a61_4b000000@@UEAAXAEAVcdrStream@@@Z
?marshalArguments@_0RL_cd_7963219a43724a61_51000000@@UEAAXAEAVcdrStream@@@Z
?marshalArguments@_0RL_cd_7963219a43724a61_52000000@@UEAAXAEAVcdrStream@@@Z
?marshalArguments@_0RL_cd_7963219a43724a61_59000000@@UEAAXAEAVcdrStream@@@Z
?marshalArguments@_0RL_cd_7963219a43724a61_60000000@@UEAAXAEAVcdrStream@@@Z
?marshalArguments@_0RL_cd_7963219a43724a61_71000000@@UEAAXAEAVcdrStream@@@Z
?marshalArguments@_0RL_cd_7963219a43724a61_72000000@@UEAAXAEAVcdrStream@@@Z
?marshalArguments@_0RL_cd_7963219a43724a61_83000000@@UEAAXAEAVcdrStream@@@Z
?marshalArguments@_0RL_cd_7963219a43724a61_85000000@@UEAAXAEAVcdrStream@@@Z
?marshalArguments@_0RL_cd_7963219a43724a61_8b000000@@UEAAXAEAVcdrStream@@@Z
?marshalArguments@_0RL_cd_7963219a43724a61_91000000@@UEAAXAEAVcdrStream@@@Z
?marshalArguments@_0RL_cd_7963219a43724a61_92000000@@UEAAXAEAVcdrStream@@@Z
?marshalArguments@_0RL_cd_7963219a43724a61_94000000@@UEAAXAEAVcdrStream@@@Z
?marshalArguments@_0RL_cd_7963219a43724a61_98000000@@UEAAXAEAVcdrStream@@@Z
?marshalArguments@_0RL_cd_7963219a43724a61_99000000@@UEAAXAEAVcdrStream@@@Z
?marshalArguments@_0RL_cd_7963219a43724a61_a3000000@@UEAAXAEAVcdrStream@@@Z
?marshalArguments@_0RL_cd_7963219a43724a61_a6000000@@UEAAXAEAVcdrStream@@@Z
?marshalArguments@_0RL_cd_7963219a43724a61_b1000000@@UEAAXAEAVcdrStream@@@Z
?marshalArguments@_0RL_cd_7963219a43724a61_b2000000@@UEAAXAEAVcdrStream@@@Z
?marshalArguments@_0RL_cd_7963219a43724a61_b9000000@@UEAAXAEAVcdrStream@@@Z
?marshalArguments@_0RL_cd_7963219a43724a61_c3000000@@UEAAXAEAVcdrStream@@@Z
?marshalArguments@_0RL_cd_7963219a43724a61_c5000000@@UEAAXAEAVcdrStream@@@Z
?marshalArguments@_0RL_cd_7963219a43724a61_ca000000@@UEAAXAEAVcdrStream@@@Z
?marshalArguments@_0RL_cd_7963219a43724a61_d1000000@@UEAAXAEAVcdrStream@@@Z
?marshalArguments@_0RL_cd_7963219a43724a61_d2000000@@UEAAXAEAVcdrStream@@@Z
?marshalArguments@_0RL_cd_7963219a43724a61_d4000000@@UEAAXAEAVcdrStream@@@Z
?marshalArguments@_0RL_cd_7963219a43724a61_d8000000@@UEAAXAEAVcdrStream@@@Z
?marshalArguments@_0RL_cd_7963219a43724a61_e3000000@@UEAAXAEAVcdrStream@@@Z
?marshalArguments@_0RL_cd_7963219a43724a61_e6000000@@UEAAXAEAVcdrStream@@@Z
?marshalArguments@_0RL_cd_7963219a43724a61_f1000000@@UEAAXAEAVcdrStream@@@Z
?marshalArguments@_0RL_cd_7963219a43724a61_f2000000@@UEAAXAEAVcdrStream@@@Z
?marshalArguments@_0RL_cd_7963219a43724a61_f9000000@@UEAAXAEAVcdrStream@@@Z
?marshalBoolean@cdrStream@@QEAAX_N@Z
?marshalChar@cdrStream@@QEAAXE@Z
?marshalContext@Context@CORBA@@SAXPEAV12@PEBQEBDHAEAVcdrStream@@@Z
?marshalDouble@cdrStream@@QEAAXN@Z
?marshalFloat@cdrStream@@QEAAXM@Z
?marshalLabel@TypeCode_union_helper@omni@@SAX_KPEAVTypeCode@CORBA@@AEAVcdrStream@@@Z
?marshalLong@cdrStream@@QEAAXJ@Z
?marshalLongLong@cdrStream@@QEAAX_J@Z
?marshalObjRef@AbstractInterfaceDef_Helper@CORBA@@SAXPEAV_objref_AbstractInterfaceDef@2@AEAVcdrStream@@@Z
?marshalObjRef@AliasDef_Helper@CORBA@@SAXPEAV_objref_AliasDef@2@AEAVcdrStream@@@Z
?marshalObjRef@ArrayDef_Helper@CORBA@@SAXPEAV_objref_ArrayDef@2@AEAVcdrStream@@@Z
?marshalObjRef@AttributeDef_Helper@CORBA@@SAXPEAV_objref_AttributeDef@2@AEAVcdrStream@@@Z
?marshalObjRef@ConstantDef_Helper@CORBA@@SAXPEAV_objref_ConstantDef@2@AEAVcdrStream@@@Z
?marshalObjRef@Contained_Helper@CORBA@@SAXPEAV_objref_Contained@2@AEAVcdrStream@@@Z
?marshalObjRef@Container_Helper@CORBA@@SAXPEAV_objref_Container@2@AEAVcdrStream@@@Z
?marshalObjRef@EnumDef_Helper@CORBA@@SAXPEAV_objref_EnumDef@2@AEAVcdrStream@@@Z
?marshalObjRef@ExceptionDef_Helper@CORBA@@SAXPEAV_objref_ExceptionDef@2@AEAVcdrStream@@@Z
?marshalObjRef@FixedDef_Helper@CORBA@@SAXPEAV_objref_FixedDef@2@AEAVcdrStream@@@Z
?marshalObjRef@IDLType_Helper@CORBA@@SAXPEAV_objref_IDLType@2@AEAVcdrStream@@@Z
?marshalObjRef@IRObject_Helper@CORBA@@SAXPEAV_objref_IRObject@2@AEAVcdrStream@@@Z
?marshalObjRef@InterfaceDef_Helper@CORBA@@SAXPEAV_objref_InterfaceDef@2@AEAVcdrStream@@@Z
?marshalObjRef@ModuleDef_Helper@CORBA@@SAXPEAV_objref_ModuleDef@2@AEAVcdrStream@@@Z
?marshalObjRef@NativeDef_Helper@CORBA@@SAXPEAV_objref_NativeDef@2@AEAVcdrStream@@@Z
?marshalObjRef@OperationDef_Helper@CORBA@@SAXPEAV_objref_OperationDef@2@AEAVcdrStream@@@Z
?marshalObjRef@PollableSet_Helper@CORBA@@SAXPEAVPollableSet@2@AEAVcdrStream@@@Z
?marshalObjRef@PrimitiveDef_Helper@CORBA@@SAXPEAV_objref_PrimitiveDef@2@AEAVcdrStream@@@Z
?marshalObjRef@ReplyHandler_Helper@Messaging@@SAXPEAV_objref_ReplyHandler@2@AEAVcdrStream@@@Z
?marshalObjRef@Repository_Helper@CORBA@@SAXPEAV_objref_Repository@2@AEAVcdrStream@@@Z
?marshalObjRef@SequenceDef_Helper@CORBA@@SAXPEAV_objref_SequenceDef@2@AEAVcdrStream@@@Z
?marshalObjRef@StringDef_Helper@CORBA@@SAXPEAV_objref_StringDef@2@AEAVcdrStream@@@Z
?marshalObjRef@StructDef_Helper@CORBA@@SAXPEAV_objref_StructDef@2@AEAVcdrStream@@@Z
?marshalObjRef@TypedefDef_Helper@CORBA@@SAXPEAV_objref_TypedefDef@2@AEAVcdrStream@@@Z
?marshalObjRef@UnionDef_Helper@CORBA@@SAXPEAV_objref_UnionDef@2@AEAVcdrStream@@@Z
?marshalObjRef@ValueBoxDef_Helper@CORBA@@SAXPEAV_objref_ValueBoxDef@2@AEAVcdrStream@@@Z
?marshalObjRef@ValueDef_Helper@CORBA@@SAXPEAV_objref_ValueDef@2@AEAVcdrStream@@@Z
?marshalObjRef@ValueMemberDef_Helper@CORBA@@SAXPEAV_objref_ValueMemberDef@2@AEAVcdrStream@@@Z
?marshalObjRef@WstringDef_Helper@CORBA@@SAXPEAV_objref_WstringDef@2@AEAVcdrStream@@@Z
?marshalOctet@cdrStream@@QEAAXE@Z
?marshalReturnedValues@_0RL_cd_7963219a43724a61_00000000@@UEAAXAEAVcdrStream@@@Z
?marshalReturnedValues@_0RL_cd_7963219a43724a61_04000000@@UEAAXAEAVcdrStream@@@Z
?marshalReturnedValues@_0RL_cd_7963219a43724a61_06000000@@UEAAXAEAVcdrStream@@@Z
?marshalReturnedValues@_0RL_cd_7963219a43724a61_08000000@@UEAAXAEAVcdrStream@@@Z
?marshalReturnedValues@_0RL_cd_7963219a43724a61_11000000@@UEAAXAEAVcdrStream@@@Z
?marshalReturnedValues@_0RL_cd_7963219a43724a61_12000000@@UEAAXAEAVcdrStream@@@Z
?marshalReturnedValues@_0RL_cd_7963219a43724a61_13000000@@UEAAXAEAVcdrStream@@@Z
?marshalReturnedValues@_0RL_cd_7963219a43724a61_1a000000@@UEAAXAEAVcdrStream@@@Z
?marshalReturnedValues@_0RL_cd_7963219a43724a61_1c000000@@UEAAXAEAVcdrStream@@@Z
?marshalReturnedValues@_0RL_cd_7963219a43724a61_24000000@@UEAAXAEAVcdrStream@@@Z
?marshalReturnedValues@_0RL_cd_7963219a43724a61_26000000@@UEAAXAEAVcdrStream@@@Z
?marshalReturnedValues@_0RL_cd_7963219a43724a61_2b000000@@UEAAXAEAVcdrStream@@@Z
?marshalReturnedValues@_0RL_cd_7963219a43724a61_32000000@@UEAAXAEAVcdrStream@@@Z
?marshalReturnedValues@_0RL_cd_7963219a43724a61_33000000@@UEAAXAEAVcdrStream@@@Z
?marshalReturnedValues@_0RL_cd_7963219a43724a61_39000000@@UEAAXAEAVcdrStream@@@Z
?marshalReturnedValues@_0RL_cd_7963219a43724a61_40000000@@UEAAXAEAVcdrStream@@@Z
?marshalReturnedValues@_0RL_cd_7963219a43724a61_44000000@@UEAAXAEAVcdrStream@@@Z
?marshalReturnedValues@_0RL_cd_7963219a43724a61_51000000@@UEAAXAEAVcdrStream@@@Z
?marshalReturnedValues@_0RL_cd_7963219a43724a61_52000000@@UEAAXAEAVcdrStream@@@Z
?marshalReturnedValues@_0RL_cd_7963219a43724a61_53000000@@UEAAXAEAVcdrStream@@@Z
?marshalReturnedValues@_0RL_cd_7963219a43724a61_65000000@@UEAAXAEAVcdrStream@@@Z
?marshalReturnedValues@_0RL_cd_7963219a43724a61_6b000000@@UEAAXAEAVcdrStream@@@Z
?marshalReturnedValues@_0RL_cd_7963219a43724a61_71000000@@UEAAXAEAVcdrStream@@@Z
?marshalReturnedValues@_0RL_cd_7963219a43724a61_72000000@@UEAAXAEAVcdrStream@@@Z
?marshalReturnedValues@_0RL_cd_7963219a43724a61_74000000@@UEAAXAEAVcdrStream@@@Z
?marshalReturnedValues@_0RL_cd_7963219a43724a61_78000000@@UEAAXAEAVcdrStream@@@Z
?marshalReturnedValues@_0RL_cd_7963219a43724a61_79000000@@UEAAXAEAVcdrStream@@@Z
?marshalReturnedValues@_0RL_cd_7963219a43724a61_83000000@@UEAAXAEAVcdrStream@@@Z
?marshalReturnedValues@_0RL_cd_7963219a43724a61_86000000@@UEAAXAEAVcdrStream@@@Z
?marshalReturnedValues@_0RL_cd_7963219a43724a61_91000000@@UEAAXAEAVcdrStream@@@Z
?marshalReturnedValues@_0RL_cd_7963219a43724a61_92000000@@UEAAXAEAVcdrStream@@@Z
?marshalReturnedValues@_0RL_cd_7963219a43724a61_a3000000@@UEAAXAEAVcdrStream@@@Z
?marshalReturnedValues@_0RL_cd_7963219a43724a61_a5000000@@UEAAXAEAVcdrStream@@@Z
?marshalReturnedValues@_0RL_cd_7963219a43724a61_aa000000@@UEAAXAEAVcdrStream@@@Z
?marshalReturnedValues@_0RL_cd_7963219a43724a61_b1000000@@UEAAXAEAVcdrStream@@@Z
?marshalReturnedValues@_0RL_cd_7963219a43724a61_b2000000@@UEAAXAEAVcdrStream@@@Z
?marshalReturnedValues@_0RL_cd_7963219a43724a61_b4000000@@UEAAXAEAVcdrStream@@@Z
?marshalReturnedValues@_0RL_cd_7963219a43724a61_b8000000@@UEAAXAEAVcdrStream@@@Z
?marshalReturnedValues@_0RL_cd_7963219a43724a61_b9000000@@UEAAXAEAVcdrStream@@@Z
?marshalReturnedValues@_0RL_cd_7963219a43724a61_c0000000@@UEAAXAEAVcdrStream@@@Z
?marshalReturnedValues@_0RL_cd_7963219a43724a61_c3000000@@UEAAXAEAVcdrStream@@@Z
?marshalReturnedValues@_0RL_cd_7963219a43724a61_c6000000@@UEAAXAEAVcdrStream@@@Z
?marshalReturnedValues@_0RL_cd_7963219a43724a61_d1000000@@UEAAXAEAVcdrStream@@@Z
?marshalReturnedValues@_0RL_cd_7963219a43724a61_d2000000@@UEAAXAEAVcdrStream@@@Z
?marshalReturnedValues@_0RL_cd_7963219a43724a61_d9000000@@UEAAXAEAVcdrStream@@@Z
?marshalReturnedValues@_0RL_cd_7963219a43724a61_e3000000@@UEAAXAEAVcdrStream@@@Z
?marshalReturnedValues@_0RL_cd_7963219a43724a61_ea000000@@UEAAXAEAVcdrStream@@@Z
?marshalReturnedValues@_0RL_cd_7963219a43724a61_f0000000@@UEAAXAEAVcdrStream@@@Z
?marshalReturnedValues@_0RL_cd_7963219a43724a61_f1000000@@UEAAXAEAVcdrStream@@@Z
?marshalReturnedValues@_0RL_cd_7963219a43724a61_f2000000@@UEAAXAEAVcdrStream@@@Z
?marshalReturnedValues@_0RL_cd_7963219a43724a61_f4000000@@UEAAXAEAVcdrStream@@@Z
?marshalReturnedValues@_0RL_cd_7963219a43724a61_f8000000@@UEAAXAEAVcdrStream@@@Z
?marshalReturnedValues@_0RL_cd_7963219a43724a61_f9000000@@UEAAXAEAVcdrStream@@@Z
?marshalReturnedValues@_0RL_cd_7963219a43724a61_fb000000@@UEAAXAEAVcdrStream@@@Z
?marshalReturnedValues@serverRequestCallDescriptor@omni@@UEAAXAEAVcdrStream@@@Z
?marshalShort@cdrStream@@QEAAXF@Z
?marshalString@cdrStream@@QEAAXPEBDH@Z
?marshalTypeCode@TypeCode@CORBA@@SAXPEAV12@AEAVcdrStream@@@Z
?marshalULong@cdrStream@@QEAAXK@Z
?marshalULongLong@cdrStream@@QEAAX_K@Z
?marshalUShort@cdrStream@@QEAAXG@Z
?marshalWChar@cdrStream@@QEAAX_W@Z
?marshalWString@cdrStream@@QEAAXPEB_WH@Z
?marshal_byte_swap@cdrStream@@QEBA_NXZ
?matchPattern@ContextImpl@omni@@AEBAHPEBDAEAK1@Z
?maximum@?$_CORBA_PseudoValue_Sequence@PEAD@@QEBAKXZ
?maximum@?$_CORBA_PseudoValue_Sequence@PEAVNamedValue@CORBA@@@@QEBAKXZ
?maximum@?$_CORBA_PseudoValue_Sequence@PEAVTypeCode@CORBA@@@@QEBAKXZ
?maximum@?$_CORBA_PseudoValue_Sequence@UEntry@ContextImpl@omni@@@@QEBAKXZ
?maximum@_CORBA_Sequence_String@@QEBAKXZ
?member@DynUnionImpl@omni@@UEAAPEAVDynAny@DynamicAny@@XZ
?member@omniNilDynUnion@omni@@UEAAPEAVDynAny@DynamicAny@@XZ
?member_count@TypeCode@CORBA@@QEBAKXZ
?member_kind@DynUnionImpl@omni@@UEAA?AW4TCKind@CORBA@@XZ
?member_kind@omniNilDynUnion@omni@@UEAA?AW4TCKind@CORBA@@XZ
?member_label@TypeCode@CORBA@@QEBAPEAVAny@2@K@Z
?member_name@DynUnionImpl@omni@@UEAAPEADXZ
?member_name@TypeCode@CORBA@@QEBAPEBDK@Z
?member_name@omniNilDynUnion@omni@@UEAAPEADXZ
?member_type@TypeCode@CORBA@@QEBAPEAV12@K@Z
?member_visibility@TypeCode@CORBA@@QEBAFK@Z
?members@_objref_EnumDef@CORBA@@QEAAPEAVEnumMemberSeq@2@XZ
?members@_objref_EnumDef@CORBA@@QEAAXAEBVEnumMemberSeq@2@@Z
?members@_objref_ExceptionDef@CORBA@@QEAAPEAVStructMemberSeq@2@XZ
?members@_objref_ExceptionDef@CORBA@@QEAAXAEBVStructMemberSeq@2@@Z
?members@_objref_StructDef@CORBA@@QEAAPEAVStructMemberSeq@2@XZ
?members@_objref_StructDef@CORBA@@QEAAXAEBVStructMemberSeq@2@@Z
?members@_objref_UnionDef@CORBA@@QEAAPEAVUnionMemberSeq@2@XZ
?members@_objref_UnionDef@CORBA@@QEAAXAEBVUnionMemberSeq@2@@Z
?minor@SystemException@CORBA@@QEBAKXZ
?mode@_objref_AttributeDef@CORBA@@QEAA?AW4AttributeMode@2@XZ
?mode@_objref_AttributeDef@CORBA@@QEAAXW4AttributeMode@2@@Z
?mode@_objref_OperationDef@CORBA@@QEAA?AW4OperationMode@2@XZ
?mode@_objref_OperationDef@CORBA@@QEAAXW4OperationMode@2@@Z
?more@?$omnivector@PEAVDynAnyImplBase@omni@@@@AEAAXXZ
?move@_objref_Contained@CORBA@@QEAAXPEAV_objref_Container@2@PEBD1@Z
?name@NamedValueImpl@omni@@UEBAPEBDXZ
?name@TypeCode@CORBA@@QEBAPEBDXZ
?name@_objref_Contained@CORBA@@QEAAPEADXZ
?name@_objref_Contained@CORBA@@QEAAXPEBD@Z
?name@omniNilNV@omni@@UEBAPEBDXZ
?nestLevel@cdrValueChunkStream@@QEAAJXZ
?newObjRef@_pof_AbstractInterfaceDef@CORBA@@UEAAPEAVomniObjRef@@PEAVomniIOR@@PEAVomniIdentity@@@Z
?newObjRef@_pof_AliasDef@CORBA@@UEAAPEAVomniObjRef@@PEAVomniIOR@@PEAVomniIdentity@@@Z
?newObjRef@_pof_ArrayDef@CORBA@@UEAAPEAVomniObjRef@@PEAVomniIOR@@PEAVomniIdentity@@@Z
?newObjRef@_pof_AttributeDef@CORBA@@UEAAPEAVomniObjRef@@PEAVomniIOR@@PEAVomniIdentity@@@Z
?newObjRef@_pof_ConstantDef@CORBA@@UEAAPEAVomniObjRef@@PEAVomniIOR@@PEAVomniIdentity@@@Z
?newObjRef@_pof_Contained@CORBA@@UEAAPEAVomniObjRef@@PEAVomniIOR@@PEAVomniIdentity@@@Z
?newObjRef@_pof_Container@CORBA@@UEAAPEAVomniObjRef@@PEAVomniIOR@@PEAVomniIdentity@@@Z
?newObjRef@_pof_EnumDef@CORBA@@UEAAPEAVomniObjRef@@PEAVomniIOR@@PEAVomniIdentity@@@Z
?newObjRef@_pof_ExceptionDef@CORBA@@UEAAPEAVomniObjRef@@PEAVomniIOR@@PEAVomniIdentity@@@Z
?newObjRef@_pof_FixedDef@CORBA@@UEAAPEAVomniObjRef@@PEAVomniIOR@@PEAVomniIdentity@@@Z
?newObjRef@_pof_IDLType@CORBA@@UEAAPEAVomniObjRef@@PEAVomniIOR@@PEAVomniIdentity@@@Z
?newObjRef@_pof_IRObject@CORBA@@UEAAPEAVomniObjRef@@PEAVomniIOR@@PEAVomniIdentity@@@Z
?newObjRef@_pof_InterfaceDef@CORBA@@UEAAPEAVomniObjRef@@PEAVomniIOR@@PEAVomniIdentity@@@Z
?newObjRef@_pof_ModuleDef@CORBA@@UEAAPEAVomniObjRef@@PEAVomniIOR@@PEAVomniIdentity@@@Z
?newObjRef@_pof_NativeDef@CORBA@@UEAAPEAVomniObjRef@@PEAVomniIOR@@PEAVomniIdentity@@@Z
?newObjRef@_pof_OperationDef@CORBA@@UEAAPEAVomniObjRef@@PEAVomniIOR@@PEAVomniIdentity@@@Z
?newObjRef@_pof_PrimitiveDef@CORBA@@UEAAPEAVomniObjRef@@PEAVomniIOR@@PEAVomniIdentity@@@Z
?newObjRef@_pof_ReplyHandler@Messaging@@UEAAPEAVomniObjRef@@PEAVomniIOR@@PEAVomniIdentity@@@Z
?newObjRef@_pof_Repository@CORBA@@UEAAPEAVomniObjRef@@PEAVomniIOR@@PEAVomniIdentity@@@Z
?newObjRef@_pof_SequenceDef@CORBA@@UEAAPEAVomniObjRef@@PEAVomniIOR@@PEAVomniIdentity@@@Z
?newObjRef@_pof_StringDef@CORBA@@UEAAPEAVomniObjRef@@PEAVomniIOR@@PEAVomniIdentity@@@Z
?newObjRef@_pof_StructDef@CORBA@@UEAAPEAVomniObjRef@@PEAVomniIOR@@PEAVomniIdentity@@@Z
?newObjRef@_pof_TypedefDef@CORBA@@UEAAPEAVomniObjRef@@PEAVomniIOR@@PEAVomniIdentity@@@Z
?newObjRef@_pof_UnionDef@CORBA@@UEAAPEAVomniObjRef@@PEAVomniIOR@@PEAVomniIdentity@@@Z
?newObjRef@_pof_ValueBoxDef@CORBA@@UEAAPEAVomniObjRef@@PEAVomniIOR@@PEAVomniIdentity@@@Z
?newObjRef@_pof_ValueDef@CORBA@@UEAAPEAVomniObjRef@@PEAVomniIOR@@PEAVomniIdentity@@@Z
?newObjRef@_pof_ValueMemberDef@CORBA@@UEAAPEAVomniObjRef@@PEAVomniIOR@@PEAVomniIdentity@@@Z
?newObjRef@_pof_WstringDef@CORBA@@UEAAPEAVomniObjRef@@PEAVomniIOR@@PEAVomniIdentity@@@Z
?new_entry@TypeCode_alignTable@omni@@AEAAIXZ
?next@DynAnyConstrBase@omni@@$4PPPPPPPM@A@EAA_NXZ
?next@DynAnyConstrBase@omni@@$4PPPPPPPM@BA@EAA_NXZ
?next@DynAnyConstrBase@omni@@$4PPPPPPPM@BI@EAA_NXZ
?next@DynAnyConstrBase@omni@@$4PPPPPPPM@EI@EAA_NXZ
?next@DynAnyConstrBase@omni@@UEAA_NXZ
?next@DynAnyImpl@omni@@$4PPPPPPPM@7EAA_NXZ
?next@DynAnyImpl@omni@@$4PPPPPPPM@A@EAA_NXZ
?next@DynAnyImpl@omni@@$4PPPPPPPM@BA@EAA_NXZ
?next@DynAnyImpl@omni@@$4PPPPPPPM@BI@EAA_NXZ
?next@DynAnyImpl@omni@@UEAA_NXZ
?next@DynUnionImpl@omni@@$4PPPPPPPM@A@EAA_NXZ
?next@DynUnionImpl@omni@@UEAA_NXZ
?next@omniNilDynAny@omni@@$4PPPPPPPM@A@EAA_NXZ
?next@omniNilDynAny@omni@@UEAA_NXZ
?nthComponentTC@DynArrayImpl@omni@@UEAAPEAVTypeCode_base@2@I@Z
?nthComponentTC@DynSequenceImpl@omni@@UEAAPEAVTypeCode_base@2@I@Z
?nthComponentTC@DynStructImpl@omni@@UEAAPEAVTypeCode_base@2@I@Z
?nthComponentTC@DynValueBoxImpl@omni@@UEAAPEAVTypeCode_base@2@I@Z
?nthComponentTC@DynValueImpl@omni@@UEAAPEAVTypeCode_base@2@I@Z
?number_left@PollableSetImpl@omniAMI@@$4PPPPPPPM@A@EAAGXZ
?number_left@PollableSetImpl@omniAMI@@UEAAGXZ
?number_left@_nil_PollableSet@CORBA@@$4PPPPPPPM@A@EAAGXZ
?number_left@_nil_PollableSet@CORBA@@UEAAGXZ
?objref@omniCallDescriptor@@QEAAPEAVomniObjRef@@XZ
?omniORB_4_3_dyn@omni@@3PEBDEB
?omni_dynAny_initialiser_@omni@@3AEAVomniInitialiser@1@EA
?omni_valueFactory_initialiser_@omni@@3AEAVomniInitialiser@1@EA
?onDispose@DynAnyConstrBase@omni@@UEAAXXZ
?onDispose@DynAnyImplBase@omni@@UEAAXXZ
?onDispose@DynUnionImpl@omni@@UEAAXXZ
?op@omniCallDescriptor@@QEBAPEBDXZ
?operation@RequestImpl@omni@@UEBAPEBDXZ
?operation@omniNilRequest@omni@@UEBAPEBDXZ
?operation@omniServerRequest@omni@@UEAAPEBDXZ
?operation_name@PollerImpl@omniAMI@@$4PPPPPPPM@A@EAAPEADXZ
?operation_name@PollerImpl@omniAMI@@UEAAPEADXZ
?operation_name@omniCallHandle@@QEBAPEBDXZ
?operation_target@PollerImpl@omniAMI@@$4PPPPPPPM@A@EAAPEAVObject@CORBA@@XZ
?operation_target@PollerImpl@omniAMI@@UEAAPEAVObject@CORBA@@XZ
?original_type_def@_objref_AliasDef@CORBA@@QEAAPEAV_objref_IDLType@2@XZ
?original_type_def@_objref_AliasDef@CORBA@@QEAAXPEAV_objref_IDLType@2@@Z
?original_type_def@_objref_ValueBoxDef@CORBA@@QEAAPEAV_objref_IDLType@2@XZ
?original_type_def@_objref_ValueBoxDef@CORBA@@QEAAXPEAV_objref_IDLType@2@@Z
?out@TypeCode_member@CORBA@@QEAAAEAPEAVTypeCode@2@XZ
?outMkr@cdrStream@@IEBA_KW4alignment_t@omni@@@Z
?outMkr@cdrStream@@IEBA_KXZ
?paramListType@TypeCode_marshaller@omni@@SA?AW4TypeCode_paramListType@2@K@Z
?param_count@TypeCode@CORBA@@QEBAJXZ
?parameter@TypeCode@CORBA@@QEBAPEAVAny@2@J@Z
?params@_objref_OperationDef@CORBA@@QEAAPEAVParDescriptionSeq@2@XZ
?params@_objref_OperationDef@CORBA@@QEAAXAEBVParDescriptionSeq@2@@Z
?parent@ContextImpl@omni@@UEBAPEAVContext@CORBA@@XZ
?parent@omniNilContext@omni@@UEBAPEAVContext@CORBA@@XZ
?poa@omniCallDescriptor@@QEAAPEAVomniOrbPOA@omni@@XZ
?poa@omniCallDescriptor@@QEAAXPEAVomniOrbPOA@omni@@@Z
?poa@omniCallHandle@@QEAAPEAVomniOrbPOA@omni@@XZ
?poll_next_response@ORB@CORBA@@QEAA_NXZ
?poll_response@RequestImpl@omni@@UEAA_NXZ
?poll_response@omniNilRequest@omni@@UEAA_NXZ
?postinvoke_hook@omniCallHandle@@QEAAPEAVPostInvokeHook@1@XZ
?prepareSequenceRead@DynArrayImpl@omni@@UEAA?AW4SeqLocation@DynAnyConstrBase@2@W4TCKind@CORBA@@@Z
?prepareSequenceRead@DynSequenceImpl@omni@@UEAA?AW4SeqLocation@DynAnyConstrBase@2@W4TCKind@CORBA@@@Z
?prepareSequenceRead@DynStructImpl@omni@@UEAA?AW4SeqLocation@DynAnyConstrBase@2@W4TCKind@CORBA@@@Z
?prepareSequenceRead@DynValueBoxImpl@omni@@UEAA?AW4SeqLocation@DynAnyConstrBase@2@W4TCKind@CORBA@@@Z
?prepareSequenceRead@DynValueImpl@omni@@UEAA?AW4SeqLocation@DynAnyConstrBase@2@W4TCKind@CORBA@@@Z
?prepareSequenceWrite@DynArrayImpl@omni@@UEAA?AW4SeqLocation@DynAnyConstrBase@2@W4TCKind@CORBA@@K@Z
?prepareSequenceWrite@DynSequenceImpl@omni@@UEAA?AW4SeqLocation@DynAnyConstrBase@2@W4TCKind@CORBA@@K@Z
?prepareSequenceWrite@DynStructImpl@omni@@UEAA?AW4SeqLocation@DynAnyConstrBase@2@W4TCKind@CORBA@@K@Z
?prepareSequenceWrite@DynValueBoxImpl@omni@@UEAA?AW4SeqLocation@DynAnyConstrBase@2@W4TCKind@CORBA@@K@Z
?prepareSequenceWrite@DynValueImpl@omni@@UEAA?AW4SeqLocation@DynAnyConstrBase@2@W4TCKind@CORBA@@K@Z
?ptrStrMatch@omni@@YA_NPEBD0@Z
?ptrToClass@cdrAnyMemoryStream@@UEAAPEAXPEAH@Z
?push_back@?$omnivector@PEAVDynAnyImplBase@omni@@@@QEAAXAEBQEAVDynAnyImplBase@omni@@@Z
?put_large_octet_array@cdrStream@@QEAAXPEBE_KW4alignment_t@omni@@@Z
?raiseException@omniAsyncCallDescriptor@@QEAAXXZ
?raise_exception@ExceptionHolder@omniAMI@@$4PPPPPPPM@A@EAAXXZ
?raise_exception@ExceptionHolder@omniAMI@@UEAAXXZ
?readCurrent@DynAnyConstrBase@omni@@IEAAAEAVcdrAnyMemoryStream@@W4TCKind@CORBA@@@Z
?readCurrent@DynUnionImpl@omni@@AEAAAEAVcdrAnyMemoryStream@@W4TCKind@CORBA@@@Z
?refCountLock@DynAnyImplBase@omni@@0Vomni_tracedmutex@@A
?register_factory@_omni_ValueFactoryManager@@SAPEAVValueFactoryBase@CORBA@@PEBDKPEAV23@_N@Z
?register_value_factory@ORB@CORBA@@QEAAPEAVValueFactoryBase@2@PEBDPEAV32@@Z
?release@AbstractInterfaceDef_Helper@CORBA@@SAXPEAV_objref_AbstractInterfaceDef@2@@Z
?release@AliasDef_Helper@CORBA@@SAXPEAV_objref_AliasDef@2@@Z
?release@ArrayDef_Helper@CORBA@@SAXPEAV_objref_ArrayDef@2@@Z
?release@AttributeDef_Helper@CORBA@@SAXPEAV_objref_AttributeDef@2@@Z
?release@CORBA@@YAXPEAVAbstractBase@1@@Z
?release@CORBA@@YAXPEAVContext@1@@Z
?release@CORBA@@YAXPEAVContextList@1@@Z
?release@CORBA@@YAXPEAVEnvironment@1@@Z
?release@CORBA@@YAXPEAVExceptionList@1@@Z
?release@CORBA@@YAXPEAVNVList@1@@Z
?release@CORBA@@YAXPEAVNamedValue@1@@Z
?release@CORBA@@YAXPEAVObject@1@@Z
?release@CORBA@@YAXPEAVRequest@1@@Z
?release@CORBA@@YAXPEAVTypeCode@1@@Z
?release@ConstantDef_Helper@CORBA@@SAXPEAV_objref_ConstantDef@2@@Z
?release@Contained_Helper@CORBA@@SAXPEAV_objref_Contained@2@@Z
?release@Container_Helper@CORBA@@SAXPEAV_objref_Container@2@@Z
?release@DynAny_Helper@DynamicAny@@SAXPEAVDynAny@2@@Z
?release@EnumDef_Helper@CORBA@@SAXPEAV_objref_EnumDef@2@@Z
?release@ExceptionDef_Helper@CORBA@@SAXPEAV_objref_ExceptionDef@2@@Z
?release@FixedDef_Helper@CORBA@@SAXPEAV_objref_FixedDef@2@@Z
?release@IDLType_Helper@CORBA@@SAXPEAV_objref_IDLType@2@@Z
?release@IRObject_Helper@CORBA@@SAXPEAV_objref_IRObject@2@@Z
?release@InterfaceDef_Helper@CORBA@@SAXPEAV_objref_InterfaceDef@2@@Z
?release@ModuleDef_Helper@CORBA@@SAXPEAV_objref_ModuleDef@2@@Z
?release@NativeDef_Helper@CORBA@@SAXPEAV_objref_NativeDef@2@@Z
?release@OperationDef_Helper@CORBA@@SAXPEAV_objref_OperationDef@2@@Z
?release@PollableSet_Helper@CORBA@@SAXPEAVPollableSet@2@@Z
?release@PrimitiveDef_Helper@CORBA@@SAXPEAV_objref_PrimitiveDef@2@@Z
?release@ReplyHandler_Helper@Messaging@@SAXPEAV_objref_ReplyHandler@2@@Z
?release@Repository_Helper@CORBA@@SAXPEAV_objref_Repository@2@@Z
?release@SequenceDef_Helper@CORBA@@SAXPEAV_objref_SequenceDef@2@@Z
?release@StringDef_Helper@CORBA@@SAXPEAV_objref_StringDef@2@@Z
?release@StructDef_Helper@CORBA@@SAXPEAV_objref_StructDef@2@@Z
?release@TypedefDef_Helper@CORBA@@SAXPEAV_objref_TypedefDef@2@@Z
?release@UnionDef_Helper@CORBA@@SAXPEAV_objref_UnionDef@2@@Z
?release@ValueBoxDef_Helper@CORBA@@SAXPEAV_objref_ValueBoxDef@2@@Z
?release@ValueDef_Helper@CORBA@@SAXPEAV_objref_ValueDef@2@@Z
?release@ValueMemberDef_Helper@CORBA@@SAXPEAV_objref_ValueMemberDef@2@@Z
?release@WstringDef_Helper@CORBA@@SAXPEAV_objref_WstringDef@2@@Z
?releaseDefault@ContextImpl@omni@@SAXXZ
?releaseRef@TypeCode_collector@omni@@SAXPEAVTypeCode_base@2@@Z
?remFromSet@omniAsyncCallDescriptor@@QEAAXPEAVomni_tracedcondition@@@Z
?remove@ContextListImpl@omni@@UEAAXK@Z
?remove@ExceptionListImpl@omni@@UEAAXK@Z
?remove@NVListImpl@omni@@UEAAXK@Z
?remove@PollableSetImpl@omniAMI@@$4PPPPPPPM@A@EAAXPEAVPollable@CORBA@@@Z
?remove@PollableSetImpl@omniAMI@@UEAAXPEAVPollable@CORBA@@@Z
?remove@_nil_PollableSet@CORBA@@$4PPPPPPPM@A@EAAXPEAVPollable@2@@Z
?remove@_nil_PollableSet@CORBA@@UEAAXPEAVPollable@2@@Z
?remove@omniNilCtList@omni@@UEAAXK@Z
?remove@omniNilExList@omni@@UEAAXK@Z
?remove@omniNilNVList@omni@@UEAAXK@Z
?remove@omniTypeCodeCollection@omni@@QEAAXPEBDPEAVTypeCode@CORBA@@@Z
?removeOptionalNames@TypeCode_alias@omni@@UEAAXXZ
?removeOptionalNames@TypeCode_array@omni@@UEAAXXZ
?removeOptionalNames@TypeCode_base@omni@@UEAAXXZ
?removeOptionalNames@TypeCode_enum@omni@@UEAAXXZ
?removeOptionalNames@TypeCode_except@omni@@UEAAXXZ
?removeOptionalNames@TypeCode_indirect@omni@@UEAAXXZ
?removeOptionalNames@TypeCode_objref@omni@@UEAAXXZ
?removeOptionalNames@TypeCode_sequence@omni@@UEAAXXZ
?removeOptionalNames@TypeCode_struct@omni@@UEAAXXZ
?removeOptionalNames@TypeCode_union@omni@@UEAAXXZ
?removeOptionalNames@TypeCode_value@omni@@UEAAXXZ
?removeOptionalNames@TypeCode_value_box@omni@@UEAAXXZ
?remove_ref@CORBA@@YAXPEAVValueBase@1@@Z
?remove_ref@DIIPollable_Helper@CORBA@@SAXPEAVDIIPollable@2@@Z
?remove_ref@ExceptionHolder_Helper@Messaging@@SAXPEAVExceptionHolder@2@@Z
?remove_ref@Pollable_Helper@CORBA@@SAXPEAVPollable@2@@Z
?remove_ref@Poller_Helper@Messaging@@SAXPEAVPoller@2@@Z
?remove_ref@StringValue_Helper@CORBA@@SAXPEAVStringValue@2@@Z
?remove_ref@ValueBase_Helper@CORBA@@SAXPEAVValueBase@2@@Z
?remove_ref@WStringValue_Helper@CORBA@@SAXPEAVWStringValue@2@@Z
?remove_ref@cdrAnyMemoryStream@@QEAAXXZ
?replace@Any@CORBA@@QEAAXPEAVTypeCode@2@PEAX_N@Z
?reserve@?$omnivector@PEAVDynAnyImplBase@omni@@@@QEAAX_K@Z
?resizeTable@InputValueTracker@omni@@AEAAXXZ
?resizeTable@OutputValueTracker@omni@@AEAAXXZ
?result@DIICallDescriptor@omni@@QEBAPEAVNamedValue@CORBA@@XZ
?result@RequestImpl@omni@@UEAAPEAVNamedValue@CORBA@@XZ
?result@_cCORBA_mObject_i_cstring@omniStdCallDesc@@QEAAPEAVObject@CORBA@@XZ
?result@_objref_OperationDef@CORBA@@QEAAPEAVTypeCode@2@XZ
?result@omniNilRequest@omni@@UEAAPEAVNamedValue@CORBA@@XZ
?result@omni_interface_CallDesc@omni@@QEAAPEAVObject@CORBA@@XZ
?result_def@_objref_OperationDef@CORBA@@QEAAPEAV_objref_IDLType@2@XZ
?result_def@_objref_OperationDef@CORBA@@QEAAXPEAV_objref_IDLType@2@@Z
?return_value@RequestImpl@omni@@UEAAAEAVAny@CORBA@@XZ
?return_value@omniNilRequest@omni@@UEAAAEAVAny@CORBA@@XZ
?rewind@DynAnyConstrBase@omni@@$4PPPPPPPM@A@EAAXXZ
?rewind@DynAnyConstrBase@omni@@$4PPPPPPPM@BA@EAAXXZ
?rewind@DynAnyConstrBase@omni@@$4PPPPPPPM@BI@EAAXXZ
?rewind@DynAnyConstrBase@omni@@$4PPPPPPPM@EI@EAAXXZ
?rewind@DynAnyConstrBase@omni@@UEAAXXZ
?rewind@DynAnyImpl@omni@@$4PPPPPPPM@7EAAXXZ
?rewind@DynAnyImpl@omni@@$4PPPPPPPM@A@EAAXXZ
?rewind@DynAnyImpl@omni@@$4PPPPPPPM@BA@EAAXXZ
?rewind@DynAnyImpl@omni@@$4PPPPPPPM@BI@EAAXXZ
?rewind@DynAnyImpl@omni@@UEAAXXZ
?rewind@DynUnionImpl@omni@@$4PPPPPPPM@A@EAAXXZ
?rewind@DynUnionImpl@omni@@UEAAXXZ
?rewind@omniNilDynAny@omni@@$4PPPPPPPM@A@EAAXXZ
?rewind@omniNilDynAny@omni@@UEAAXXZ
?rewindInputPtr@cdrMemoryStream@@QEAAXXZ
?rewindPtrs@cdrMemoryStream@@QEAAXXZ
?scale@_objref_FixedDef@CORBA@@QEAAFXZ
?scale@_objref_FixedDef@CORBA@@QEAAXF@Z
?search@TypeCode_pairlist@omni@@SAPEBVTypeCode_base@2@PEBV12@PEBV32@@Z
?seek@DynAnyConstrBase@omni@@$4PPPPPPPM@A@EAA_NJ@Z
?seek@DynAnyConstrBase@omni@@$4PPPPPPPM@BA@EAA_NJ@Z
?seek@DynAnyConstrBase@omni@@$4PPPPPPPM@BI@EAA_NJ@Z
?seek@DynAnyConstrBase@omni@@$4PPPPPPPM@EI@EAA_NJ@Z
?seek@DynAnyConstrBase@omni@@UEAA_NJ@Z
?seek@DynAnyImpl@omni@@$4PPPPPPPM@7EAA_NJ@Z
?seek@DynAnyImpl@omni@@$4PPPPPPPM@A@EAA_NJ@Z
?seek@DynAnyImpl@omni@@$4PPPPPPPM@BA@EAA_NJ@Z
?seek@DynAnyImpl@omni@@$4PPPPPPPM@BI@EAA_NJ@Z
?seek@DynAnyImpl@omni@@UEAA_NJ@Z
?seek@DynUnionImpl@omni@@$4PPPPPPPM@A@EAA_NJ@Z
?seek@DynUnionImpl@omni@@UEAA_NJ@Z
?seek@omniNilDynAny@omni@@$4PPPPPPPM@A@EAA_NJ@Z
?seek@omniNilDynAny@omni@@UEAA_NJ@Z
?seekTo@DynAnyConstrBase@omni@@IEAAXI@Z
?send_deferred@RequestImpl@omni@@UEAAXXZ
?send_deferred@omniNilRequest@omni@@UEAAXXZ
?send_multiple_requests_deferred@ORB@CORBA@@QEAAXAEBV?$_CORBA_Pseudo_Unbounded_Sequence@VRequest@CORBA@@V?$_CORBA_PseudoObj_Member@VRequest@CORBA@@V?$_CORBA_PseudoObj_Var@VRequest@CORBA@@@@@@@@@Z
?send_multiple_requests_oneway@ORB@CORBA@@QEAAXAEBV?$_CORBA_Pseudo_Unbounded_Sequence@VRequest@CORBA@@V?$_CORBA_PseudoObj_Member@VRequest@CORBA@@V?$_CORBA_PseudoObj_Var@VRequest@CORBA@@@@@@@@@Z
?send_oneway@RequestImpl@omni@@UEAAXXZ
?send_oneway@omniNilRequest@omni@@UEAAXXZ
?servant@omniLocalIdentity@@QEBAPEAVomniServant@@XZ
?set@TypeCode_alignTable@omni@@QEAAXAEBV12@@Z
?setCallDescriptor@omniCurrent@@QEAAXPEAVomniCallDescriptor@@@Z
?setInvalid@DynAnyImpl@omni@@QEAAXXZ
?setNumComponents@DynAnyConstrBase@omni@@IEAAXI@Z
?setNumEntries@TypeCode_alignTable@omni@@QEAAXI@Z
?setOffset@TypeCode_offsetTable@omni@@QEAAX_J@Z
?setValid@DynAnyImpl@omni@@QEAAXXZ
?set_as_string@DynEnumImpl@omni@@UEAAXPEBD@Z
?set_as_string@DynUnionEnumDisc@omni@@UEAAXPEBD@Z
?set_as_string@omniNilDynEnum@omni@@UEAAXPEBD@Z
?set_as_ulong@DynEnumImpl@omni@@UEAAXK@Z
?set_as_ulong@DynUnionEnumDisc@omni@@UEAAXK@Z
?set_as_ulong@omniNilDynEnum@omni@@UEAAXK@Z
?set_boxed_value@DynValueBoxImpl@omni@@UEAAXAEBVAny@CORBA@@@Z
?set_boxed_value@omniNilDynValueBox@omni@@UEAAXAEBVAny@CORBA@@@Z
?set_boxed_value_as_dyn_any@DynValueBoxImpl@omni@@UEAAXPEAVDynAny@DynamicAny@@@Z
?set_boxed_value_as_dyn_any@omniNilDynValueBox@omni@@UEAAXPEAVDynAny@DynamicAny@@@Z
?set_discriminator@DynUnionImpl@omni@@UEAAXPEAVDynAny@DynamicAny@@@Z
?set_discriminator@omniNilDynUnion@omni@@UEAAXPEAVDynAny@DynamicAny@@@Z
?set_elements@DynArrayImpl@omni@@UEAAXAEBVAnySeq@DynamicAny@@@Z
?set_elements@DynSequenceImpl@omni@@UEAAXAEBVAnySeq@DynamicAny@@@Z
?set_elements@omniNilDynArray@omni@@UEAAXAEBVAnySeq@DynamicAny@@@Z
?set_elements@omniNilDynSequence@omni@@UEAAXAEBVAnySeq@DynamicAny@@@Z
?set_elements_as_dyn_any@DynArrayImpl@omni@@UEAAXAEBVDynAnySeq@DynamicAny@@@Z
?set_elements_as_dyn_any@DynSequenceImpl@omni@@UEAAXAEBVDynAnySeq@DynamicAny@@@Z
?set_elements_as_dyn_any@omniNilDynArray@omni@@UEAAXAEBVDynAnySeq@DynamicAny@@@Z
?set_elements_as_dyn_any@omniNilDynSequence@omni@@UEAAXAEBVDynAnySeq@DynamicAny@@@Z
?set_exception@omniServerRequest@omni@@UEAAXAEBVAny@CORBA@@@Z
?set_i_own@TypeCode_alignTable@omni@@AEAAXI@Z
?set_length@DynSequenceImpl@omni@@UEAAXK@Z
?set_length@omniNilDynSequence@omni@@UEAAXK@Z
?set_members@DynStructImpl@omni@@UEAAXAEBVNameValuePairSeq@DynamicAny@@@Z
?set_members@DynValueImpl@omni@@UEAAXAEBVNameValuePairSeq@DynamicAny@@@Z
?set_members@omniNilDynStruct@omni@@UEAAXAEBVNameValuePairSeq@DynamicAny@@@Z
?set_members@omniNilDynValue@omni@@UEAAXAEBVNameValuePairSeq@DynamicAny@@@Z
?set_members_as_dyn_any@DynStructImpl@omni@@UEAAXAEBVNameDynAnyPairSeq@DynamicAny@@@Z
?set_members_as_dyn_any@DynValueImpl@omni@@UEAAXAEBVNameDynAnyPairSeq@DynamicAny@@@Z
?set_members_as_dyn_any@omniNilDynStruct@omni@@UEAAXAEBVNameDynAnyPairSeq@DynamicAny@@@Z
?set_members_as_dyn_any@omniNilDynValue@omni@@UEAAXAEBVNameDynAnyPairSeq@DynamicAny@@@Z
?set_one_value@ContextImpl@omni@@UEAAXPEBDAEBVAny@CORBA@@@Z
?set_one_value@omniNilContext@omni@@UEAAXPEBDAEBVAny@CORBA@@@Z
?set_oneway@omniCallDescriptor@@QEAAX_N@Z
?set_result@omniServerRequest@omni@@UEAAXAEBVAny@CORBA@@@Z
?set_return_type@RequestImpl@omni@@UEAAXPEAVTypeCode@CORBA@@@Z
?set_return_type@omniNilRequest@omni@@UEAAXPEAVTypeCode@CORBA@@@Z
?set_to_default_member@DynUnionImpl@omni@@UEAAXXZ
?set_to_default_member@omniNilDynUnion@omni@@UEAAXXZ
?set_to_initial_value@DynAnyConstrBase@omni@@UEAAXXZ
?set_to_initial_value@DynAnyImpl@omni@@UEAAXXZ
?set_to_initial_value@DynEnumImpl@omni@@UEAAXXZ
?set_to_initial_value@DynFixedImpl@omni@@UEAAXXZ
?set_to_initial_value@DynUnionDisc@omni@@UEAAXXZ
?set_to_initial_value@DynUnionEnumDisc@omni@@UEAAXXZ
?set_to_initial_value@DynUnionImpl@omni@@UEAAXXZ
?set_to_initial_value@DynValueBoxImpl@omni@@UEAAXXZ
?set_to_initial_value@DynValueImpl@omni@@UEAAXXZ
?set_to_no_active_member@DynUnionImpl@omni@@UEAAXXZ
?set_to_no_active_member@omniNilDynUnion@omni@@UEAAXXZ
?set_to_null@DynValueBoxImpl@omni@@$4PPPPPPPM@A@EAAXXZ
?set_to_null@DynValueBoxImpl@omni@@UEAAXXZ
?set_to_null@DynValueImpl@omni@@$4PPPPPPPM@A@EAAXXZ
?set_to_null@DynValueImpl@omni@@UEAAXXZ
?set_to_null@omniNilDynValue@omni@@$4PPPPPPPM@A@EAAXXZ
?set_to_null@omniNilDynValue@omni@@UEAAXXZ
?set_to_null@omniNilDynValueBox@omni@@$4PPPPPPPM@A@EAAXXZ
?set_to_null@omniNilDynValueBox@omni@@UEAAXXZ
?set_to_null@omniNilDynValueCommon@omni@@UEAAXXZ
?set_to_value@DynValueBoxImpl@omni@@$4PPPPPPPM@A@EAAXXZ
?set_to_value@DynValueBoxImpl@omni@@UEAAXXZ
?set_to_value@DynValueImpl@omni@@$4PPPPPPPM@A@EAAXXZ
?set_to_value@DynValueImpl@omni@@UEAAXXZ
?set_to_value@omniNilDynValue@omni@@$4PPPPPPPM@A@EAAXXZ
?set_to_value@omniNilDynValue@omni@@UEAAXXZ
?set_to_value@omniNilDynValueBox@omni@@$4PPPPPPPM@A@EAAXXZ
?set_to_value@omniNilDynValueBox@omni@@UEAAXXZ
?set_to_value@omniNilDynValueCommon@omni@@UEAAXXZ
?set_value@DynFixedImpl@omni@@UEAA_NPEBD@Z
?set_value@DynUnionDisc@omni@@UEAAX_K@Z
?set_value@DynUnionEnumDisc@omni@@UEAAX_K@Z
?set_value@omniNilDynFixed@omni@@UEAA_NPEBD@Z
?set_values@ContextImpl@omni@@UEAAXPEAVNVList@CORBA@@@Z
?set_values@omniNilContext@omni@@UEAAXPEAVNVList@CORBA@@@Z
?size@?$omnivector@PEAVDynAnyImplBase@omni@@@@QEBA_KXZ
?skip@tcParser@omni@@YAXQEAVTypeCode@CORBA@@AEAVcdrStream@@@Z
?skipUsingTC@omni@@YAXPEAVTypeCode_base@1@AEAVcdrStream@@@Z
?startTruncatable@OutputValueTracker@omni@@QEAAXXZ
?state@omniServerRequest@omni@@QEAA?AW4State@12@XZ
?storeExceptionInEnv@RequestImpl@omni@@QEAAXXZ
?strMatch@omni@@YA_NPEBD0@Z
?strip@TypeCode_indirect@omni@@SAPEAVTypeCode_base@2@PEAV32@@Z
?strip@TypeCode_indirect@omni@@SAPEBVTypeCode_base@2@PEBV32@@Z
?supported_interfaces@_objref_ValueDef@CORBA@@QEAAPEAVInterfaceDefSeq@2@XZ
?supported_interfaces@_objref_ValueDef@CORBA@@QEAAXAEBVInterfaceDefSeq@2@@Z
?target@RequestImpl@omni@@UEBAPEAVObject@CORBA@@XZ
?target@omniNilRequest@omni@@UEBAPEAVObject@CORBA@@XZ
?tc@DynAnyImplBase@omni@@QEBAPEAVTypeCode_base@2@XZ
?tckind@DynAnyImplBase@omni@@QEBA?AW4TCKind@CORBA@@XZ
?theFactory@DynAnyFactoryImpl@omni@@SAPEAVDynAnyFactory@DynamicAny@@XZ
?the_empty@@3VcdrAnyMemoryStream@@A
?timedwait@omni_condition@@QEAAHAEBUomni_time_t@@@Z
?to_any@DynAnyImplBase@omni@@$4PPPPPPPM@7EAAPEAVAny@CORBA@@XZ
?to_any@DynAnyImplBase@omni@@$4PPPPPPPM@A@EAAPEAVAny@CORBA@@XZ
?to_any@DynAnyImplBase@omni@@$4PPPPPPPM@BA@EAAPEAVAny@CORBA@@XZ
?to_any@DynAnyImplBase@omni@@$4PPPPPPPM@BI@EAAPEAVAny@CORBA@@XZ
?to_any@DynAnyImplBase@omni@@$4PPPPPPPM@CA@EAAPEAVAny@CORBA@@XZ
?to_any@DynAnyImplBase@omni@@$4PPPPPPPM@DA@EAAPEAVAny@CORBA@@XZ
?to_any@DynAnyImplBase@omni@@$4PPPPPPPM@EA@EAAPEAVAny@CORBA@@XZ
?to_any@DynAnyImplBase@omni@@$4PPPPPPPM@EI@EAAPEAVAny@CORBA@@XZ
?to_any@DynAnyImplBase@omni@@$4PPPPPPPM@HI@EAAPEAVAny@CORBA@@XZ
?to_any@DynAnyImplBase@omni@@UEAAPEAVAny@CORBA@@XZ
?to_any@omniNilDynAny@omni@@$4PPPPPPPM@A@EAAPEAVAny@CORBA@@XZ
?to_any@omniNilDynAny@omni@@UEAAPEAVAny@CORBA@@XZ
?track@omniTypeCodeCollection@omni@@QEAAXPEAVTypeCode@CORBA@@@Z
?type@Any@CORBA@@QEAAXPEAVTypeCode@2@@Z
?type@Any@CORBA@@QEBAPEAVTypeCode@2@XZ
?type@DynAnyImplBase@omni@@$4PPPPPPPM@7EBAPEAVTypeCode@CORBA@@XZ
?type@DynAnyImplBase@omni@@$4PPPPPPPM@A@EBAPEAVTypeCode@CORBA@@XZ
?type@DynAnyImplBase@omni@@$4PPPPPPPM@BA@EBAPEAVTypeCode@CORBA@@XZ
?type@DynAnyImplBase@omni@@$4PPPPPPPM@BI@EBAPEAVTypeCode@CORBA@@XZ
?type@DynAnyImplBase@omni@@$4PPPPPPPM@CA@EBAPEAVTypeCode@CORBA@@XZ
?type@DynAnyImplBase@omni@@$4PPPPPPPM@DA@EBAPEAVTypeCode@CORBA@@XZ
?type@DynAnyImplBase@omni@@$4PPPPPPPM@EA@EBAPEAVTypeCode@CORBA@@XZ
?type@DynAnyImplBase@omni@@$4PPPPPPPM@EI@EBAPEAVTypeCode@CORBA@@XZ
?type@DynAnyImplBase@omni@@$4PPPPPPPM@HI@EBAPEAVTypeCode@CORBA@@XZ
?type@DynAnyImplBase@omni@@UEBAPEAVTypeCode@CORBA@@XZ
?type@_objref_AttributeDef@CORBA@@QEAAPEAVTypeCode@2@XZ
?type@_objref_ConstantDef@CORBA@@QEAAPEAVTypeCode@2@XZ
?type@_objref_ExceptionDef@CORBA@@QEAAPEAVTypeCode@2@XZ
?type@_objref_IDLType@CORBA@@QEAAPEAVTypeCode@2@XZ
?type@_objref_ValueMemberDef@CORBA@@QEAAPEAVTypeCode@2@XZ
?type@omniNilDynAny@omni@@$4PPPPPPPM@A@EBAPEAVTypeCode@CORBA@@XZ
?type@omniNilDynAny@omni@@UEBAPEAVTypeCode@CORBA@@XZ
?type_def@_objref_AttributeDef@CORBA@@QEAAPEAV_objref_IDLType@2@XZ
?type_def@_objref_AttributeDef@CORBA@@QEAAXPEAV_objref_IDLType@2@@Z
?type_def@_objref_ConstantDef@CORBA@@QEAAPEAV_objref_IDLType@2@XZ
?type_def@_objref_ConstantDef@CORBA@@QEAAXPEAV_objref_IDLType@2@@Z
?type_def@_objref_ValueMemberDef@CORBA@@QEAAPEAV_objref_IDLType@2@XZ
?type_def@_objref_ValueMemberDef@CORBA@@QEAAXPEAV_objref_IDLType@2@@Z
?type_modifier@TypeCode@CORBA@@QEBAFXZ
?typecode_initialiser@TypeCodeInitialiser@omni@@2V12@A
?unlock@omni_mutex@@QEAAXXZ
?unmarshal@DIIPollable_Helper@CORBA@@SAPEAVDIIPollable@2@AEAVcdrStream@@@Z
?unmarshal@ExceptionHolder_Helper@Messaging@@SAPEAVExceptionHolder@2@AEAVcdrStream@@@Z
?unmarshal@Pollable_Helper@CORBA@@SAPEAVPollable@2@AEAVcdrStream@@@Z
?unmarshal@Poller_Helper@Messaging@@SAPEAVPoller@2@AEAVcdrStream@@@Z
?unmarshal@StringValue_Helper@CORBA@@SAPEAVStringValue@2@AEAVcdrStream@@@Z
?unmarshal@TypeCode_marshaller@omni@@SAPEAVTypeCode_base@2@AEAVcdrStream@@PEAVTypeCode_offsetTable@2@@Z
?unmarshal@WStringValue_Helper@CORBA@@SAPEAVWStringValue@2@AEAVcdrStream@@@Z
?unmarshal@omniValueType@@SAPEAVValueBase@CORBA@@PEBDKPEAVTypeCode@3@AEAVcdrStream@@@Z
?unmarshalArguments@_0RL_cd_7963219a43724a61_04000000@@UEAAXAEAVcdrStream@@@Z
?unmarshalArguments@_0RL_cd_7963219a43724a61_0b000000@@UEAAXAEAVcdrStream@@@Z
?unmarshalArguments@_0RL_cd_7963219a43724a61_12000000@@UEAAXAEAVcdrStream@@@Z
?unmarshalArguments@_0RL_cd_7963219a43724a61_13000000@@UEAAXAEAVcdrStream@@@Z
?unmarshalArguments@_0RL_cd_7963219a43724a61_15000000@@UEAAXAEAVcdrStream@@@Z
?unmarshalArguments@_0RL_cd_7963219a43724a61_19000000@@UEAAXAEAVcdrStream@@@Z
?unmarshalArguments@_0RL_cd_7963219a43724a61_1a000000@@UEAAXAEAVcdrStream@@@Z
?unmarshalArguments@_0RL_cd_7963219a43724a61_1c000000@@UEAAXAEAVcdrStream@@@Z
?unmarshalArguments@_0RL_cd_7963219a43724a61_24000000@@UEAAXAEAVcdrStream@@@Z
?unmarshalArguments@_0RL_cd_7963219a43724a61_28000000@@UEAAXAEAVcdrStream@@@Z
?unmarshalArguments@_0RL_cd_7963219a43724a61_31000000@@UEAAXAEAVcdrStream@@@Z
?unmarshalArguments@_0RL_cd_7963219a43724a61_32000000@@UEAAXAEAVcdrStream@@@Z
?unmarshalArguments@_0RL_cd_7963219a43724a61_33000000@@UEAAXAEAVcdrStream@@@Z
?unmarshalArguments@_0RL_cd_7963219a43724a61_44000000@@UEAAXAEAVcdrStream@@@Z
?unmarshalArguments@_0RL_cd_7963219a43724a61_46000000@@UEAAXAEAVcdrStream@@@Z
?unmarshalArguments@_0RL_cd_7963219a43724a61_4b000000@@UEAAXAEAVcdrStream@@@Z
?unmarshalArguments@_0RL_cd_7963219a43724a61_51000000@@UEAAXAEAVcdrStream@@@Z
?unmarshalArguments@_0RL_cd_7963219a43724a61_52000000@@UEAAXAEAVcdrStream@@@Z
?unmarshalArguments@_0RL_cd_7963219a43724a61_59000000@@UEAAXAEAVcdrStream@@@Z
?unmarshalArguments@_0RL_cd_7963219a43724a61_60000000@@UEAAXAEAVcdrStream@@@Z
?unmarshalArguments@_0RL_cd_7963219a43724a61_71000000@@UEAAXAEAVcdrStream@@@Z
?unmarshalArguments@_0RL_cd_7963219a43724a61_72000000@@UEAAXAEAVcdrStream@@@Z
?unmarshalArguments@_0RL_cd_7963219a43724a61_83000000@@UEAAXAEAVcdrStream@@@Z
?unmarshalArguments@_0RL_cd_7963219a43724a61_85000000@@UEAAXAEAVcdrStream@@@Z
?unmarshalArguments@_0RL_cd_7963219a43724a61_8b000000@@UEAAXAEAVcdrStream@@@Z
?unmarshalArguments@_0RL_cd_7963219a43724a61_91000000@@UEAAXAEAVcdrStream@@@Z
?unmarshalArguments@_0RL_cd_7963219a43724a61_92000000@@UEAAXAEAVcdrStream@@@Z
?unmarshalArguments@_0RL_cd_7963219a43724a61_94000000@@UEAAXAEAVcdrStream@@@Z
?unmarshalArguments@_0RL_cd_7963219a43724a61_98000000@@UEAAXAEAVcdrStream@@@Z
?unmarshalArguments@_0RL_cd_7963219a43724a61_99000000@@UEAAXAEAVcdrStream@@@Z
?unmarshalArguments@_0RL_cd_7963219a43724a61_a3000000@@UEAAXAEAVcdrStream@@@Z
?unmarshalArguments@_0RL_cd_7963219a43724a61_a6000000@@UEAAXAEAVcdrStream@@@Z
?unmarshalArguments@_0RL_cd_7963219a43724a61_b1000000@@UEAAXAEAVcdrStream@@@Z
?unmarshalArguments@_0RL_cd_7963219a43724a61_b2000000@@UEAAXAEAVcdrStream@@@Z
?unmarshalArguments@_0RL_cd_7963219a43724a61_b9000000@@UEAAXAEAVcdrStream@@@Z
?unmarshalArguments@_0RL_cd_7963219a43724a61_c3000000@@UEAAXAEAVcdrStream@@@Z
?unmarshalArguments@_0RL_cd_7963219a43724a61_c5000000@@UEAAXAEAVcdrStream@@@Z
?unmarshalArguments@_0RL_cd_7963219a43724a61_ca000000@@UEAAXAEAVcdrStream@@@Z
?unmarshalArguments@_0RL_cd_7963219a43724a61_d1000000@@UEAAXAEAVcdrStream@@@Z
?unmarshalArguments@_0RL_cd_7963219a43724a61_d2000000@@UEAAXAEAVcdrStream@@@Z
?unmarshalArguments@_0RL_cd_7963219a43724a61_d4000000@@UEAAXAEAVcdrStream@@@Z
?unmarshalArguments@_0RL_cd_7963219a43724a61_d8000000@@UEAAXAEAVcdrStream@@@Z
?unmarshalArguments@_0RL_cd_7963219a43724a61_e3000000@@UEAAXAEAVcdrStream@@@Z
?unmarshalArguments@_0RL_cd_7963219a43724a61_e6000000@@UEAAXAEAVcdrStream@@@Z
?unmarshalArguments@_0RL_cd_7963219a43724a61_f1000000@@UEAAXAEAVcdrStream@@@Z
?unmarshalArguments@_0RL_cd_7963219a43724a61_f2000000@@UEAAXAEAVcdrStream@@@Z
?unmarshalArguments@_0RL_cd_7963219a43724a61_f9000000@@UEAAXAEAVcdrStream@@@Z
?unmarshalArguments@serverRequestCallDescriptor@omni@@UEAAXAEAVcdrStream@@@Z
?unmarshalBoolean@cdrStream@@QEAA_NXZ
?unmarshalChar@cdrStream@@QEAAEXZ
?unmarshalContext@Context@CORBA@@SAPEAV12@AEAVcdrStream@@@Z
?unmarshalDouble@cdrStream@@QEAANXZ
?unmarshalFloat@cdrStream@@QEAAMXZ
?unmarshalLabel@TypeCode_union_helper@omni@@SA_KPEAVTypeCode@CORBA@@AEAVcdrStream@@@Z
?unmarshalLong@cdrStream@@QEAAJXZ
?unmarshalLongLong@cdrStream@@QEAA_JXZ
?unmarshalObjRef@AbstractInterfaceDef_Helper@CORBA@@SAPEAV_objref_AbstractInterfaceDef@2@AEAVcdrStream@@@Z
?unmarshalObjRef@AliasDef_Helper@CORBA@@SAPEAV_objref_AliasDef@2@AEAVcdrStream@@@Z
?unmarshalObjRef@ArrayDef_Helper@CORBA@@SAPEAV_objref_ArrayDef@2@AEAVcdrStream@@@Z
?unmarshalObjRef@AttributeDef_Helper@CORBA@@SAPEAV_objref_AttributeDef@2@AEAVcdrStream@@@Z
?unmarshalObjRef@ConstantDef_Helper@CORBA@@SAPEAV_objref_ConstantDef@2@AEAVcdrStream@@@Z
?unmarshalObjRef@Contained_Helper@CORBA@@SAPEAV_objref_Contained@2@AEAVcdrStream@@@Z
?unmarshalObjRef@Container_Helper@CORBA@@SAPEAV_objref_Container@2@AEAVcdrStream@@@Z
?unmarshalObjRef@EnumDef_Helper@CORBA@@SAPEAV_objref_EnumDef@2@AEAVcdrStream@@@Z
?unmarshalObjRef@ExceptionDef_Helper@CORBA@@SAPEAV_objref_ExceptionDef@2@AEAVcdrStream@@@Z
?unmarshalObjRef@FixedDef_Helper@CORBA@@SAPEAV_objref_FixedDef@2@AEAVcdrStream@@@Z
?unmarshalObjRef@IDLType_Helper@CORBA@@SAPEAV_objref_IDLType@2@AEAVcdrStream@@@Z
?unmarshalObjRef@IRObject_Helper@CORBA@@SAPEAV_objref_IRObject@2@AEAVcdrStream@@@Z
?unmarshalObjRef@InterfaceDef_Helper@CORBA@@SAPEAV_objref_InterfaceDef@2@AEAVcdrStream@@@Z
?unmarshalObjRef@ModuleDef_Helper@CORBA@@SAPEAV_objref_ModuleDef@2@AEAVcdrStream@@@Z
?unmarshalObjRef@NativeDef_Helper@CORBA@@SAPEAV_objref_NativeDef@2@AEAVcdrStream@@@Z
?unmarshalObjRef@OperationDef_Helper@CORBA@@SAPEAV_objref_OperationDef@2@AEAVcdrStream@@@Z
?unmarshalObjRef@PollableSet_Helper@CORBA@@SAPEAVPollableSet@2@AEAVcdrStream@@@Z
?unmarshalObjRef@PrimitiveDef_Helper@CORBA@@SAPEAV_objref_PrimitiveDef@2@AEAVcdrStream@@@Z
?unmarshalObjRef@ReplyHandler_Helper@Messaging@@SAPEAV_objref_ReplyHandler@2@AEAVcdrStream@@@Z
?unmarshalObjRef@Repository_Helper@CORBA@@SAPEAV_objref_Repository@2@AEAVcdrStream@@@Z
?unmarshalObjRef@SequenceDef_Helper@CORBA@@SAPEAV_objref_SequenceDef@2@AEAVcdrStream@@@Z
?unmarshalObjRef@StringDef_Helper@CORBA@@SAPEAV_objref_StringDef@2@AEAVcdrStream@@@Z
?unmarshalObjRef@StructDef_Helper@CORBA@@SAPEAV_objref_StructDef@2@AEAVcdrStream@@@Z
?unmarshalObjRef@TypedefDef_Helper@CORBA@@SAPEAV_objref_TypedefDef@2@AEAVcdrStream@@@Z
?unmarshalObjRef@UnionDef_Helper@CORBA@@SAPEAV_objref_UnionDef@2@AEAVcdrStream@@@Z
?unmarshalObjRef@ValueBoxDef_Helper@CORBA@@SAPEAV_objref_ValueBoxDef@2@AEAVcdrStream@@@Z
?unmarshalObjRef@ValueDef_Helper@CORBA@@SAPEAV_objref_ValueDef@2@AEAVcdrStream@@@Z
?unmarshalObjRef@ValueMemberDef_Helper@CORBA@@SAPEAV_objref_ValueMemberDef@2@AEAVcdrStream@@@Z
?unmarshalObjRef@WstringDef_Helper@CORBA@@SAPEAV_objref_WstringDef@2@AEAVcdrStream@@@Z
?unmarshalOctet@cdrStream@@QEAAEXZ
?unmarshalReturnedValues@DIICallDescriptor@omni@@UEAAXAEAVcdrStream@@@Z
?unmarshalReturnedValues@_0RL_cd_7963219a43724a61_00000000@@UEAAXAEAVcdrStream@@@Z
?unmarshalReturnedValues@_0RL_cd_7963219a43724a61_04000000@@UEAAXAEAVcdrStream@@@Z
?unmarshalReturnedValues@_0RL_cd_7963219a43724a61_06000000@@UEAAXAEAVcdrStream@@@Z
?unmarshalReturnedValues@_0RL_cd_7963219a43724a61_08000000@@UEAAXAEAVcdrStream@@@Z
?unmarshalReturnedValues@_0RL_cd_7963219a43724a61_11000000@@UEAAXAEAVcdrStream@@@Z
?unmarshalReturnedValues@_0RL_cd_7963219a43724a61_12000000@@UEAAXAEAVcdrStream@@@Z
?unmarshalReturnedValues@_0RL_cd_7963219a43724a61_13000000@@UEAAXAEAVcdrStream@@@Z
?unmarshalReturnedValues@_0RL_cd_7963219a43724a61_1a000000@@UEAAXAEAVcdrStream@@@Z
?unmarshalReturnedValues@_0RL_cd_7963219a43724a61_1c000000@@UEAAXAEAVcdrStream@@@Z
?unmarshalReturnedValues@_0RL_cd_7963219a43724a61_24000000@@UEAAXAEAVcdrStream@@@Z
?unmarshalReturnedValues@_0RL_cd_7963219a43724a61_26000000@@UEAAXAEAVcdrStream@@@Z
?unmarshalReturnedValues@_0RL_cd_7963219a43724a61_2b000000@@UEAAXAEAVcdrStream@@@Z
?unmarshalReturnedValues@_0RL_cd_7963219a43724a61_32000000@@UEAAXAEAVcdrStream@@@Z
?unmarshalReturnedValues@_0RL_cd_7963219a43724a61_33000000@@UEAAXAEAVcdrStream@@@Z
?unmarshalReturnedValues@_0RL_cd_7963219a43724a61_39000000@@UEAAXAEAVcdrStream@@@Z
?unmarshalReturnedValues@_0RL_cd_7963219a43724a61_40000000@@UEAAXAEAVcdrStream@@@Z
?unmarshalReturnedValues@_0RL_cd_7963219a43724a61_44000000@@UEAAXAEAVcdrStream@@@Z
?unmarshalReturnedValues@_0RL_cd_7963219a43724a61_51000000@@UEAAXAEAVcdrStream@@@Z
?unmarshalReturnedValues@_0RL_cd_7963219a43724a61_52000000@@UEAAXAEAVcdrStream@@@Z
?unmarshalReturnedValues@_0RL_cd_7963219a43724a61_53000000@@UEAAXAEAVcdrStream@@@Z
?unmarshalReturnedValues@_0RL_cd_7963219a43724a61_65000000@@UEAAXAEAVcdrStream@@@Z
?unmarshalReturnedValues@_0RL_cd_7963219a43724a61_6b000000@@UEAAXAEAVcdrStream@@@Z
?unmarshalReturnedValues@_0RL_cd_7963219a43724a61_71000000@@UEAAXAEAVcdrStream@@@Z
?unmarshalReturnedValues@_0RL_cd_7963219a43724a61_72000000@@UEAAXAEAVcdrStream@@@Z
?unmarshalReturnedValues@_0RL_cd_7963219a43724a61_74000000@@UEAAXAEAVcdrStream@@@Z
?unmarshalReturnedValues@_0RL_cd_7963219a43724a61_78000000@@UEAAXAEAVcdrStream@@@Z
?unmarshalReturnedValues@_0RL_cd_7963219a43724a61_79000000@@UEAAXAEAVcdrStream@@@Z
?unmarshalReturnedValues@_0RL_cd_7963219a43724a61_83000000@@UEAAXAEAVcdrStream@@@Z
?unmarshalReturnedValues@_0RL_cd_7963219a43724a61_86000000@@UEAAXAEAVcdrStream@@@Z
?unmarshalReturnedValues@_0RL_cd_7963219a43724a61_91000000@@UEAAXAEAVcdrStream@@@Z
?unmarshalReturnedValues@_0RL_cd_7963219a43724a61_92000000@@UEAAXAEAVcdrStream@@@Z
?unmarshalReturnedValues@_0RL_cd_7963219a43724a61_a3000000@@UEAAXAEAVcdrStream@@@Z
?unmarshalReturnedValues@_0RL_cd_7963219a43724a61_a5000000@@UEAAXAEAVcdrStream@@@Z
?unmarshalReturnedValues@_0RL_cd_7963219a43724a61_aa000000@@UEAAXAEAVcdrStream@@@Z
?unmarshalReturnedValues@_0RL_cd_7963219a43724a61_b1000000@@UEAAXAEAVcdrStream@@@Z
?unmarshalReturnedValues@_0RL_cd_7963219a43724a61_b2000000@@UEAAXAEAVcdrStream@@@Z
?unmarshalReturnedValues@_0RL_cd_7963219a43724a61_b4000000@@UEAAXAEAVcdrStream@@@Z
?unmarshalReturnedValues@_0RL_cd_7963219a43724a61_b8000000@@UEAAXAEAVcdrStream@@@Z
?unmarshalReturnedValues@_0RL_cd_7963219a43724a61_b9000000@@UEAAXAEAVcdrStream@@@Z
?unmarshalReturnedValues@_0RL_cd_7963219a43724a61_c0000000@@UEAAXAEAVcdrStream@@@Z
?unmarshalReturnedValues@_0RL_cd_7963219a43724a61_c3000000@@UEAAXAEAVcdrStream@@@Z
?unmarshalReturnedValues@_0RL_cd_7963219a43724a61_c6000000@@UEAAXAEAVcdrStream@@@Z
?unmarshalReturnedValues@_0RL_cd_7963219a43724a61_d1000000@@UEAAXAEAVcdrStream@@@Z
?unmarshalReturnedValues@_0RL_cd_7963219a43724a61_d2000000@@UEAAXAEAVcdrStream@@@Z
?unmarshalReturnedValues@_0RL_cd_7963219a43724a61_d9000000@@UEAAXAEAVcdrStream@@@Z
?unmarshalReturnedValues@_0RL_cd_7963219a43724a61_e3000000@@UEAAXAEAVcdrStream@@@Z
?unmarshalReturnedValues@_0RL_cd_7963219a43724a61_ea000000@@UEAAXAEAVcdrStream@@@Z
?unmarshalReturnedValues@_0RL_cd_7963219a43724a61_f0000000@@UEAAXAEAVcdrStream@@@Z
?unmarshalReturnedValues@_0RL_cd_7963219a43724a61_f1000000@@UEAAXAEAVcdrStream@@@Z
?unmarshalReturnedValues@_0RL_cd_7963219a43724a61_f2000000@@UEAAXAEAVcdrStream@@@Z
?unmarshalReturnedValues@_0RL_cd_7963219a43724a61_f4000000@@UEAAXAEAVcdrStream@@@Z
?unmarshalReturnedValues@_0RL_cd_7963219a43724a61_f8000000@@UEAAXAEAVcdrStream@@@Z
?unmarshalReturnedValues@_0RL_cd_7963219a43724a61_f9000000@@UEAAXAEAVcdrStream@@@Z
?unmarshalReturnedValues@_0RL_cd_7963219a43724a61_fb000000@@UEAAXAEAVcdrStream@@@Z
?unmarshalShort@cdrStream@@QEAAFXZ
?unmarshalString@cdrStream@@QEAAPEADH@Z
?unmarshalTypeCode@TypeCode@CORBA@@SAPEAV12@AEAVcdrStream@@@Z
?unmarshalULong@cdrStream@@QEAAKXZ
?unmarshalULongLong@cdrStream@@QEAA_KXZ
?unmarshalUShort@cdrStream@@QEAAGXZ
?unmarshalWChar@cdrStream@@QEAA_WXZ
?unmarshalWString@cdrStream@@QEAAPEA_WH@Z
?unmarshal_byte_swap@cdrStream@@QEBA_NXZ
?unregister_factory@_omni_ValueFactoryManager@@SAXPEBDK@Z
?unregister_value_factory@ORB@CORBA@@QEAAXPEBD@Z
?userException@DIICallDescriptor@omni@@UEAAXAEAVcdrStream@@PEAVIOP_C@2@PEBD@Z
?valid@InputValueTracker@omni@@QEAA_NXZ
?valid@OutputValueTracker@omni@@QEAA_NXZ
?value@Any@CORBA@@QEBAPEBXXZ
?value@BidirectionalPolicy@BiDirPolicy@@UEAAGXZ
?value@IdAssignmentPolicy@PortableServer@@UEAA?AW4IdAssignmentPolicyValue@2@XZ
?value@IdUniquenessPolicy@PortableServer@@UEAA?AW4IdUniquenessPolicyValue@2@XZ
?value@ImplicitActivationPolicy@PortableServer@@UEAA?AW4ImplicitActivationPolicyValue@2@XZ
?value@LifespanPolicy@PortableServer@@UEAA?AW4LifespanPolicyValue@2@XZ
?value@LocalShortcutPolicy@omniPolicy@@UEAAGXZ
?value@NamedValueImpl@omni@@UEBAPEAVAny@CORBA@@XZ
?value@PlainObjectKeysPolicy@omniPolicy@@UEAAGXZ
?value@RequestProcessingPolicy@PortableServer@@UEAA?AW4RequestProcessingPolicyValue@2@XZ
?value@ServantRetentionPolicy@PortableServer@@UEAA?AW4ServantRetentionPolicyValue@2@XZ
?value@ThreadPolicy@PortableServer@@UEAA?AW4ThreadPolicyValue@2@XZ
?value@_objref_ConstantDef@CORBA@@QEAAPEAVAny@2@XZ
?value@_objref_ConstantDef@CORBA@@QEAAXAEBVAny@2@@Z
?value@omniNilNV@omni@@UEBAPEAVAny@CORBA@@XZ
?value@omni_refcount@@QEAAHXZ
?valueSeq@cdrAnyMemoryStream@@QEAAAEAVValueBaseSeq@omniTypedefs@@XZ
?valueTracker@cdrStream@@QEAAXPEAVValueIndirectionTracker@omni@@@Z
?valueTracker@cdrStream@@QEBAPEAVValueIndirectionTracker@omni@@XZ
?version@_objref_Contained@CORBA@@QEAAPEADXZ
?version@_objref_Contained@CORBA@@QEAAXPEBD@Z
?visit@omniInterceptorP@omni@@SAXAEAVinfo_T@createPolicy_T@omniInterceptors@2@@Z
?wait@omniAsyncCallDescriptor@@QEAAXXZ
?wait@omniAsyncCallDescriptor@@QEAA_NAEBUomni_time_t@@@Z
?waitForCallback@DIICallDescriptor@omni@@QEAAXXZ
?writeCurrent@DynAnyConstrBase@omni@@IEAAAEAVcdrAnyMemoryStream@@W4TCKind@CORBA@@@Z
?writeCurrent@DynUnionImpl@omni@@AEAAAEAVcdrAnyMemoryStream@@W4TCKind@CORBA@@@Z
