LIBRARY shared/COS433_vc17_rt.dll
VERSION 3.3
EXPORTS
??0?$_CORBA_ConstrType_Variable_Var@UStructuredEvent@CosNotification@@@@QEAA@XZ
??0?$_CORBA_ObjRef_OUT_arg@V_objref_TIO@CosTime@@VTIO_Helper@2@@@QEAA@AEAPEAV_objref_TIO@CosTime@@@Z
??0?$_CORBA_ObjRef_Var@V_objref_ConsumerAdmin@CosEventChannelAdmin@@VConsumerAdmin_Helper@2@@@QEAA@XZ
??0?$_CORBA_ObjRef_Var@V_objref_ConsumerAdmin@CosNotifyChannelAdmin@@VConsumerAdmin_Helper@2@@@QEAA@XZ
??0?$_CORBA_ObjRef_Var@V_objref_EventChannel@CosNotifyChannelAdmin@@VEventChannel_Helper@2@@@QEAA@XZ
??0?$_CORBA_ObjRef_Var@V_objref_EventChannelFactory@CosNotifyChannelAdmin@@VEventChannelFactory_Helper@2@@@QEAA@XZ
??0?$_CORBA_ObjRef_Var@V_objref_FactoryFinder@CosLifeCycle@@VFactoryFinder_Helper@2@@@QEAA@XZ
??0?$_CORBA_ObjRef_Var@V_objref_Filter@CosNotifyFilter@@VFilter_Helper@2@@@QEAA@XZ
??0?$_CORBA_ObjRef_Var@V_objref_FilterFactory@CosNotifyFilter@@VFilterFactory_Helper@2@@@QEAA@XZ
??0?$_CORBA_ObjRef_Var@V_objref_LifeCycleObject@CosLifeCycle@@VLifeCycleObject_Helper@2@@@QEAA@XZ
??0?$_CORBA_ObjRef_Var@V_objref_MappingFilter@CosNotifyFilter@@VMappingFilter_Helper@2@@@QEAA@XZ
??0?$_CORBA_ObjRef_Var@V_objref_NotifySubscribe@CosNotifyComm@@VNotifySubscribe_Helper@2@@@QEAA@XZ
??0?$_CORBA_ObjRef_Var@V_objref_ProxyConsumer@CosNotifyChannelAdmin@@VProxyConsumer_Helper@2@@@QEAA@XZ
??0?$_CORBA_ObjRef_Var@V_objref_ProxyPullConsumer@CosEventChannelAdmin@@VProxyPullConsumer_Helper@2@@@QEAA@XZ
??0?$_CORBA_ObjRef_Var@V_objref_ProxyPullSupplier@CosEventChannelAdmin@@VProxyPullSupplier_Helper@2@@@QEAA@XZ
??0?$_CORBA_ObjRef_Var@V_objref_ProxyPushConsumer@CosEventChannelAdmin@@VProxyPushConsumer_Helper@2@@@QEAA@XZ
??0?$_CORBA_ObjRef_Var@V_objref_ProxyPushSupplier@CosEventChannelAdmin@@VProxyPushSupplier_Helper@2@@@QEAA@XZ
??0?$_CORBA_ObjRef_Var@V_objref_ProxySupplier@CosNotifyChannelAdmin@@VProxySupplier_Helper@2@@@QEAA@XZ
??0?$_CORBA_ObjRef_Var@V_objref_PullConsumer@CosEventComm@@VPullConsumer_Helper@2@@@QEAA@XZ
??0?$_CORBA_ObjRef_Var@V_objref_PullSupplier@CosEventComm@@VPullSupplier_Helper@2@@@QEAA@XZ
??0?$_CORBA_ObjRef_Var@V_objref_PushConsumer@CosEventComm@@VPushConsumer_Helper@2@@@QEAA@XZ
??0?$_CORBA_ObjRef_Var@V_objref_PushSupplier@CosEventComm@@VPushSupplier_Helper@2@@@QEAA@XZ
??0?$_CORBA_ObjRef_Var@V_objref_SequencePullConsumer@CosNotifyComm@@VSequencePullConsumer_Helper@2@@@QEAA@XZ
??0?$_CORBA_ObjRef_Var@V_objref_SequencePullSupplier@CosNotifyComm@@VSequencePullSupplier_Helper@2@@@QEAA@XZ
??0?$_CORBA_ObjRef_Var@V_objref_SequencePushConsumer@CosNotifyComm@@VSequencePushConsumer_Helper@2@@@QEAA@XZ
??0?$_CORBA_ObjRef_Var@V_objref_SequencePushSupplier@CosNotifyComm@@VSequencePushSupplier_Helper@2@@@QEAA@XZ
??0?$_CORBA_ObjRef_Var@V_objref_StructuredPullConsumer@CosNotifyComm@@VStructuredPullConsumer_Helper@2@@@QEAA@XZ
??0?$_CORBA_ObjRef_Var@V_objref_StructuredPullSupplier@CosNotifyComm@@VStructuredPullSupplier_Helper@2@@@QEAA@XZ
??0?$_CORBA_ObjRef_Var@V_objref_StructuredPushConsumer@CosNotifyComm@@VStructuredPushConsumer_Helper@2@@@QEAA@XZ
??0?$_CORBA_ObjRef_Var@V_objref_StructuredPushSupplier@CosNotifyComm@@VStructuredPushSupplier_Helper@2@@@QEAA@XZ
??0?$_CORBA_ObjRef_Var@V_objref_SupplierAdmin@CosEventChannelAdmin@@VSupplierAdmin_Helper@2@@@QEAA@XZ
??0?$_CORBA_ObjRef_Var@V_objref_SupplierAdmin@CosNotifyChannelAdmin@@VSupplierAdmin_Helper@2@@@QEAA@XZ
??0?$_CORBA_ObjRef_Var@V_objref_TIO@CosTime@@VTIO_Helper@2@@@QEAA@XZ
??0?$_CORBA_ObjRef_Var@V_objref_UTO@CosTime@@VUTO_Helper@2@@@QEAA@XZ
??0?$_CORBA_Sequence@J@@IEAA@XZ
??0?$_CORBA_Sequence@UConstraintExp@CosNotifyFilter@@@@IEAA@XZ
??0?$_CORBA_Sequence@UConstraintInfo@CosNotifyFilter@@@@IEAA@XZ
??0?$_CORBA_Sequence@UEventType@CosNotification@@@@IEAA@XZ
??0?$_CORBA_Sequence@UMappingConstraintInfo@CosNotifyFilter@@@@IEAA@XZ
??0?$_CORBA_Sequence@UMappingConstraintPair@CosNotifyFilter@@@@IEAA@XZ
??0?$_CORBA_Sequence@UNVP@CosLifeCycle@@@@IEAA@XZ
??0?$_CORBA_Sequence@UNameComponent@CosNaming@@@@IEAA@XZ
??0?$_CORBA_Sequence@UNamedPropertyRange@CosNotification@@@@IEAA@XZ
??0?$_CORBA_Sequence@UProperty@CosNotification@@@@IEAA@XZ
??0?$_CORBA_Sequence@UPropertyError@CosNotification@@@@IEAA@XZ
??0?$_CORBA_Sequence@UStructuredEvent@CosNotification@@@@IEAA@XZ
??0?$_CORBA_Sequence_ObjRef@VObject@CORBA@@VObject_Element@2@VObject_Helper@2@@@IEAA@XZ
??0?$_CORBA_Unbounded_Sequence@J@@QEAA@XZ
??0?$_CORBA_Unbounded_Sequence@UConstraintExp@CosNotifyFilter@@@@QEAA@XZ
??0?$_CORBA_Unbounded_Sequence@UConstraintInfo@CosNotifyFilter@@@@QEAA@XZ
??0?$_CORBA_Unbounded_Sequence@UEventType@CosNotification@@@@QEAA@XZ
??0?$_CORBA_Unbounded_Sequence@UMappingConstraintInfo@CosNotifyFilter@@@@QEAA@XZ
??0?$_CORBA_Unbounded_Sequence@UMappingConstraintPair@CosNotifyFilter@@@@QEAA@XZ
??0?$_CORBA_Unbounded_Sequence@UNVP@CosLifeCycle@@@@QEAA@XZ
??0?$_CORBA_Unbounded_Sequence@UNameComponent@CosNaming@@@@QEAA@XZ
??0?$_CORBA_Unbounded_Sequence@UNamedPropertyRange@CosNotification@@@@QEAA@XZ
??0?$_CORBA_Unbounded_Sequence@UProperty@CosNotification@@@@QEAA@XZ
??0?$_CORBA_Unbounded_Sequence@UPropertyError@CosNotification@@@@QEAA@XZ
??0?$_CORBA_Unbounded_Sequence@UStructuredEvent@CosNotification@@@@QEAA@XZ
??0?$_CORBA_Unbounded_Sequence_ObjRef@VObject@CORBA@@VObject_Element@2@VObject_Helper@2@@@QEAA@XZ
??0?$_CORBA_Unbounded_Sequence_w_FixSizeElement@J$03$03@@QEAA@XZ
??0AdminIDSeq@CosNotifyChannelAdmin@@QEAA@XZ
??0AdminIDSeq_var@CosNotifyChannelAdmin@@QEAA@XZ
??0AdminLimit@CosNotifyChannelAdmin@@QEAA@XZ
??0AdminLimitExceeded@CosNotifyChannelAdmin@@QEAA@AEBUAdminLimit@1@@Z
??0AdminLimitExceeded@CosNotifyChannelAdmin@@QEAA@AEBV01@@Z
??0AdminLimitExceeded@CosNotifyChannelAdmin@@QEAA@XZ
??0AdminNotFound@CosNotifyChannelAdmin@@QEAA@AEBV01@@Z
??0AdminNotFound@CosNotifyChannelAdmin@@QEAA@XZ
??0AlreadyConnected@CosEventChannelAdmin@@QEAA@AEBV01@@Z
??0AlreadyConnected@CosEventChannelAdmin@@QEAA@XZ
??0Any_OUT_arg@CORBA@@QEAA@AEAPEAVAny@1@@Z
??0Any_var@CORBA@@QEAA@XZ
??0CallbackIDSeq@CosNotifyFilter@@QEAA@XZ
??0CallbackIDSeq_var@CosNotifyFilter@@QEAA@XZ
??0CallbackNotFound@CosNotifyFilter@@QEAA@AEBV01@@Z
??0CallbackNotFound@CosNotifyFilter@@QEAA@XZ
??0CannotMeetCriteria@CosLifeCycle@@QEAA@AEBV01@@Z
??0CannotMeetCriteria@CosLifeCycle@@QEAA@VCriteria@1@@Z
??0CannotMeetCriteria@CosLifeCycle@@QEAA@XZ
??0ChannelIDSeq@CosNotifyChannelAdmin@@QEAA@XZ
??0ChannelIDSeq_var@CosNotifyChannelAdmin@@QEAA@XZ
??0ChannelNotFound@CosNotifyChannelAdmin@@QEAA@AEBV01@@Z
??0ChannelNotFound@CosNotifyChannelAdmin@@QEAA@XZ
??0ConnectionAlreadyActive@CosNotifyChannelAdmin@@QEAA@AEBV01@@Z
??0ConnectionAlreadyActive@CosNotifyChannelAdmin@@QEAA@XZ
??0ConnectionAlreadyInactive@CosNotifyChannelAdmin@@QEAA@AEBV01@@Z
??0ConnectionAlreadyInactive@CosNotifyChannelAdmin@@QEAA@XZ
??0ConstraintExp@CosNotifyFilter@@QEAA@XZ
??0ConstraintExpSeq@CosNotifyFilter@@QEAA@XZ
??0ConstraintExpSeq_var@CosNotifyFilter@@QEAA@XZ
??0ConstraintIDSeq@CosNotifyFilter@@QEAA@XZ
??0ConstraintIDSeq_var@CosNotifyFilter@@QEAA@XZ
??0ConstraintInfo@CosNotifyFilter@@QEAA@XZ
??0ConstraintInfoSeq@CosNotifyFilter@@QEAA@XZ
??0ConstraintInfoSeq_var@CosNotifyFilter@@QEAA@XZ
??0ConstraintNotFound@CosNotifyFilter@@QEAA@AEBV01@@Z
??0ConstraintNotFound@CosNotifyFilter@@QEAA@J@Z
??0ConstraintNotFound@CosNotifyFilter@@QEAA@XZ
??0Criteria@CosLifeCycle@@QEAA@XZ
??0Criteria_var@CosLifeCycle@@QEAA@XZ
??0Disconnected@CosEventComm@@QEAA@AEBV01@@Z
??0Disconnected@CosEventComm@@QEAA@XZ
??0DuplicateConstraintID@CosNotifyFilter@@QEAA@AEBV01@@Z
??0DuplicateConstraintID@CosNotifyFilter@@QEAA@J@Z
??0EventBatch@CosNotification@@QEAA@XZ
??0EventBatch_var@CosNotification@@QEAA@XZ
??0EventHeader@CosNotification@@QEAA@XZ
??0EventType@CosNotification@@QEAA@XZ
??0EventTypeSeq@CosNotification@@QEAA@XZ
??0EventTypeSeq_var@CosNotification@@QEAA@XZ
??0Exception@CORBA@@IEAA@XZ
??0Exception@CORBA@@QEAA@AEBV01@@Z
??0Factories@CosLifeCycle@@QEAA@XZ
??0Factories_var@CosLifeCycle@@QEAA@XZ
??0FilterIDSeq@CosNotifyFilter@@QEAA@XZ
??0FilterIDSeq_var@CosNotifyFilter@@QEAA@XZ
??0FilterNotFound@CosNotifyFilter@@QEAA@AEBV01@@Z
??0FilterNotFound@CosNotifyFilter@@QEAA@XZ
??0FixedEventHeader@CosNotification@@QEAA@XZ
??0InvalidConstraint@CosNotifyFilter@@QEAA@AEBUConstraintExp@1@@Z
??0InvalidConstraint@CosNotifyFilter@@QEAA@AEBV01@@Z
??0InvalidConstraint@CosNotifyFilter@@QEAA@XZ
??0InvalidCriteria@CosLifeCycle@@QEAA@AEBV01@@Z
??0InvalidCriteria@CosLifeCycle@@QEAA@VCriteria@1@@Z
??0InvalidCriteria@CosLifeCycle@@QEAA@XZ
??0InvalidEventType@CosNotifyComm@@QEAA@AEBUEventType@CosNotification@@@Z
??0InvalidEventType@CosNotifyComm@@QEAA@AEBV01@@Z
??0InvalidEventType@CosNotifyComm@@QEAA@XZ
??0InvalidGrammar@CosNotifyFilter@@QEAA@AEBV01@@Z
??0InvalidGrammar@CosNotifyFilter@@QEAA@XZ
??0InvalidValue@CosNotifyFilter@@QEAA@AEBUConstraintExp@1@AEBVAny@CORBA@@@Z
??0InvalidValue@CosNotifyFilter@@QEAA@AEBV01@@Z
??0InvalidValue@CosNotifyFilter@@QEAA@XZ
??0MARSHAL@CORBA@@QEAA@AEBV01@@Z
??0MARSHAL@CORBA@@QEAA@KW4CompletionStatus@1@@Z
??0MappingConstraintInfo@CosNotifyFilter@@QEAA@XZ
??0MappingConstraintInfoSeq@CosNotifyFilter@@QEAA@XZ
??0MappingConstraintInfoSeq_var@CosNotifyFilter@@QEAA@XZ
??0MappingConstraintPair@CosNotifyFilter@@QEAA@XZ
??0MappingConstraintPairSeq@CosNotifyFilter@@QEAA@XZ
??0MappingConstraintPairSeq_var@CosNotifyFilter@@QEAA@XZ
??0NVP@CosLifeCycle@@QEAA@XZ
??0Name@CosNaming@@QEAA@XZ
??0NameComponent@CosNaming@@QEAA@XZ
??0Name_var@CosNaming@@QEAA@XZ
??0NamedPropertyRange@CosNotification@@QEAA@XZ
??0NamedPropertyRangeSeq@CosNotification@@QEAA@XZ
??0NamedPropertyRangeSeq_out@CosNotification@@QEAA@AEAPEAVNamedPropertyRangeSeq@1@@Z
??0NamedPropertyRangeSeq_var@CosNotification@@QEAA@XZ
??0NoFactory@CosLifeCycle@@QEAA@AEBV01@@Z
??0NoFactory@CosLifeCycle@@QEAA@VName@CosNaming@@@Z
??0NoFactory@CosLifeCycle@@QEAA@XZ
??0NotConnected@CosNotifyChannelAdmin@@QEAA@AEBV01@@Z
??0NotConnected@CosNotifyChannelAdmin@@QEAA@XZ
??0NotCopyable@CosLifeCycle@@QEAA@AEBV01@@Z
??0NotCopyable@CosLifeCycle@@QEAA@PEBD@Z
??0NotCopyable@CosLifeCycle@@QEAA@XZ
??0NotMovable@CosLifeCycle@@QEAA@AEBV01@@Z
??0NotMovable@CosLifeCycle@@QEAA@PEBD@Z
??0NotMovable@CosLifeCycle@@QEAA@XZ
??0NotRemovable@CosLifeCycle@@QEAA@AEBV01@@Z
??0NotRemovable@CosLifeCycle@@QEAA@PEBD@Z
??0NotRemovable@CosLifeCycle@@QEAA@XZ
??0Object@CORBA@@QEAA@XZ
??0Object_var@CORBA@@QEAA@XZ
??0Property@CosNotification@@QEAA@XZ
??0PropertyError@CosNotification@@QEAA@XZ
??0PropertyErrorSeq@CosNotification@@QEAA@XZ
??0PropertyRange@CosNotification@@QEAA@XZ
??0PropertySeq@CosNotification@@QEAA@XZ
??0PropertySeq_var@CosNotification@@QEAA@XZ
??0ProxyIDSeq@CosNotifyChannelAdmin@@QEAA@XZ
??0ProxyIDSeq_var@CosNotifyChannelAdmin@@QEAA@XZ
??0ProxyNotFound@CosNotifyChannelAdmin@@QEAA@AEBV01@@Z
??0ProxyNotFound@CosNotifyChannelAdmin@@QEAA@XZ
??0StructuredEvent@CosNotification@@QEAA@XZ
??0SystemException@CORBA@@QEAA@AEBV01@@Z
??0SystemException@CORBA@@QEAA@KW4CompletionStatus@1@@Z
??0TimeUnavailable@CosTime@@QEAA@AEBV01@@Z
??0TimeUnavailable@CosTime@@QEAA@XZ
??0TypeCode_var@CORBA@@QEAA@XZ
??0TypeError@CosEventChannelAdmin@@QEAA@AEBV01@@Z
??0TypeError@CosEventChannelAdmin@@QEAA@XZ
??0UNKNOWN@CORBA@@QEAA@AEBV01@@Z
??0UNKNOWN@CORBA@@QEAA@KW4CompletionStatus@1@@Z
??0UnsupportedAdmin@CosNotification@@QEAA@AEBV01@@Z
??0UnsupportedAdmin@CosNotification@@QEAA@VPropertyErrorSeq@1@@Z
??0UnsupportedAdmin@CosNotification@@QEAA@XZ
??0UnsupportedFilterableData@CosNotifyFilter@@QEAA@AEBV01@@Z
??0UnsupportedFilterableData@CosNotifyFilter@@QEAA@XZ
??0UnsupportedQoS@CosNotification@@QEAA@AEBV01@@Z
??0UnsupportedQoS@CosNotification@@QEAA@VPropertyErrorSeq@1@@Z
??0UnsupportedQoS@CosNotification@@QEAA@XZ
??0UserException@CORBA@@IEAA@XZ
??0UserException@CORBA@@QEAA@AEBV01@@Z
??0_0RL_cd_1fe8f330207afd15_00000000@@QEAA@P6AXPEAVomniCallDescriptor@@PEAVomniServant@@@ZPEBD_K_N@Z
??0_0RL_cd_1fe8f330207afd15_02000000@@QEAA@P6AXPEAVomniCallDescriptor@@PEAVomniServant@@@ZPEBD_K_N@Z
??0_0RL_cd_1fe8f330207afd15_03000000@@QEAA@P6AXPEAVomniCallDescriptor@@PEAVomniServant@@@ZPEBD_K_N@Z
??0_0RL_cd_1fe8f330207afd15_11000000@@QEAA@P6AXPEAVomniCallDescriptor@@PEAVomniServant@@@ZPEBD_K_N@Z
??0_0RL_cd_1fe8f330207afd15_20000000@@QEAA@P6AXPEAVomniCallDescriptor@@PEAVomniServant@@@ZPEBD_K_N@Z
??0_0RL_cd_1fe8f330207afd15_22000000@@QEAA@P6AXPEAVomniCallDescriptor@@PEAVomniServant@@@ZPEBD_K_N@Z
??0_0RL_cd_1fe8f330207afd15_23000000@@QEAA@P6AXPEAVomniCallDescriptor@@PEAVomniServant@@@ZPEBD_K_N@Z
??0_0RL_cd_1fe8f330207afd15_31000000@@QEAA@P6AXPEAVomniCallDescriptor@@PEAVomniServant@@@ZPEBD_K_N@Z
??0_0RL_cd_1fe8f330207afd15_40000000@@QEAA@P6AXPEAVomniCallDescriptor@@PEAVomniServant@@@ZPEBD_K_N@Z
??0_0RL_cd_1fe8f330207afd15_42000000@@QEAA@P6AXPEAVomniCallDescriptor@@PEAVomniServant@@@ZPEBD_K_N@Z
??0_0RL_cd_1fe8f330207afd15_43000000@@QEAA@P6AXPEAVomniCallDescriptor@@PEAVomniServant@@@ZPEBD_K_N@Z
??0_0RL_cd_1fe8f330207afd15_51000000@@QEAA@P6AXPEAVomniCallDescriptor@@PEAVomniServant@@@ZPEBD_K_N@Z
??0_0RL_cd_1fe8f330207afd15_60000000@@QEAA@P6AXPEAVomniCallDescriptor@@PEAVomniServant@@@ZPEBD_K_N@Z
??0_0RL_cd_1fe8f330207afd15_63000000@@QEAA@P6AXPEAVomniCallDescriptor@@PEAVomniServant@@@ZPEBD_K_N@Z
??0_0RL_cd_1fe8f330207afd15_71000000@@QEAA@P6AXPEAVomniCallDescriptor@@PEAVomniServant@@@ZPEBD_K_N@Z
??0_0RL_cd_1fe8f330207afd15_80000000@@QEAA@P6AXPEAVomniCallDescriptor@@PEAVomniServant@@@ZPEBD_K_N@Z
??0_0RL_cd_1fe8f330207afd15_82000000@@QEAA@P6AXPEAVomniCallDescriptor@@PEAVomniServant@@@ZPEBD_K_N@Z
??0_0RL_cd_1fe8f330207afd15_83000000@@QEAA@P6AXPEAVomniCallDescriptor@@PEAVomniServant@@@ZPEBD_K_N@Z
??0_0RL_cd_1fe8f330207afd15_a0000000@@QEAA@P6AXPEAVomniCallDescriptor@@PEAVomniServant@@@ZPEBD_K_N@Z
??0_0RL_cd_1fe8f330207afd15_a1000000@@QEAA@P6AXPEAVomniCallDescriptor@@PEAVomniServant@@@ZPEBD_K_N@Z
??0_0RL_cd_1fe8f330207afd15_a2000000@@QEAA@P6AXPEAVomniCallDescriptor@@PEAVomniServant@@@ZPEBD_K_N@Z
??0_0RL_cd_1fe8f330207afd15_c1000000@@QEAA@P6AXPEAVomniCallDescriptor@@PEAVomniServant@@@ZPEBD_K_N@Z
??0_0RL_cd_1fe8f330207afd15_c2000000@@QEAA@P6AXPEAVomniCallDescriptor@@PEAVomniServant@@@ZPEBD_K_N@Z
??0_0RL_cd_1fe8f330207afd15_d0000000@@QEAA@P6AXPEAVomniCallDescriptor@@PEAVomniServant@@@ZPEBD_K_N@Z
??0_0RL_cd_1fe8f330207afd15_e1000000@@QEAA@P6AXPEAVomniCallDescriptor@@PEAVomniServant@@@ZPEBD_K_N@Z
??0_0RL_cd_1fe8f330207afd15_e2000000@@QEAA@P6AXPEAVomniCallDescriptor@@PEAVomniServant@@@ZPEBD_K_N@Z
??0_0RL_cd_1fe8f330207afd15_f0000000@@QEAA@P6AXPEAVomniCallDescriptor@@PEAVomniServant@@@ZPEBD_K_N@Z
??0_0RL_cd_25b2b9dd5b4ad98d_00000000@@QEAA@P6AXPEAVomniCallDescriptor@@PEAVomniServant@@@ZPEBD_K_N@Z
??0_0RL_cd_25b2b9dd5b4ad98d_20000000@@QEAA@P6AXPEAVomniCallDescriptor@@PEAVomniServant@@@ZPEBD_K_N@Z
??0_0RL_cd_25b2b9dd5b4ad98d_40000000@@QEAA@P6AXPEAVomniCallDescriptor@@PEAVomniServant@@@ZPEBD_K_N@Z
??0_0RL_cd_25b2b9dd5b4ad98d_60000000@@QEAA@P6AXPEAVomniCallDescriptor@@PEAVomniServant@@@ZPEBD_K_N@Z
??0_0RL_cd_25b2b9dd5b4ad98d_80000000@@QEAA@P6AXPEAVomniCallDescriptor@@PEAVomniServant@@@ZPEBD_K_N@Z
??0_0RL_cd_25b2b9dd5b4ad98d_a0000000@@QEAA@P6AXPEAVomniCallDescriptor@@PEAVomniServant@@@ZPEBD_K_N@Z
??0_0RL_cd_4b6b86183777b6c2_00000000@@QEAA@P6AXPEAVomniCallDescriptor@@PEAVomniServant@@@ZPEBD_K_N@Z
??0_0RL_cd_4b6b86183777b6c2_21000000@@QEAA@P6AXPEAVomniCallDescriptor@@PEAVomniServant@@@ZPEBD_K_N@Z
??0_0RL_cd_4b6b86183777b6c2_30000000@@QEAA@P6AXPEAVomniCallDescriptor@@PEAVomniServant@@@ZPEBD_K_N@Z
??0_0RL_cd_4b6b86183777b6c2_41000000@@QEAA@P6AXPEAVomniCallDescriptor@@PEAVomniServant@@@ZPEBD_K_N@Z
??0_0RL_cd_4b6b86183777b6c2_50000000@@QEAA@P6AXPEAVomniCallDescriptor@@PEAVomniServant@@@ZPEBD_K_N@Z
??0_0RL_cd_4b6b86183777b6c2_80000000@@QEAA@P6AXPEAVomniCallDescriptor@@PEAVomniServant@@@ZPEBD_K_N@Z
??0_0RL_cd_4b6b86183777b6c2_a0000000@@QEAA@P6AXPEAVomniCallDescriptor@@PEAVomniServant@@@ZPEBD_K_N@Z
??0_0RL_cd_4b6b86183777b6c2_e0000000@@QEAA@P6AXPEAVomniCallDescriptor@@PEAVomniServant@@@ZPEBD_K_N@Z
??0_0RL_cd_8b6214f5b3100e7e_00000000@@QEAA@P6AXPEAVomniCallDescriptor@@PEAVomniServant@@@ZPEBD_K_N@Z
??0_0RL_cd_8b6214f5b3100e7e_20000000@@QEAA@P6AXPEAVomniCallDescriptor@@PEAVomniServant@@@ZPEBD_K_N@Z
??0_0RL_cd_8b6214f5b3100e7e_40000000@@QEAA@P6AXPEAVomniCallDescriptor@@PEAVomniServant@@@ZPEBD_K_N@Z
??0_0RL_cd_8b6214f5b3100e7e_70000000@@QEAA@P6AXPEAVomniCallDescriptor@@PEAVomniServant@@@ZPEBD_K_N@Z
??0_0RL_cd_9043e11a9721dab3_00000000@@QEAA@P6AXPEAVomniCallDescriptor@@PEAVomniServant@@@ZPEBD_K_N@Z
??0_0RL_cd_9043e11a9721dab3_06000000@@QEAA@P6AXPEAVomniCallDescriptor@@PEAVomniServant@@@ZPEBD_K_N@Z
??0_0RL_cd_9043e11a9721dab3_12000000@@QEAA@P6AXPEAVomniCallDescriptor@@PEAVomniServant@@@ZPEBD_K_N@Z
??0_0RL_cd_9043e11a9721dab3_13000000@@QEAA@P6AXPEAVomniCallDescriptor@@PEAVomniServant@@@ZPEBD_K_N@Z
??0_0RL_cd_9043e11a9721dab3_20000000@@QEAA@P6AXPEAVomniCallDescriptor@@PEAVomniServant@@@ZPEBD_K_N@Z
??0_0RL_cd_9043e11a9721dab3_25000000@@QEAA@P6AXPEAVomniCallDescriptor@@PEAVomniServant@@@ZPEBD_K_N@Z
??0_0RL_cd_9043e11a9721dab3_26000000@@QEAA@P6AXPEAVomniCallDescriptor@@PEAVomniServant@@@ZPEBD_K_N@Z
??0_0RL_cd_9043e11a9721dab3_31000000@@QEAA@P6AXPEAVomniCallDescriptor@@PEAVomniServant@@@ZPEBD_K_N@Z
??0_0RL_cd_9043e11a9721dab3_32000000@@QEAA@P6AXPEAVomniCallDescriptor@@PEAVomniServant@@@ZPEBD_K_N@Z
??0_0RL_cd_9043e11a9721dab3_34000000@@QEAA@P6AXPEAVomniCallDescriptor@@PEAVomniServant@@@ZPEBD_K_N@Z
??0_0RL_cd_9043e11a9721dab3_40000000@@QEAA@P6AXPEAVomniCallDescriptor@@PEAVomniServant@@@ZPEBD_K_N@Z
??0_0RL_cd_9043e11a9721dab3_45000000@@QEAA@P6AXPEAVomniCallDescriptor@@PEAVomniServant@@@ZPEBD_K_N@Z
??0_0RL_cd_9043e11a9721dab3_46000000@@QEAA@P6AXPEAVomniCallDescriptor@@PEAVomniServant@@@ZPEBD_K_N@Z
??0_0RL_cd_9043e11a9721dab3_51000000@@QEAA@P6AXPEAVomniCallDescriptor@@PEAVomniServant@@@ZPEBD_K_N@Z
??0_0RL_cd_9043e11a9721dab3_52000000@@QEAA@P6AXPEAVomniCallDescriptor@@PEAVomniServant@@@ZPEBD_K_N@Z
??0_0RL_cd_9043e11a9721dab3_53000000@@QEAA@P6AXPEAVomniCallDescriptor@@PEAVomniServant@@@ZPEBD_K_N@Z
??0_0RL_cd_9043e11a9721dab3_60000000@@QEAA@P6AXPEAVomniCallDescriptor@@PEAVomniServant@@@ZPEBD_K_N@Z
??0_0RL_cd_9043e11a9721dab3_64000000@@QEAA@P6AXPEAVomniCallDescriptor@@PEAVomniServant@@@ZPEBD_K_N@Z
??0_0RL_cd_9043e11a9721dab3_66000000@@QEAA@P6AXPEAVomniCallDescriptor@@PEAVomniServant@@@ZPEBD_K_N@Z
??0_0RL_cd_9043e11a9721dab3_71000000@@QEAA@P6AXPEAVomniCallDescriptor@@PEAVomniServant@@@ZPEBD_K_N@Z
??0_0RL_cd_9043e11a9721dab3_84000000@@QEAA@P6AXPEAVomniCallDescriptor@@PEAVomniServant@@@ZPEBD_K_N@Z
??0_0RL_cd_9043e11a9721dab3_85000000@@QEAA@P6AXPEAVomniCallDescriptor@@PEAVomniServant@@@ZPEBD_K_N@Z
??0_0RL_cd_9043e11a9721dab3_90000000@@QEAA@P6AXPEAVomniCallDescriptor@@PEAVomniServant@@@ZPEBD_K_N@Z
??0_0RL_cd_9043e11a9721dab3_91000000@@QEAA@P6AXPEAVomniCallDescriptor@@PEAVomniServant@@@ZPEBD_K_N@Z
??0_0RL_cd_9043e11a9721dab3_92000000@@QEAA@P6AXPEAVomniCallDescriptor@@PEAVomniServant@@@ZPEBD_K_N@Z
??0_0RL_cd_9043e11a9721dab3_93000000@@QEAA@P6AXPEAVomniCallDescriptor@@PEAVomniServant@@@ZPEBD_K_N@Z
??0_0RL_cd_9043e11a9721dab3_96000000@@QEAA@P6AXPEAVomniCallDescriptor@@PEAVomniServant@@@ZPEBD_K_N@Z
??0_0RL_cd_9043e11a9721dab3_b0000000@@QEAA@P6AXPEAVomniCallDescriptor@@PEAVomniServant@@@ZPEBD_K_N@Z
??0_0RL_cd_9043e11a9721dab3_b1000000@@QEAA@P6AXPEAVomniCallDescriptor@@PEAVomniServant@@@ZPEBD_K_N@Z
??0_0RL_cd_9043e11a9721dab3_b3000000@@QEAA@P6AXPEAVomniCallDescriptor@@PEAVomniServant@@@ZPEBD_K_N@Z
??0_0RL_cd_9043e11a9721dab3_b4000000@@QEAA@P6AXPEAVomniCallDescriptor@@PEAVomniServant@@@ZPEBD_K_N@Z
??0_0RL_cd_9043e11a9721dab3_b6000000@@QEAA@P6AXPEAVomniCallDescriptor@@PEAVomniServant@@@ZPEBD_K_N@Z
??0_0RL_cd_9043e11a9721dab3_c5000000@@QEAA@P6AXPEAVomniCallDescriptor@@PEAVomniServant@@@ZPEBD_K_N@Z
??0_0RL_cd_9043e11a9721dab3_d0000000@@QEAA@P6AXPEAVomniCallDescriptor@@PEAVomniServant@@@ZPEBD_K_N@Z
??0_0RL_cd_9043e11a9721dab3_d1000000@@QEAA@P6AXPEAVomniCallDescriptor@@PEAVomniServant@@@ZPEBD_K_N@Z
??0_0RL_cd_9043e11a9721dab3_d2000000@@QEAA@P6AXPEAVomniCallDescriptor@@PEAVomniServant@@@ZPEBD_K_N@Z
??0_0RL_cd_9043e11a9721dab3_d3000000@@QEAA@P6AXPEAVomniCallDescriptor@@PEAVomniServant@@@ZPEBD_K_N@Z
??0_0RL_cd_9043e11a9721dab3_d6000000@@QEAA@P6AXPEAVomniCallDescriptor@@PEAVomniServant@@@ZPEBD_K_N@Z
??0_0RL_cd_9043e11a9721dab3_e5000000@@QEAA@P6AXPEAVomniCallDescriptor@@PEAVomniServant@@@ZPEBD_K_N@Z
??0_0RL_cd_9043e11a9721dab3_f1000000@@QEAA@P6AXPEAVomniCallDescriptor@@PEAVomniServant@@@ZPEBD_K_N@Z
??0_0RL_cd_99dff546ea0f9974_00000000@@QEAA@P6AXPEAVomniCallDescriptor@@PEAVomniServant@@@ZPEBD_K_N@Z
??0_0RL_cd_99dff546ea0f9974_11000000@@QEAA@P6AXPEAVomniCallDescriptor@@PEAVomniServant@@@ZPEBD_K_N@Z
??0_0RL_cd_99dff546ea0f9974_30000000@@QEAA@P6AXPEAVomniCallDescriptor@@PEAVomniServant@@@ZPEBD_K_N@Z
??0_0RL_cd_99dff546ea0f9974_31000000@@QEAA@P6AXPEAVomniCallDescriptor@@PEAVomniServant@@@ZPEBD_K_N@Z
??0_0RL_cd_99dff546ea0f9974_50000000@@QEAA@P6AXPEAVomniCallDescriptor@@PEAVomniServant@@@ZPEBD_K_N@Z
??0_0RL_cd_99dff546ea0f9974_61000000@@QEAA@P6AXPEAVomniCallDescriptor@@PEAVomniServant@@@ZPEBD_K_N@Z
??0_0RL_cd_99dff546ea0f9974_70000000@@QEAA@P6AXPEAVomniCallDescriptor@@PEAVomniServant@@@ZPEBD_K_N@Z
??0_0RL_cd_99dff546ea0f9974_90000000@@QEAA@P6AXPEAVomniCallDescriptor@@PEAVomniServant@@@ZPEBD_K_N@Z
??0_0RL_cd_99dff546ea0f9974_91000000@@QEAA@P6AXPEAVomniCallDescriptor@@PEAVomniServant@@@ZPEBD_K_N@Z
??0_0RL_cd_99dff546ea0f9974_b0000000@@QEAA@P6AXPEAVomniCallDescriptor@@PEAVomniServant@@@ZPEBD_K_N@Z
??0_0RL_cd_99dff546ea0f9974_b1000000@@QEAA@P6AXPEAVomniCallDescriptor@@PEAVomniServant@@@ZPEBD_K_N@Z
??0_0RL_cd_99dff546ea0f9974_d0000000@@QEAA@P6AXPEAVomniCallDescriptor@@PEAVomniServant@@@ZPEBD_K_N@Z
??0_0RL_cd_99dff546ea0f9974_d1000000@@QEAA@P6AXPEAVomniCallDescriptor@@PEAVomniServant@@@ZPEBD_K_N@Z
??0_0RL_cd_99dff546ea0f9974_f0000000@@QEAA@P6AXPEAVomniCallDescriptor@@PEAVomniServant@@@ZPEBD_K_N@Z
??0_0RL_cd_bd959cc57b2e138f_00000000@@QEAA@P6AXPEAVomniCallDescriptor@@PEAVomniServant@@@ZPEBD_K_N@Z
??0_0RL_cd_bd959cc57b2e138f_20000000@@QEAA@P6AXPEAVomniCallDescriptor@@PEAVomniServant@@@ZPEBD_K_N@Z
??0_0RL_cd_bd959cc57b2e138f_50000000@@QEAA@P6AXPEAVomniCallDescriptor@@PEAVomniServant@@@ZPEBD_K_N@Z
??0_0RL_cd_bd959cc57b2e138f_70000000@@QEAA@P6AXPEAVomniCallDescriptor@@PEAVomniServant@@@ZPEBD_K_N@Z
??0_0RL_cd_f894c8374a428e70_00000000@@QEAA@P6AXPEAVomniCallDescriptor@@PEAVomniServant@@@ZPEBD_K_N@Z
??0_0RL_cd_f894c8374a428e70_01000000@@QEAA@P6AXPEAVomniCallDescriptor@@PEAVomniServant@@@ZPEBD_K_N@Z
??0_0RL_cd_f894c8374a428e70_20000000@@QEAA@P6AXPEAVomniCallDescriptor@@PEAVomniServant@@@ZPEBD_K_N@Z
??0_0RL_cd_f894c8374a428e70_21000000@@QEAA@P6AXPEAVomniCallDescriptor@@PEAVomniServant@@@ZPEBD_K_N@Z
??0_0RL_cd_f894c8374a428e70_40000000@@QEAA@P6AXPEAVomniCallDescriptor@@PEAVomniServant@@@ZPEBD_K_N@Z
??0_0RL_cd_f894c8374a428e70_41000000@@QEAA@P6AXPEAVomniCallDescriptor@@PEAVomniServant@@@ZPEBD_K_N@Z
??0_0RL_cd_f894c8374a428e70_60000000@@QEAA@P6AXPEAVomniCallDescriptor@@PEAVomniServant@@@ZPEBD_K_N@Z
??0_0RL_cd_f894c8374a428e70_80000000@@QEAA@P6AXPEAVomniCallDescriptor@@PEAVomniServant@@@ZPEBD_K_N@Z
??0_0RL_cd_f894c8374a428e70_a0000000@@QEAA@P6AXPEAVomniCallDescriptor@@PEAVomniServant@@@ZPEBD_K_N@Z
??0_0RL_cd_f894c8374a428e70_c0000000@@QEAA@P6AXPEAVomniCallDescriptor@@PEAVomniServant@@@ZPEBD_K_N@Z
??0_0RL_cd_f894c8374a428e70_e0000000@@QEAA@P6AXPEAVomniCallDescriptor@@PEAVomniServant@@@ZPEBD_K_N@Z
??0_CORBA_String_member@@QEAA@XZ
??0_CORBA_String_var@@QEAA@XZ
??0_objref_AdminPropertiesAdmin@CosNotification@@QEAA@PEAVomniIOR@@PEAVomniIdentity@@@Z
??0_objref_AdminPropertiesAdmin@CosNotification@@QEAA@XZ
??0_objref_ConsumerAdmin@CosEventChannelAdmin@@QEAA@PEAVomniIOR@@PEAVomniIdentity@@@Z
??0_objref_ConsumerAdmin@CosEventChannelAdmin@@QEAA@XZ
??0_objref_ConsumerAdmin@CosNotifyChannelAdmin@@QEAA@PEAVomniIOR@@PEAVomniIdentity@@@Z
??0_objref_ConsumerAdmin@CosNotifyChannelAdmin@@QEAA@XZ
??0_objref_EventChannel@CosEventChannelAdmin@@QEAA@PEAVomniIOR@@PEAVomniIdentity@@@Z
??0_objref_EventChannel@CosEventChannelAdmin@@QEAA@XZ
??0_objref_EventChannel@CosNotifyChannelAdmin@@QEAA@PEAVomniIOR@@PEAVomniIdentity@@@Z
??0_objref_EventChannel@CosNotifyChannelAdmin@@QEAA@XZ
??0_objref_EventChannelFactory@CosNotifyChannelAdmin@@QEAA@PEAVomniIOR@@PEAVomniIdentity@@@Z
??0_objref_EventChannelFactory@CosNotifyChannelAdmin@@QEAA@XZ
??0_objref_FactoryFinder@CosLifeCycle@@QEAA@PEAVomniIOR@@PEAVomniIdentity@@@Z
??0_objref_FactoryFinder@CosLifeCycle@@QEAA@XZ
??0_objref_Filter@CosNotifyFilter@@QEAA@PEAVomniIOR@@PEAVomniIdentity@@@Z
??0_objref_Filter@CosNotifyFilter@@QEAA@XZ
??0_objref_FilterAdmin@CosNotifyFilter@@QEAA@PEAVomniIOR@@PEAVomniIdentity@@@Z
??0_objref_FilterAdmin@CosNotifyFilter@@QEAA@XZ
??0_objref_FilterFactory@CosNotifyFilter@@QEAA@PEAVomniIOR@@PEAVomniIdentity@@@Z
??0_objref_FilterFactory@CosNotifyFilter@@QEAA@XZ
??0_objref_GenericFactory@CosLifeCycle@@QEAA@PEAVomniIOR@@PEAVomniIdentity@@@Z
??0_objref_GenericFactory@CosLifeCycle@@QEAA@XZ
??0_objref_LifeCycleObject@CosLifeCycle@@QEAA@PEAVomniIOR@@PEAVomniIdentity@@@Z
??0_objref_LifeCycleObject@CosLifeCycle@@QEAA@XZ
??0_objref_MappingFilter@CosNotifyFilter@@QEAA@PEAVomniIOR@@PEAVomniIdentity@@@Z
??0_objref_MappingFilter@CosNotifyFilter@@QEAA@XZ
??0_objref_NotifyPublish@CosNotifyComm@@QEAA@PEAVomniIOR@@PEAVomniIdentity@@@Z
??0_objref_NotifyPublish@CosNotifyComm@@QEAA@XZ
??0_objref_NotifySubscribe@CosNotifyComm@@QEAA@PEAVomniIOR@@PEAVomniIdentity@@@Z
??0_objref_NotifySubscribe@CosNotifyComm@@QEAA@XZ
??0_objref_ProxyConsumer@CosNotifyChannelAdmin@@QEAA@PEAVomniIOR@@PEAVomniIdentity@@@Z
??0_objref_ProxyConsumer@CosNotifyChannelAdmin@@QEAA@XZ
??0_objref_ProxyPullConsumer@CosEventChannelAdmin@@QEAA@PEAVomniIOR@@PEAVomniIdentity@@@Z
??0_objref_ProxyPullConsumer@CosEventChannelAdmin@@QEAA@XZ
??0_objref_ProxyPullConsumer@CosNotifyChannelAdmin@@QEAA@PEAVomniIOR@@PEAVomniIdentity@@@Z
??0_objref_ProxyPullConsumer@CosNotifyChannelAdmin@@QEAA@XZ
??0_objref_ProxyPullSupplier@CosEventChannelAdmin@@QEAA@PEAVomniIOR@@PEAVomniIdentity@@@Z
??0_objref_ProxyPullSupplier@CosEventChannelAdmin@@QEAA@XZ
??0_objref_ProxyPullSupplier@CosNotifyChannelAdmin@@QEAA@PEAVomniIOR@@PEAVomniIdentity@@@Z
??0_objref_ProxyPullSupplier@CosNotifyChannelAdmin@@QEAA@XZ
??0_objref_ProxyPushConsumer@CosEventChannelAdmin@@QEAA@PEAVomniIOR@@PEAVomniIdentity@@@Z
??0_objref_ProxyPushConsumer@CosEventChannelAdmin@@QEAA@XZ
??0_objref_ProxyPushConsumer@CosNotifyChannelAdmin@@QEAA@PEAVomniIOR@@PEAVomniIdentity@@@Z
??0_objref_ProxyPushConsumer@CosNotifyChannelAdmin@@QEAA@XZ
??0_objref_ProxyPushSupplier@CosEventChannelAdmin@@QEAA@PEAVomniIOR@@PEAVomniIdentity@@@Z
??0_objref_ProxyPushSupplier@CosEventChannelAdmin@@QEAA@XZ
??0_objref_ProxyPushSupplier@CosNotifyChannelAdmin@@QEAA@PEAVomniIOR@@PEAVomniIdentity@@@Z
??0_objref_ProxyPushSupplier@CosNotifyChannelAdmin@@QEAA@XZ
??0_objref_ProxySupplier@CosNotifyChannelAdmin@@QEAA@PEAVomniIOR@@PEAVomniIdentity@@@Z
??0_objref_ProxySupplier@CosNotifyChannelAdmin@@QEAA@XZ
??0_objref_PullConsumer@CosEventComm@@QEAA@PEAVomniIOR@@PEAVomniIdentity@@@Z
??0_objref_PullConsumer@CosEventComm@@QEAA@XZ
??0_objref_PullConsumer@CosNotifyComm@@QEAA@PEAVomniIOR@@PEAVomniIdentity@@@Z
??0_objref_PullConsumer@CosNotifyComm@@QEAA@XZ
??0_objref_PullSupplier@CosEventComm@@QEAA@PEAVomniIOR@@PEAVomniIdentity@@@Z
??0_objref_PullSupplier@CosEventComm@@QEAA@XZ
??0_objref_PullSupplier@CosNotifyComm@@QEAA@PEAVomniIOR@@PEAVomniIdentity@@@Z
??0_objref_PullSupplier@CosNotifyComm@@QEAA@XZ
??0_objref_PushConsumer@CosEventComm@@QEAA@PEAVomniIOR@@PEAVomniIdentity@@@Z
??0_objref_PushConsumer@CosEventComm@@QEAA@XZ
??0_objref_PushConsumer@CosNotifyComm@@QEAA@PEAVomniIOR@@PEAVomniIdentity@@@Z
??0_objref_PushConsumer@CosNotifyComm@@QEAA@XZ
??0_objref_PushSupplier@CosEventComm@@QEAA@PEAVomniIOR@@PEAVomniIdentity@@@Z
??0_objref_PushSupplier@CosEventComm@@QEAA@XZ
??0_objref_PushSupplier@CosNotifyComm@@QEAA@PEAVomniIOR@@PEAVomniIdentity@@@Z
??0_objref_PushSupplier@CosNotifyComm@@QEAA@XZ
??0_objref_QoSAdmin@CosNotification@@QEAA@PEAVomniIOR@@PEAVomniIdentity@@@Z
??0_objref_QoSAdmin@CosNotification@@QEAA@XZ
??0_objref_SequenceProxyPullConsumer@CosNotifyChannelAdmin@@QEAA@PEAVomniIOR@@PEAVomniIdentity@@@Z
??0_objref_SequenceProxyPullConsumer@CosNotifyChannelAdmin@@QEAA@XZ
??0_objref_SequenceProxyPullSupplier@CosNotifyChannelAdmin@@QEAA@PEAVomniIOR@@PEAVomniIdentity@@@Z
??0_objref_SequenceProxyPullSupplier@CosNotifyChannelAdmin@@QEAA@XZ
??0_objref_SequenceProxyPushConsumer@CosNotifyChannelAdmin@@QEAA@PEAVomniIOR@@PEAVomniIdentity@@@Z
??0_objref_SequenceProxyPushConsumer@CosNotifyChannelAdmin@@QEAA@XZ
??0_objref_SequenceProxyPushSupplier@CosNotifyChannelAdmin@@QEAA@PEAVomniIOR@@PEAVomniIdentity@@@Z
??0_objref_SequenceProxyPushSupplier@CosNotifyChannelAdmin@@QEAA@XZ
??0_objref_SequencePullConsumer@CosNotifyComm@@QEAA@PEAVomniIOR@@PEAVomniIdentity@@@Z
??0_objref_SequencePullConsumer@CosNotifyComm@@QEAA@XZ
??0_objref_SequencePullSupplier@CosNotifyComm@@QEAA@PEAVomniIOR@@PEAVomniIdentity@@@Z
??0_objref_SequencePullSupplier@CosNotifyComm@@QEAA@XZ
??0_objref_SequencePushConsumer@CosNotifyComm@@QEAA@PEAVomniIOR@@PEAVomniIdentity@@@Z
??0_objref_SequencePushConsumer@CosNotifyComm@@QEAA@XZ
??0_objref_SequencePushSupplier@CosNotifyComm@@QEAA@PEAVomniIOR@@PEAVomniIdentity@@@Z
??0_objref_SequencePushSupplier@CosNotifyComm@@QEAA@XZ
??0_objref_StructuredProxyPullConsumer@CosNotifyChannelAdmin@@QEAA@PEAVomniIOR@@PEAVomniIdentity@@@Z
??0_objref_StructuredProxyPullConsumer@CosNotifyChannelAdmin@@QEAA@XZ
??0_objref_StructuredProxyPullSupplier@CosNotifyChannelAdmin@@QEAA@PEAVomniIOR@@PEAVomniIdentity@@@Z
??0_objref_StructuredProxyPullSupplier@CosNotifyChannelAdmin@@QEAA@XZ
??0_objref_StructuredProxyPushConsumer@CosNotifyChannelAdmin@@QEAA@PEAVomniIOR@@PEAVomniIdentity@@@Z
??0_objref_StructuredProxyPushConsumer@CosNotifyChannelAdmin@@QEAA@XZ
??0_objref_StructuredProxyPushSupplier@CosNotifyChannelAdmin@@QEAA@PEAVomniIOR@@PEAVomniIdentity@@@Z
??0_objref_StructuredProxyPushSupplier@CosNotifyChannelAdmin@@QEAA@XZ
??0_objref_StructuredPullConsumer@CosNotifyComm@@QEAA@PEAVomniIOR@@PEAVomniIdentity@@@Z
??0_objref_StructuredPullConsumer@CosNotifyComm@@QEAA@XZ
??0_objref_StructuredPullSupplier@CosNotifyComm@@QEAA@PEAVomniIOR@@PEAVomniIdentity@@@Z
??0_objref_StructuredPullSupplier@CosNotifyComm@@QEAA@XZ
??0_objref_StructuredPushConsumer@CosNotifyComm@@QEAA@PEAVomniIOR@@PEAVomniIdentity@@@Z
??0_objref_StructuredPushConsumer@CosNotifyComm@@QEAA@XZ
??0_objref_StructuredPushSupplier@CosNotifyComm@@QEAA@PEAVomniIOR@@PEAVomniIdentity@@@Z
??0_objref_StructuredPushSupplier@CosNotifyComm@@QEAA@XZ
??0_objref_SupplierAdmin@CosEventChannelAdmin@@QEAA@PEAVomniIOR@@PEAVomniIdentity@@@Z
??0_objref_SupplierAdmin@CosEventChannelAdmin@@QEAA@XZ
??0_objref_SupplierAdmin@CosNotifyChannelAdmin@@QEAA@PEAVomniIOR@@PEAVomniIdentity@@@Z
??0_objref_SupplierAdmin@CosNotifyChannelAdmin@@QEAA@XZ
??0_objref_TIO@CosTime@@QEAA@PEAVomniIOR@@PEAVomniIdentity@@@Z
??0_objref_TIO@CosTime@@QEAA@XZ
??0_objref_TimeService@CosTime@@QEAA@PEAVomniIOR@@PEAVomniIdentity@@@Z
??0_objref_TimeService@CosTime@@QEAA@XZ
??0_objref_UTO@CosTime@@QEAA@PEAVomniIOR@@PEAVomniIdentity@@@Z
??0_objref_UTO@CosTime@@QEAA@XZ
??0_pof_AdminPropertiesAdmin@CosNotification@@QEAA@XZ
??0_pof_ConsumerAdmin@CosEventChannelAdmin@@QEAA@XZ
??0_pof_ConsumerAdmin@CosNotifyChannelAdmin@@QEAA@XZ
??0_pof_EventChannel@CosEventChannelAdmin@@QEAA@XZ
??0_pof_EventChannel@CosNotifyChannelAdmin@@QEAA@XZ
??0_pof_EventChannelFactory@CosNotifyChannelAdmin@@QEAA@XZ
??0_pof_FactoryFinder@CosLifeCycle@@QEAA@XZ
??0_pof_Filter@CosNotifyFilter@@QEAA@XZ
??0_pof_FilterAdmin@CosNotifyFilter@@QEAA@XZ
??0_pof_FilterFactory@CosNotifyFilter@@QEAA@XZ
??0_pof_GenericFactory@CosLifeCycle@@QEAA@XZ
??0_pof_LifeCycleObject@CosLifeCycle@@QEAA@XZ
??0_pof_MappingFilter@CosNotifyFilter@@QEAA@XZ
??0_pof_NotifyPublish@CosNotifyComm@@QEAA@XZ
??0_pof_NotifySubscribe@CosNotifyComm@@QEAA@XZ
??0_pof_ProxyConsumer@CosNotifyChannelAdmin@@QEAA@XZ
??0_pof_ProxyPullConsumer@CosEventChannelAdmin@@QEAA@XZ
??0_pof_ProxyPullConsumer@CosNotifyChannelAdmin@@QEAA@XZ
??0_pof_ProxyPullSupplier@CosEventChannelAdmin@@QEAA@XZ
??0_pof_ProxyPullSupplier@CosNotifyChannelAdmin@@QEAA@XZ
??0_pof_ProxyPushConsumer@CosEventChannelAdmin@@QEAA@XZ
??0_pof_ProxyPushConsumer@CosNotifyChannelAdmin@@QEAA@XZ
??0_pof_ProxyPushSupplier@CosEventChannelAdmin@@QEAA@XZ
??0_pof_ProxyPushSupplier@CosNotifyChannelAdmin@@QEAA@XZ
??0_pof_ProxySupplier@CosNotifyChannelAdmin@@QEAA@XZ
??0_pof_PullConsumer@CosEventComm@@QEAA@XZ
??0_pof_PullConsumer@CosNotifyComm@@QEAA@XZ
??0_pof_PullSupplier@CosEventComm@@QEAA@XZ
??0_pof_PullSupplier@CosNotifyComm@@QEAA@XZ
??0_pof_PushConsumer@CosEventComm@@QEAA@XZ
??0_pof_PushConsumer@CosNotifyComm@@QEAA@XZ
??0_pof_PushSupplier@CosEventComm@@QEAA@XZ
??0_pof_PushSupplier@CosNotifyComm@@QEAA@XZ
??0_pof_QoSAdmin@CosNotification@@QEAA@XZ
??0_pof_SequenceProxyPullConsumer@CosNotifyChannelAdmin@@QEAA@XZ
??0_pof_SequenceProxyPullSupplier@CosNotifyChannelAdmin@@QEAA@XZ
??0_pof_SequenceProxyPushConsumer@CosNotifyChannelAdmin@@QEAA@XZ
??0_pof_SequenceProxyPushSupplier@CosNotifyChannelAdmin@@QEAA@XZ
??0_pof_SequencePullConsumer@CosNotifyComm@@QEAA@XZ
??0_pof_SequencePullSupplier@CosNotifyComm@@QEAA@XZ
??0_pof_SequencePushConsumer@CosNotifyComm@@QEAA@XZ
??0_pof_SequencePushSupplier@CosNotifyComm@@QEAA@XZ
??0_pof_StructuredProxyPullConsumer@CosNotifyChannelAdmin@@QEAA@XZ
??0_pof_StructuredProxyPullSupplier@CosNotifyChannelAdmin@@QEAA@XZ
??0_pof_StructuredProxyPushConsumer@CosNotifyChannelAdmin@@QEAA@XZ
??0_pof_StructuredProxyPushSupplier@CosNotifyChannelAdmin@@QEAA@XZ
??0_pof_StructuredPullConsumer@CosNotifyComm@@QEAA@XZ
??0_pof_StructuredPullSupplier@CosNotifyComm@@QEAA@XZ
??0_pof_StructuredPushConsumer@CosNotifyComm@@QEAA@XZ
??0_pof_StructuredPushSupplier@CosNotifyComm@@QEAA@XZ
??0_pof_SupplierAdmin@CosEventChannelAdmin@@QEAA@XZ
??0_pof_SupplierAdmin@CosNotifyChannelAdmin@@QEAA@XZ
??0_pof_TIO@CosTime@@QEAA@XZ
??0_pof_TimeService@CosTime@@QEAA@XZ
??0_pof_UTO@CosTime@@QEAA@XZ
??0omniCallDescriptor@@QEAA@P6AXPEAV0@PEAVomniServant@@@ZPEBD_K_NPEBQEBDH5@Z
??0omni_time_t@@QEAA@KK@Z
??1?$_CORBA_ConstrType_Variable_Var@UStructuredEvent@CosNotification@@@@QEAA@XZ
??1?$_CORBA_ObjRef_Member@V_objref_Contained@CORBA@@VContained_Helper@2@@@QEAA@XZ
??1?$_CORBA_ObjRef_Member@V_objref_IDLType@CORBA@@VIDLType_Helper@2@@@QEAA@XZ
??1?$_CORBA_ObjRef_OUT_arg@V_objref_TIO@CosTime@@VTIO_Helper@2@@@QEAA@XZ
??1?$_CORBA_ObjRef_Var@V_objref_ConsumerAdmin@CosEventChannelAdmin@@VConsumerAdmin_Helper@2@@@QEAA@XZ
??1?$_CORBA_ObjRef_Var@V_objref_ConsumerAdmin@CosNotifyChannelAdmin@@VConsumerAdmin_Helper@2@@@QEAA@XZ
??1?$_CORBA_ObjRef_Var@V_objref_EventChannel@CosNotifyChannelAdmin@@VEventChannel_Helper@2@@@QEAA@XZ
??1?$_CORBA_ObjRef_Var@V_objref_EventChannelFactory@CosNotifyChannelAdmin@@VEventChannelFactory_Helper@2@@@QEAA@XZ
??1?$_CORBA_ObjRef_Var@V_objref_FactoryFinder@CosLifeCycle@@VFactoryFinder_Helper@2@@@QEAA@XZ
??1?$_CORBA_ObjRef_Var@V_objref_Filter@CosNotifyFilter@@VFilter_Helper@2@@@QEAA@XZ
??1?$_CORBA_ObjRef_Var@V_objref_FilterFactory@CosNotifyFilter@@VFilterFactory_Helper@2@@@QEAA@XZ
??1?$_CORBA_ObjRef_Var@V_objref_LifeCycleObject@CosLifeCycle@@VLifeCycleObject_Helper@2@@@QEAA@XZ
??1?$_CORBA_ObjRef_Var@V_objref_MappingFilter@CosNotifyFilter@@VMappingFilter_Helper@2@@@QEAA@XZ
??1?$_CORBA_ObjRef_Var@V_objref_NotifySubscribe@CosNotifyComm@@VNotifySubscribe_Helper@2@@@QEAA@XZ
??1?$_CORBA_ObjRef_Var@V_objref_ProxyConsumer@CosNotifyChannelAdmin@@VProxyConsumer_Helper@2@@@QEAA@XZ
??1?$_CORBA_ObjRef_Var@V_objref_ProxyPullConsumer@CosEventChannelAdmin@@VProxyPullConsumer_Helper@2@@@QEAA@XZ
??1?$_CORBA_ObjRef_Var@V_objref_ProxyPullSupplier@CosEventChannelAdmin@@VProxyPullSupplier_Helper@2@@@QEAA@XZ
??1?$_CORBA_ObjRef_Var@V_objref_ProxyPushConsumer@CosEventChannelAdmin@@VProxyPushConsumer_Helper@2@@@QEAA@XZ
??1?$_CORBA_ObjRef_Var@V_objref_ProxyPushSupplier@CosEventChannelAdmin@@VProxyPushSupplier_Helper@2@@@QEAA@XZ
??1?$_CORBA_ObjRef_Var@V_objref_ProxySupplier@CosNotifyChannelAdmin@@VProxySupplier_Helper@2@@@QEAA@XZ
??1?$_CORBA_ObjRef_Var@V_objref_PullConsumer@CosEventComm@@VPullConsumer_Helper@2@@@QEAA@XZ
??1?$_CORBA_ObjRef_Var@V_objref_PullSupplier@CosEventComm@@VPullSupplier_Helper@2@@@QEAA@XZ
??1?$_CORBA_ObjRef_Var@V_objref_PushConsumer@CosEventComm@@VPushConsumer_Helper@2@@@QEAA@XZ
??1?$_CORBA_ObjRef_Var@V_objref_PushSupplier@CosEventComm@@VPushSupplier_Helper@2@@@QEAA@XZ
??1?$_CORBA_ObjRef_Var@V_objref_SequencePullConsumer@CosNotifyComm@@VSequencePullConsumer_Helper@2@@@QEAA@XZ
??1?$_CORBA_ObjRef_Var@V_objref_SequencePullSupplier@CosNotifyComm@@VSequencePullSupplier_Helper@2@@@QEAA@XZ
??1?$_CORBA_ObjRef_Var@V_objref_SequencePushConsumer@CosNotifyComm@@VSequencePushConsumer_Helper@2@@@QEAA@XZ
??1?$_CORBA_ObjRef_Var@V_objref_SequencePushSupplier@CosNotifyComm@@VSequencePushSupplier_Helper@2@@@QEAA@XZ
??1?$_CORBA_ObjRef_Var@V_objref_StructuredPullConsumer@CosNotifyComm@@VStructuredPullConsumer_Helper@2@@@QEAA@XZ
??1?$_CORBA_ObjRef_Var@V_objref_StructuredPullSupplier@CosNotifyComm@@VStructuredPullSupplier_Helper@2@@@QEAA@XZ
??1?$_CORBA_ObjRef_Var@V_objref_StructuredPushConsumer@CosNotifyComm@@VStructuredPushConsumer_Helper@2@@@QEAA@XZ
??1?$_CORBA_ObjRef_Var@V_objref_StructuredPushSupplier@CosNotifyComm@@VStructuredPushSupplier_Helper@2@@@QEAA@XZ
??1?$_CORBA_ObjRef_Var@V_objref_SupplierAdmin@CosEventChannelAdmin@@VSupplierAdmin_Helper@2@@@QEAA@XZ
??1?$_CORBA_ObjRef_Var@V_objref_SupplierAdmin@CosNotifyChannelAdmin@@VSupplierAdmin_Helper@2@@@QEAA@XZ
??1?$_CORBA_ObjRef_Var@V_objref_TIO@CosTime@@VTIO_Helper@2@@@QEAA@XZ
??1?$_CORBA_ObjRef_Var@V_objref_UTO@CosTime@@VUTO_Helper@2@@@QEAA@XZ
??1?$_CORBA_PseudoObj_Member@VDynAny@DynamicAny@@V?$_CORBA_PseudoObj_Var@VDynAny@DynamicAny@@@@@@QEAA@XZ
??1?$_CORBA_PseudoObj_Member@VPolicy@CORBA@@V?$_CORBA_PseudoObj_Var@VPolicy@CORBA@@@@@@QEAA@XZ
??1?$_CORBA_Sequence@E@@QEAA@XZ
??1?$_CORBA_Sequence@J@@QEAA@XZ
??1?$_CORBA_Sequence@UConstraintExp@CosNotifyFilter@@@@QEAA@XZ
??1?$_CORBA_Sequence@UConstraintInfo@CosNotifyFilter@@@@QEAA@XZ
??1?$_CORBA_Sequence@UEventType@CosNotification@@@@QEAA@XZ
??1?$_CORBA_Sequence@UExceptionDescription@CORBA@@@@QEAA@XZ
??1?$_CORBA_Sequence@UMappingConstraintInfo@CosNotifyFilter@@@@QEAA@XZ
??1?$_CORBA_Sequence@UMappingConstraintPair@CosNotifyFilter@@@@QEAA@XZ
??1?$_CORBA_Sequence@UNVP@CosLifeCycle@@@@QEAA@XZ
??1?$_CORBA_Sequence@UNameComponent@CosNaming@@@@QEAA@XZ
??1?$_CORBA_Sequence@UNamedPropertyRange@CosNotification@@@@QEAA@XZ
??1?$_CORBA_Sequence@UParameterDescription@CORBA@@@@QEAA@XZ
??1?$_CORBA_Sequence@UProperty@CosNotification@@@@QEAA@XZ
??1?$_CORBA_Sequence@UPropertyError@CosNotification@@@@QEAA@XZ
??1?$_CORBA_Sequence@UStructMember@CORBA@@@@QEAA@XZ
??1?$_CORBA_Sequence@UStructuredEvent@CosNotification@@@@QEAA@XZ
??1?$_CORBA_Sequence_ObjRef@VObject@CORBA@@VObject_Element@2@VObject_Helper@2@@@QEAA@XZ
??1?$_CORBA_Unbounded_Sequence@J@@QEAA@XZ
??1?$_CORBA_Unbounded_Sequence@UConstraintExp@CosNotifyFilter@@@@QEAA@XZ
??1?$_CORBA_Unbounded_Sequence@UConstraintInfo@CosNotifyFilter@@@@QEAA@XZ
??1?$_CORBA_Unbounded_Sequence@UEventType@CosNotification@@@@QEAA@XZ
??1?$_CORBA_Unbounded_Sequence@UExceptionDescription@CORBA@@@@QEAA@XZ
??1?$_CORBA_Unbounded_Sequence@UMappingConstraintInfo@CosNotifyFilter@@@@QEAA@XZ
??1?$_CORBA_Unbounded_Sequence@UMappingConstraintPair@CosNotifyFilter@@@@QEAA@XZ
??1?$_CORBA_Unbounded_Sequence@UNVP@CosLifeCycle@@@@QEAA@XZ
??1?$_CORBA_Unbounded_Sequence@UNameComponent@CosNaming@@@@QEAA@XZ
??1?$_CORBA_Unbounded_Sequence@UNamedPropertyRange@CosNotification@@@@QEAA@XZ
??1?$_CORBA_Unbounded_Sequence@UParameterDescription@CORBA@@@@QEAA@XZ
??1?$_CORBA_Unbounded_Sequence@UProperty@CosNotification@@@@QEAA@XZ
??1?$_CORBA_Unbounded_Sequence@UPropertyError@CosNotification@@@@QEAA@XZ
??1?$_CORBA_Unbounded_Sequence@UStructMember@CORBA@@@@QEAA@XZ
??1?$_CORBA_Unbounded_Sequence@UStructuredEvent@CosNotification@@@@QEAA@XZ
??1?$_CORBA_Unbounded_Sequence_ObjRef@VObject@CORBA@@VObject_Element@2@VObject_Helper@2@@@QEAA@XZ
??1?$_CORBA_Unbounded_Sequence_w_FixSizeElement@J$03$03@@QEAA@XZ
??1AdminIDSeq@CosNotifyChannelAdmin@@QEAA@XZ
??1AdminIDSeq_var@CosNotifyChannelAdmin@@QEAA@XZ
??1AdminLimit@CosNotifyChannelAdmin@@QEAA@XZ
??1AdminLimitExceeded@CosNotifyChannelAdmin@@UEAA@XZ
??1AdminNotFound@CosNotifyChannelAdmin@@UEAA@XZ
??1AdminPropertiesAdmin@POA_CosNotification@@UEAA@XZ
??1AlreadyConnected@CosEventChannelAdmin@@UEAA@XZ
??1Any_var@CORBA@@QEAA@XZ
??1AttributeDescription@CORBA@@QEAA@XZ
??1Binding@CosNaming@@QEAA@XZ
??1CallbackIDSeq@CosNotifyFilter@@QEAA@XZ
??1CallbackIDSeq_var@CosNotifyFilter@@QEAA@XZ
??1CallbackNotFound@CosNotifyFilter@@UEAA@XZ
??1CannotMeetCriteria@CosLifeCycle@@UEAA@XZ
??1ChannelIDSeq@CosNotifyChannelAdmin@@QEAA@XZ
??1ChannelIDSeq_var@CosNotifyChannelAdmin@@QEAA@XZ
??1ChannelNotFound@CosNotifyChannelAdmin@@UEAA@XZ
??1ConnectionAlreadyActive@CosNotifyChannelAdmin@@UEAA@XZ
??1ConnectionAlreadyInactive@CosNotifyChannelAdmin@@UEAA@XZ
??1ConstraintExp@CosNotifyFilter@@QEAA@XZ
??1ConstraintExpSeq@CosNotifyFilter@@QEAA@XZ
??1ConstraintExpSeq_var@CosNotifyFilter@@QEAA@XZ
??1ConstraintIDSeq@CosNotifyFilter@@QEAA@XZ
??1ConstraintIDSeq_var@CosNotifyFilter@@QEAA@XZ
??1ConstraintInfo@CosNotifyFilter@@QEAA@XZ
??1ConstraintInfoSeq@CosNotifyFilter@@QEAA@XZ
??1ConstraintInfoSeq_var@CosNotifyFilter@@QEAA@XZ
??1ConstraintNotFound@CosNotifyFilter@@UEAA@XZ
??1ConsumerAdmin@POA_CosEventChannelAdmin@@UEAA@XZ
??1ConsumerAdmin@POA_CosNotifyChannelAdmin@@UEAA@XZ
??1ContextIdSeq@CORBA@@QEAA@XZ
??1Criteria@CosLifeCycle@@QEAA@XZ
??1Criteria_var@CosLifeCycle@@QEAA@XZ
??1Description@Container@CORBA@@QEAA@XZ
??1Disconnected@CosEventComm@@UEAA@XZ
??1DuplicateConstraintID@CosNotifyFilter@@UEAA@XZ
??1EventBatch@CosNotification@@QEAA@XZ
??1EventBatch_var@CosNotification@@QEAA@XZ
??1EventChannel@POA_CosEventChannelAdmin@@UEAA@XZ
??1EventChannel@POA_CosNotifyChannelAdmin@@UEAA@XZ
??1EventChannelFactory@POA_CosNotifyChannelAdmin@@UEAA@XZ
??1EventHeader@CosNotification@@QEAA@XZ
??1EventType@CosNotification@@QEAA@XZ
??1EventTypeSeq@CosNotification@@QEAA@XZ
??1EventTypeSeq_var@CosNotification@@QEAA@XZ
??1ExcDescriptionSeq@CORBA@@QEAA@XZ
??1ExceptionDescription@CORBA@@QEAA@XZ
??1Factories@CosLifeCycle@@QEAA@XZ
??1Factories_var@CosLifeCycle@@QEAA@XZ
??1FactoryFinder@POA_CosLifeCycle@@UEAA@XZ
??1Filter@POA_CosNotifyFilter@@UEAA@XZ
??1FilterAdmin@POA_CosNotifyFilter@@UEAA@XZ
??1FilterFactory@POA_CosNotifyFilter@@UEAA@XZ
??1FilterIDSeq@CosNotifyFilter@@QEAA@XZ
??1FilterIDSeq_var@CosNotifyFilter@@QEAA@XZ
??1FilterNotFound@CosNotifyFilter@@UEAA@XZ
??1FixedEventHeader@CosNotification@@QEAA@XZ
??1GenericFactory@POA_CosLifeCycle@@UEAA@XZ
??1Initializer@CORBA@@QEAA@XZ
??1InvalidConstraint@CosNotifyFilter@@UEAA@XZ
??1InvalidCriteria@CosLifeCycle@@UEAA@XZ
??1InvalidEventType@CosNotifyComm@@UEAA@XZ
??1InvalidGrammar@CosNotifyFilter@@UEAA@XZ
??1InvalidValue@CosNotifyFilter@@UEAA@XZ
??1LifeCycleObject@POA_CosLifeCycle@@UEAA@XZ
??1MappingConstraintInfo@CosNotifyFilter@@QEAA@XZ
??1MappingConstraintInfoSeq@CosNotifyFilter@@QEAA@XZ
??1MappingConstraintInfoSeq_var@CosNotifyFilter@@QEAA@XZ
??1MappingConstraintPair@CosNotifyFilter@@QEAA@XZ
??1MappingConstraintPairSeq@CosNotifyFilter@@QEAA@XZ
??1MappingConstraintPairSeq_var@CosNotifyFilter@@QEAA@XZ
??1MappingFilter@POA_CosNotifyFilter@@UEAA@XZ
??1NVP@CosLifeCycle@@QEAA@XZ
??1Name@CosNaming@@QEAA@XZ
??1NameComponent@CosNaming@@QEAA@XZ
??1NameDynAnyPair@DynamicAny@@QEAA@XZ
??1NameValuePair@DynamicAny@@QEAA@XZ
??1Name_var@CosNaming@@QEAA@XZ
??1NamedPropertyRange@CosNotification@@QEAA@XZ
??1NamedPropertyRangeSeq@CosNotification@@QEAA@XZ
??1NamedPropertyRangeSeq_var@CosNotification@@QEAA@XZ
??1NoFactory@CosLifeCycle@@UEAA@XZ
??1NotConnected@CosNotifyChannelAdmin@@UEAA@XZ
??1NotCopyable@CosLifeCycle@@UEAA@XZ
??1NotMovable@CosLifeCycle@@UEAA@XZ
??1NotRemovable@CosLifeCycle@@UEAA@XZ
??1NotifyPublish@POA_CosNotifyComm@@UEAA@XZ
??1NotifySubscribe@POA_CosNotifyComm@@UEAA@XZ
??1Object_var@CORBA@@QEAA@XZ
??1OperationDescription@CORBA@@QEAA@XZ
??1ParDescriptionSeq@CORBA@@QEAA@XZ
??1ParameterDescription@CORBA@@QEAA@XZ
??1Property@CosNotification@@QEAA@XZ
??1PropertyError@CosNotification@@QEAA@XZ
??1PropertyErrorSeq@CosNotification@@QEAA@XZ
??1PropertyRange@CosNotification@@QEAA@XZ
??1PropertySeq@CosNotification@@QEAA@XZ
??1PropertySeq_var@CosNotification@@QEAA@XZ
??1ProxyConsumer@POA_CosNotifyChannelAdmin@@UEAA@XZ
??1ProxyIDSeq@CosNotifyChannelAdmin@@QEAA@XZ
??1ProxyIDSeq_var@CosNotifyChannelAdmin@@QEAA@XZ
??1ProxyNotFound@CosNotifyChannelAdmin@@UEAA@XZ
??1ProxyPullConsumer@POA_CosEventChannelAdmin@@UEAA@XZ
??1ProxyPullConsumer@POA_CosNotifyChannelAdmin@@UEAA@XZ
??1ProxyPullSupplier@POA_CosEventChannelAdmin@@UEAA@XZ
??1ProxyPullSupplier@POA_CosNotifyChannelAdmin@@UEAA@XZ
??1ProxyPushConsumer@POA_CosEventChannelAdmin@@UEAA@XZ
??1ProxyPushConsumer@POA_CosNotifyChannelAdmin@@UEAA@XZ
??1ProxyPushSupplier@POA_CosEventChannelAdmin@@UEAA@XZ
??1ProxyPushSupplier@POA_CosNotifyChannelAdmin@@UEAA@XZ
??1ProxySupplier@POA_CosNotifyChannelAdmin@@UEAA@XZ
??1PullConsumer@POA_CosEventComm@@UEAA@XZ
??1PullConsumer@POA_CosNotifyComm@@UEAA@XZ
??1PullSupplier@POA_CosEventComm@@UEAA@XZ
??1PullSupplier@POA_CosNotifyComm@@UEAA@XZ
??1PushConsumer@POA_CosEventComm@@UEAA@XZ
??1PushConsumer@POA_CosNotifyComm@@UEAA@XZ
??1PushSupplier@POA_CosEventComm@@UEAA@XZ
??1PushSupplier@POA_CosNotifyComm@@UEAA@XZ
??1QoSAdmin@POA_CosNotification@@UEAA@XZ
??1SequenceProxyPullConsumer@POA_CosNotifyChannelAdmin@@UEAA@XZ
??1SequenceProxyPullSupplier@POA_CosNotifyChannelAdmin@@UEAA@XZ
??1SequenceProxyPushConsumer@POA_CosNotifyChannelAdmin@@UEAA@XZ
??1SequenceProxyPushSupplier@POA_CosNotifyChannelAdmin@@UEAA@XZ
??1SequencePullConsumer@POA_CosNotifyComm@@UEAA@XZ
??1SequencePullSupplier@POA_CosNotifyComm@@UEAA@XZ
??1SequencePushConsumer@POA_CosNotifyComm@@UEAA@XZ
??1SequencePushSupplier@POA_CosNotifyComm@@UEAA@XZ
??1ServiceContext@IOP@@QEAA@XZ
??1StructMember@CORBA@@QEAA@XZ
??1StructMemberSeq@CORBA@@QEAA@XZ
??1StructuredEvent@CosNotification@@QEAA@XZ
??1StructuredProxyPullConsumer@POA_CosNotifyChannelAdmin@@UEAA@XZ
??1StructuredProxyPullSupplier@POA_CosNotifyChannelAdmin@@UEAA@XZ
??1StructuredProxyPushConsumer@POA_CosNotifyChannelAdmin@@UEAA@XZ
??1StructuredProxyPushSupplier@POA_CosNotifyChannelAdmin@@UEAA@XZ
??1StructuredPullConsumer@POA_CosNotifyComm@@UEAA@XZ
??1StructuredPullSupplier@POA_CosNotifyComm@@UEAA@XZ
??1StructuredPushConsumer@POA_CosNotifyComm@@UEAA@XZ
??1StructuredPushSupplier@POA_CosNotifyComm@@UEAA@XZ
??1SupplierAdmin@POA_CosEventChannelAdmin@@UEAA@XZ
??1SupplierAdmin@POA_CosNotifyChannelAdmin@@UEAA@XZ
??1TIO@POA_CosTime@@UEAA@XZ
??1TaggedComponent@IOP@@QEAA@XZ
??1TaggedProfile@IOP@@QEAA@XZ
??1TimeService@POA_CosTime@@UEAA@XZ
??1TimeUnavailable@CosTime@@UEAA@XZ
??1TypeCode_var@CORBA@@QEAA@XZ
??1TypeError@CosEventChannelAdmin@@UEAA@XZ
??1UTO@POA_CosTime@@UEAA@XZ
??1UnionMember@CORBA@@QEAA@XZ
??1UnsupportedAdmin@CosNotification@@UEAA@XZ
??1UnsupportedFilterableData@CosNotifyFilter@@UEAA@XZ
??1UnsupportedQoS@CosNotification@@UEAA@XZ
??1ValueMember@CORBA@@QEAA@XZ
??1_0RL_cd_1fe8f330207afd15_00000000@@UEAA@XZ
??1_0RL_cd_1fe8f330207afd15_02000000@@UEAA@XZ
??1_0RL_cd_1fe8f330207afd15_03000000@@UEAA@XZ
??1_0RL_cd_1fe8f330207afd15_11000000@@UEAA@XZ
??1_0RL_cd_1fe8f330207afd15_20000000@@UEAA@XZ
??1_0RL_cd_1fe8f330207afd15_22000000@@UEAA@XZ
??1_0RL_cd_1fe8f330207afd15_23000000@@UEAA@XZ
??1_0RL_cd_1fe8f330207afd15_31000000@@UEAA@XZ
??1_0RL_cd_1fe8f330207afd15_40000000@@UEAA@XZ
??1_0RL_cd_1fe8f330207afd15_42000000@@UEAA@XZ
??1_0RL_cd_1fe8f330207afd15_43000000@@UEAA@XZ
??1_0RL_cd_1fe8f330207afd15_51000000@@UEAA@XZ
??1_0RL_cd_1fe8f330207afd15_60000000@@UEAA@XZ
??1_0RL_cd_1fe8f330207afd15_63000000@@UEAA@XZ
??1_0RL_cd_1fe8f330207afd15_71000000@@UEAA@XZ
??1_0RL_cd_1fe8f330207afd15_80000000@@UEAA@XZ
??1_0RL_cd_1fe8f330207afd15_82000000@@UEAA@XZ
??1_0RL_cd_1fe8f330207afd15_83000000@@UEAA@XZ
??1_0RL_cd_1fe8f330207afd15_a0000000@@UEAA@XZ
??1_0RL_cd_1fe8f330207afd15_a1000000@@UEAA@XZ
??1_0RL_cd_1fe8f330207afd15_a2000000@@UEAA@XZ
??1_0RL_cd_1fe8f330207afd15_c1000000@@UEAA@XZ
??1_0RL_cd_1fe8f330207afd15_c2000000@@UEAA@XZ
??1_0RL_cd_1fe8f330207afd15_d0000000@@UEAA@XZ
??1_0RL_cd_1fe8f330207afd15_e1000000@@UEAA@XZ
??1_0RL_cd_1fe8f330207afd15_e2000000@@UEAA@XZ
??1_0RL_cd_1fe8f330207afd15_f0000000@@UEAA@XZ
??1_0RL_cd_25b2b9dd5b4ad98d_00000000@@UEAA@XZ
??1_0RL_cd_25b2b9dd5b4ad98d_20000000@@UEAA@XZ
??1_0RL_cd_25b2b9dd5b4ad98d_40000000@@UEAA@XZ
??1_0RL_cd_25b2b9dd5b4ad98d_60000000@@UEAA@XZ
??1_0RL_cd_25b2b9dd5b4ad98d_80000000@@UEAA@XZ
??1_0RL_cd_25b2b9dd5b4ad98d_a0000000@@UEAA@XZ
??1_0RL_cd_4b6b86183777b6c2_00000000@@UEAA@XZ
??1_0RL_cd_4b6b86183777b6c2_21000000@@UEAA@XZ
??1_0RL_cd_4b6b86183777b6c2_30000000@@UEAA@XZ
??1_0RL_cd_4b6b86183777b6c2_41000000@@UEAA@XZ
??1_0RL_cd_4b6b86183777b6c2_50000000@@UEAA@XZ
??1_0RL_cd_4b6b86183777b6c2_80000000@@UEAA@XZ
??1_0RL_cd_4b6b86183777b6c2_a0000000@@UEAA@XZ
??1_0RL_cd_4b6b86183777b6c2_e0000000@@UEAA@XZ
??1_0RL_cd_8b6214f5b3100e7e_00000000@@UEAA@XZ
??1_0RL_cd_8b6214f5b3100e7e_20000000@@UEAA@XZ
??1_0RL_cd_8b6214f5b3100e7e_40000000@@UEAA@XZ
??1_0RL_cd_8b6214f5b3100e7e_70000000@@UEAA@XZ
??1_0RL_cd_9043e11a9721dab3_00000000@@UEAA@XZ
??1_0RL_cd_9043e11a9721dab3_06000000@@UEAA@XZ
??1_0RL_cd_9043e11a9721dab3_12000000@@UEAA@XZ
??1_0RL_cd_9043e11a9721dab3_13000000@@UEAA@XZ
??1_0RL_cd_9043e11a9721dab3_20000000@@UEAA@XZ
??1_0RL_cd_9043e11a9721dab3_25000000@@UEAA@XZ
??1_0RL_cd_9043e11a9721dab3_26000000@@UEAA@XZ
??1_0RL_cd_9043e11a9721dab3_31000000@@UEAA@XZ
??1_0RL_cd_9043e11a9721dab3_32000000@@UEAA@XZ
??1_0RL_cd_9043e11a9721dab3_34000000@@UEAA@XZ
??1_0RL_cd_9043e11a9721dab3_40000000@@UEAA@XZ
??1_0RL_cd_9043e11a9721dab3_45000000@@UEAA@XZ
??1_0RL_cd_9043e11a9721dab3_46000000@@UEAA@XZ
??1_0RL_cd_9043e11a9721dab3_51000000@@UEAA@XZ
??1_0RL_cd_9043e11a9721dab3_52000000@@UEAA@XZ
??1_0RL_cd_9043e11a9721dab3_53000000@@UEAA@XZ
??1_0RL_cd_9043e11a9721dab3_60000000@@UEAA@XZ
??1_0RL_cd_9043e11a9721dab3_64000000@@UEAA@XZ
??1_0RL_cd_9043e11a9721dab3_66000000@@UEAA@XZ
??1_0RL_cd_9043e11a9721dab3_71000000@@UEAA@XZ
??1_0RL_cd_9043e11a9721dab3_84000000@@UEAA@XZ
??1_0RL_cd_9043e11a9721dab3_85000000@@UEAA@XZ
??1_0RL_cd_9043e11a9721dab3_90000000@@UEAA@XZ
??1_0RL_cd_9043e11a9721dab3_91000000@@UEAA@XZ
??1_0RL_cd_9043e11a9721dab3_92000000@@UEAA@XZ
??1_0RL_cd_9043e11a9721dab3_93000000@@UEAA@XZ
??1_0RL_cd_9043e11a9721dab3_96000000@@UEAA@XZ
??1_0RL_cd_9043e11a9721dab3_b0000000@@UEAA@XZ
??1_0RL_cd_9043e11a9721dab3_b1000000@@UEAA@XZ
??1_0RL_cd_9043e11a9721dab3_b3000000@@UEAA@XZ
??1_0RL_cd_9043e11a9721dab3_b4000000@@UEAA@XZ
??1_0RL_cd_9043e11a9721dab3_b6000000@@UEAA@XZ
??1_0RL_cd_9043e11a9721dab3_c5000000@@UEAA@XZ
??1_0RL_cd_9043e11a9721dab3_d0000000@@UEAA@XZ
??1_0RL_cd_9043e11a9721dab3_d1000000@@UEAA@XZ
??1_0RL_cd_9043e11a9721dab3_d2000000@@UEAA@XZ
??1_0RL_cd_9043e11a9721dab3_d3000000@@UEAA@XZ
??1_0RL_cd_9043e11a9721dab3_d6000000@@UEAA@XZ
??1_0RL_cd_9043e11a9721dab3_e5000000@@UEAA@XZ
??1_0RL_cd_9043e11a9721dab3_f1000000@@UEAA@XZ
??1_0RL_cd_99dff546ea0f9974_00000000@@UEAA@XZ
??1_0RL_cd_99dff546ea0f9974_11000000@@UEAA@XZ
??1_0RL_cd_99dff546ea0f9974_30000000@@UEAA@XZ
??1_0RL_cd_99dff546ea0f9974_31000000@@UEAA@XZ
??1_0RL_cd_99dff546ea0f9974_50000000@@UEAA@XZ
??1_0RL_cd_99dff546ea0f9974_61000000@@UEAA@XZ
??1_0RL_cd_99dff546ea0f9974_70000000@@UEAA@XZ
??1_0RL_cd_99dff546ea0f9974_90000000@@UEAA@XZ
??1_0RL_cd_99dff546ea0f9974_91000000@@UEAA@XZ
??1_0RL_cd_99dff546ea0f9974_b0000000@@UEAA@XZ
??1_0RL_cd_99dff546ea0f9974_b1000000@@UEAA@XZ
??1_0RL_cd_99dff546ea0f9974_d0000000@@UEAA@XZ
??1_0RL_cd_99dff546ea0f9974_d1000000@@UEAA@XZ
??1_0RL_cd_99dff546ea0f9974_f0000000@@UEAA@XZ
??1_0RL_cd_bd959cc57b2e138f_00000000@@UEAA@XZ
??1_0RL_cd_bd959cc57b2e138f_20000000@@UEAA@XZ
??1_0RL_cd_bd959cc57b2e138f_50000000@@UEAA@XZ
??1_0RL_cd_bd959cc57b2e138f_70000000@@UEAA@XZ
??1_0RL_cd_f894c8374a428e70_00000000@@UEAA@XZ
??1_0RL_cd_f894c8374a428e70_01000000@@UEAA@XZ
??1_0RL_cd_f894c8374a428e70_20000000@@UEAA@XZ
??1_0RL_cd_f894c8374a428e70_21000000@@UEAA@XZ
??1_0RL_cd_f894c8374a428e70_40000000@@UEAA@XZ
??1_0RL_cd_f894c8374a428e70_41000000@@UEAA@XZ
??1_0RL_cd_f894c8374a428e70_60000000@@UEAA@XZ
??1_0RL_cd_f894c8374a428e70_80000000@@UEAA@XZ
??1_0RL_cd_f894c8374a428e70_a0000000@@UEAA@XZ
??1_0RL_cd_f894c8374a428e70_c0000000@@UEAA@XZ
??1_0RL_cd_f894c8374a428e70_e0000000@@UEAA@XZ
??1_CORBA_Sequence_Octet@@IEAA@XZ
??1_CORBA_Sequence_String@@QEAA@XZ
??1_CORBA_String_member@@QEAA@XZ
??1_CORBA_String_var@@QEAA@XZ
??1_CORBA_Unbounded_Sequence_Octet@@QEAA@XZ
??1_CORBA_Unbounded_Sequence_String@@QEAA@XZ
??1_impl_AdminPropertiesAdmin@CosNotification@@UEAA@XZ
??1_impl_ConsumerAdmin@CosEventChannelAdmin@@UEAA@XZ
??1_impl_ConsumerAdmin@CosNotifyChannelAdmin@@UEAA@XZ
??1_impl_EventChannel@CosEventChannelAdmin@@UEAA@XZ
??1_impl_EventChannel@CosNotifyChannelAdmin@@UEAA@XZ
??1_impl_EventChannelFactory@CosNotifyChannelAdmin@@UEAA@XZ
??1_impl_FactoryFinder@CosLifeCycle@@UEAA@XZ
??1_impl_Filter@CosNotifyFilter@@UEAA@XZ
??1_impl_FilterAdmin@CosNotifyFilter@@UEAA@XZ
??1_impl_FilterFactory@CosNotifyFilter@@UEAA@XZ
??1_impl_GenericFactory@CosLifeCycle@@UEAA@XZ
??1_impl_LifeCycleObject@CosLifeCycle@@UEAA@XZ
??1_impl_MappingFilter@CosNotifyFilter@@UEAA@XZ
??1_impl_NotifyPublish@CosNotifyComm@@UEAA@XZ
??1_impl_NotifySubscribe@CosNotifyComm@@UEAA@XZ
??1_impl_ProxyConsumer@CosNotifyChannelAdmin@@UEAA@XZ
??1_impl_ProxyPullConsumer@CosEventChannelAdmin@@UEAA@XZ
??1_impl_ProxyPullConsumer@CosNotifyChannelAdmin@@UEAA@XZ
??1_impl_ProxyPullSupplier@CosEventChannelAdmin@@UEAA@XZ
??1_impl_ProxyPullSupplier@CosNotifyChannelAdmin@@UEAA@XZ
??1_impl_ProxyPushConsumer@CosEventChannelAdmin@@UEAA@XZ
??1_impl_ProxyPushConsumer@CosNotifyChannelAdmin@@UEAA@XZ
??1_impl_ProxyPushSupplier@CosEventChannelAdmin@@UEAA@XZ
??1_impl_ProxyPushSupplier@CosNotifyChannelAdmin@@UEAA@XZ
??1_impl_ProxySupplier@CosNotifyChannelAdmin@@UEAA@XZ
??1_impl_PullConsumer@CosEventComm@@UEAA@XZ
??1_impl_PullConsumer@CosNotifyComm@@UEAA@XZ
??1_impl_PullSupplier@CosEventComm@@UEAA@XZ
??1_impl_PullSupplier@CosNotifyComm@@UEAA@XZ
??1_impl_PushConsumer@CosEventComm@@UEAA@XZ
??1_impl_PushConsumer@CosNotifyComm@@UEAA@XZ
??1_impl_PushSupplier@CosEventComm@@UEAA@XZ
??1_impl_PushSupplier@CosNotifyComm@@UEAA@XZ
??1_impl_QoSAdmin@CosNotification@@UEAA@XZ
??1_impl_SequenceProxyPullConsumer@CosNotifyChannelAdmin@@UEAA@XZ
??1_impl_SequenceProxyPullSupplier@CosNotifyChannelAdmin@@UEAA@XZ
??1_impl_SequenceProxyPushConsumer@CosNotifyChannelAdmin@@UEAA@XZ
??1_impl_SequenceProxyPushSupplier@CosNotifyChannelAdmin@@UEAA@XZ
??1_impl_SequencePullConsumer@CosNotifyComm@@UEAA@XZ
??1_impl_SequencePullSupplier@CosNotifyComm@@UEAA@XZ
??1_impl_SequencePushConsumer@CosNotifyComm@@UEAA@XZ
??1_impl_SequencePushSupplier@CosNotifyComm@@UEAA@XZ
??1_impl_StructuredProxyPullConsumer@CosNotifyChannelAdmin@@UEAA@XZ
??1_impl_StructuredProxyPullSupplier@CosNotifyChannelAdmin@@UEAA@XZ
??1_impl_StructuredProxyPushConsumer@CosNotifyChannelAdmin@@UEAA@XZ
??1_impl_StructuredProxyPushSupplier@CosNotifyChannelAdmin@@UEAA@XZ
??1_impl_StructuredPullConsumer@CosNotifyComm@@UEAA@XZ
??1_impl_StructuredPullSupplier@CosNotifyComm@@UEAA@XZ
??1_impl_StructuredPushConsumer@CosNotifyComm@@UEAA@XZ
??1_impl_StructuredPushSupplier@CosNotifyComm@@UEAA@XZ
??1_impl_SupplierAdmin@CosEventChannelAdmin@@UEAA@XZ
??1_impl_SupplierAdmin@CosNotifyChannelAdmin@@UEAA@XZ
??1_impl_TIO@CosTime@@UEAA@XZ
??1_impl_TimeService@CosTime@@UEAA@XZ
??1_impl_UTO@CosTime@@UEAA@XZ
??1_objref_AdminPropertiesAdmin@CosNotification@@MEAA@XZ
??1_objref_ConsumerAdmin@CosEventChannelAdmin@@MEAA@XZ
??1_objref_ConsumerAdmin@CosNotifyChannelAdmin@@MEAA@XZ
??1_objref_EventChannel@CosEventChannelAdmin@@MEAA@XZ
??1_objref_EventChannel@CosNotifyChannelAdmin@@MEAA@XZ
??1_objref_EventChannelFactory@CosNotifyChannelAdmin@@MEAA@XZ
??1_objref_FactoryFinder@CosLifeCycle@@MEAA@XZ
??1_objref_Filter@CosNotifyFilter@@MEAA@XZ
??1_objref_FilterAdmin@CosNotifyFilter@@MEAA@XZ
??1_objref_FilterFactory@CosNotifyFilter@@MEAA@XZ
??1_objref_GenericFactory@CosLifeCycle@@MEAA@XZ
??1_objref_LifeCycleObject@CosLifeCycle@@MEAA@XZ
??1_objref_MappingFilter@CosNotifyFilter@@MEAA@XZ
??1_objref_NotifyPublish@CosNotifyComm@@MEAA@XZ
??1_objref_NotifySubscribe@CosNotifyComm@@MEAA@XZ
??1_objref_ProxyConsumer@CosNotifyChannelAdmin@@MEAA@XZ
??1_objref_ProxyPullConsumer@CosEventChannelAdmin@@MEAA@XZ
??1_objref_ProxyPullConsumer@CosNotifyChannelAdmin@@MEAA@XZ
??1_objref_ProxyPullSupplier@CosEventChannelAdmin@@MEAA@XZ
??1_objref_ProxyPullSupplier@CosNotifyChannelAdmin@@MEAA@XZ
??1_objref_ProxyPushConsumer@CosEventChannelAdmin@@MEAA@XZ
??1_objref_ProxyPushConsumer@CosNotifyChannelAdmin@@MEAA@XZ
??1_objref_ProxyPushSupplier@CosEventChannelAdmin@@MEAA@XZ
??1_objref_ProxyPushSupplier@CosNotifyChannelAdmin@@MEAA@XZ
??1_objref_ProxySupplier@CosNotifyChannelAdmin@@MEAA@XZ
??1_objref_PullConsumer@CosEventComm@@MEAA@XZ
??1_objref_PullConsumer@CosNotifyComm@@MEAA@XZ
??1_objref_PullSupplier@CosEventComm@@MEAA@XZ
??1_objref_PullSupplier@CosNotifyComm@@MEAA@XZ
??1_objref_PushConsumer@CosEventComm@@MEAA@XZ
??1_objref_PushConsumer@CosNotifyComm@@MEAA@XZ
??1_objref_PushSupplier@CosEventComm@@MEAA@XZ
??1_objref_PushSupplier@CosNotifyComm@@MEAA@XZ
??1_objref_QoSAdmin@CosNotification@@MEAA@XZ
??1_objref_SequenceProxyPullConsumer@CosNotifyChannelAdmin@@MEAA@XZ
??1_objref_SequenceProxyPullSupplier@CosNotifyChannelAdmin@@MEAA@XZ
??1_objref_SequenceProxyPushConsumer@CosNotifyChannelAdmin@@MEAA@XZ
??1_objref_SequenceProxyPushSupplier@CosNotifyChannelAdmin@@MEAA@XZ
??1_objref_SequencePullConsumer@CosNotifyComm@@MEAA@XZ
??1_objref_SequencePullSupplier@CosNotifyComm@@MEAA@XZ
??1_objref_SequencePushConsumer@CosNotifyComm@@MEAA@XZ
??1_objref_SequencePushSupplier@CosNotifyComm@@MEAA@XZ
??1_objref_StructuredProxyPullConsumer@CosNotifyChannelAdmin@@MEAA@XZ
??1_objref_StructuredProxyPullSupplier@CosNotifyChannelAdmin@@MEAA@XZ
??1_objref_StructuredProxyPushConsumer@CosNotifyChannelAdmin@@MEAA@XZ
??1_objref_StructuredProxyPushSupplier@CosNotifyChannelAdmin@@MEAA@XZ
??1_objref_StructuredPullConsumer@CosNotifyComm@@MEAA@XZ
??1_objref_StructuredPullSupplier@CosNotifyComm@@MEAA@XZ
??1_objref_StructuredPushConsumer@CosNotifyComm@@MEAA@XZ
??1_objref_StructuredPushSupplier@CosNotifyComm@@MEAA@XZ
??1_objref_SupplierAdmin@CosEventChannelAdmin@@MEAA@XZ
??1_objref_SupplierAdmin@CosNotifyChannelAdmin@@MEAA@XZ
??1_objref_TIO@CosTime@@MEAA@XZ
??1_objref_TimeService@CosTime@@MEAA@XZ
??1_objref_UTO@CosTime@@MEAA@XZ
??1_pof_AdminPropertiesAdmin@CosNotification@@UEAA@XZ
??1_pof_ConsumerAdmin@CosEventChannelAdmin@@UEAA@XZ
??1_pof_ConsumerAdmin@CosNotifyChannelAdmin@@UEAA@XZ
??1_pof_EventChannel@CosEventChannelAdmin@@UEAA@XZ
??1_pof_EventChannel@CosNotifyChannelAdmin@@UEAA@XZ
??1_pof_EventChannelFactory@CosNotifyChannelAdmin@@UEAA@XZ
??1_pof_FactoryFinder@CosLifeCycle@@UEAA@XZ
??1_pof_Filter@CosNotifyFilter@@UEAA@XZ
??1_pof_FilterAdmin@CosNotifyFilter@@UEAA@XZ
??1_pof_FilterFactory@CosNotifyFilter@@UEAA@XZ
??1_pof_GenericFactory@CosLifeCycle@@UEAA@XZ
??1_pof_LifeCycleObject@CosLifeCycle@@UEAA@XZ
??1_pof_MappingFilter@CosNotifyFilter@@UEAA@XZ
??1_pof_NotifyPublish@CosNotifyComm@@UEAA@XZ
??1_pof_NotifySubscribe@CosNotifyComm@@UEAA@XZ
??1_pof_ProxyConsumer@CosNotifyChannelAdmin@@UEAA@XZ
??1_pof_ProxyPullConsumer@CosEventChannelAdmin@@UEAA@XZ
??1_pof_ProxyPullConsumer@CosNotifyChannelAdmin@@UEAA@XZ
??1_pof_ProxyPullSupplier@CosEventChannelAdmin@@UEAA@XZ
??1_pof_ProxyPullSupplier@CosNotifyChannelAdmin@@UEAA@XZ
??1_pof_ProxyPushConsumer@CosEventChannelAdmin@@UEAA@XZ
??1_pof_ProxyPushConsumer@CosNotifyChannelAdmin@@UEAA@XZ
??1_pof_ProxyPushSupplier@CosEventChannelAdmin@@UEAA@XZ
??1_pof_ProxyPushSupplier@CosNotifyChannelAdmin@@UEAA@XZ
??1_pof_ProxySupplier@CosNotifyChannelAdmin@@UEAA@XZ
??1_pof_PullConsumer@CosEventComm@@UEAA@XZ
??1_pof_PullConsumer@CosNotifyComm@@UEAA@XZ
??1_pof_PullSupplier@CosEventComm@@UEAA@XZ
??1_pof_PullSupplier@CosNotifyComm@@UEAA@XZ
??1_pof_PushConsumer@CosEventComm@@UEAA@XZ
??1_pof_PushConsumer@CosNotifyComm@@UEAA@XZ
??1_pof_PushSupplier@CosEventComm@@UEAA@XZ
??1_pof_PushSupplier@CosNotifyComm@@UEAA@XZ
??1_pof_QoSAdmin@CosNotification@@UEAA@XZ
??1_pof_SequenceProxyPullConsumer@CosNotifyChannelAdmin@@UEAA@XZ
??1_pof_SequenceProxyPullSupplier@CosNotifyChannelAdmin@@UEAA@XZ
??1_pof_SequenceProxyPushConsumer@CosNotifyChannelAdmin@@UEAA@XZ
??1_pof_SequenceProxyPushSupplier@CosNotifyChannelAdmin@@UEAA@XZ
??1_pof_SequencePullConsumer@CosNotifyComm@@UEAA@XZ
??1_pof_SequencePullSupplier@CosNotifyComm@@UEAA@XZ
??1_pof_SequencePushConsumer@CosNotifyComm@@UEAA@XZ
??1_pof_SequencePushSupplier@CosNotifyComm@@UEAA@XZ
??1_pof_StructuredProxyPullConsumer@CosNotifyChannelAdmin@@UEAA@XZ
??1_pof_StructuredProxyPullSupplier@CosNotifyChannelAdmin@@UEAA@XZ
??1_pof_StructuredProxyPushConsumer@CosNotifyChannelAdmin@@UEAA@XZ
??1_pof_StructuredProxyPushSupplier@CosNotifyChannelAdmin@@UEAA@XZ
??1_pof_StructuredPullConsumer@CosNotifyComm@@UEAA@XZ
??1_pof_StructuredPullSupplier@CosNotifyComm@@UEAA@XZ
??1_pof_StructuredPushConsumer@CosNotifyComm@@UEAA@XZ
??1_pof_StructuredPushSupplier@CosNotifyComm@@UEAA@XZ
??1_pof_SupplierAdmin@CosEventChannelAdmin@@UEAA@XZ
??1_pof_SupplierAdmin@CosNotifyChannelAdmin@@UEAA@XZ
??1_pof_TIO@CosTime@@UEAA@XZ
??1_pof_TimeService@CosTime@@UEAA@XZ
??1_pof_UTO@CosTime@@UEAA@XZ
??1omniCallDescriptor@@UEAA@XZ
??4?$_CORBA_ConstrType_Variable_Var@UStructuredEvent@CosNotification@@@@QEAAAEAV0@PEAUStructuredEvent@CosNotification@@@Z
??4?$_CORBA_ObjRef_OUT_arg@V_objref_TIO@CosTime@@VTIO_Helper@2@@@QEAAAEAV0@PEAV_objref_TIO@CosTime@@@Z
??4?$_CORBA_ObjRef_Var@V_objref_ConsumerAdmin@CosEventChannelAdmin@@VConsumerAdmin_Helper@2@@@QEAAAEAV0@PEAV_objref_ConsumerAdmin@CosEventChannelAdmin@@@Z
??4?$_CORBA_ObjRef_Var@V_objref_ConsumerAdmin@CosNotifyChannelAdmin@@VConsumerAdmin_Helper@2@@@QEAAAEAV0@PEAV_objref_ConsumerAdmin@CosNotifyChannelAdmin@@@Z
??4?$_CORBA_ObjRef_Var@V_objref_EventChannel@CosNotifyChannelAdmin@@VEventChannel_Helper@2@@@QEAAAEAV0@PEAV_objref_EventChannel@CosNotifyChannelAdmin@@@Z
??4?$_CORBA_ObjRef_Var@V_objref_EventChannelFactory@CosNotifyChannelAdmin@@VEventChannelFactory_Helper@2@@@QEAAAEAV0@PEAV_objref_EventChannelFactory@CosNotifyChannelAdmin@@@Z
??4?$_CORBA_ObjRef_Var@V_objref_FactoryFinder@CosLifeCycle@@VFactoryFinder_Helper@2@@@QEAAAEAV0@PEAV_objref_FactoryFinder@CosLifeCycle@@@Z
??4?$_CORBA_ObjRef_Var@V_objref_Filter@CosNotifyFilter@@VFilter_Helper@2@@@QEAAAEAV0@PEAV_objref_Filter@CosNotifyFilter@@@Z
??4?$_CORBA_ObjRef_Var@V_objref_FilterFactory@CosNotifyFilter@@VFilterFactory_Helper@2@@@QEAAAEAV0@PEAV_objref_FilterFactory@CosNotifyFilter@@@Z
??4?$_CORBA_ObjRef_Var@V_objref_LifeCycleObject@CosLifeCycle@@VLifeCycleObject_Helper@2@@@QEAAAEAV0@PEAV_objref_LifeCycleObject@CosLifeCycle@@@Z
??4?$_CORBA_ObjRef_Var@V_objref_MappingFilter@CosNotifyFilter@@VMappingFilter_Helper@2@@@QEAAAEAV0@PEAV_objref_MappingFilter@CosNotifyFilter@@@Z
??4?$_CORBA_ObjRef_Var@V_objref_NotifySubscribe@CosNotifyComm@@VNotifySubscribe_Helper@2@@@QEAAAEAV0@PEAV_objref_NotifySubscribe@CosNotifyComm@@@Z
??4?$_CORBA_ObjRef_Var@V_objref_ProxyConsumer@CosNotifyChannelAdmin@@VProxyConsumer_Helper@2@@@QEAAAEAV0@PEAV_objref_ProxyConsumer@CosNotifyChannelAdmin@@@Z
??4?$_CORBA_ObjRef_Var@V_objref_ProxyPullConsumer@CosEventChannelAdmin@@VProxyPullConsumer_Helper@2@@@QEAAAEAV0@PEAV_objref_ProxyPullConsumer@CosEventChannelAdmin@@@Z
??4?$_CORBA_ObjRef_Var@V_objref_ProxyPullSupplier@CosEventChannelAdmin@@VProxyPullSupplier_Helper@2@@@QEAAAEAV0@PEAV_objref_ProxyPullSupplier@CosEventChannelAdmin@@@Z
??4?$_CORBA_ObjRef_Var@V_objref_ProxyPushConsumer@CosEventChannelAdmin@@VProxyPushConsumer_Helper@2@@@QEAAAEAV0@PEAV_objref_ProxyPushConsumer@CosEventChannelAdmin@@@Z
??4?$_CORBA_ObjRef_Var@V_objref_ProxyPushSupplier@CosEventChannelAdmin@@VProxyPushSupplier_Helper@2@@@QEAAAEAV0@PEAV_objref_ProxyPushSupplier@CosEventChannelAdmin@@@Z
??4?$_CORBA_ObjRef_Var@V_objref_ProxySupplier@CosNotifyChannelAdmin@@VProxySupplier_Helper@2@@@QEAAAEAV0@PEAV_objref_ProxySupplier@CosNotifyChannelAdmin@@@Z
??4?$_CORBA_ObjRef_Var@V_objref_PullConsumer@CosEventComm@@VPullConsumer_Helper@2@@@QEAAAEAV0@PEAV_objref_PullConsumer@CosEventComm@@@Z
??4?$_CORBA_ObjRef_Var@V_objref_PullSupplier@CosEventComm@@VPullSupplier_Helper@2@@@QEAAAEAV0@PEAV_objref_PullSupplier@CosEventComm@@@Z
??4?$_CORBA_ObjRef_Var@V_objref_PushConsumer@CosEventComm@@VPushConsumer_Helper@2@@@QEAAAEAV0@PEAV_objref_PushConsumer@CosEventComm@@@Z
??4?$_CORBA_ObjRef_Var@V_objref_PushSupplier@CosEventComm@@VPushSupplier_Helper@2@@@QEAAAEAV0@PEAV_objref_PushSupplier@CosEventComm@@@Z
??4?$_CORBA_ObjRef_Var@V_objref_SequencePullConsumer@CosNotifyComm@@VSequencePullConsumer_Helper@2@@@QEAAAEAV0@PEAV_objref_SequencePullConsumer@CosNotifyComm@@@Z
??4?$_CORBA_ObjRef_Var@V_objref_SequencePullSupplier@CosNotifyComm@@VSequencePullSupplier_Helper@2@@@QEAAAEAV0@PEAV_objref_SequencePullSupplier@CosNotifyComm@@@Z
??4?$_CORBA_ObjRef_Var@V_objref_SequencePushConsumer@CosNotifyComm@@VSequencePushConsumer_Helper@2@@@QEAAAEAV0@PEAV_objref_SequencePushConsumer@CosNotifyComm@@@Z
??4?$_CORBA_ObjRef_Var@V_objref_SequencePushSupplier@CosNotifyComm@@VSequencePushSupplier_Helper@2@@@QEAAAEAV0@PEAV_objref_SequencePushSupplier@CosNotifyComm@@@Z
??4?$_CORBA_ObjRef_Var@V_objref_StructuredPullConsumer@CosNotifyComm@@VStructuredPullConsumer_Helper@2@@@QEAAAEAV0@PEAV_objref_StructuredPullConsumer@CosNotifyComm@@@Z
??4?$_CORBA_ObjRef_Var@V_objref_StructuredPullSupplier@CosNotifyComm@@VStructuredPullSupplier_Helper@2@@@QEAAAEAV0@PEAV_objref_StructuredPullSupplier@CosNotifyComm@@@Z
??4?$_CORBA_ObjRef_Var@V_objref_StructuredPushConsumer@CosNotifyComm@@VStructuredPushConsumer_Helper@2@@@QEAAAEAV0@PEAV_objref_StructuredPushConsumer@CosNotifyComm@@@Z
??4?$_CORBA_ObjRef_Var@V_objref_StructuredPushSupplier@CosNotifyComm@@VStructuredPushSupplier_Helper@2@@@QEAAAEAV0@PEAV_objref_StructuredPushSupplier@CosNotifyComm@@@Z
??4?$_CORBA_ObjRef_Var@V_objref_SupplierAdmin@CosEventChannelAdmin@@VSupplierAdmin_Helper@2@@@QEAAAEAV0@PEAV_objref_SupplierAdmin@CosEventChannelAdmin@@@Z
??4?$_CORBA_ObjRef_Var@V_objref_SupplierAdmin@CosNotifyChannelAdmin@@VSupplierAdmin_Helper@2@@@QEAAAEAV0@PEAV_objref_SupplierAdmin@CosNotifyChannelAdmin@@@Z
??4?$_CORBA_ObjRef_Var@V_objref_TIO@CosTime@@VTIO_Helper@2@@@QEAAAEAV0@PEAV_objref_TIO@CosTime@@@Z
??4?$_CORBA_ObjRef_Var@V_objref_UTO@CosTime@@VUTO_Helper@2@@@QEAAAEAV0@PEAV_objref_UTO@CosTime@@@Z
??4?$_CORBA_Sequence@UEventType@CosNotification@@@@IEAAAEAV0@AEBV0@@Z
??4?$_CORBA_Sequence@UNVP@CosLifeCycle@@@@IEAAAEAV0@AEBV0@@Z
??4?$_CORBA_Sequence@UNameComponent@CosNaming@@@@IEAAAEAV0@AEBV0@@Z
??4?$_CORBA_Sequence@UProperty@CosNotification@@@@IEAAAEAV0@AEBV0@@Z
??4?$_CORBA_Sequence@UPropertyError@CosNotification@@@@IEAAAEAV0@AEBV0@@Z
??4?$_CORBA_Unbounded_Sequence@UEventType@CosNotification@@@@QEAAAEAV0@AEBV0@@Z
??4?$_CORBA_Unbounded_Sequence@UNVP@CosLifeCycle@@@@QEAAAEAV0@AEBV0@@Z
??4?$_CORBA_Unbounded_Sequence@UNameComponent@CosNaming@@@@QEAAAEAV0@AEBV0@@Z
??4?$_CORBA_Unbounded_Sequence@UProperty@CosNotification@@@@QEAAAEAV0@AEBV0@@Z
??4?$_CORBA_Unbounded_Sequence@UPropertyError@CosNotification@@@@QEAAAEAV0@AEBV0@@Z
??4AdminIDSeq_var@CosNotifyChannelAdmin@@QEAAAEAV01@PEAVAdminIDSeq@1@@Z
??4AdminLimit@CosNotifyChannelAdmin@@QEAAAEAU01@AEBU01@@Z
??4AdminLimitExceeded@CosNotifyChannelAdmin@@QEAAAEAV01@AEBV01@@Z
??4AdminNotFound@CosNotifyChannelAdmin@@QEAAAEAV01@AEBV01@@Z
??4AlreadyConnected@CosEventChannelAdmin@@QEAAAEAV01@AEBV01@@Z
??4Any_OUT_arg@CORBA@@QEAAAEAV01@PEAVAny@1@@Z
??4Any_var@CORBA@@QEAAAEAV01@PEAVAny@1@@Z
??4CallbackIDSeq_var@CosNotifyFilter@@QEAAAEAV01@PEAVCallbackIDSeq@1@@Z
??4CallbackNotFound@CosNotifyFilter@@QEAAAEAV01@AEBV01@@Z
??4CannotMeetCriteria@CosLifeCycle@@QEAAAEAV01@AEBV01@@Z
??4ChannelIDSeq_var@CosNotifyChannelAdmin@@QEAAAEAV01@PEAVChannelIDSeq@1@@Z
??4ChannelNotFound@CosNotifyChannelAdmin@@QEAAAEAV01@AEBV01@@Z
??4ConnectionAlreadyActive@CosNotifyChannelAdmin@@QEAAAEAV01@AEBV01@@Z
??4ConnectionAlreadyInactive@CosNotifyChannelAdmin@@QEAAAEAV01@AEBV01@@Z
??4ConstraintExp@CosNotifyFilter@@QEAAAEAU01@AEBU01@@Z
??4ConstraintExpSeq_var@CosNotifyFilter@@QEAAAEAV01@PEAVConstraintExpSeq@1@@Z
??4ConstraintIDSeq_var@CosNotifyFilter@@QEAAAEAV01@PEAVConstraintIDSeq@1@@Z
??4ConstraintInfo@CosNotifyFilter@@QEAAAEAU01@AEBU01@@Z
??4ConstraintInfoSeq_var@CosNotifyFilter@@QEAAAEAV01@PEAVConstraintInfoSeq@1@@Z
??4ConstraintNotFound@CosNotifyFilter@@QEAAAEAV01@AEBV01@@Z
??4Criteria@CosLifeCycle@@QEAAAEAV01@AEBV01@@Z
??4Criteria_var@CosLifeCycle@@QEAAAEAV01@PEAVCriteria@1@@Z
??4Disconnected@CosEventComm@@QEAAAEAV01@AEBV01@@Z
??4DuplicateConstraintID@CosNotifyFilter@@QEAAAEAV01@AEBV01@@Z
??4EventBatch_var@CosNotification@@QEAAAEAV01@PEAVEventBatch@1@@Z
??4EventHeader@CosNotification@@QEAAAEAU01@AEBU01@@Z
??4EventType@CosNotification@@QEAAAEAU01@AEBU01@@Z
??4EventTypeSeq@CosNotification@@QEAAAEAV01@AEBV01@@Z
??4EventTypeSeq_var@CosNotification@@QEAAAEAV01@PEAVEventTypeSeq@1@@Z
??4Exception@CORBA@@IEAAAEAV01@AEBV01@@Z
??4Factories_var@CosLifeCycle@@QEAAAEAV01@PEAVFactories@1@@Z
??4FilterIDSeq_var@CosNotifyFilter@@QEAAAEAV01@PEAVFilterIDSeq@1@@Z
??4FilterNotFound@CosNotifyFilter@@QEAAAEAV01@AEBV01@@Z
??4FixedEventHeader@CosNotification@@QEAAAEAU01@AEBU01@@Z
??4InvalidConstraint@CosNotifyFilter@@QEAAAEAV01@AEBV01@@Z
??4InvalidCriteria@CosLifeCycle@@QEAAAEAV01@AEBV01@@Z
??4InvalidEventType@CosNotifyComm@@QEAAAEAV01@AEBV01@@Z
??4InvalidGrammar@CosNotifyFilter@@QEAAAEAV01@AEBV01@@Z
??4InvalidValue@CosNotifyFilter@@QEAAAEAV01@AEBV01@@Z
??4MappingConstraintInfo@CosNotifyFilter@@QEAAAEAU01@AEBU01@@Z
??4MappingConstraintInfoSeq_var@CosNotifyFilter@@QEAAAEAV01@PEAVMappingConstraintInfoSeq@1@@Z
??4MappingConstraintPair@CosNotifyFilter@@QEAAAEAU01@AEBU01@@Z
??4MappingConstraintPairSeq_var@CosNotifyFilter@@QEAAAEAV01@PEAVMappingConstraintPairSeq@1@@Z
??4NVP@CosLifeCycle@@QEAAAEAU01@AEBU01@@Z
??4Name@CosNaming@@QEAAAEAV01@AEBV01@@Z
??4NameComponent@CosNaming@@QEAAAEAU01@AEBU01@@Z
??4Name_var@CosNaming@@QEAAAEAV01@PEAVName@1@@Z
??4NamedPropertyRange@CosNotification@@QEAAAEAU01@AEBU01@@Z
??4NamedPropertyRangeSeq_out@CosNotification@@QEAAAEAV01@PEAVNamedPropertyRangeSeq@1@@Z
??4NamedPropertyRangeSeq_var@CosNotification@@QEAAAEAV01@PEAVNamedPropertyRangeSeq@1@@Z
??4NoFactory@CosLifeCycle@@QEAAAEAV01@AEBV01@@Z
??4NotConnected@CosNotifyChannelAdmin@@QEAAAEAV01@AEBV01@@Z
??4NotCopyable@CosLifeCycle@@QEAAAEAV01@AEBV01@@Z
??4NotMovable@CosLifeCycle@@QEAAAEAV01@AEBV01@@Z
??4NotRemovable@CosLifeCycle@@QEAAAEAV01@AEBV01@@Z
??4Object_var@CORBA@@QEAAAEAV01@PEAVObject@1@@Z
??4Property@CosNotification@@QEAAAEAU01@AEBU01@@Z
??4PropertyError@CosNotification@@QEAAAEAU01@AEBU01@@Z
??4PropertyErrorSeq@CosNotification@@QEAAAEAV01@AEBV01@@Z
??4PropertyRange@CosNotification@@QEAAAEAU01@AEBU01@@Z
??4PropertySeq@CosNotification@@QEAAAEAV01@AEBV01@@Z
??4PropertySeq_var@CosNotification@@QEAAAEAV01@PEAVPropertySeq@1@@Z
??4ProxyIDSeq_var@CosNotifyChannelAdmin@@QEAAAEAV01@PEAVProxyIDSeq@1@@Z
??4ProxyNotFound@CosNotifyChannelAdmin@@QEAAAEAV01@AEBV01@@Z
??4StructuredEvent@CosNotification@@QEAAAEAU01@AEBU01@@Z
??4TimeUnavailable@CosTime@@QEAAAEAV01@AEBV01@@Z
??4TypeCode_var@CORBA@@QEAAAEAV01@PEAVTypeCode@1@@Z
??4TypeError@CosEventChannelAdmin@@QEAAAEAV01@AEBV01@@Z
??4UnsupportedAdmin@CosNotification@@QEAAAEAV01@AEBV01@@Z
??4UnsupportedFilterableData@CosNotifyFilter@@QEAAAEAV01@AEBV01@@Z
??4UnsupportedQoS@CosNotification@@QEAAAEAV01@AEBV01@@Z
??4UserException@CORBA@@QEAAAEAV01@AEBV01@@Z
??4_CORBA_String_member@@QEAAAEAV0@AEBV0@@Z
??4_CORBA_String_member@@QEAAAEAV0@PEAD@Z
??4_CORBA_String_member@@QEAAAEAV0@PEBD@Z
??4_CORBA_String_var@@QEAAAEAV0@PEAD@Z
??B?$_CORBA_ConstrType_Variable_Var@UStructuredEvent@CosNotification@@@@QEAAAEAUStructuredEvent@CosNotification@@XZ
??B?$_CORBA_ObjRef_Var@V_objref_ConsumerAdmin@CosEventChannelAdmin@@VConsumerAdmin_Helper@2@@@QEBAPEAV_objref_ConsumerAdmin@CosEventChannelAdmin@@XZ
??B?$_CORBA_ObjRef_Var@V_objref_ConsumerAdmin@CosNotifyChannelAdmin@@VConsumerAdmin_Helper@2@@@QEBAPEAV_objref_ConsumerAdmin@CosNotifyChannelAdmin@@XZ
??B?$_CORBA_ObjRef_Var@V_objref_EventChannel@CosNotifyChannelAdmin@@VEventChannel_Helper@2@@@QEBAPEAV_objref_EventChannel@CosNotifyChannelAdmin@@XZ
??B?$_CORBA_ObjRef_Var@V_objref_EventChannelFactory@CosNotifyChannelAdmin@@VEventChannelFactory_Helper@2@@@QEBAPEAV_objref_EventChannelFactory@CosNotifyChannelAdmin@@XZ
??B?$_CORBA_ObjRef_Var@V_objref_Filter@CosNotifyFilter@@VFilter_Helper@2@@@QEBAPEAV_objref_Filter@CosNotifyFilter@@XZ
??B?$_CORBA_ObjRef_Var@V_objref_FilterFactory@CosNotifyFilter@@VFilterFactory_Helper@2@@@QEBAPEAV_objref_FilterFactory@CosNotifyFilter@@XZ
??B?$_CORBA_ObjRef_Var@V_objref_LifeCycleObject@CosLifeCycle@@VLifeCycleObject_Helper@2@@@QEBAPEAV_objref_LifeCycleObject@CosLifeCycle@@XZ
??B?$_CORBA_ObjRef_Var@V_objref_MappingFilter@CosNotifyFilter@@VMappingFilter_Helper@2@@@QEBAPEAV_objref_MappingFilter@CosNotifyFilter@@XZ
??B?$_CORBA_ObjRef_Var@V_objref_ProxyConsumer@CosNotifyChannelAdmin@@VProxyConsumer_Helper@2@@@QEBAPEAV_objref_ProxyConsumer@CosNotifyChannelAdmin@@XZ
??B?$_CORBA_ObjRef_Var@V_objref_ProxyPullConsumer@CosEventChannelAdmin@@VProxyPullConsumer_Helper@2@@@QEBAPEAV_objref_ProxyPullConsumer@CosEventChannelAdmin@@XZ
??B?$_CORBA_ObjRef_Var@V_objref_ProxyPullSupplier@CosEventChannelAdmin@@VProxyPullSupplier_Helper@2@@@QEBAPEAV_objref_ProxyPullSupplier@CosEventChannelAdmin@@XZ
??B?$_CORBA_ObjRef_Var@V_objref_ProxyPushConsumer@CosEventChannelAdmin@@VProxyPushConsumer_Helper@2@@@QEBAPEAV_objref_ProxyPushConsumer@CosEventChannelAdmin@@XZ
??B?$_CORBA_ObjRef_Var@V_objref_ProxyPushSupplier@CosEventChannelAdmin@@VProxyPushSupplier_Helper@2@@@QEBAPEAV_objref_ProxyPushSupplier@CosEventChannelAdmin@@XZ
??B?$_CORBA_ObjRef_Var@V_objref_ProxySupplier@CosNotifyChannelAdmin@@VProxySupplier_Helper@2@@@QEBAPEAV_objref_ProxySupplier@CosNotifyChannelAdmin@@XZ
??B?$_CORBA_ObjRef_Var@V_objref_SupplierAdmin@CosEventChannelAdmin@@VSupplierAdmin_Helper@2@@@QEBAPEAV_objref_SupplierAdmin@CosEventChannelAdmin@@XZ
??B?$_CORBA_ObjRef_Var@V_objref_SupplierAdmin@CosNotifyChannelAdmin@@VSupplierAdmin_Helper@2@@@QEBAPEAV_objref_SupplierAdmin@CosNotifyChannelAdmin@@XZ
??B?$_CORBA_ObjRef_Var@V_objref_TIO@CosTime@@VTIO_Helper@2@@@QEBAPEAV_objref_TIO@CosTime@@XZ
??B?$_CORBA_ObjRef_Var@V_objref_UTO@CosTime@@VUTO_Helper@2@@@QEBAPEAV_objref_UTO@CosTime@@XZ
??BAdminIDSeq_var@CosNotifyChannelAdmin@@QEAAAEAVAdminIDSeq@1@XZ
??BAny_var@CORBA@@QEAAAEAVAny@1@XZ
??BCallbackIDSeq_var@CosNotifyFilter@@QEAAAEAVCallbackIDSeq@1@XZ
??BChannelIDSeq_var@CosNotifyChannelAdmin@@QEAAAEAVChannelIDSeq@1@XZ
??BConstraintExpSeq_var@CosNotifyFilter@@QEAAAEAVConstraintExpSeq@1@XZ
??BConstraintIDSeq_var@CosNotifyFilter@@QEAAAEAVConstraintIDSeq@1@XZ
??BConstraintInfoSeq_var@CosNotifyFilter@@QEAAAEAVConstraintInfoSeq@1@XZ
??BCriteria_var@CosLifeCycle@@QEAAAEAVCriteria@1@XZ
??BEventBatch_var@CosNotification@@QEAAAEAVEventBatch@1@XZ
??BEventTypeSeq_var@CosNotification@@QEAAAEAVEventTypeSeq@1@XZ
??BFactories_var@CosLifeCycle@@QEAAAEAVFactories@1@XZ
??BFilterIDSeq_var@CosNotifyFilter@@QEAAAEAVFilterIDSeq@1@XZ
??BMappingConstraintInfoSeq_var@CosNotifyFilter@@QEAAAEAVMappingConstraintInfoSeq@1@XZ
??BMappingConstraintPairSeq_var@CosNotifyFilter@@QEAAAEAVMappingConstraintPairSeq@1@XZ
??BName_var@CosNaming@@QEAAAEAVName@1@XZ
??BNamedPropertyRangeSeq_var@CosNotification@@QEAAAEAVNamedPropertyRangeSeq@1@XZ
??BObject_var@CORBA@@QEBAPEAVObject@1@XZ
??BPropertySeq_var@CosNotification@@QEAAAEAVPropertySeq@1@XZ
??BProxyIDSeq_var@CosNotifyChannelAdmin@@QEAAAEAVProxyIDSeq@1@XZ
??BTypeCode_var@CORBA@@QEBAPEAVTypeCode@1@XZ
??B_CORBA_String_member@@QEBAPEBDXZ
??B_CORBA_String_var@@QEAAPEADXZ
??_2?$_CORBA_Sequence_ObjRef@VObject@CORBA@@VObject_Element@2@VObject_Helper@2@@@QEBAXAEAVcdrStream@@@Z
??_2?$_CORBA_Unbounded_Sequence@J@@QEBAXAEAVcdrStream@@@Z
??_2?$_CORBA_Unbounded_Sequence@UConstraintExp@CosNotifyFilter@@@@QEBAXAEAVcdrStream@@@Z
??_2?$_CORBA_Unbounded_Sequence@UConstraintInfo@CosNotifyFilter@@@@QEBAXAEAVcdrStream@@@Z
??_2?$_CORBA_Unbounded_Sequence@UEventType@CosNotification@@@@QEBAXAEAVcdrStream@@@Z
??_2?$_CORBA_Unbounded_Sequence@UMappingConstraintInfo@CosNotifyFilter@@@@QEBAXAEAVcdrStream@@@Z
??_2?$_CORBA_Unbounded_Sequence@UMappingConstraintPair@CosNotifyFilter@@@@QEBAXAEAVcdrStream@@@Z
??_2?$_CORBA_Unbounded_Sequence@UNVP@CosLifeCycle@@@@QEBAXAEAVcdrStream@@@Z
??_2?$_CORBA_Unbounded_Sequence@UNameComponent@CosNaming@@@@QEBAXAEAVcdrStream@@@Z
??_2?$_CORBA_Unbounded_Sequence@UNamedPropertyRange@CosNotification@@@@QEBAXAEAVcdrStream@@@Z
??_2?$_CORBA_Unbounded_Sequence@UProperty@CosNotification@@@@QEBAXAEAVcdrStream@@@Z
??_2?$_CORBA_Unbounded_Sequence@UPropertyError@CosNotification@@@@QEBAXAEAVcdrStream@@@Z
??_2?$_CORBA_Unbounded_Sequence@UStructuredEvent@CosNotification@@@@QEBAXAEAVcdrStream@@@Z
??_2?$_CORBA_Unbounded_Sequence_w_FixSizeElement@J$03$03@@QEBAXAEAVcdrStream@@@Z
??_2@YAXFAEAVcdrStream@@@Z
??_2@YAXGAEAVcdrStream@@@Z
??_2@YAXJAEAVcdrStream@@@Z
??_2@YAXKAEAVcdrStream@@@Z
??_2@YAXW4ClientType@CosNotifyChannelAdmin@@AEAVcdrStream@@@Z
??_2@YAXW4ComparisonType@CosTime@@AEAVcdrStream@@@Z
??_2@YAXW4InterFilterGroupOperator@CosNotifyChannelAdmin@@AEAVcdrStream@@@Z
??_2@YAXW4ObtainInfoMode@CosNotifyChannelAdmin@@AEAVcdrStream@@@Z
??_2@YAXW4OverlapType@CosTime@@AEAVcdrStream@@@Z
??_2@YAXW4ProxyType@CosNotifyChannelAdmin@@AEAVcdrStream@@@Z
??_2@YAXW4QoSError_code@CosNotification@@AEAVcdrStream@@@Z
??_2@YAXW4TimeComparison@CosTime@@AEAVcdrStream@@@Z
??_2@YAX_KAEAVcdrStream@@@Z
??_2AdminLimit@CosNotifyChannelAdmin@@QEBAXAEAVcdrStream@@@Z
??_2AdminLimitExceeded@CosNotifyChannelAdmin@@QEBAXAEAVcdrStream@@@Z
??_2AdminNotFound@CosNotifyChannelAdmin@@QEBAXAEAVcdrStream@@@Z
??_2AlreadyConnected@CosEventChannelAdmin@@QEBAXAEAVcdrStream@@@Z
??_2CallbackNotFound@CosNotifyFilter@@QEBAXAEAVcdrStream@@@Z
??_2CannotMeetCriteria@CosLifeCycle@@QEBAXAEAVcdrStream@@@Z
??_2ChannelNotFound@CosNotifyChannelAdmin@@QEBAXAEAVcdrStream@@@Z
??_2ConnectionAlreadyActive@CosNotifyChannelAdmin@@QEBAXAEAVcdrStream@@@Z
??_2ConnectionAlreadyInactive@CosNotifyChannelAdmin@@QEBAXAEAVcdrStream@@@Z
??_2ConstraintExp@CosNotifyFilter@@QEBAXAEAVcdrStream@@@Z
??_2ConstraintInfo@CosNotifyFilter@@QEBAXAEAVcdrStream@@@Z
??_2ConstraintNotFound@CosNotifyFilter@@QEBAXAEAVcdrStream@@@Z
??_2Disconnected@CosEventComm@@QEBAXAEAVcdrStream@@@Z
??_2DuplicateConstraintID@CosNotifyFilter@@QEBAXAEAVcdrStream@@@Z
??_2EventHeader@CosNotification@@QEBAXAEAVcdrStream@@@Z
??_2EventType@CosNotification@@QEBAXAEAVcdrStream@@@Z
??_2FilterNotFound@CosNotifyFilter@@QEBAXAEAVcdrStream@@@Z
??_2FixedEventHeader@CosNotification@@QEBAXAEAVcdrStream@@@Z
??_2IntervalT@TimeBase@@QEBAXAEAVcdrStream@@@Z
??_2InvalidConstraint@CosNotifyFilter@@QEBAXAEAVcdrStream@@@Z
??_2InvalidCriteria@CosLifeCycle@@QEBAXAEAVcdrStream@@@Z
??_2InvalidEventType@CosNotifyComm@@QEBAXAEAVcdrStream@@@Z
??_2InvalidGrammar@CosNotifyFilter@@QEBAXAEAVcdrStream@@@Z
??_2InvalidValue@CosNotifyFilter@@QEBAXAEAVcdrStream@@@Z
??_2MappingConstraintInfo@CosNotifyFilter@@QEBAXAEAVcdrStream@@@Z
??_2MappingConstraintPair@CosNotifyFilter@@QEBAXAEAVcdrStream@@@Z
??_2NVP@CosLifeCycle@@QEBAXAEAVcdrStream@@@Z
??_2NamedPropertyRange@CosNotification@@QEBAXAEAVcdrStream@@@Z
??_2NoFactory@CosLifeCycle@@QEBAXAEAVcdrStream@@@Z
??_2NotConnected@CosNotifyChannelAdmin@@QEBAXAEAVcdrStream@@@Z
??_2NotCopyable@CosLifeCycle@@QEBAXAEAVcdrStream@@@Z
??_2NotMovable@CosLifeCycle@@QEBAXAEAVcdrStream@@@Z
??_2NotRemovable@CosLifeCycle@@QEBAXAEAVcdrStream@@@Z
??_2Property@CosNotification@@QEBAXAEAVcdrStream@@@Z
??_2PropertyError@CosNotification@@QEBAXAEAVcdrStream@@@Z
??_2PropertyRange@CosNotification@@QEBAXAEAVcdrStream@@@Z
??_2ProxyNotFound@CosNotifyChannelAdmin@@QEBAXAEAVcdrStream@@@Z
??_2StructuredEvent@CosNotification@@QEBAXAEAVcdrStream@@@Z
??_2TimeUnavailable@CosTime@@QEBAXAEAVcdrStream@@@Z
??_2TypeError@CosEventChannelAdmin@@QEBAXAEAVcdrStream@@@Z
??_2UnsupportedAdmin@CosNotification@@QEBAXAEAVcdrStream@@@Z
??_2UnsupportedFilterableData@CosNotifyFilter@@QEBAXAEAVcdrStream@@@Z
??_2UnsupportedQoS@CosNotification@@QEBAXAEAVcdrStream@@@Z
??_2UtcT@TimeBase@@QEBAXAEAVcdrStream@@@Z
??_3?$_CORBA_Sequence_ObjRef@VObject@CORBA@@VObject_Element@2@VObject_Helper@2@@@QEAAXAEAVcdrStream@@@Z
??_3?$_CORBA_Unbounded_Sequence@UConstraintExp@CosNotifyFilter@@@@QEAAXAEAVcdrStream@@@Z
??_3?$_CORBA_Unbounded_Sequence@UConstraintInfo@CosNotifyFilter@@@@QEAAXAEAVcdrStream@@@Z
??_3?$_CORBA_Unbounded_Sequence@UEventType@CosNotification@@@@QEAAXAEAVcdrStream@@@Z
??_3?$_CORBA_Unbounded_Sequence@UMappingConstraintInfo@CosNotifyFilter@@@@QEAAXAEAVcdrStream@@@Z
??_3?$_CORBA_Unbounded_Sequence@UMappingConstraintPair@CosNotifyFilter@@@@QEAAXAEAVcdrStream@@@Z
??_3?$_CORBA_Unbounded_Sequence@UNVP@CosLifeCycle@@@@QEAAXAEAVcdrStream@@@Z
??_3?$_CORBA_Unbounded_Sequence@UNameComponent@CosNaming@@@@QEAAXAEAVcdrStream@@@Z
??_3?$_CORBA_Unbounded_Sequence@UNamedPropertyRange@CosNotification@@@@QEAAXAEAVcdrStream@@@Z
??_3?$_CORBA_Unbounded_Sequence@UProperty@CosNotification@@@@QEAAXAEAVcdrStream@@@Z
??_3?$_CORBA_Unbounded_Sequence@UPropertyError@CosNotification@@@@QEAAXAEAVcdrStream@@@Z
??_3?$_CORBA_Unbounded_Sequence@UStructuredEvent@CosNotification@@@@QEAAXAEAVcdrStream@@@Z
??_3?$_CORBA_Unbounded_Sequence_w_FixSizeElement@J$03$03@@QEAAXAEAVcdrStream@@@Z
??_3@YAXAEAFAEAVcdrStream@@@Z
??_3@YAXAEAGAEAVcdrStream@@@Z
??_3@YAXAEAJAEAVcdrStream@@@Z
??_3@YAXAEAKAEAVcdrStream@@@Z
??_3@YAXAEAW4ClientType@CosNotifyChannelAdmin@@AEAVcdrStream@@@Z
??_3@YAXAEAW4ComparisonType@CosTime@@AEAVcdrStream@@@Z
??_3@YAXAEAW4InterFilterGroupOperator@CosNotifyChannelAdmin@@AEAVcdrStream@@@Z
??_3@YAXAEAW4ObtainInfoMode@CosNotifyChannelAdmin@@AEAVcdrStream@@@Z
??_3@YAXAEAW4OverlapType@CosTime@@AEAVcdrStream@@@Z
??_3@YAXAEAW4ProxyType@CosNotifyChannelAdmin@@AEAVcdrStream@@@Z
??_3@YAXAEAW4QoSError_code@CosNotification@@AEAVcdrStream@@@Z
??_3@YAXAEAW4TimeComparison@CosTime@@AEAVcdrStream@@@Z
??_3@YAXAEA_KAEAVcdrStream@@@Z
??_3AdminLimit@CosNotifyChannelAdmin@@QEAAXAEAVcdrStream@@@Z
??_3AdminLimitExceeded@CosNotifyChannelAdmin@@QEAAXAEAVcdrStream@@@Z
??_3AdminNotFound@CosNotifyChannelAdmin@@QEAAXAEAVcdrStream@@@Z
??_3AlreadyConnected@CosEventChannelAdmin@@QEAAXAEAVcdrStream@@@Z
??_3CallbackNotFound@CosNotifyFilter@@QEAAXAEAVcdrStream@@@Z
??_3CannotMeetCriteria@CosLifeCycle@@QEAAXAEAVcdrStream@@@Z
??_3ChannelNotFound@CosNotifyChannelAdmin@@QEAAXAEAVcdrStream@@@Z
??_3ConnectionAlreadyActive@CosNotifyChannelAdmin@@QEAAXAEAVcdrStream@@@Z
??_3ConnectionAlreadyInactive@CosNotifyChannelAdmin@@QEAAXAEAVcdrStream@@@Z
??_3ConstraintExp@CosNotifyFilter@@QEAAXAEAVcdrStream@@@Z
??_3ConstraintInfo@CosNotifyFilter@@QEAAXAEAVcdrStream@@@Z
??_3ConstraintNotFound@CosNotifyFilter@@QEAAXAEAVcdrStream@@@Z
??_3Disconnected@CosEventComm@@QEAAXAEAVcdrStream@@@Z
??_3DuplicateConstraintID@CosNotifyFilter@@QEAAXAEAVcdrStream@@@Z
??_3EventHeader@CosNotification@@QEAAXAEAVcdrStream@@@Z
??_3EventType@CosNotification@@QEAAXAEAVcdrStream@@@Z
??_3FilterNotFound@CosNotifyFilter@@QEAAXAEAVcdrStream@@@Z
??_3FixedEventHeader@CosNotification@@QEAAXAEAVcdrStream@@@Z
??_3IntervalT@TimeBase@@QEAAXAEAVcdrStream@@@Z
??_3InvalidConstraint@CosNotifyFilter@@QEAAXAEAVcdrStream@@@Z
??_3InvalidCriteria@CosLifeCycle@@QEAAXAEAVcdrStream@@@Z
??_3InvalidEventType@CosNotifyComm@@QEAAXAEAVcdrStream@@@Z
??_3InvalidGrammar@CosNotifyFilter@@QEAAXAEAVcdrStream@@@Z
??_3InvalidValue@CosNotifyFilter@@QEAAXAEAVcdrStream@@@Z
??_3MappingConstraintInfo@CosNotifyFilter@@QEAAXAEAVcdrStream@@@Z
??_3MappingConstraintPair@CosNotifyFilter@@QEAAXAEAVcdrStream@@@Z
??_3NVP@CosLifeCycle@@QEAAXAEAVcdrStream@@@Z
??_3NamedPropertyRange@CosNotification@@QEAAXAEAVcdrStream@@@Z
??_3NoFactory@CosLifeCycle@@QEAAXAEAVcdrStream@@@Z
??_3NotConnected@CosNotifyChannelAdmin@@QEAAXAEAVcdrStream@@@Z
??_3NotCopyable@CosLifeCycle@@QEAAXAEAVcdrStream@@@Z
??_3NotMovable@CosLifeCycle@@QEAAXAEAVcdrStream@@@Z
??_3NotRemovable@CosLifeCycle@@QEAAXAEAVcdrStream@@@Z
??_3Property@CosNotification@@QEAAXAEAVcdrStream@@@Z
??_3PropertyError@CosNotification@@QEAAXAEAVcdrStream@@@Z
??_3PropertyRange@CosNotification@@QEAAXAEAVcdrStream@@@Z
??_3ProxyNotFound@CosNotifyChannelAdmin@@QEAAXAEAVcdrStream@@@Z
??_3StructuredEvent@CosNotification@@QEAAXAEAVcdrStream@@@Z
??_3TimeUnavailable@CosTime@@QEAAXAEAVcdrStream@@@Z
??_3TypeError@CosEventChannelAdmin@@QEAAXAEAVcdrStream@@@Z
??_3UnsupportedAdmin@CosNotification@@QEAAXAEAVcdrStream@@@Z
??_3UnsupportedFilterableData@CosNotifyFilter@@QEAAXAEAVcdrStream@@@Z
??_3UnsupportedQoS@CosNotification@@QEAAXAEAVcdrStream@@@Z
??_3UtcT@TimeBase@@QEAAXAEAVcdrStream@@@Z
??_D_objref_AdminPropertiesAdmin@CosNotification@@IEAAXXZ
??_D_objref_ConsumerAdmin@CosEventChannelAdmin@@IEAAXXZ
??_D_objref_ConsumerAdmin@CosNotifyChannelAdmin@@IEAAXXZ
??_D_objref_EventChannel@CosEventChannelAdmin@@IEAAXXZ
??_D_objref_EventChannel@CosNotifyChannelAdmin@@IEAAXXZ
??_D_objref_EventChannelFactory@CosNotifyChannelAdmin@@IEAAXXZ
??_D_objref_FactoryFinder@CosLifeCycle@@IEAAXXZ
??_D_objref_Filter@CosNotifyFilter@@IEAAXXZ
??_D_objref_FilterAdmin@CosNotifyFilter@@IEAAXXZ
??_D_objref_FilterFactory@CosNotifyFilter@@IEAAXXZ
??_D_objref_GenericFactory@CosLifeCycle@@IEAAXXZ
??_D_objref_LifeCycleObject@CosLifeCycle@@IEAAXXZ
??_D_objref_MappingFilter@CosNotifyFilter@@IEAAXXZ
??_D_objref_NotifyPublish@CosNotifyComm@@IEAAXXZ
??_D_objref_NotifySubscribe@CosNotifyComm@@IEAAXXZ
??_D_objref_ProxyConsumer@CosNotifyChannelAdmin@@IEAAXXZ
??_D_objref_ProxyPullConsumer@CosEventChannelAdmin@@IEAAXXZ
??_D_objref_ProxyPullConsumer@CosNotifyChannelAdmin@@IEAAXXZ
??_D_objref_ProxyPullSupplier@CosEventChannelAdmin@@IEAAXXZ
??_D_objref_ProxyPullSupplier@CosNotifyChannelAdmin@@IEAAXXZ
??_D_objref_ProxyPushConsumer@CosEventChannelAdmin@@IEAAXXZ
??_D_objref_ProxyPushConsumer@CosNotifyChannelAdmin@@IEAAXXZ
??_D_objref_ProxyPushSupplier@CosEventChannelAdmin@@IEAAXXZ
??_D_objref_ProxyPushSupplier@CosNotifyChannelAdmin@@IEAAXXZ
??_D_objref_ProxySupplier@CosNotifyChannelAdmin@@IEAAXXZ
??_D_objref_PullConsumer@CosEventComm@@IEAAXXZ
??_D_objref_PullConsumer@CosNotifyComm@@IEAAXXZ
??_D_objref_PullSupplier@CosEventComm@@IEAAXXZ
??_D_objref_PullSupplier@CosNotifyComm@@IEAAXXZ
??_D_objref_PushConsumer@CosEventComm@@IEAAXXZ
??_D_objref_PushConsumer@CosNotifyComm@@IEAAXXZ
??_D_objref_PushSupplier@CosEventComm@@IEAAXXZ
??_D_objref_PushSupplier@CosNotifyComm@@IEAAXXZ
??_D_objref_QoSAdmin@CosNotification@@IEAAXXZ
??_D_objref_SequenceProxyPullConsumer@CosNotifyChannelAdmin@@IEAAXXZ
??_D_objref_SequenceProxyPullSupplier@CosNotifyChannelAdmin@@IEAAXXZ
??_D_objref_SequenceProxyPushConsumer@CosNotifyChannelAdmin@@IEAAXXZ
??_D_objref_SequenceProxyPushSupplier@CosNotifyChannelAdmin@@IEAAXXZ
??_D_objref_SequencePullConsumer@CosNotifyComm@@IEAAXXZ
??_D_objref_SequencePullSupplier@CosNotifyComm@@IEAAXXZ
??_D_objref_SequencePushConsumer@CosNotifyComm@@IEAAXXZ
??_D_objref_SequencePushSupplier@CosNotifyComm@@IEAAXXZ
??_D_objref_StructuredProxyPullConsumer@CosNotifyChannelAdmin@@IEAAXXZ
??_D_objref_StructuredProxyPullSupplier@CosNotifyChannelAdmin@@IEAAXXZ
??_D_objref_StructuredProxyPushConsumer@CosNotifyChannelAdmin@@IEAAXXZ
??_D_objref_StructuredProxyPushSupplier@CosNotifyChannelAdmin@@IEAAXXZ
??_D_objref_StructuredPullConsumer@CosNotifyComm@@IEAAXXZ
??_D_objref_StructuredPullSupplier@CosNotifyComm@@IEAAXXZ
??_D_objref_StructuredPushConsumer@CosNotifyComm@@IEAAXXZ
??_D_objref_StructuredPushSupplier@CosNotifyComm@@IEAAXXZ
??_D_objref_SupplierAdmin@CosEventChannelAdmin@@IEAAXXZ
??_D_objref_SupplierAdmin@CosNotifyChannelAdmin@@IEAAXXZ
??_D_objref_TIO@CosTime@@IEAAXXZ
??_D_objref_TimeService@CosTime@@IEAAXXZ
??_D_objref_UTO@CosTime@@IEAAXXZ
?ConnectionReliability@CosNotification@@3PEBDEB
?DiscardPolicy@CosNotification@@3PEBDEB
?EventReliability@CosNotification@@3PEBDEB
?MaxConsumers@CosNotification@@3PEBDEB
?MaxEventsPerConsumer@CosNotification@@3PEBDEB
?MaxQueueLength@CosNotification@@3PEBDEB
?MaxSuppliers@CosNotification@@3PEBDEB
?MaximumBatchSize@CosNotification@@3PEBDEB
?MyAdmin@_objref_ProxyConsumer@CosNotifyChannelAdmin@@QEAAPEAV_objref_SupplierAdmin@2@XZ
?MyAdmin@_objref_ProxySupplier@CosNotifyChannelAdmin@@QEAAPEAV_objref_ConsumerAdmin@2@XZ
?MyChannel@_objref_ConsumerAdmin@CosNotifyChannelAdmin@@QEAAPEAV_objref_EventChannel@2@XZ
?MyChannel@_objref_SupplierAdmin@CosNotifyChannelAdmin@@QEAAPEAV_objref_EventChannel@2@XZ
?MyFactory@_objref_EventChannel@CosNotifyChannelAdmin@@QEAAPEAV_objref_EventChannelFactory@2@XZ
?MyID@_objref_ConsumerAdmin@CosNotifyChannelAdmin@@QEAAJXZ
?MyID@_objref_SupplierAdmin@CosNotifyChannelAdmin@@QEAAJXZ
?MyOperator@_objref_ConsumerAdmin@CosNotifyChannelAdmin@@QEAA?AW4InterFilterGroupOperator@2@XZ
?MyOperator@_objref_SupplierAdmin@CosNotifyChannelAdmin@@QEAA?AW4InterFilterGroupOperator@2@XZ
?MyType@_objref_ProxyConsumer@CosNotifyChannelAdmin@@QEAA?AW4ProxyType@2@XZ
?MyType@_objref_ProxySupplier@CosNotifyChannelAdmin@@QEAA?AW4ProxyType@2@XZ
?NP_data@?$_CORBA_Sequence@J@@QEBAPEAJXZ
?OrderPolicy@CosNotification@@3PEBDEB
?PacingInterval@CosNotification@@3PEBDEB
?Priority@CosNotification@@3PEBDEB
?RejectNewEvents@CosNotification@@3PEBDEB
?StartTime@CosNotification@@3PEBDEB
?StartTimeSupported@CosNotification@@3PEBDEB
?StopTime@CosNotification@@3PEBDEB
?StopTimeSupported@CosNotification@@3PEBDEB
?Timeout@CosNotification@@3PEBDEB
?_NP_duplicate@AdminLimitExceeded@CosNotifyChannelAdmin@@UEBAPEAVException@CORBA@@XZ
?_NP_duplicate@AdminNotFound@CosNotifyChannelAdmin@@UEBAPEAVException@CORBA@@XZ
?_NP_duplicate@AlreadyConnected@CosEventChannelAdmin@@UEBAPEAVException@CORBA@@XZ
?_NP_duplicate@CallbackNotFound@CosNotifyFilter@@UEBAPEAVException@CORBA@@XZ
?_NP_duplicate@CannotMeetCriteria@CosLifeCycle@@UEBAPEAVException@CORBA@@XZ
?_NP_duplicate@ChannelNotFound@CosNotifyChannelAdmin@@UEBAPEAVException@CORBA@@XZ
?_NP_duplicate@ConnectionAlreadyActive@CosNotifyChannelAdmin@@UEBAPEAVException@CORBA@@XZ
?_NP_duplicate@ConnectionAlreadyInactive@CosNotifyChannelAdmin@@UEBAPEAVException@CORBA@@XZ
?_NP_duplicate@ConstraintNotFound@CosNotifyFilter@@UEBAPEAVException@CORBA@@XZ
?_NP_duplicate@Disconnected@CosEventComm@@UEBAPEAVException@CORBA@@XZ
?_NP_duplicate@DuplicateConstraintID@CosNotifyFilter@@UEBAPEAVException@CORBA@@XZ
?_NP_duplicate@FilterNotFound@CosNotifyFilter@@UEBAPEAVException@CORBA@@XZ
?_NP_duplicate@InvalidConstraint@CosNotifyFilter@@UEBAPEAVException@CORBA@@XZ
?_NP_duplicate@InvalidCriteria@CosLifeCycle@@UEBAPEAVException@CORBA@@XZ
?_NP_duplicate@InvalidEventType@CosNotifyComm@@UEBAPEAVException@CORBA@@XZ
?_NP_duplicate@InvalidGrammar@CosNotifyFilter@@UEBAPEAVException@CORBA@@XZ
?_NP_duplicate@InvalidValue@CosNotifyFilter@@UEBAPEAVException@CORBA@@XZ
?_NP_duplicate@NoFactory@CosLifeCycle@@UEBAPEAVException@CORBA@@XZ
?_NP_duplicate@NotConnected@CosNotifyChannelAdmin@@UEBAPEAVException@CORBA@@XZ
?_NP_duplicate@NotCopyable@CosLifeCycle@@UEBAPEAVException@CORBA@@XZ
?_NP_duplicate@NotMovable@CosLifeCycle@@UEBAPEAVException@CORBA@@XZ
?_NP_duplicate@NotRemovable@CosLifeCycle@@UEBAPEAVException@CORBA@@XZ
?_NP_duplicate@ProxyNotFound@CosNotifyChannelAdmin@@UEBAPEAVException@CORBA@@XZ
?_NP_duplicate@TimeUnavailable@CosTime@@UEBAPEAVException@CORBA@@XZ
?_NP_duplicate@TypeError@CosEventChannelAdmin@@UEBAPEAVException@CORBA@@XZ
?_NP_duplicate@UnsupportedAdmin@CosNotification@@UEBAPEAVException@CORBA@@XZ
?_NP_duplicate@UnsupportedFilterableData@CosNotifyFilter@@UEBAPEAVException@CORBA@@XZ
?_NP_duplicate@UnsupportedQoS@CosNotification@@UEBAPEAVException@CORBA@@XZ
?_NP_is_nil@Object@CORBA@@QEBA_NXZ
?_NP_is_pseudo@Object@CORBA@@QEBA_NXZ
?_NP_marshal@AdminLimitExceeded@CosNotifyChannelAdmin@@EEBAXAEAVcdrStream@@@Z
?_NP_marshal@AdminNotFound@CosNotifyChannelAdmin@@EEBAXAEAVcdrStream@@@Z
?_NP_marshal@AlreadyConnected@CosEventChannelAdmin@@EEBAXAEAVcdrStream@@@Z
?_NP_marshal@CallbackNotFound@CosNotifyFilter@@EEBAXAEAVcdrStream@@@Z
?_NP_marshal@CannotMeetCriteria@CosLifeCycle@@EEBAXAEAVcdrStream@@@Z
?_NP_marshal@ChannelNotFound@CosNotifyChannelAdmin@@EEBAXAEAVcdrStream@@@Z
?_NP_marshal@ConnectionAlreadyActive@CosNotifyChannelAdmin@@EEBAXAEAVcdrStream@@@Z
?_NP_marshal@ConnectionAlreadyInactive@CosNotifyChannelAdmin@@EEBAXAEAVcdrStream@@@Z
?_NP_marshal@ConstraintNotFound@CosNotifyFilter@@EEBAXAEAVcdrStream@@@Z
?_NP_marshal@Disconnected@CosEventComm@@EEBAXAEAVcdrStream@@@Z
?_NP_marshal@DuplicateConstraintID@CosNotifyFilter@@EEBAXAEAVcdrStream@@@Z
?_NP_marshal@FilterNotFound@CosNotifyFilter@@EEBAXAEAVcdrStream@@@Z
?_NP_marshal@InvalidConstraint@CosNotifyFilter@@EEBAXAEAVcdrStream@@@Z
?_NP_marshal@InvalidCriteria@CosLifeCycle@@EEBAXAEAVcdrStream@@@Z
?_NP_marshal@InvalidEventType@CosNotifyComm@@EEBAXAEAVcdrStream@@@Z
?_NP_marshal@InvalidGrammar@CosNotifyFilter@@EEBAXAEAVcdrStream@@@Z
?_NP_marshal@InvalidValue@CosNotifyFilter@@EEBAXAEAVcdrStream@@@Z
?_NP_marshal@NoFactory@CosLifeCycle@@EEBAXAEAVcdrStream@@@Z
?_NP_marshal@NotConnected@CosNotifyChannelAdmin@@EEBAXAEAVcdrStream@@@Z
?_NP_marshal@NotCopyable@CosLifeCycle@@EEBAXAEAVcdrStream@@@Z
?_NP_marshal@NotMovable@CosLifeCycle@@EEBAXAEAVcdrStream@@@Z
?_NP_marshal@NotRemovable@CosLifeCycle@@EEBAXAEAVcdrStream@@@Z
?_NP_marshal@ProxyNotFound@CosNotifyChannelAdmin@@EEBAXAEAVcdrStream@@@Z
?_NP_marshal@TimeUnavailable@CosTime@@EEBAXAEAVcdrStream@@@Z
?_NP_marshal@TypeError@CosEventChannelAdmin@@EEBAXAEAVcdrStream@@@Z
?_NP_marshal@UnsupportedAdmin@CosNotification@@EEBAXAEAVcdrStream@@@Z
?_NP_marshal@UnsupportedFilterableData@CosNotifyFilter@@EEBAXAEAVcdrStream@@@Z
?_NP_marshal@UnsupportedQoS@CosNotification@@EEBAXAEAVcdrStream@@@Z
?_NP_repoId@AdminLimitExceeded@CosNotifyChannelAdmin@@EEBAPEBDPEAH@Z
?_NP_repoId@AdminNotFound@CosNotifyChannelAdmin@@EEBAPEBDPEAH@Z
?_NP_repoId@AlreadyConnected@CosEventChannelAdmin@@EEBAPEBDPEAH@Z
?_NP_repoId@CallbackNotFound@CosNotifyFilter@@EEBAPEBDPEAH@Z
?_NP_repoId@CannotMeetCriteria@CosLifeCycle@@EEBAPEBDPEAH@Z
?_NP_repoId@ChannelNotFound@CosNotifyChannelAdmin@@EEBAPEBDPEAH@Z
?_NP_repoId@ConnectionAlreadyActive@CosNotifyChannelAdmin@@EEBAPEBDPEAH@Z
?_NP_repoId@ConnectionAlreadyInactive@CosNotifyChannelAdmin@@EEBAPEBDPEAH@Z
?_NP_repoId@ConstraintNotFound@CosNotifyFilter@@EEBAPEBDPEAH@Z
?_NP_repoId@Disconnected@CosEventComm@@EEBAPEBDPEAH@Z
?_NP_repoId@DuplicateConstraintID@CosNotifyFilter@@EEBAPEBDPEAH@Z
?_NP_repoId@FilterNotFound@CosNotifyFilter@@EEBAPEBDPEAH@Z
?_NP_repoId@InvalidConstraint@CosNotifyFilter@@EEBAPEBDPEAH@Z
?_NP_repoId@InvalidCriteria@CosLifeCycle@@EEBAPEBDPEAH@Z
?_NP_repoId@InvalidEventType@CosNotifyComm@@EEBAPEBDPEAH@Z
?_NP_repoId@InvalidGrammar@CosNotifyFilter@@EEBAPEBDPEAH@Z
?_NP_repoId@InvalidValue@CosNotifyFilter@@EEBAPEBDPEAH@Z
?_NP_repoId@NoFactory@CosLifeCycle@@EEBAPEBDPEAH@Z
?_NP_repoId@NotConnected@CosNotifyChannelAdmin@@EEBAPEBDPEAH@Z
?_NP_repoId@NotCopyable@CosLifeCycle@@EEBAPEBDPEAH@Z
?_NP_repoId@NotMovable@CosLifeCycle@@EEBAPEBDPEAH@Z
?_NP_repoId@NotRemovable@CosLifeCycle@@EEBAPEBDPEAH@Z
?_NP_repoId@ProxyNotFound@CosNotifyChannelAdmin@@EEBAPEBDPEAH@Z
?_NP_repoId@TimeUnavailable@CosTime@@EEBAPEBDPEAH@Z
?_NP_repoId@TypeError@CosEventChannelAdmin@@EEBAPEBDPEAH@Z
?_NP_repoId@UnsupportedAdmin@CosNotification@@EEBAPEBDPEAH@Z
?_NP_repoId@UnsupportedFilterableData@CosNotifyFilter@@EEBAPEBDPEAH@Z
?_NP_repoId@UnsupportedQoS@CosNotification@@EEBAPEBDPEAH@Z
?_NP_typeId@AdminLimitExceeded@CosNotifyChannelAdmin@@EEBAPEBDXZ
?_NP_typeId@AdminNotFound@CosNotifyChannelAdmin@@EEBAPEBDXZ
?_NP_typeId@AlreadyConnected@CosEventChannelAdmin@@EEBAPEBDXZ
?_NP_typeId@CallbackNotFound@CosNotifyFilter@@EEBAPEBDXZ
?_NP_typeId@CannotMeetCriteria@CosLifeCycle@@EEBAPEBDXZ
?_NP_typeId@ChannelNotFound@CosNotifyChannelAdmin@@EEBAPEBDXZ
?_NP_typeId@ConnectionAlreadyActive@CosNotifyChannelAdmin@@EEBAPEBDXZ
?_NP_typeId@ConnectionAlreadyInactive@CosNotifyChannelAdmin@@EEBAPEBDXZ
?_NP_typeId@ConstraintNotFound@CosNotifyFilter@@EEBAPEBDXZ
?_NP_typeId@Disconnected@CosEventComm@@EEBAPEBDXZ
?_NP_typeId@DuplicateConstraintID@CosNotifyFilter@@EEBAPEBDXZ
?_NP_typeId@FilterNotFound@CosNotifyFilter@@EEBAPEBDXZ
?_NP_typeId@InvalidConstraint@CosNotifyFilter@@EEBAPEBDXZ
?_NP_typeId@InvalidCriteria@CosLifeCycle@@EEBAPEBDXZ
?_NP_typeId@InvalidEventType@CosNotifyComm@@EEBAPEBDXZ
?_NP_typeId@InvalidGrammar@CosNotifyFilter@@EEBAPEBDXZ
?_NP_typeId@InvalidValue@CosNotifyFilter@@EEBAPEBDXZ
?_NP_typeId@NoFactory@CosLifeCycle@@EEBAPEBDXZ
?_NP_typeId@NotConnected@CosNotifyChannelAdmin@@EEBAPEBDXZ
?_NP_typeId@NotCopyable@CosLifeCycle@@EEBAPEBDXZ
?_NP_typeId@NotMovable@CosLifeCycle@@EEBAPEBDXZ
?_NP_typeId@NotRemovable@CosLifeCycle@@EEBAPEBDXZ
?_NP_typeId@ProxyNotFound@CosNotifyChannelAdmin@@EEBAPEBDXZ
?_NP_typeId@TimeUnavailable@CosTime@@EEBAPEBDXZ
?_NP_typeId@TypeError@CosEventChannelAdmin@@EEBAPEBDXZ
?_NP_typeId@UnsupportedAdmin@CosNotification@@EEBAPEBDXZ
?_NP_typeId@UnsupportedFilterableData@CosNotifyFilter@@EEBAPEBDXZ
?_NP_typeId@UnsupportedQoS@CosNotification@@EEBAPEBDXZ
?_PD_repoId@AdminLimitExceeded@CosNotifyChannelAdmin@@2PEBDEB
?_PD_repoId@AdminNotFound@CosNotifyChannelAdmin@@2PEBDEB
?_PD_repoId@AdminPropertiesAdmin@CosNotification@@2PEBDEB
?_PD_repoId@AlreadyConnected@CosEventChannelAdmin@@2PEBDEB
?_PD_repoId@CallbackNotFound@CosNotifyFilter@@2PEBDEB
?_PD_repoId@CannotMeetCriteria@CosLifeCycle@@2PEBDEB
?_PD_repoId@ChannelNotFound@CosNotifyChannelAdmin@@2PEBDEB
?_PD_repoId@ConnectionAlreadyActive@CosNotifyChannelAdmin@@2PEBDEB
?_PD_repoId@ConnectionAlreadyInactive@CosNotifyChannelAdmin@@2PEBDEB
?_PD_repoId@ConstraintNotFound@CosNotifyFilter@@2PEBDEB
?_PD_repoId@ConsumerAdmin@CosEventChannelAdmin@@2PEBDEB
?_PD_repoId@ConsumerAdmin@CosNotifyChannelAdmin@@2PEBDEB
?_PD_repoId@Disconnected@CosEventComm@@2PEBDEB
?_PD_repoId@DuplicateConstraintID@CosNotifyFilter@@2PEBDEB
?_PD_repoId@EventChannel@CosEventChannelAdmin@@2PEBDEB
?_PD_repoId@EventChannel@CosNotifyChannelAdmin@@2PEBDEB
?_PD_repoId@EventChannelFactory@CosNotifyChannelAdmin@@2PEBDEB
?_PD_repoId@FactoryFinder@CosLifeCycle@@2PEBDEB
?_PD_repoId@Filter@CosNotifyFilter@@2PEBDEB
?_PD_repoId@FilterAdmin@CosNotifyFilter@@2PEBDEB
?_PD_repoId@FilterFactory@CosNotifyFilter@@2PEBDEB
?_PD_repoId@FilterNotFound@CosNotifyFilter@@2PEBDEB
?_PD_repoId@GenericFactory@CosLifeCycle@@2PEBDEB
?_PD_repoId@InvalidConstraint@CosNotifyFilter@@2PEBDEB
?_PD_repoId@InvalidCriteria@CosLifeCycle@@2PEBDEB
?_PD_repoId@InvalidEventType@CosNotifyComm@@2PEBDEB
?_PD_repoId@InvalidGrammar@CosNotifyFilter@@2PEBDEB
?_PD_repoId@InvalidValue@CosNotifyFilter@@2PEBDEB
?_PD_repoId@LifeCycleObject@CosLifeCycle@@2PEBDEB
?_PD_repoId@MappingFilter@CosNotifyFilter@@2PEBDEB
?_PD_repoId@NoFactory@CosLifeCycle@@2PEBDEB
?_PD_repoId@NotConnected@CosNotifyChannelAdmin@@2PEBDEB
?_PD_repoId@NotCopyable@CosLifeCycle@@2PEBDEB
?_PD_repoId@NotMovable@CosLifeCycle@@2PEBDEB
?_PD_repoId@NotRemovable@CosLifeCycle@@2PEBDEB
?_PD_repoId@NotifyPublish@CosNotifyComm@@2PEBDEB
?_PD_repoId@NotifySubscribe@CosNotifyComm@@2PEBDEB
?_PD_repoId@ProxyConsumer@CosNotifyChannelAdmin@@2PEBDEB
?_PD_repoId@ProxyNotFound@CosNotifyChannelAdmin@@2PEBDEB
?_PD_repoId@ProxyPullConsumer@CosEventChannelAdmin@@2PEBDEB
?_PD_repoId@ProxyPullConsumer@CosNotifyChannelAdmin@@2PEBDEB
?_PD_repoId@ProxyPullSupplier@CosEventChannelAdmin@@2PEBDEB
?_PD_repoId@ProxyPullSupplier@CosNotifyChannelAdmin@@2PEBDEB
?_PD_repoId@ProxyPushConsumer@CosEventChannelAdmin@@2PEBDEB
?_PD_repoId@ProxyPushConsumer@CosNotifyChannelAdmin@@2PEBDEB
?_PD_repoId@ProxyPushSupplier@CosEventChannelAdmin@@2PEBDEB
?_PD_repoId@ProxyPushSupplier@CosNotifyChannelAdmin@@2PEBDEB
?_PD_repoId@ProxySupplier@CosNotifyChannelAdmin@@2PEBDEB
?_PD_repoId@PullConsumer@CosEventComm@@2PEBDEB
?_PD_repoId@PullConsumer@CosNotifyComm@@2PEBDEB
?_PD_repoId@PullSupplier@CosEventComm@@2PEBDEB
?_PD_repoId@PullSupplier@CosNotifyComm@@2PEBDEB
?_PD_repoId@PushConsumer@CosEventComm@@2PEBDEB
?_PD_repoId@PushConsumer@CosNotifyComm@@2PEBDEB
?_PD_repoId@PushSupplier@CosEventComm@@2PEBDEB
?_PD_repoId@PushSupplier@CosNotifyComm@@2PEBDEB
?_PD_repoId@QoSAdmin@CosNotification@@2PEBDEB
?_PD_repoId@SequenceProxyPullConsumer@CosNotifyChannelAdmin@@2PEBDEB
?_PD_repoId@SequenceProxyPullSupplier@CosNotifyChannelAdmin@@2PEBDEB
?_PD_repoId@SequenceProxyPushConsumer@CosNotifyChannelAdmin@@2PEBDEB
?_PD_repoId@SequenceProxyPushSupplier@CosNotifyChannelAdmin@@2PEBDEB
?_PD_repoId@SequencePullConsumer@CosNotifyComm@@2PEBDEB
?_PD_repoId@SequencePullSupplier@CosNotifyComm@@2PEBDEB
?_PD_repoId@SequencePushConsumer@CosNotifyComm@@2PEBDEB
?_PD_repoId@SequencePushSupplier@CosNotifyComm@@2PEBDEB
?_PD_repoId@StructuredProxyPullConsumer@CosNotifyChannelAdmin@@2PEBDEB
?_PD_repoId@StructuredProxyPullSupplier@CosNotifyChannelAdmin@@2PEBDEB
?_PD_repoId@StructuredProxyPushConsumer@CosNotifyChannelAdmin@@2PEBDEB
?_PD_repoId@StructuredProxyPushSupplier@CosNotifyChannelAdmin@@2PEBDEB
?_PD_repoId@StructuredPullConsumer@CosNotifyComm@@2PEBDEB
?_PD_repoId@StructuredPullSupplier@CosNotifyComm@@2PEBDEB
?_PD_repoId@StructuredPushConsumer@CosNotifyComm@@2PEBDEB
?_PD_repoId@StructuredPushSupplier@CosNotifyComm@@2PEBDEB
?_PD_repoId@SupplierAdmin@CosEventChannelAdmin@@2PEBDEB
?_PD_repoId@SupplierAdmin@CosNotifyChannelAdmin@@2PEBDEB
?_PD_repoId@TIO@CosTime@@2PEBDEB
?_PD_repoId@TimeService@CosTime@@2PEBDEB
?_PD_repoId@TimeUnavailable@CosTime@@2PEBDEB
?_PD_repoId@TypeError@CosEventChannelAdmin@@2PEBDEB
?_PD_repoId@UTO@CosTime@@2PEBDEB
?_PD_repoId@UnsupportedAdmin@CosNotification@@2PEBDEB
?_PD_repoId@UnsupportedFilterableData@CosNotifyFilter@@2PEBDEB
?_PD_repoId@UnsupportedQoS@CosNotification@@2PEBDEB
?_PD_typeId@AdminLimitExceeded@CosNotifyChannelAdmin@@2PEBDEB
?_PD_typeId@AdminNotFound@CosNotifyChannelAdmin@@2PEBDEB
?_PD_typeId@AlreadyConnected@CosEventChannelAdmin@@2PEBDEB
?_PD_typeId@CallbackNotFound@CosNotifyFilter@@2PEBDEB
?_PD_typeId@CannotMeetCriteria@CosLifeCycle@@2PEBDEB
?_PD_typeId@ChannelNotFound@CosNotifyChannelAdmin@@2PEBDEB
?_PD_typeId@ConnectionAlreadyActive@CosNotifyChannelAdmin@@2PEBDEB
?_PD_typeId@ConnectionAlreadyInactive@CosNotifyChannelAdmin@@2PEBDEB
?_PD_typeId@ConstraintNotFound@CosNotifyFilter@@2PEBDEB
?_PD_typeId@Disconnected@CosEventComm@@2PEBDEB
?_PD_typeId@DuplicateConstraintID@CosNotifyFilter@@2PEBDEB
?_PD_typeId@FilterNotFound@CosNotifyFilter@@2PEBDEB
?_PD_typeId@InvalidConstraint@CosNotifyFilter@@2PEBDEB
?_PD_typeId@InvalidCriteria@CosLifeCycle@@2PEBDEB
?_PD_typeId@InvalidEventType@CosNotifyComm@@2PEBDEB
?_PD_typeId@InvalidGrammar@CosNotifyFilter@@2PEBDEB
?_PD_typeId@InvalidValue@CosNotifyFilter@@2PEBDEB
?_PD_typeId@NoFactory@CosLifeCycle@@2PEBDEB
?_PD_typeId@NotConnected@CosNotifyChannelAdmin@@2PEBDEB
?_PD_typeId@NotCopyable@CosLifeCycle@@2PEBDEB
?_PD_typeId@NotMovable@CosLifeCycle@@2PEBDEB
?_PD_typeId@NotRemovable@CosLifeCycle@@2PEBDEB
?_PD_typeId@ProxyNotFound@CosNotifyChannelAdmin@@2PEBDEB
?_PD_typeId@TimeUnavailable@CosTime@@2PEBDEB
?_PD_typeId@TypeError@CosEventChannelAdmin@@2PEBDEB
?_PD_typeId@UnsupportedAdmin@CosNotification@@2PEBDEB
?_PD_typeId@UnsupportedFilterableData@CosNotifyFilter@@2PEBDEB
?_PD_typeId@UnsupportedQoS@CosNotification@@2PEBDEB
?_PR_getobj@Object@CORBA@@QEAAPEAVomniObjRef@@XZ
?_PR_is_valid@Object@CORBA@@SA_NPEAV12@@Z
?_PR_setobj@Object@CORBA@@QEAAXPEAVomniObjRef@@@Z
?_add_ref@ServantBase@PortableServer@@$R4BA@BA@PPPPPPPM@CA@EAAXXZ
?_add_ref@ServantBase@PortableServer@@$R4BA@BE@PPPPPPPM@CA@EAAXXZ
?_add_ref@ServantBase@PortableServer@@$R4BA@BI@PPPPPPPM@CA@EAAXXZ
?_add_ref@ServantBase@PortableServer@@$R4BA@BM@PPPPPPPM@CA@EAAXXZ
?_add_ref@ServantBase@PortableServer@@$R4BA@CA@PPPPPPPM@CA@EAAXXZ
?_add_ref@ServantBase@PortableServer@@$R4BA@CE@PPPPPPPM@CA@EAAXXZ
?_add_ref@ServantBase@PortableServer@@$R4BA@M@PPPPPPPM@CA@EAAXXZ
?_dispatch@_impl_AdminPropertiesAdmin@CosNotification@@$4PPPPPPPM@A@EAA_NAEAVomniCallHandle@@@Z
?_dispatch@_impl_AdminPropertiesAdmin@CosNotification@@$R4BA@7PPPPPPPM@BI@EAA_NAEAVomniCallHandle@@@Z
?_dispatch@_impl_AdminPropertiesAdmin@CosNotification@@UEAA_NAEAVomniCallHandle@@@Z
?_dispatch@_impl_ConsumerAdmin@CosEventChannelAdmin@@$4PPPPPPPM@A@EAA_NAEAVomniCallHandle@@@Z
?_dispatch@_impl_ConsumerAdmin@CosEventChannelAdmin@@$R4BA@7PPPPPPPM@BI@EAA_NAEAVomniCallHandle@@@Z
?_dispatch@_impl_ConsumerAdmin@CosEventChannelAdmin@@UEAA_NAEAVomniCallHandle@@@Z
?_dispatch@_impl_ConsumerAdmin@CosNotifyChannelAdmin@@$4PPPPPPPM@A@EAA_NAEAVomniCallHandle@@@Z
?_dispatch@_impl_ConsumerAdmin@CosNotifyChannelAdmin@@$R4BA@BI@PPPPPPPM@BI@EAA_NAEAVomniCallHandle@@@Z
?_dispatch@_impl_ConsumerAdmin@CosNotifyChannelAdmin@@UEAA_NAEAVomniCallHandle@@@Z
?_dispatch@_impl_EventChannel@CosEventChannelAdmin@@$4PPPPPPPM@A@EAA_NAEAVomniCallHandle@@@Z
?_dispatch@_impl_EventChannel@CosEventChannelAdmin@@$R4BA@7PPPPPPPM@BI@EAA_NAEAVomniCallHandle@@@Z
?_dispatch@_impl_EventChannel@CosEventChannelAdmin@@UEAA_NAEAVomniCallHandle@@@Z
?_dispatch@_impl_EventChannel@CosNotifyChannelAdmin@@$4PPPPPPPM@A@EAA_NAEAVomniCallHandle@@@Z
?_dispatch@_impl_EventChannel@CosNotifyChannelAdmin@@$R4BA@BE@PPPPPPPM@BI@EAA_NAEAVomniCallHandle@@@Z
?_dispatch@_impl_EventChannel@CosNotifyChannelAdmin@@UEAA_NAEAVomniCallHandle@@@Z
?_dispatch@_impl_EventChannelFactory@CosNotifyChannelAdmin@@$4PPPPPPPM@A@EAA_NAEAVomniCallHandle@@@Z
?_dispatch@_impl_EventChannelFactory@CosNotifyChannelAdmin@@$R4BA@7PPPPPPPM@BI@EAA_NAEAVomniCallHandle@@@Z
?_dispatch@_impl_EventChannelFactory@CosNotifyChannelAdmin@@UEAA_NAEAVomniCallHandle@@@Z
?_dispatch@_impl_FactoryFinder@CosLifeCycle@@$4PPPPPPPM@A@EAA_NAEAVomniCallHandle@@@Z
?_dispatch@_impl_FactoryFinder@CosLifeCycle@@$R4BA@7PPPPPPPM@BI@EAA_NAEAVomniCallHandle@@@Z
?_dispatch@_impl_FactoryFinder@CosLifeCycle@@UEAA_NAEAVomniCallHandle@@@Z
?_dispatch@_impl_Filter@CosNotifyFilter@@$4PPPPPPPM@A@EAA_NAEAVomniCallHandle@@@Z
?_dispatch@_impl_Filter@CosNotifyFilter@@$R4BA@7PPPPPPPM@BI@EAA_NAEAVomniCallHandle@@@Z
?_dispatch@_impl_Filter@CosNotifyFilter@@UEAA_NAEAVomniCallHandle@@@Z
?_dispatch@_impl_FilterAdmin@CosNotifyFilter@@$4PPPPPPPM@A@EAA_NAEAVomniCallHandle@@@Z
?_dispatch@_impl_FilterAdmin@CosNotifyFilter@@$R4BA@7PPPPPPPM@BI@EAA_NAEAVomniCallHandle@@@Z
?_dispatch@_impl_FilterAdmin@CosNotifyFilter@@UEAA_NAEAVomniCallHandle@@@Z
?_dispatch@_impl_FilterFactory@CosNotifyFilter@@$4PPPPPPPM@A@EAA_NAEAVomniCallHandle@@@Z
?_dispatch@_impl_FilterFactory@CosNotifyFilter@@$R4BA@7PPPPPPPM@BI@EAA_NAEAVomniCallHandle@@@Z
?_dispatch@_impl_FilterFactory@CosNotifyFilter@@UEAA_NAEAVomniCallHandle@@@Z
?_dispatch@_impl_GenericFactory@CosLifeCycle@@$4PPPPPPPM@A@EAA_NAEAVomniCallHandle@@@Z
?_dispatch@_impl_GenericFactory@CosLifeCycle@@$R4BA@7PPPPPPPM@BI@EAA_NAEAVomniCallHandle@@@Z
?_dispatch@_impl_GenericFactory@CosLifeCycle@@UEAA_NAEAVomniCallHandle@@@Z
?_dispatch@_impl_LifeCycleObject@CosLifeCycle@@$4PPPPPPPM@A@EAA_NAEAVomniCallHandle@@@Z
?_dispatch@_impl_LifeCycleObject@CosLifeCycle@@$R4BA@7PPPPPPPM@BI@EAA_NAEAVomniCallHandle@@@Z
?_dispatch@_impl_LifeCycleObject@CosLifeCycle@@UEAA_NAEAVomniCallHandle@@@Z
?_dispatch@_impl_MappingFilter@CosNotifyFilter@@$4PPPPPPPM@A@EAA_NAEAVomniCallHandle@@@Z
?_dispatch@_impl_MappingFilter@CosNotifyFilter@@$R4BA@7PPPPPPPM@BI@EAA_NAEAVomniCallHandle@@@Z
?_dispatch@_impl_MappingFilter@CosNotifyFilter@@UEAA_NAEAVomniCallHandle@@@Z
?_dispatch@_impl_NotifyPublish@CosNotifyComm@@$4PPPPPPPM@A@EAA_NAEAVomniCallHandle@@@Z
?_dispatch@_impl_NotifyPublish@CosNotifyComm@@$R4BA@7PPPPPPPM@BI@EAA_NAEAVomniCallHandle@@@Z
?_dispatch@_impl_NotifyPublish@CosNotifyComm@@UEAA_NAEAVomniCallHandle@@@Z
?_dispatch@_impl_NotifySubscribe@CosNotifyComm@@$4PPPPPPPM@A@EAA_NAEAVomniCallHandle@@@Z
?_dispatch@_impl_NotifySubscribe@CosNotifyComm@@$R4BA@7PPPPPPPM@BI@EAA_NAEAVomniCallHandle@@@Z
?_dispatch@_impl_NotifySubscribe@CosNotifyComm@@UEAA_NAEAVomniCallHandle@@@Z
?_dispatch@_impl_ProxyConsumer@CosNotifyChannelAdmin@@$4PPPPPPPM@A@EAA_NAEAVomniCallHandle@@@Z
?_dispatch@_impl_ProxyConsumer@CosNotifyChannelAdmin@@$R4BA@BA@PPPPPPPM@BI@EAA_NAEAVomniCallHandle@@@Z
?_dispatch@_impl_ProxyConsumer@CosNotifyChannelAdmin@@UEAA_NAEAVomniCallHandle@@@Z
?_dispatch@_impl_ProxyPullConsumer@CosEventChannelAdmin@@$4PPPPPPPM@A@EAA_NAEAVomniCallHandle@@@Z
?_dispatch@_impl_ProxyPullConsumer@CosEventChannelAdmin@@$R4BA@M@PPPPPPPM@BI@EAA_NAEAVomniCallHandle@@@Z
?_dispatch@_impl_ProxyPullConsumer@CosEventChannelAdmin@@UEAA_NAEAVomniCallHandle@@@Z
?_dispatch@_impl_ProxyPullConsumer@CosNotifyChannelAdmin@@$4PPPPPPPM@A@EAA_NAEAVomniCallHandle@@@Z
?_dispatch@_impl_ProxyPullConsumer@CosNotifyChannelAdmin@@$R4BA@CA@PPPPPPPM@BI@EAA_NAEAVomniCallHandle@@@Z
?_dispatch@_impl_ProxyPullConsumer@CosNotifyChannelAdmin@@UEAA_NAEAVomniCallHandle@@@Z
?_dispatch@_impl_ProxyPullSupplier@CosEventChannelAdmin@@$4PPPPPPPM@A@EAA_NAEAVomniCallHandle@@@Z
?_dispatch@_impl_ProxyPullSupplier@CosEventChannelAdmin@@$R4BA@M@PPPPPPPM@BI@EAA_NAEAVomniCallHandle@@@Z
?_dispatch@_impl_ProxyPullSupplier@CosEventChannelAdmin@@UEAA_NAEAVomniCallHandle@@@Z
?_dispatch@_impl_ProxyPullSupplier@CosNotifyChannelAdmin@@$4PPPPPPPM@A@EAA_NAEAVomniCallHandle@@@Z
?_dispatch@_impl_ProxyPullSupplier@CosNotifyChannelAdmin@@$R4BA@CA@PPPPPPPM@BI@EAA_NAEAVomniCallHandle@@@Z
?_dispatch@_impl_ProxyPullSupplier@CosNotifyChannelAdmin@@UEAA_NAEAVomniCallHandle@@@Z
?_dispatch@_impl_ProxyPushConsumer@CosEventChannelAdmin@@$4PPPPPPPM@A@EAA_NAEAVomniCallHandle@@@Z
?_dispatch@_impl_ProxyPushConsumer@CosEventChannelAdmin@@$R4BA@M@PPPPPPPM@BI@EAA_NAEAVomniCallHandle@@@Z
?_dispatch@_impl_ProxyPushConsumer@CosEventChannelAdmin@@UEAA_NAEAVomniCallHandle@@@Z
?_dispatch@_impl_ProxyPushConsumer@CosNotifyChannelAdmin@@$4PPPPPPPM@A@EAA_NAEAVomniCallHandle@@@Z
?_dispatch@_impl_ProxyPushConsumer@CosNotifyChannelAdmin@@$R4BA@CA@PPPPPPPM@BI@EAA_NAEAVomniCallHandle@@@Z
?_dispatch@_impl_ProxyPushConsumer@CosNotifyChannelAdmin@@UEAA_NAEAVomniCallHandle@@@Z
?_dispatch@_impl_ProxyPushSupplier@CosEventChannelAdmin@@$4PPPPPPPM@A@EAA_NAEAVomniCallHandle@@@Z
?_dispatch@_impl_ProxyPushSupplier@CosEventChannelAdmin@@$R4BA@M@PPPPPPPM@BI@EAA_NAEAVomniCallHandle@@@Z
?_dispatch@_impl_ProxyPushSupplier@CosEventChannelAdmin@@UEAA_NAEAVomniCallHandle@@@Z
?_dispatch@_impl_ProxyPushSupplier@CosNotifyChannelAdmin@@$4PPPPPPPM@A@EAA_NAEAVomniCallHandle@@@Z
?_dispatch@_impl_ProxyPushSupplier@CosNotifyChannelAdmin@@$R4BA@CA@PPPPPPPM@BI@EAA_NAEAVomniCallHandle@@@Z
?_dispatch@_impl_ProxyPushSupplier@CosNotifyChannelAdmin@@UEAA_NAEAVomniCallHandle@@@Z
?_dispatch@_impl_ProxySupplier@CosNotifyChannelAdmin@@$4PPPPPPPM@A@EAA_NAEAVomniCallHandle@@@Z
?_dispatch@_impl_ProxySupplier@CosNotifyChannelAdmin@@$R4BA@BA@PPPPPPPM@BI@EAA_NAEAVomniCallHandle@@@Z
?_dispatch@_impl_ProxySupplier@CosNotifyChannelAdmin@@UEAA_NAEAVomniCallHandle@@@Z
?_dispatch@_impl_PullConsumer@CosEventComm@@$4PPPPPPPM@A@EAA_NAEAVomniCallHandle@@@Z
?_dispatch@_impl_PullConsumer@CosEventComm@@$R4BA@7PPPPPPPM@BI@EAA_NAEAVomniCallHandle@@@Z
?_dispatch@_impl_PullConsumer@CosEventComm@@UEAA_NAEAVomniCallHandle@@@Z
?_dispatch@_impl_PullConsumer@CosNotifyComm@@$4PPPPPPPM@A@EAA_NAEAVomniCallHandle@@@Z
?_dispatch@_impl_PullConsumer@CosNotifyComm@@$R4BA@BA@PPPPPPPM@BA@EAA_NAEAVomniCallHandle@@@Z
?_dispatch@_impl_PullConsumer@CosNotifyComm@@UEAA_NAEAVomniCallHandle@@@Z
?_dispatch@_impl_PullSupplier@CosEventComm@@$4PPPPPPPM@A@EAA_NAEAVomniCallHandle@@@Z
?_dispatch@_impl_PullSupplier@CosEventComm@@$R4BA@7PPPPPPPM@BI@EAA_NAEAVomniCallHandle@@@Z
?_dispatch@_impl_PullSupplier@CosEventComm@@UEAA_NAEAVomniCallHandle@@@Z
?_dispatch@_impl_PullSupplier@CosNotifyComm@@$4PPPPPPPM@A@EAA_NAEAVomniCallHandle@@@Z
?_dispatch@_impl_PullSupplier@CosNotifyComm@@$R4BA@BA@PPPPPPPM@BA@EAA_NAEAVomniCallHandle@@@Z
?_dispatch@_impl_PullSupplier@CosNotifyComm@@UEAA_NAEAVomniCallHandle@@@Z
?_dispatch@_impl_PushConsumer@CosEventComm@@$4PPPPPPPM@A@EAA_NAEAVomniCallHandle@@@Z
?_dispatch@_impl_PushConsumer@CosEventComm@@$R4BA@7PPPPPPPM@BI@EAA_NAEAVomniCallHandle@@@Z
?_dispatch@_impl_PushConsumer@CosEventComm@@UEAA_NAEAVomniCallHandle@@@Z
?_dispatch@_impl_PushConsumer@CosNotifyComm@@$4PPPPPPPM@A@EAA_NAEAVomniCallHandle@@@Z
?_dispatch@_impl_PushConsumer@CosNotifyComm@@$R4BA@BA@PPPPPPPM@BA@EAA_NAEAVomniCallHandle@@@Z
?_dispatch@_impl_PushConsumer@CosNotifyComm@@UEAA_NAEAVomniCallHandle@@@Z
?_dispatch@_impl_PushSupplier@CosEventComm@@$4PPPPPPPM@A@EAA_NAEAVomniCallHandle@@@Z
?_dispatch@_impl_PushSupplier@CosEventComm@@$R4BA@7PPPPPPPM@BI@EAA_NAEAVomniCallHandle@@@Z
?_dispatch@_impl_PushSupplier@CosEventComm@@UEAA_NAEAVomniCallHandle@@@Z
?_dispatch@_impl_PushSupplier@CosNotifyComm@@$4PPPPPPPM@A@EAA_NAEAVomniCallHandle@@@Z
?_dispatch@_impl_PushSupplier@CosNotifyComm@@$R4BA@BA@PPPPPPPM@BA@EAA_NAEAVomniCallHandle@@@Z
?_dispatch@_impl_PushSupplier@CosNotifyComm@@UEAA_NAEAVomniCallHandle@@@Z
?_dispatch@_impl_QoSAdmin@CosNotification@@$4PPPPPPPM@A@EAA_NAEAVomniCallHandle@@@Z
?_dispatch@_impl_QoSAdmin@CosNotification@@$R4BA@7PPPPPPPM@BI@EAA_NAEAVomniCallHandle@@@Z
?_dispatch@_impl_QoSAdmin@CosNotification@@UEAA_NAEAVomniCallHandle@@@Z
?_dispatch@_impl_SequenceProxyPullConsumer@CosNotifyChannelAdmin@@$4PPPPPPPM@A@EAA_NAEAVomniCallHandle@@@Z
?_dispatch@_impl_SequenceProxyPullConsumer@CosNotifyChannelAdmin@@$R4BA@BM@PPPPPPPM@BI@EAA_NAEAVomniCallHandle@@@Z
?_dispatch@_impl_SequenceProxyPullConsumer@CosNotifyChannelAdmin@@UEAA_NAEAVomniCallHandle@@@Z
?_dispatch@_impl_SequenceProxyPullSupplier@CosNotifyChannelAdmin@@$4PPPPPPPM@A@EAA_NAEAVomniCallHandle@@@Z
?_dispatch@_impl_SequenceProxyPullSupplier@CosNotifyChannelAdmin@@$R4BA@BM@PPPPPPPM@BI@EAA_NAEAVomniCallHandle@@@Z
?_dispatch@_impl_SequenceProxyPullSupplier@CosNotifyChannelAdmin@@UEAA_NAEAVomniCallHandle@@@Z
?_dispatch@_impl_SequenceProxyPushConsumer@CosNotifyChannelAdmin@@$4PPPPPPPM@A@EAA_NAEAVomniCallHandle@@@Z
?_dispatch@_impl_SequenceProxyPushConsumer@CosNotifyChannelAdmin@@$R4BA@BM@PPPPPPPM@BI@EAA_NAEAVomniCallHandle@@@Z
?_dispatch@_impl_SequenceProxyPushConsumer@CosNotifyChannelAdmin@@UEAA_NAEAVomniCallHandle@@@Z
?_dispatch@_impl_SequenceProxyPushSupplier@CosNotifyChannelAdmin@@$4PPPPPPPM@A@EAA_NAEAVomniCallHandle@@@Z
?_dispatch@_impl_SequenceProxyPushSupplier@CosNotifyChannelAdmin@@$R4BA@BM@PPPPPPPM@BI@EAA_NAEAVomniCallHandle@@@Z
?_dispatch@_impl_SequenceProxyPushSupplier@CosNotifyChannelAdmin@@UEAA_NAEAVomniCallHandle@@@Z
?_dispatch@_impl_SequencePullConsumer@CosNotifyComm@@$4PPPPPPPM@A@EAA_NAEAVomniCallHandle@@@Z
?_dispatch@_impl_SequencePullConsumer@CosNotifyComm@@$R4BA@M@PPPPPPPM@BI@EAA_NAEAVomniCallHandle@@@Z
?_dispatch@_impl_SequencePullConsumer@CosNotifyComm@@UEAA_NAEAVomniCallHandle@@@Z
?_dispatch@_impl_SequencePullSupplier@CosNotifyComm@@$4PPPPPPPM@A@EAA_NAEAVomniCallHandle@@@Z
?_dispatch@_impl_SequencePullSupplier@CosNotifyComm@@$R4BA@M@PPPPPPPM@BI@EAA_NAEAVomniCallHandle@@@Z
?_dispatch@_impl_SequencePullSupplier@CosNotifyComm@@UEAA_NAEAVomniCallHandle@@@Z
?_dispatch@_impl_SequencePushConsumer@CosNotifyComm@@$4PPPPPPPM@A@EAA_NAEAVomniCallHandle@@@Z
?_dispatch@_impl_SequencePushConsumer@CosNotifyComm@@$R4BA@M@PPPPPPPM@BI@EAA_NAEAVomniCallHandle@@@Z
?_dispatch@_impl_SequencePushConsumer@CosNotifyComm@@UEAA_NAEAVomniCallHandle@@@Z
?_dispatch@_impl_SequencePushSupplier@CosNotifyComm@@$4PPPPPPPM@A@EAA_NAEAVomniCallHandle@@@Z
?_dispatch@_impl_SequencePushSupplier@CosNotifyComm@@$R4BA@M@PPPPPPPM@BI@EAA_NAEAVomniCallHandle@@@Z
?_dispatch@_impl_SequencePushSupplier@CosNotifyComm@@UEAA_NAEAVomniCallHandle@@@Z
?_dispatch@_impl_StructuredProxyPullConsumer@CosNotifyChannelAdmin@@$4PPPPPPPM@A@EAA_NAEAVomniCallHandle@@@Z
?_dispatch@_impl_StructuredProxyPullConsumer@CosNotifyChannelAdmin@@$R4BA@BM@PPPPPPPM@BI@EAA_NAEAVomniCallHandle@@@Z
?_dispatch@_impl_StructuredProxyPullConsumer@CosNotifyChannelAdmin@@UEAA_NAEAVomniCallHandle@@@Z
?_dispatch@_impl_StructuredProxyPullSupplier@CosNotifyChannelAdmin@@$4PPPPPPPM@A@EAA_NAEAVomniCallHandle@@@Z
?_dispatch@_impl_StructuredProxyPullSupplier@CosNotifyChannelAdmin@@$R4BA@BM@PPPPPPPM@BI@EAA_NAEAVomniCallHandle@@@Z
?_dispatch@_impl_StructuredProxyPullSupplier@CosNotifyChannelAdmin@@UEAA_NAEAVomniCallHandle@@@Z
?_dispatch@_impl_StructuredProxyPushConsumer@CosNotifyChannelAdmin@@$4PPPPPPPM@A@EAA_NAEAVomniCallHandle@@@Z
?_dispatch@_impl_StructuredProxyPushConsumer@CosNotifyChannelAdmin@@$R4BA@BM@PPPPPPPM@BI@EAA_NAEAVomniCallHandle@@@Z
?_dispatch@_impl_StructuredProxyPushConsumer@CosNotifyChannelAdmin@@UEAA_NAEAVomniCallHandle@@@Z
?_dispatch@_impl_StructuredProxyPushSupplier@CosNotifyChannelAdmin@@$4PPPPPPPM@A@EAA_NAEAVomniCallHandle@@@Z
?_dispatch@_impl_StructuredProxyPushSupplier@CosNotifyChannelAdmin@@$R4BA@BM@PPPPPPPM@BI@EAA_NAEAVomniCallHandle@@@Z
?_dispatch@_impl_StructuredProxyPushSupplier@CosNotifyChannelAdmin@@UEAA_NAEAVomniCallHandle@@@Z
?_dispatch@_impl_StructuredPullConsumer@CosNotifyComm@@$4PPPPPPPM@A@EAA_NAEAVomniCallHandle@@@Z
?_dispatch@_impl_StructuredPullConsumer@CosNotifyComm@@$R4BA@M@PPPPPPPM@BI@EAA_NAEAVomniCallHandle@@@Z
?_dispatch@_impl_StructuredPullConsumer@CosNotifyComm@@UEAA_NAEAVomniCallHandle@@@Z
?_dispatch@_impl_StructuredPullSupplier@CosNotifyComm@@$4PPPPPPPM@A@EAA_NAEAVomniCallHandle@@@Z
?_dispatch@_impl_StructuredPullSupplier@CosNotifyComm@@$R4BA@M@PPPPPPPM@BI@EAA_NAEAVomniCallHandle@@@Z
?_dispatch@_impl_StructuredPullSupplier@CosNotifyComm@@UEAA_NAEAVomniCallHandle@@@Z
?_dispatch@_impl_StructuredPushConsumer@CosNotifyComm@@$4PPPPPPPM@A@EAA_NAEAVomniCallHandle@@@Z
?_dispatch@_impl_StructuredPushConsumer@CosNotifyComm@@$R4BA@M@PPPPPPPM@BI@EAA_NAEAVomniCallHandle@@@Z
?_dispatch@_impl_StructuredPushConsumer@CosNotifyComm@@UEAA_NAEAVomniCallHandle@@@Z
?_dispatch@_impl_StructuredPushSupplier@CosNotifyComm@@$4PPPPPPPM@A@EAA_NAEAVomniCallHandle@@@Z
?_dispatch@_impl_StructuredPushSupplier@CosNotifyComm@@$R4BA@M@PPPPPPPM@BI@EAA_NAEAVomniCallHandle@@@Z
?_dispatch@_impl_StructuredPushSupplier@CosNotifyComm@@UEAA_NAEAVomniCallHandle@@@Z
?_dispatch@_impl_SupplierAdmin@CosEventChannelAdmin@@$4PPPPPPPM@A@EAA_NAEAVomniCallHandle@@@Z
?_dispatch@_impl_SupplierAdmin@CosEventChannelAdmin@@$R4BA@7PPPPPPPM@BI@EAA_NAEAVomniCallHandle@@@Z
?_dispatch@_impl_SupplierAdmin@CosEventChannelAdmin@@UEAA_NAEAVomniCallHandle@@@Z
?_dispatch@_impl_SupplierAdmin@CosNotifyChannelAdmin@@$4PPPPPPPM@A@EAA_NAEAVomniCallHandle@@@Z
?_dispatch@_impl_SupplierAdmin@CosNotifyChannelAdmin@@$R4BA@BI@PPPPPPPM@BI@EAA_NAEAVomniCallHandle@@@Z
?_dispatch@_impl_SupplierAdmin@CosNotifyChannelAdmin@@UEAA_NAEAVomniCallHandle@@@Z
?_dispatch@_impl_TIO@CosTime@@$4PPPPPPPM@A@EAA_NAEAVomniCallHandle@@@Z
?_dispatch@_impl_TIO@CosTime@@$R4BA@7PPPPPPPM@BI@EAA_NAEAVomniCallHandle@@@Z
?_dispatch@_impl_TIO@CosTime@@UEAA_NAEAVomniCallHandle@@@Z
?_dispatch@_impl_TimeService@CosTime@@$4PPPPPPPM@A@EAA_NAEAVomniCallHandle@@@Z
?_dispatch@_impl_TimeService@CosTime@@$R4BA@7PPPPPPPM@BI@EAA_NAEAVomniCallHandle@@@Z
?_dispatch@_impl_TimeService@CosTime@@UEAA_NAEAVomniCallHandle@@@Z
?_dispatch@_impl_UTO@CosTime@@$4PPPPPPPM@A@EAA_NAEAVomniCallHandle@@@Z
?_dispatch@_impl_UTO@CosTime@@$R4BA@7PPPPPPPM@BI@EAA_NAEAVomniCallHandle@@@Z
?_dispatch@_impl_UTO@CosTime@@UEAA_NAEAVomniCallHandle@@@Z
?_do_get_interface@ServantBase@PortableServer@@$R0BA@BA@PPPPPPPM@CA@EAAPEAVomniObjRef@@XZ
?_do_get_interface@ServantBase@PortableServer@@$R0BA@BE@PPPPPPPM@CA@EAAPEAVomniObjRef@@XZ
?_do_get_interface@ServantBase@PortableServer@@$R0BA@BI@PPPPPPPM@CA@EAAPEAVomniObjRef@@XZ
?_do_get_interface@ServantBase@PortableServer@@$R0BA@BM@PPPPPPPM@CA@EAAPEAVomniObjRef@@XZ
?_do_get_interface@ServantBase@PortableServer@@$R0BA@CA@PPPPPPPM@CA@EAAPEAVomniObjRef@@XZ
?_do_get_interface@ServantBase@PortableServer@@$R0BA@CE@PPPPPPPM@CA@EAAPEAVomniObjRef@@XZ
?_do_get_interface@ServantBase@PortableServer@@$R0BA@M@PPPPPPPM@CA@EAAPEAVomniObjRef@@XZ
?_downcast@AdminLimitExceeded@CosNotifyChannelAdmin@@SAPEAV12@PEAVException@CORBA@@@Z
?_downcast@AdminLimitExceeded@CosNotifyChannelAdmin@@SAPEBV12@PEBVException@CORBA@@@Z
?_downcast@AdminNotFound@CosNotifyChannelAdmin@@SAPEAV12@PEAVException@CORBA@@@Z
?_downcast@AdminNotFound@CosNotifyChannelAdmin@@SAPEBV12@PEBVException@CORBA@@@Z
?_downcast@AlreadyConnected@CosEventChannelAdmin@@SAPEAV12@PEAVException@CORBA@@@Z
?_downcast@AlreadyConnected@CosEventChannelAdmin@@SAPEBV12@PEBVException@CORBA@@@Z
?_downcast@CallbackNotFound@CosNotifyFilter@@SAPEAV12@PEAVException@CORBA@@@Z
?_downcast@CallbackNotFound@CosNotifyFilter@@SAPEBV12@PEBVException@CORBA@@@Z
?_downcast@CannotMeetCriteria@CosLifeCycle@@SAPEAV12@PEAVException@CORBA@@@Z
?_downcast@CannotMeetCriteria@CosLifeCycle@@SAPEBV12@PEBVException@CORBA@@@Z
?_downcast@ChannelNotFound@CosNotifyChannelAdmin@@SAPEAV12@PEAVException@CORBA@@@Z
?_downcast@ChannelNotFound@CosNotifyChannelAdmin@@SAPEBV12@PEBVException@CORBA@@@Z
?_downcast@ConnectionAlreadyActive@CosNotifyChannelAdmin@@SAPEAV12@PEAVException@CORBA@@@Z
?_downcast@ConnectionAlreadyActive@CosNotifyChannelAdmin@@SAPEBV12@PEBVException@CORBA@@@Z
?_downcast@ConnectionAlreadyInactive@CosNotifyChannelAdmin@@SAPEAV12@PEAVException@CORBA@@@Z
?_downcast@ConnectionAlreadyInactive@CosNotifyChannelAdmin@@SAPEBV12@PEBVException@CORBA@@@Z
?_downcast@ConstraintNotFound@CosNotifyFilter@@SAPEAV12@PEAVException@CORBA@@@Z
?_downcast@ConstraintNotFound@CosNotifyFilter@@SAPEBV12@PEBVException@CORBA@@@Z
?_downcast@Disconnected@CosEventComm@@SAPEAV12@PEAVException@CORBA@@@Z
?_downcast@Disconnected@CosEventComm@@SAPEBV12@PEBVException@CORBA@@@Z
?_downcast@DuplicateConstraintID@CosNotifyFilter@@SAPEAV12@PEAVException@CORBA@@@Z
?_downcast@DuplicateConstraintID@CosNotifyFilter@@SAPEBV12@PEBVException@CORBA@@@Z
?_downcast@FilterNotFound@CosNotifyFilter@@SAPEAV12@PEAVException@CORBA@@@Z
?_downcast@FilterNotFound@CosNotifyFilter@@SAPEBV12@PEBVException@CORBA@@@Z
?_downcast@InvalidConstraint@CosNotifyFilter@@SAPEAV12@PEAVException@CORBA@@@Z
?_downcast@InvalidConstraint@CosNotifyFilter@@SAPEBV12@PEBVException@CORBA@@@Z
?_downcast@InvalidCriteria@CosLifeCycle@@SAPEAV12@PEAVException@CORBA@@@Z
?_downcast@InvalidCriteria@CosLifeCycle@@SAPEBV12@PEBVException@CORBA@@@Z
?_downcast@InvalidEventType@CosNotifyComm@@SAPEAV12@PEAVException@CORBA@@@Z
?_downcast@InvalidEventType@CosNotifyComm@@SAPEBV12@PEBVException@CORBA@@@Z
?_downcast@InvalidGrammar@CosNotifyFilter@@SAPEAV12@PEAVException@CORBA@@@Z
?_downcast@InvalidGrammar@CosNotifyFilter@@SAPEBV12@PEBVException@CORBA@@@Z
?_downcast@InvalidValue@CosNotifyFilter@@SAPEAV12@PEAVException@CORBA@@@Z
?_downcast@InvalidValue@CosNotifyFilter@@SAPEBV12@PEBVException@CORBA@@@Z
?_downcast@NoFactory@CosLifeCycle@@SAPEAV12@PEAVException@CORBA@@@Z
?_downcast@NoFactory@CosLifeCycle@@SAPEBV12@PEBVException@CORBA@@@Z
?_downcast@NotConnected@CosNotifyChannelAdmin@@SAPEAV12@PEAVException@CORBA@@@Z
?_downcast@NotConnected@CosNotifyChannelAdmin@@SAPEBV12@PEBVException@CORBA@@@Z
?_downcast@NotCopyable@CosLifeCycle@@SAPEAV12@PEAVException@CORBA@@@Z
?_downcast@NotCopyable@CosLifeCycle@@SAPEBV12@PEBVException@CORBA@@@Z
?_downcast@NotMovable@CosLifeCycle@@SAPEAV12@PEAVException@CORBA@@@Z
?_downcast@NotMovable@CosLifeCycle@@SAPEBV12@PEBVException@CORBA@@@Z
?_downcast@NotRemovable@CosLifeCycle@@SAPEAV12@PEAVException@CORBA@@@Z
?_downcast@NotRemovable@CosLifeCycle@@SAPEBV12@PEBVException@CORBA@@@Z
?_downcast@ProxyNotFound@CosNotifyChannelAdmin@@SAPEAV12@PEAVException@CORBA@@@Z
?_downcast@ProxyNotFound@CosNotifyChannelAdmin@@SAPEBV12@PEBVException@CORBA@@@Z
?_downcast@ServantBase@PortableServer@@$R0BA@BA@PPPPPPPM@CA@EAAPEAXXZ
?_downcast@ServantBase@PortableServer@@$R0BA@BE@PPPPPPPM@CA@EAAPEAXXZ
?_downcast@ServantBase@PortableServer@@$R0BA@BI@PPPPPPPM@CA@EAAPEAXXZ
?_downcast@ServantBase@PortableServer@@$R0BA@BM@PPPPPPPM@CA@EAAPEAXXZ
?_downcast@ServantBase@PortableServer@@$R0BA@CA@PPPPPPPM@CA@EAAPEAXXZ
?_downcast@ServantBase@PortableServer@@$R0BA@CE@PPPPPPPM@CA@EAAPEAXXZ
?_downcast@ServantBase@PortableServer@@$R0BA@M@PPPPPPPM@CA@EAAPEAXXZ
?_downcast@TimeUnavailable@CosTime@@SAPEAV12@PEAVException@CORBA@@@Z
?_downcast@TimeUnavailable@CosTime@@SAPEBV12@PEBVException@CORBA@@@Z
?_downcast@TypeError@CosEventChannelAdmin@@SAPEAV12@PEAVException@CORBA@@@Z
?_downcast@TypeError@CosEventChannelAdmin@@SAPEBV12@PEBVException@CORBA@@@Z
?_downcast@UnsupportedAdmin@CosNotification@@SAPEAV12@PEAVException@CORBA@@@Z
?_downcast@UnsupportedAdmin@CosNotification@@SAPEBV12@PEBVException@CORBA@@@Z
?_downcast@UnsupportedFilterableData@CosNotifyFilter@@SAPEAV12@PEAVException@CORBA@@@Z
?_downcast@UnsupportedFilterableData@CosNotifyFilter@@SAPEBV12@PEBVException@CORBA@@@Z
?_downcast@UnsupportedQoS@CosNotification@@SAPEAV12@PEAVException@CORBA@@@Z
?_downcast@UnsupportedQoS@CosNotification@@SAPEBV12@PEBVException@CORBA@@@Z
?_duplicate@AdminPropertiesAdmin@CosNotification@@SAPEAV_objref_AdminPropertiesAdmin@2@PEAV32@@Z
?_duplicate@ConsumerAdmin@CosEventChannelAdmin@@SAPEAV_objref_ConsumerAdmin@2@PEAV32@@Z
?_duplicate@ConsumerAdmin@CosNotifyChannelAdmin@@SAPEAV_objref_ConsumerAdmin@2@PEAV32@@Z
?_duplicate@EventChannel@CosEventChannelAdmin@@SAPEAV_objref_EventChannel@2@PEAV32@@Z
?_duplicate@EventChannel@CosNotifyChannelAdmin@@SAPEAV_objref_EventChannel@2@PEAV32@@Z
?_duplicate@EventChannelFactory@CosNotifyChannelAdmin@@SAPEAV_objref_EventChannelFactory@2@PEAV32@@Z
?_duplicate@FactoryFinder@CosLifeCycle@@SAPEAV_objref_FactoryFinder@2@PEAV32@@Z
?_duplicate@Filter@CosNotifyFilter@@SAPEAV_objref_Filter@2@PEAV32@@Z
?_duplicate@FilterAdmin@CosNotifyFilter@@SAPEAV_objref_FilterAdmin@2@PEAV32@@Z
?_duplicate@FilterFactory@CosNotifyFilter@@SAPEAV_objref_FilterFactory@2@PEAV32@@Z
?_duplicate@GenericFactory@CosLifeCycle@@SAPEAV_objref_GenericFactory@2@PEAV32@@Z
?_duplicate@LifeCycleObject@CosLifeCycle@@SAPEAV_objref_LifeCycleObject@2@PEAV32@@Z
?_duplicate@MappingFilter@CosNotifyFilter@@SAPEAV_objref_MappingFilter@2@PEAV32@@Z
?_duplicate@NotifyPublish@CosNotifyComm@@SAPEAV_objref_NotifyPublish@2@PEAV32@@Z
?_duplicate@NotifySubscribe@CosNotifyComm@@SAPEAV_objref_NotifySubscribe@2@PEAV32@@Z
?_duplicate@ProxyConsumer@CosNotifyChannelAdmin@@SAPEAV_objref_ProxyConsumer@2@PEAV32@@Z
?_duplicate@ProxyPullConsumer@CosEventChannelAdmin@@SAPEAV_objref_ProxyPullConsumer@2@PEAV32@@Z
?_duplicate@ProxyPullConsumer@CosNotifyChannelAdmin@@SAPEAV_objref_ProxyPullConsumer@2@PEAV32@@Z
?_duplicate@ProxyPullSupplier@CosEventChannelAdmin@@SAPEAV_objref_ProxyPullSupplier@2@PEAV32@@Z
?_duplicate@ProxyPullSupplier@CosNotifyChannelAdmin@@SAPEAV_objref_ProxyPullSupplier@2@PEAV32@@Z
?_duplicate@ProxyPushConsumer@CosEventChannelAdmin@@SAPEAV_objref_ProxyPushConsumer@2@PEAV32@@Z
?_duplicate@ProxyPushConsumer@CosNotifyChannelAdmin@@SAPEAV_objref_ProxyPushConsumer@2@PEAV32@@Z
?_duplicate@ProxyPushSupplier@CosEventChannelAdmin@@SAPEAV_objref_ProxyPushSupplier@2@PEAV32@@Z
?_duplicate@ProxyPushSupplier@CosNotifyChannelAdmin@@SAPEAV_objref_ProxyPushSupplier@2@PEAV32@@Z
?_duplicate@ProxySupplier@CosNotifyChannelAdmin@@SAPEAV_objref_ProxySupplier@2@PEAV32@@Z
?_duplicate@PullConsumer@CosEventComm@@SAPEAV_objref_PullConsumer@2@PEAV32@@Z
?_duplicate@PullConsumer@CosNotifyComm@@SAPEAV_objref_PullConsumer@2@PEAV32@@Z
?_duplicate@PullSupplier@CosEventComm@@SAPEAV_objref_PullSupplier@2@PEAV32@@Z
?_duplicate@PullSupplier@CosNotifyComm@@SAPEAV_objref_PullSupplier@2@PEAV32@@Z
?_duplicate@PushConsumer@CosEventComm@@SAPEAV_objref_PushConsumer@2@PEAV32@@Z
?_duplicate@PushConsumer@CosNotifyComm@@SAPEAV_objref_PushConsumer@2@PEAV32@@Z
?_duplicate@PushSupplier@CosEventComm@@SAPEAV_objref_PushSupplier@2@PEAV32@@Z
?_duplicate@PushSupplier@CosNotifyComm@@SAPEAV_objref_PushSupplier@2@PEAV32@@Z
?_duplicate@QoSAdmin@CosNotification@@SAPEAV_objref_QoSAdmin@2@PEAV32@@Z
?_duplicate@SequenceProxyPullConsumer@CosNotifyChannelAdmin@@SAPEAV_objref_SequenceProxyPullConsumer@2@PEAV32@@Z
?_duplicate@SequenceProxyPullSupplier@CosNotifyChannelAdmin@@SAPEAV_objref_SequenceProxyPullSupplier@2@PEAV32@@Z
?_duplicate@SequenceProxyPushConsumer@CosNotifyChannelAdmin@@SAPEAV_objref_SequenceProxyPushConsumer@2@PEAV32@@Z
?_duplicate@SequenceProxyPushSupplier@CosNotifyChannelAdmin@@SAPEAV_objref_SequenceProxyPushSupplier@2@PEAV32@@Z
?_duplicate@SequencePullConsumer@CosNotifyComm@@SAPEAV_objref_SequencePullConsumer@2@PEAV32@@Z
?_duplicate@SequencePullSupplier@CosNotifyComm@@SAPEAV_objref_SequencePullSupplier@2@PEAV32@@Z
?_duplicate@SequencePushConsumer@CosNotifyComm@@SAPEAV_objref_SequencePushConsumer@2@PEAV32@@Z
?_duplicate@SequencePushSupplier@CosNotifyComm@@SAPEAV_objref_SequencePushSupplier@2@PEAV32@@Z
?_duplicate@StructuredProxyPullConsumer@CosNotifyChannelAdmin@@SAPEAV_objref_StructuredProxyPullConsumer@2@PEAV32@@Z
?_duplicate@StructuredProxyPullSupplier@CosNotifyChannelAdmin@@SAPEAV_objref_StructuredProxyPullSupplier@2@PEAV32@@Z
?_duplicate@StructuredProxyPushConsumer@CosNotifyChannelAdmin@@SAPEAV_objref_StructuredProxyPushConsumer@2@PEAV32@@Z
?_duplicate@StructuredProxyPushSupplier@CosNotifyChannelAdmin@@SAPEAV_objref_StructuredProxyPushSupplier@2@PEAV32@@Z
?_duplicate@StructuredPullConsumer@CosNotifyComm@@SAPEAV_objref_StructuredPullConsumer@2@PEAV32@@Z
?_duplicate@StructuredPullSupplier@CosNotifyComm@@SAPEAV_objref_StructuredPullSupplier@2@PEAV32@@Z
?_duplicate@StructuredPushConsumer@CosNotifyComm@@SAPEAV_objref_StructuredPushConsumer@2@PEAV32@@Z
?_duplicate@StructuredPushSupplier@CosNotifyComm@@SAPEAV_objref_StructuredPushSupplier@2@PEAV32@@Z
?_duplicate@SupplierAdmin@CosEventChannelAdmin@@SAPEAV_objref_SupplierAdmin@2@PEAV32@@Z
?_duplicate@SupplierAdmin@CosNotifyChannelAdmin@@SAPEAV_objref_SupplierAdmin@2@PEAV32@@Z
?_duplicate@TIO@CosTime@@SAPEAV_objref_TIO@2@PEAV32@@Z
?_duplicate@TimeService@CosTime@@SAPEAV_objref_TimeService@2@PEAV32@@Z
?_duplicate@UTO@CosTime@@SAPEAV_objref_UTO@2@PEAV32@@Z
?_marshalObjRef@AdminPropertiesAdmin@CosNotification@@SAXPEAV_objref_AdminPropertiesAdmin@2@AEAVcdrStream@@@Z
?_marshalObjRef@ConsumerAdmin@CosEventChannelAdmin@@SAXPEAV_objref_ConsumerAdmin@2@AEAVcdrStream@@@Z
?_marshalObjRef@ConsumerAdmin@CosNotifyChannelAdmin@@SAXPEAV_objref_ConsumerAdmin@2@AEAVcdrStream@@@Z
?_marshalObjRef@EventChannel@CosEventChannelAdmin@@SAXPEAV_objref_EventChannel@2@AEAVcdrStream@@@Z
?_marshalObjRef@EventChannel@CosNotifyChannelAdmin@@SAXPEAV_objref_EventChannel@2@AEAVcdrStream@@@Z
?_marshalObjRef@EventChannelFactory@CosNotifyChannelAdmin@@SAXPEAV_objref_EventChannelFactory@2@AEAVcdrStream@@@Z
?_marshalObjRef@FactoryFinder@CosLifeCycle@@SAXPEAV_objref_FactoryFinder@2@AEAVcdrStream@@@Z
?_marshalObjRef@Filter@CosNotifyFilter@@SAXPEAV_objref_Filter@2@AEAVcdrStream@@@Z
?_marshalObjRef@FilterAdmin@CosNotifyFilter@@SAXPEAV_objref_FilterAdmin@2@AEAVcdrStream@@@Z
?_marshalObjRef@FilterFactory@CosNotifyFilter@@SAXPEAV_objref_FilterFactory@2@AEAVcdrStream@@@Z
?_marshalObjRef@GenericFactory@CosLifeCycle@@SAXPEAV_objref_GenericFactory@2@AEAVcdrStream@@@Z
?_marshalObjRef@LifeCycleObject@CosLifeCycle@@SAXPEAV_objref_LifeCycleObject@2@AEAVcdrStream@@@Z
?_marshalObjRef@MappingFilter@CosNotifyFilter@@SAXPEAV_objref_MappingFilter@2@AEAVcdrStream@@@Z
?_marshalObjRef@NotifyPublish@CosNotifyComm@@SAXPEAV_objref_NotifyPublish@2@AEAVcdrStream@@@Z
?_marshalObjRef@NotifySubscribe@CosNotifyComm@@SAXPEAV_objref_NotifySubscribe@2@AEAVcdrStream@@@Z
?_marshalObjRef@ProxyConsumer@CosNotifyChannelAdmin@@SAXPEAV_objref_ProxyConsumer@2@AEAVcdrStream@@@Z
?_marshalObjRef@ProxyPullConsumer@CosEventChannelAdmin@@SAXPEAV_objref_ProxyPullConsumer@2@AEAVcdrStream@@@Z
?_marshalObjRef@ProxyPullConsumer@CosNotifyChannelAdmin@@SAXPEAV_objref_ProxyPullConsumer@2@AEAVcdrStream@@@Z
?_marshalObjRef@ProxyPullSupplier@CosEventChannelAdmin@@SAXPEAV_objref_ProxyPullSupplier@2@AEAVcdrStream@@@Z
?_marshalObjRef@ProxyPullSupplier@CosNotifyChannelAdmin@@SAXPEAV_objref_ProxyPullSupplier@2@AEAVcdrStream@@@Z
?_marshalObjRef@ProxyPushConsumer@CosEventChannelAdmin@@SAXPEAV_objref_ProxyPushConsumer@2@AEAVcdrStream@@@Z
?_marshalObjRef@ProxyPushConsumer@CosNotifyChannelAdmin@@SAXPEAV_objref_ProxyPushConsumer@2@AEAVcdrStream@@@Z
?_marshalObjRef@ProxyPushSupplier@CosEventChannelAdmin@@SAXPEAV_objref_ProxyPushSupplier@2@AEAVcdrStream@@@Z
?_marshalObjRef@ProxyPushSupplier@CosNotifyChannelAdmin@@SAXPEAV_objref_ProxyPushSupplier@2@AEAVcdrStream@@@Z
?_marshalObjRef@ProxySupplier@CosNotifyChannelAdmin@@SAXPEAV_objref_ProxySupplier@2@AEAVcdrStream@@@Z
?_marshalObjRef@PullConsumer@CosEventComm@@SAXPEAV_objref_PullConsumer@2@AEAVcdrStream@@@Z
?_marshalObjRef@PullConsumer@CosNotifyComm@@SAXPEAV_objref_PullConsumer@2@AEAVcdrStream@@@Z
?_marshalObjRef@PullSupplier@CosEventComm@@SAXPEAV_objref_PullSupplier@2@AEAVcdrStream@@@Z
?_marshalObjRef@PullSupplier@CosNotifyComm@@SAXPEAV_objref_PullSupplier@2@AEAVcdrStream@@@Z
?_marshalObjRef@PushConsumer@CosEventComm@@SAXPEAV_objref_PushConsumer@2@AEAVcdrStream@@@Z
?_marshalObjRef@PushConsumer@CosNotifyComm@@SAXPEAV_objref_PushConsumer@2@AEAVcdrStream@@@Z
?_marshalObjRef@PushSupplier@CosEventComm@@SAXPEAV_objref_PushSupplier@2@AEAVcdrStream@@@Z
?_marshalObjRef@PushSupplier@CosNotifyComm@@SAXPEAV_objref_PushSupplier@2@AEAVcdrStream@@@Z
?_marshalObjRef@QoSAdmin@CosNotification@@SAXPEAV_objref_QoSAdmin@2@AEAVcdrStream@@@Z
?_marshalObjRef@SequenceProxyPullConsumer@CosNotifyChannelAdmin@@SAXPEAV_objref_SequenceProxyPullConsumer@2@AEAVcdrStream@@@Z
?_marshalObjRef@SequenceProxyPullSupplier@CosNotifyChannelAdmin@@SAXPEAV_objref_SequenceProxyPullSupplier@2@AEAVcdrStream@@@Z
?_marshalObjRef@SequenceProxyPushConsumer@CosNotifyChannelAdmin@@SAXPEAV_objref_SequenceProxyPushConsumer@2@AEAVcdrStream@@@Z
?_marshalObjRef@SequenceProxyPushSupplier@CosNotifyChannelAdmin@@SAXPEAV_objref_SequenceProxyPushSupplier@2@AEAVcdrStream@@@Z
?_marshalObjRef@SequencePullConsumer@CosNotifyComm@@SAXPEAV_objref_SequencePullConsumer@2@AEAVcdrStream@@@Z
?_marshalObjRef@SequencePullSupplier@CosNotifyComm@@SAXPEAV_objref_SequencePullSupplier@2@AEAVcdrStream@@@Z
?_marshalObjRef@SequencePushConsumer@CosNotifyComm@@SAXPEAV_objref_SequencePushConsumer@2@AEAVcdrStream@@@Z
?_marshalObjRef@SequencePushSupplier@CosNotifyComm@@SAXPEAV_objref_SequencePushSupplier@2@AEAVcdrStream@@@Z
?_marshalObjRef@StructuredProxyPullConsumer@CosNotifyChannelAdmin@@SAXPEAV_objref_StructuredProxyPullConsumer@2@AEAVcdrStream@@@Z
?_marshalObjRef@StructuredProxyPullSupplier@CosNotifyChannelAdmin@@SAXPEAV_objref_StructuredProxyPullSupplier@2@AEAVcdrStream@@@Z
?_marshalObjRef@StructuredProxyPushConsumer@CosNotifyChannelAdmin@@SAXPEAV_objref_StructuredProxyPushConsumer@2@AEAVcdrStream@@@Z
?_marshalObjRef@StructuredProxyPushSupplier@CosNotifyChannelAdmin@@SAXPEAV_objref_StructuredProxyPushSupplier@2@AEAVcdrStream@@@Z
?_marshalObjRef@StructuredPullConsumer@CosNotifyComm@@SAXPEAV_objref_StructuredPullConsumer@2@AEAVcdrStream@@@Z
?_marshalObjRef@StructuredPullSupplier@CosNotifyComm@@SAXPEAV_objref_StructuredPullSupplier@2@AEAVcdrStream@@@Z
?_marshalObjRef@StructuredPushConsumer@CosNotifyComm@@SAXPEAV_objref_StructuredPushConsumer@2@AEAVcdrStream@@@Z
?_marshalObjRef@StructuredPushSupplier@CosNotifyComm@@SAXPEAV_objref_StructuredPushSupplier@2@AEAVcdrStream@@@Z
?_marshalObjRef@SupplierAdmin@CosEventChannelAdmin@@SAXPEAV_objref_SupplierAdmin@2@AEAVcdrStream@@@Z
?_marshalObjRef@SupplierAdmin@CosNotifyChannelAdmin@@SAXPEAV_objref_SupplierAdmin@2@AEAVcdrStream@@@Z
?_marshalObjRef@TIO@CosTime@@SAXPEAV_objref_TIO@2@AEAVcdrStream@@@Z
?_marshalObjRef@TimeService@CosTime@@SAXPEAV_objref_TimeService@2@AEAVcdrStream@@@Z
?_marshalObjRef@UTO@CosTime@@SAXPEAV_objref_UTO@2@AEAVcdrStream@@@Z
?_mostDerivedRepoId@_impl_AdminPropertiesAdmin@CosNotification@@$0PPPPPPPM@A@EAAPEBDXZ
?_mostDerivedRepoId@_impl_AdminPropertiesAdmin@CosNotification@@$R0BA@7PPPPPPPM@BI@EAAPEBDXZ
?_mostDerivedRepoId@_impl_AdminPropertiesAdmin@CosNotification@@EEAAPEBDXZ
?_mostDerivedRepoId@_impl_ConsumerAdmin@CosEventChannelAdmin@@$0PPPPPPPM@A@EAAPEBDXZ
?_mostDerivedRepoId@_impl_ConsumerAdmin@CosEventChannelAdmin@@$R0BA@7PPPPPPPM@BI@EAAPEBDXZ
?_mostDerivedRepoId@_impl_ConsumerAdmin@CosEventChannelAdmin@@EEAAPEBDXZ
?_mostDerivedRepoId@_impl_ConsumerAdmin@CosNotifyChannelAdmin@@$0PPPPPPPM@A@EAAPEBDXZ
?_mostDerivedRepoId@_impl_ConsumerAdmin@CosNotifyChannelAdmin@@$R0BA@BI@PPPPPPPM@BI@EAAPEBDXZ
?_mostDerivedRepoId@_impl_ConsumerAdmin@CosNotifyChannelAdmin@@EEAAPEBDXZ
?_mostDerivedRepoId@_impl_EventChannel@CosEventChannelAdmin@@$0PPPPPPPM@A@EAAPEBDXZ
?_mostDerivedRepoId@_impl_EventChannel@CosEventChannelAdmin@@$R0BA@7PPPPPPPM@BI@EAAPEBDXZ
?_mostDerivedRepoId@_impl_EventChannel@CosEventChannelAdmin@@EEAAPEBDXZ
?_mostDerivedRepoId@_impl_EventChannel@CosNotifyChannelAdmin@@$0PPPPPPPM@A@EAAPEBDXZ
?_mostDerivedRepoId@_impl_EventChannel@CosNotifyChannelAdmin@@$R0BA@BE@PPPPPPPM@BI@EAAPEBDXZ
?_mostDerivedRepoId@_impl_EventChannel@CosNotifyChannelAdmin@@EEAAPEBDXZ
?_mostDerivedRepoId@_impl_EventChannelFactory@CosNotifyChannelAdmin@@$0PPPPPPPM@A@EAAPEBDXZ
?_mostDerivedRepoId@_impl_EventChannelFactory@CosNotifyChannelAdmin@@$R0BA@7PPPPPPPM@BI@EAAPEBDXZ
?_mostDerivedRepoId@_impl_EventChannelFactory@CosNotifyChannelAdmin@@EEAAPEBDXZ
?_mostDerivedRepoId@_impl_FactoryFinder@CosLifeCycle@@$0PPPPPPPM@A@EAAPEBDXZ
?_mostDerivedRepoId@_impl_FactoryFinder@CosLifeCycle@@$R0BA@7PPPPPPPM@BI@EAAPEBDXZ
?_mostDerivedRepoId@_impl_FactoryFinder@CosLifeCycle@@EEAAPEBDXZ
?_mostDerivedRepoId@_impl_Filter@CosNotifyFilter@@$0PPPPPPPM@A@EAAPEBDXZ
?_mostDerivedRepoId@_impl_Filter@CosNotifyFilter@@$R0BA@7PPPPPPPM@BI@EAAPEBDXZ
?_mostDerivedRepoId@_impl_Filter@CosNotifyFilter@@EEAAPEBDXZ
?_mostDerivedRepoId@_impl_FilterAdmin@CosNotifyFilter@@$0PPPPPPPM@A@EAAPEBDXZ
?_mostDerivedRepoId@_impl_FilterAdmin@CosNotifyFilter@@$R0BA@7PPPPPPPM@BI@EAAPEBDXZ
?_mostDerivedRepoId@_impl_FilterAdmin@CosNotifyFilter@@EEAAPEBDXZ
?_mostDerivedRepoId@_impl_FilterFactory@CosNotifyFilter@@$0PPPPPPPM@A@EAAPEBDXZ
?_mostDerivedRepoId@_impl_FilterFactory@CosNotifyFilter@@$R0BA@7PPPPPPPM@BI@EAAPEBDXZ
?_mostDerivedRepoId@_impl_FilterFactory@CosNotifyFilter@@EEAAPEBDXZ
?_mostDerivedRepoId@_impl_GenericFactory@CosLifeCycle@@$0PPPPPPPM@A@EAAPEBDXZ
?_mostDerivedRepoId@_impl_GenericFactory@CosLifeCycle@@$R0BA@7PPPPPPPM@BI@EAAPEBDXZ
?_mostDerivedRepoId@_impl_GenericFactory@CosLifeCycle@@EEAAPEBDXZ
?_mostDerivedRepoId@_impl_LifeCycleObject@CosLifeCycle@@$0PPPPPPPM@A@EAAPEBDXZ
?_mostDerivedRepoId@_impl_LifeCycleObject@CosLifeCycle@@$R0BA@7PPPPPPPM@BI@EAAPEBDXZ
?_mostDerivedRepoId@_impl_LifeCycleObject@CosLifeCycle@@EEAAPEBDXZ
?_mostDerivedRepoId@_impl_MappingFilter@CosNotifyFilter@@$0PPPPPPPM@A@EAAPEBDXZ
?_mostDerivedRepoId@_impl_MappingFilter@CosNotifyFilter@@$R0BA@7PPPPPPPM@BI@EAAPEBDXZ
?_mostDerivedRepoId@_impl_MappingFilter@CosNotifyFilter@@EEAAPEBDXZ
?_mostDerivedRepoId@_impl_NotifyPublish@CosNotifyComm@@$0PPPPPPPM@A@EAAPEBDXZ
?_mostDerivedRepoId@_impl_NotifyPublish@CosNotifyComm@@$R0BA@7PPPPPPPM@BI@EAAPEBDXZ
?_mostDerivedRepoId@_impl_NotifyPublish@CosNotifyComm@@EEAAPEBDXZ
?_mostDerivedRepoId@_impl_NotifySubscribe@CosNotifyComm@@$0PPPPPPPM@A@EAAPEBDXZ
?_mostDerivedRepoId@_impl_NotifySubscribe@CosNotifyComm@@$R0BA@7PPPPPPPM@BI@EAAPEBDXZ
?_mostDerivedRepoId@_impl_NotifySubscribe@CosNotifyComm@@EEAAPEBDXZ
?_mostDerivedRepoId@_impl_ProxyConsumer@CosNotifyChannelAdmin@@$0PPPPPPPM@A@EAAPEBDXZ
?_mostDerivedRepoId@_impl_ProxyConsumer@CosNotifyChannelAdmin@@$R0BA@BA@PPPPPPPM@BI@EAAPEBDXZ
?_mostDerivedRepoId@_impl_ProxyConsumer@CosNotifyChannelAdmin@@EEAAPEBDXZ
?_mostDerivedRepoId@_impl_ProxyPullConsumer@CosEventChannelAdmin@@$0PPPPPPPM@A@EAAPEBDXZ
?_mostDerivedRepoId@_impl_ProxyPullConsumer@CosEventChannelAdmin@@$R0BA@M@PPPPPPPM@BI@EAAPEBDXZ
?_mostDerivedRepoId@_impl_ProxyPullConsumer@CosEventChannelAdmin@@EEAAPEBDXZ
?_mostDerivedRepoId@_impl_ProxyPullConsumer@CosNotifyChannelAdmin@@$0PPPPPPPM@A@EAAPEBDXZ
?_mostDerivedRepoId@_impl_ProxyPullConsumer@CosNotifyChannelAdmin@@$R0BA@CA@PPPPPPPM@BI@EAAPEBDXZ
?_mostDerivedRepoId@_impl_ProxyPullConsumer@CosNotifyChannelAdmin@@EEAAPEBDXZ
?_mostDerivedRepoId@_impl_ProxyPullSupplier@CosEventChannelAdmin@@$0PPPPPPPM@A@EAAPEBDXZ
?_mostDerivedRepoId@_impl_ProxyPullSupplier@CosEventChannelAdmin@@$R0BA@M@PPPPPPPM@BI@EAAPEBDXZ
?_mostDerivedRepoId@_impl_ProxyPullSupplier@CosEventChannelAdmin@@EEAAPEBDXZ
?_mostDerivedRepoId@_impl_ProxyPullSupplier@CosNotifyChannelAdmin@@$0PPPPPPPM@A@EAAPEBDXZ
?_mostDerivedRepoId@_impl_ProxyPullSupplier@CosNotifyChannelAdmin@@$R0BA@CA@PPPPPPPM@BI@EAAPEBDXZ
?_mostDerivedRepoId@_impl_ProxyPullSupplier@CosNotifyChannelAdmin@@EEAAPEBDXZ
?_mostDerivedRepoId@_impl_ProxyPushConsumer@CosEventChannelAdmin@@$0PPPPPPPM@A@EAAPEBDXZ
?_mostDerivedRepoId@_impl_ProxyPushConsumer@CosEventChannelAdmin@@$R0BA@M@PPPPPPPM@BI@EAAPEBDXZ
?_mostDerivedRepoId@_impl_ProxyPushConsumer@CosEventChannelAdmin@@EEAAPEBDXZ
?_mostDerivedRepoId@_impl_ProxyPushConsumer@CosNotifyChannelAdmin@@$0PPPPPPPM@A@EAAPEBDXZ
?_mostDerivedRepoId@_impl_ProxyPushConsumer@CosNotifyChannelAdmin@@$R0BA@CA@PPPPPPPM@BI@EAAPEBDXZ
?_mostDerivedRepoId@_impl_ProxyPushConsumer@CosNotifyChannelAdmin@@EEAAPEBDXZ
?_mostDerivedRepoId@_impl_ProxyPushSupplier@CosEventChannelAdmin@@$0PPPPPPPM@A@EAAPEBDXZ
?_mostDerivedRepoId@_impl_ProxyPushSupplier@CosEventChannelAdmin@@$R0BA@M@PPPPPPPM@BI@EAAPEBDXZ
?_mostDerivedRepoId@_impl_ProxyPushSupplier@CosEventChannelAdmin@@EEAAPEBDXZ
?_mostDerivedRepoId@_impl_ProxyPushSupplier@CosNotifyChannelAdmin@@$0PPPPPPPM@A@EAAPEBDXZ
?_mostDerivedRepoId@_impl_ProxyPushSupplier@CosNotifyChannelAdmin@@$R0BA@CA@PPPPPPPM@BI@EAAPEBDXZ
?_mostDerivedRepoId@_impl_ProxyPushSupplier@CosNotifyChannelAdmin@@EEAAPEBDXZ
?_mostDerivedRepoId@_impl_ProxySupplier@CosNotifyChannelAdmin@@$0PPPPPPPM@A@EAAPEBDXZ
?_mostDerivedRepoId@_impl_ProxySupplier@CosNotifyChannelAdmin@@$R0BA@BA@PPPPPPPM@BI@EAAPEBDXZ
?_mostDerivedRepoId@_impl_ProxySupplier@CosNotifyChannelAdmin@@EEAAPEBDXZ
?_mostDerivedRepoId@_impl_PullConsumer@CosEventComm@@$0PPPPPPPM@A@EAAPEBDXZ
?_mostDerivedRepoId@_impl_PullConsumer@CosEventComm@@$R0BA@7PPPPPPPM@BI@EAAPEBDXZ
?_mostDerivedRepoId@_impl_PullConsumer@CosEventComm@@EEAAPEBDXZ
?_mostDerivedRepoId@_impl_PullConsumer@CosNotifyComm@@$0PPPPPPPM@A@EAAPEBDXZ
?_mostDerivedRepoId@_impl_PullConsumer@CosNotifyComm@@$R0BA@BA@PPPPPPPM@BA@EAAPEBDXZ
?_mostDerivedRepoId@_impl_PullConsumer@CosNotifyComm@@EEAAPEBDXZ
?_mostDerivedRepoId@_impl_PullSupplier@CosEventComm@@$0PPPPPPPM@A@EAAPEBDXZ
?_mostDerivedRepoId@_impl_PullSupplier@CosEventComm@@$R0BA@7PPPPPPPM@BI@EAAPEBDXZ
?_mostDerivedRepoId@_impl_PullSupplier@CosEventComm@@EEAAPEBDXZ
?_mostDerivedRepoId@_impl_PullSupplier@CosNotifyComm@@$0PPPPPPPM@A@EAAPEBDXZ
?_mostDerivedRepoId@_impl_PullSupplier@CosNotifyComm@@$R0BA@BA@PPPPPPPM@BA@EAAPEBDXZ
?_mostDerivedRepoId@_impl_PullSupplier@CosNotifyComm@@EEAAPEBDXZ
?_mostDerivedRepoId@_impl_PushConsumer@CosEventComm@@$0PPPPPPPM@A@EAAPEBDXZ
?_mostDerivedRepoId@_impl_PushConsumer@CosEventComm@@$R0BA@7PPPPPPPM@BI@EAAPEBDXZ
?_mostDerivedRepoId@_impl_PushConsumer@CosEventComm@@EEAAPEBDXZ
?_mostDerivedRepoId@_impl_PushConsumer@CosNotifyComm@@$0PPPPPPPM@A@EAAPEBDXZ
?_mostDerivedRepoId@_impl_PushConsumer@CosNotifyComm@@$R0BA@BA@PPPPPPPM@BA@EAAPEBDXZ
?_mostDerivedRepoId@_impl_PushConsumer@CosNotifyComm@@EEAAPEBDXZ
?_mostDerivedRepoId@_impl_PushSupplier@CosEventComm@@$0PPPPPPPM@A@EAAPEBDXZ
?_mostDerivedRepoId@_impl_PushSupplier@CosEventComm@@$R0BA@7PPPPPPPM@BI@EAAPEBDXZ
?_mostDerivedRepoId@_impl_PushSupplier@CosEventComm@@EEAAPEBDXZ
?_mostDerivedRepoId@_impl_PushSupplier@CosNotifyComm@@$0PPPPPPPM@A@EAAPEBDXZ
?_mostDerivedRepoId@_impl_PushSupplier@CosNotifyComm@@$R0BA@BA@PPPPPPPM@BA@EAAPEBDXZ
?_mostDerivedRepoId@_impl_PushSupplier@CosNotifyComm@@EEAAPEBDXZ
?_mostDerivedRepoId@_impl_QoSAdmin@CosNotification@@$0PPPPPPPM@A@EAAPEBDXZ
?_mostDerivedRepoId@_impl_QoSAdmin@CosNotification@@$R0BA@7PPPPPPPM@BI@EAAPEBDXZ
?_mostDerivedRepoId@_impl_QoSAdmin@CosNotification@@EEAAPEBDXZ
?_mostDerivedRepoId@_impl_SequenceProxyPullConsumer@CosNotifyChannelAdmin@@$0PPPPPPPM@A@EAAPEBDXZ
?_mostDerivedRepoId@_impl_SequenceProxyPullConsumer@CosNotifyChannelAdmin@@$R0BA@BM@PPPPPPPM@BI@EAAPEBDXZ
?_mostDerivedRepoId@_impl_SequenceProxyPullConsumer@CosNotifyChannelAdmin@@EEAAPEBDXZ
?_mostDerivedRepoId@_impl_SequenceProxyPullSupplier@CosNotifyChannelAdmin@@$0PPPPPPPM@A@EAAPEBDXZ
?_mostDerivedRepoId@_impl_SequenceProxyPullSupplier@CosNotifyChannelAdmin@@$R0BA@BM@PPPPPPPM@BI@EAAPEBDXZ
?_mostDerivedRepoId@_impl_SequenceProxyPullSupplier@CosNotifyChannelAdmin@@EEAAPEBDXZ
?_mostDerivedRepoId@_impl_SequenceProxyPushConsumer@CosNotifyChannelAdmin@@$0PPPPPPPM@A@EAAPEBDXZ
?_mostDerivedRepoId@_impl_SequenceProxyPushConsumer@CosNotifyChannelAdmin@@$R0BA@BM@PPPPPPPM@BI@EAAPEBDXZ
?_mostDerivedRepoId@_impl_SequenceProxyPushConsumer@CosNotifyChannelAdmin@@EEAAPEBDXZ
?_mostDerivedRepoId@_impl_SequenceProxyPushSupplier@CosNotifyChannelAdmin@@$0PPPPPPPM@A@EAAPEBDXZ
?_mostDerivedRepoId@_impl_SequenceProxyPushSupplier@CosNotifyChannelAdmin@@$R0BA@BM@PPPPPPPM@BI@EAAPEBDXZ
?_mostDerivedRepoId@_impl_SequenceProxyPushSupplier@CosNotifyChannelAdmin@@EEAAPEBDXZ
?_mostDerivedRepoId@_impl_SequencePullConsumer@CosNotifyComm@@$0PPPPPPPM@A@EAAPEBDXZ
?_mostDerivedRepoId@_impl_SequencePullConsumer@CosNotifyComm@@$R0BA@M@PPPPPPPM@BI@EAAPEBDXZ
?_mostDerivedRepoId@_impl_SequencePullConsumer@CosNotifyComm@@EEAAPEBDXZ
?_mostDerivedRepoId@_impl_SequencePullSupplier@CosNotifyComm@@$0PPPPPPPM@A@EAAPEBDXZ
?_mostDerivedRepoId@_impl_SequencePullSupplier@CosNotifyComm@@$R0BA@M@PPPPPPPM@BI@EAAPEBDXZ
?_mostDerivedRepoId@_impl_SequencePullSupplier@CosNotifyComm@@EEAAPEBDXZ
?_mostDerivedRepoId@_impl_SequencePushConsumer@CosNotifyComm@@$0PPPPPPPM@A@EAAPEBDXZ
?_mostDerivedRepoId@_impl_SequencePushConsumer@CosNotifyComm@@$R0BA@M@PPPPPPPM@BI@EAAPEBDXZ
?_mostDerivedRepoId@_impl_SequencePushConsumer@CosNotifyComm@@EEAAPEBDXZ
?_mostDerivedRepoId@_impl_SequencePushSupplier@CosNotifyComm@@$0PPPPPPPM@A@EAAPEBDXZ
?_mostDerivedRepoId@_impl_SequencePushSupplier@CosNotifyComm@@$R0BA@M@PPPPPPPM@BI@EAAPEBDXZ
?_mostDerivedRepoId@_impl_SequencePushSupplier@CosNotifyComm@@EEAAPEBDXZ
?_mostDerivedRepoId@_impl_StructuredProxyPullConsumer@CosNotifyChannelAdmin@@$0PPPPPPPM@A@EAAPEBDXZ
?_mostDerivedRepoId@_impl_StructuredProxyPullConsumer@CosNotifyChannelAdmin@@$R0BA@BM@PPPPPPPM@BI@EAAPEBDXZ
?_mostDerivedRepoId@_impl_StructuredProxyPullConsumer@CosNotifyChannelAdmin@@EEAAPEBDXZ
?_mostDerivedRepoId@_impl_StructuredProxyPullSupplier@CosNotifyChannelAdmin@@$0PPPPPPPM@A@EAAPEBDXZ
?_mostDerivedRepoId@_impl_StructuredProxyPullSupplier@CosNotifyChannelAdmin@@$R0BA@BM@PPPPPPPM@BI@EAAPEBDXZ
?_mostDerivedRepoId@_impl_StructuredProxyPullSupplier@CosNotifyChannelAdmin@@EEAAPEBDXZ
?_mostDerivedRepoId@_impl_StructuredProxyPushConsumer@CosNotifyChannelAdmin@@$0PPPPPPPM@A@EAAPEBDXZ
?_mostDerivedRepoId@_impl_StructuredProxyPushConsumer@CosNotifyChannelAdmin@@$R0BA@BM@PPPPPPPM@BI@EAAPEBDXZ
?_mostDerivedRepoId@_impl_StructuredProxyPushConsumer@CosNotifyChannelAdmin@@EEAAPEBDXZ
?_mostDerivedRepoId@_impl_StructuredProxyPushSupplier@CosNotifyChannelAdmin@@$0PPPPPPPM@A@EAAPEBDXZ
?_mostDerivedRepoId@_impl_StructuredProxyPushSupplier@CosNotifyChannelAdmin@@$R0BA@BM@PPPPPPPM@BI@EAAPEBDXZ
?_mostDerivedRepoId@_impl_StructuredProxyPushSupplier@CosNotifyChannelAdmin@@EEAAPEBDXZ
?_mostDerivedRepoId@_impl_StructuredPullConsumer@CosNotifyComm@@$0PPPPPPPM@A@EAAPEBDXZ
?_mostDerivedRepoId@_impl_StructuredPullConsumer@CosNotifyComm@@$R0BA@M@PPPPPPPM@BI@EAAPEBDXZ
?_mostDerivedRepoId@_impl_StructuredPullConsumer@CosNotifyComm@@EEAAPEBDXZ
?_mostDerivedRepoId@_impl_StructuredPullSupplier@CosNotifyComm@@$0PPPPPPPM@A@EAAPEBDXZ
?_mostDerivedRepoId@_impl_StructuredPullSupplier@CosNotifyComm@@$R0BA@M@PPPPPPPM@BI@EAAPEBDXZ
?_mostDerivedRepoId@_impl_StructuredPullSupplier@CosNotifyComm@@EEAAPEBDXZ
?_mostDerivedRepoId@_impl_StructuredPushConsumer@CosNotifyComm@@$0PPPPPPPM@A@EAAPEBDXZ
?_mostDerivedRepoId@_impl_StructuredPushConsumer@CosNotifyComm@@$R0BA@M@PPPPPPPM@BI@EAAPEBDXZ
?_mostDerivedRepoId@_impl_StructuredPushConsumer@CosNotifyComm@@EEAAPEBDXZ
?_mostDerivedRepoId@_impl_StructuredPushSupplier@CosNotifyComm@@$0PPPPPPPM@A@EAAPEBDXZ
?_mostDerivedRepoId@_impl_StructuredPushSupplier@CosNotifyComm@@$R0BA@M@PPPPPPPM@BI@EAAPEBDXZ
?_mostDerivedRepoId@_impl_StructuredPushSupplier@CosNotifyComm@@EEAAPEBDXZ
?_mostDerivedRepoId@_impl_SupplierAdmin@CosEventChannelAdmin@@$0PPPPPPPM@A@EAAPEBDXZ
?_mostDerivedRepoId@_impl_SupplierAdmin@CosEventChannelAdmin@@$R0BA@7PPPPPPPM@BI@EAAPEBDXZ
?_mostDerivedRepoId@_impl_SupplierAdmin@CosEventChannelAdmin@@EEAAPEBDXZ
?_mostDerivedRepoId@_impl_SupplierAdmin@CosNotifyChannelAdmin@@$0PPPPPPPM@A@EAAPEBDXZ
?_mostDerivedRepoId@_impl_SupplierAdmin@CosNotifyChannelAdmin@@$R0BA@BI@PPPPPPPM@BI@EAAPEBDXZ
?_mostDerivedRepoId@_impl_SupplierAdmin@CosNotifyChannelAdmin@@EEAAPEBDXZ
?_mostDerivedRepoId@_impl_TIO@CosTime@@$0PPPPPPPM@A@EAAPEBDXZ
?_mostDerivedRepoId@_impl_TIO@CosTime@@$R0BA@7PPPPPPPM@BI@EAAPEBDXZ
?_mostDerivedRepoId@_impl_TIO@CosTime@@EEAAPEBDXZ
?_mostDerivedRepoId@_impl_TimeService@CosTime@@$0PPPPPPPM@A@EAAPEBDXZ
?_mostDerivedRepoId@_impl_TimeService@CosTime@@$R0BA@7PPPPPPPM@BI@EAAPEBDXZ
?_mostDerivedRepoId@_impl_TimeService@CosTime@@EEAAPEBDXZ
?_mostDerivedRepoId@_impl_UTO@CosTime@@$0PPPPPPPM@A@EAAPEBDXZ
?_mostDerivedRepoId@_impl_UTO@CosTime@@$R0BA@7PPPPPPPM@BI@EAAPEBDXZ
?_mostDerivedRepoId@_impl_UTO@CosTime@@EEAAPEBDXZ
?_narrow@AdminPropertiesAdmin@CosNotification@@SAPEAV_objref_AdminPropertiesAdmin@2@PEAVObject@CORBA@@@Z
?_narrow@ConsumerAdmin@CosEventChannelAdmin@@SAPEAV_objref_ConsumerAdmin@2@PEAVObject@CORBA@@@Z
?_narrow@ConsumerAdmin@CosNotifyChannelAdmin@@SAPEAV_objref_ConsumerAdmin@2@PEAVObject@CORBA@@@Z
?_narrow@EventChannel@CosEventChannelAdmin@@SAPEAV_objref_EventChannel@2@PEAVObject@CORBA@@@Z
?_narrow@EventChannel@CosNotifyChannelAdmin@@SAPEAV_objref_EventChannel@2@PEAVObject@CORBA@@@Z
?_narrow@EventChannelFactory@CosNotifyChannelAdmin@@SAPEAV_objref_EventChannelFactory@2@PEAVObject@CORBA@@@Z
?_narrow@FactoryFinder@CosLifeCycle@@SAPEAV_objref_FactoryFinder@2@PEAVObject@CORBA@@@Z
?_narrow@Filter@CosNotifyFilter@@SAPEAV_objref_Filter@2@PEAVObject@CORBA@@@Z
?_narrow@FilterAdmin@CosNotifyFilter@@SAPEAV_objref_FilterAdmin@2@PEAVObject@CORBA@@@Z
?_narrow@FilterFactory@CosNotifyFilter@@SAPEAV_objref_FilterFactory@2@PEAVObject@CORBA@@@Z
?_narrow@GenericFactory@CosLifeCycle@@SAPEAV_objref_GenericFactory@2@PEAVObject@CORBA@@@Z
?_narrow@LifeCycleObject@CosLifeCycle@@SAPEAV_objref_LifeCycleObject@2@PEAVObject@CORBA@@@Z
?_narrow@MappingFilter@CosNotifyFilter@@SAPEAV_objref_MappingFilter@2@PEAVObject@CORBA@@@Z
?_narrow@NotifyPublish@CosNotifyComm@@SAPEAV_objref_NotifyPublish@2@PEAVObject@CORBA@@@Z
?_narrow@NotifySubscribe@CosNotifyComm@@SAPEAV_objref_NotifySubscribe@2@PEAVObject@CORBA@@@Z
?_narrow@ProxyConsumer@CosNotifyChannelAdmin@@SAPEAV_objref_ProxyConsumer@2@PEAVObject@CORBA@@@Z
?_narrow@ProxyPullConsumer@CosEventChannelAdmin@@SAPEAV_objref_ProxyPullConsumer@2@PEAVObject@CORBA@@@Z
?_narrow@ProxyPullConsumer@CosNotifyChannelAdmin@@SAPEAV_objref_ProxyPullConsumer@2@PEAVObject@CORBA@@@Z
?_narrow@ProxyPullSupplier@CosEventChannelAdmin@@SAPEAV_objref_ProxyPullSupplier@2@PEAVObject@CORBA@@@Z
?_narrow@ProxyPullSupplier@CosNotifyChannelAdmin@@SAPEAV_objref_ProxyPullSupplier@2@PEAVObject@CORBA@@@Z
?_narrow@ProxyPushConsumer@CosEventChannelAdmin@@SAPEAV_objref_ProxyPushConsumer@2@PEAVObject@CORBA@@@Z
?_narrow@ProxyPushConsumer@CosNotifyChannelAdmin@@SAPEAV_objref_ProxyPushConsumer@2@PEAVObject@CORBA@@@Z
?_narrow@ProxyPushSupplier@CosEventChannelAdmin@@SAPEAV_objref_ProxyPushSupplier@2@PEAVObject@CORBA@@@Z
?_narrow@ProxyPushSupplier@CosNotifyChannelAdmin@@SAPEAV_objref_ProxyPushSupplier@2@PEAVObject@CORBA@@@Z
?_narrow@ProxySupplier@CosNotifyChannelAdmin@@SAPEAV_objref_ProxySupplier@2@PEAVObject@CORBA@@@Z
?_narrow@PullConsumer@CosEventComm@@SAPEAV_objref_PullConsumer@2@PEAVObject@CORBA@@@Z
?_narrow@PullConsumer@CosNotifyComm@@SAPEAV_objref_PullConsumer@2@PEAVObject@CORBA@@@Z
?_narrow@PullSupplier@CosEventComm@@SAPEAV_objref_PullSupplier@2@PEAVObject@CORBA@@@Z
?_narrow@PullSupplier@CosNotifyComm@@SAPEAV_objref_PullSupplier@2@PEAVObject@CORBA@@@Z
?_narrow@PushConsumer@CosEventComm@@SAPEAV_objref_PushConsumer@2@PEAVObject@CORBA@@@Z
?_narrow@PushConsumer@CosNotifyComm@@SAPEAV_objref_PushConsumer@2@PEAVObject@CORBA@@@Z
?_narrow@PushSupplier@CosEventComm@@SAPEAV_objref_PushSupplier@2@PEAVObject@CORBA@@@Z
?_narrow@PushSupplier@CosNotifyComm@@SAPEAV_objref_PushSupplier@2@PEAVObject@CORBA@@@Z
?_narrow@QoSAdmin@CosNotification@@SAPEAV_objref_QoSAdmin@2@PEAVObject@CORBA@@@Z
?_narrow@SequenceProxyPullConsumer@CosNotifyChannelAdmin@@SAPEAV_objref_SequenceProxyPullConsumer@2@PEAVObject@CORBA@@@Z
?_narrow@SequenceProxyPullSupplier@CosNotifyChannelAdmin@@SAPEAV_objref_SequenceProxyPullSupplier@2@PEAVObject@CORBA@@@Z
?_narrow@SequenceProxyPushConsumer@CosNotifyChannelAdmin@@SAPEAV_objref_SequenceProxyPushConsumer@2@PEAVObject@CORBA@@@Z
?_narrow@SequenceProxyPushSupplier@CosNotifyChannelAdmin@@SAPEAV_objref_SequenceProxyPushSupplier@2@PEAVObject@CORBA@@@Z
?_narrow@SequencePullConsumer@CosNotifyComm@@SAPEAV_objref_SequencePullConsumer@2@PEAVObject@CORBA@@@Z
?_narrow@SequencePullSupplier@CosNotifyComm@@SAPEAV_objref_SequencePullSupplier@2@PEAVObject@CORBA@@@Z
?_narrow@SequencePushConsumer@CosNotifyComm@@SAPEAV_objref_SequencePushConsumer@2@PEAVObject@CORBA@@@Z
?_narrow@SequencePushSupplier@CosNotifyComm@@SAPEAV_objref_SequencePushSupplier@2@PEAVObject@CORBA@@@Z
?_narrow@StructuredProxyPullConsumer@CosNotifyChannelAdmin@@SAPEAV_objref_StructuredProxyPullConsumer@2@PEAVObject@CORBA@@@Z
?_narrow@StructuredProxyPullSupplier@CosNotifyChannelAdmin@@SAPEAV_objref_StructuredProxyPullSupplier@2@PEAVObject@CORBA@@@Z
?_narrow@StructuredProxyPushConsumer@CosNotifyChannelAdmin@@SAPEAV_objref_StructuredProxyPushConsumer@2@PEAVObject@CORBA@@@Z
?_narrow@StructuredProxyPushSupplier@CosNotifyChannelAdmin@@SAPEAV_objref_StructuredProxyPushSupplier@2@PEAVObject@CORBA@@@Z
?_narrow@StructuredPullConsumer@CosNotifyComm@@SAPEAV_objref_StructuredPullConsumer@2@PEAVObject@CORBA@@@Z
?_narrow@StructuredPullSupplier@CosNotifyComm@@SAPEAV_objref_StructuredPullSupplier@2@PEAVObject@CORBA@@@Z
?_narrow@StructuredPushConsumer@CosNotifyComm@@SAPEAV_objref_StructuredPushConsumer@2@PEAVObject@CORBA@@@Z
?_narrow@StructuredPushSupplier@CosNotifyComm@@SAPEAV_objref_StructuredPushSupplier@2@PEAVObject@CORBA@@@Z
?_narrow@SupplierAdmin@CosEventChannelAdmin@@SAPEAV_objref_SupplierAdmin@2@PEAVObject@CORBA@@@Z
?_narrow@SupplierAdmin@CosNotifyChannelAdmin@@SAPEAV_objref_SupplierAdmin@2@PEAVObject@CORBA@@@Z
?_narrow@TIO@CosTime@@SAPEAV_objref_TIO@2@PEAVObject@CORBA@@@Z
?_narrow@TimeService@CosTime@@SAPEAV_objref_TimeService@2@PEAVObject@CORBA@@@Z
?_narrow@UTO@CosTime@@SAPEAV_objref_UTO@2@PEAVObject@CORBA@@@Z
?_nil@AdminPropertiesAdmin@CosNotification@@SAPEAV_objref_AdminPropertiesAdmin@2@XZ
?_nil@AdminPropertiesAdmin_Helper@CosNotification@@SAPEAV_objref_AdminPropertiesAdmin@2@XZ
?_nil@ConsumerAdmin@CosEventChannelAdmin@@SAPEAV_objref_ConsumerAdmin@2@XZ
?_nil@ConsumerAdmin@CosNotifyChannelAdmin@@SAPEAV_objref_ConsumerAdmin@2@XZ
?_nil@ConsumerAdmin_Helper@CosEventChannelAdmin@@SAPEAV_objref_ConsumerAdmin@2@XZ
?_nil@ConsumerAdmin_Helper@CosNotifyChannelAdmin@@SAPEAV_objref_ConsumerAdmin@2@XZ
?_nil@EventChannel@CosEventChannelAdmin@@SAPEAV_objref_EventChannel@2@XZ
?_nil@EventChannel@CosNotifyChannelAdmin@@SAPEAV_objref_EventChannel@2@XZ
?_nil@EventChannelFactory@CosNotifyChannelAdmin@@SAPEAV_objref_EventChannelFactory@2@XZ
?_nil@EventChannelFactory_Helper@CosNotifyChannelAdmin@@SAPEAV_objref_EventChannelFactory@2@XZ
?_nil@EventChannel_Helper@CosEventChannelAdmin@@SAPEAV_objref_EventChannel@2@XZ
?_nil@EventChannel_Helper@CosNotifyChannelAdmin@@SAPEAV_objref_EventChannel@2@XZ
?_nil@FactoryFinder@CosLifeCycle@@SAPEAV_objref_FactoryFinder@2@XZ
?_nil@FactoryFinder_Helper@CosLifeCycle@@SAPEAV_objref_FactoryFinder@2@XZ
?_nil@Filter@CosNotifyFilter@@SAPEAV_objref_Filter@2@XZ
?_nil@FilterAdmin@CosNotifyFilter@@SAPEAV_objref_FilterAdmin@2@XZ
?_nil@FilterAdmin_Helper@CosNotifyFilter@@SAPEAV_objref_FilterAdmin@2@XZ
?_nil@FilterFactory@CosNotifyFilter@@SAPEAV_objref_FilterFactory@2@XZ
?_nil@FilterFactory_Helper@CosNotifyFilter@@SAPEAV_objref_FilterFactory@2@XZ
?_nil@Filter_Helper@CosNotifyFilter@@SAPEAV_objref_Filter@2@XZ
?_nil@GenericFactory@CosLifeCycle@@SAPEAV_objref_GenericFactory@2@XZ
?_nil@GenericFactory_Helper@CosLifeCycle@@SAPEAV_objref_GenericFactory@2@XZ
?_nil@LifeCycleObject@CosLifeCycle@@SAPEAV_objref_LifeCycleObject@2@XZ
?_nil@LifeCycleObject_Helper@CosLifeCycle@@SAPEAV_objref_LifeCycleObject@2@XZ
?_nil@MappingFilter@CosNotifyFilter@@SAPEAV_objref_MappingFilter@2@XZ
?_nil@MappingFilter_Helper@CosNotifyFilter@@SAPEAV_objref_MappingFilter@2@XZ
?_nil@NotifyPublish@CosNotifyComm@@SAPEAV_objref_NotifyPublish@2@XZ
?_nil@NotifyPublish_Helper@CosNotifyComm@@SAPEAV_objref_NotifyPublish@2@XZ
?_nil@NotifySubscribe@CosNotifyComm@@SAPEAV_objref_NotifySubscribe@2@XZ
?_nil@NotifySubscribe_Helper@CosNotifyComm@@SAPEAV_objref_NotifySubscribe@2@XZ
?_nil@ProxyConsumer@CosNotifyChannelAdmin@@SAPEAV_objref_ProxyConsumer@2@XZ
?_nil@ProxyConsumer_Helper@CosNotifyChannelAdmin@@SAPEAV_objref_ProxyConsumer@2@XZ
?_nil@ProxyPullConsumer@CosEventChannelAdmin@@SAPEAV_objref_ProxyPullConsumer@2@XZ
?_nil@ProxyPullConsumer@CosNotifyChannelAdmin@@SAPEAV_objref_ProxyPullConsumer@2@XZ
?_nil@ProxyPullConsumer_Helper@CosEventChannelAdmin@@SAPEAV_objref_ProxyPullConsumer@2@XZ
?_nil@ProxyPullConsumer_Helper@CosNotifyChannelAdmin@@SAPEAV_objref_ProxyPullConsumer@2@XZ
?_nil@ProxyPullSupplier@CosEventChannelAdmin@@SAPEAV_objref_ProxyPullSupplier@2@XZ
?_nil@ProxyPullSupplier@CosNotifyChannelAdmin@@SAPEAV_objref_ProxyPullSupplier@2@XZ
?_nil@ProxyPullSupplier_Helper@CosEventChannelAdmin@@SAPEAV_objref_ProxyPullSupplier@2@XZ
?_nil@ProxyPullSupplier_Helper@CosNotifyChannelAdmin@@SAPEAV_objref_ProxyPullSupplier@2@XZ
?_nil@ProxyPushConsumer@CosEventChannelAdmin@@SAPEAV_objref_ProxyPushConsumer@2@XZ
?_nil@ProxyPushConsumer@CosNotifyChannelAdmin@@SAPEAV_objref_ProxyPushConsumer@2@XZ
?_nil@ProxyPushConsumer_Helper@CosEventChannelAdmin@@SAPEAV_objref_ProxyPushConsumer@2@XZ
?_nil@ProxyPushConsumer_Helper@CosNotifyChannelAdmin@@SAPEAV_objref_ProxyPushConsumer@2@XZ
?_nil@ProxyPushSupplier@CosEventChannelAdmin@@SAPEAV_objref_ProxyPushSupplier@2@XZ
?_nil@ProxyPushSupplier@CosNotifyChannelAdmin@@SAPEAV_objref_ProxyPushSupplier@2@XZ
?_nil@ProxyPushSupplier_Helper@CosEventChannelAdmin@@SAPEAV_objref_ProxyPushSupplier@2@XZ
?_nil@ProxyPushSupplier_Helper@CosNotifyChannelAdmin@@SAPEAV_objref_ProxyPushSupplier@2@XZ
?_nil@ProxySupplier@CosNotifyChannelAdmin@@SAPEAV_objref_ProxySupplier@2@XZ
?_nil@ProxySupplier_Helper@CosNotifyChannelAdmin@@SAPEAV_objref_ProxySupplier@2@XZ
?_nil@PullConsumer@CosEventComm@@SAPEAV_objref_PullConsumer@2@XZ
?_nil@PullConsumer@CosNotifyComm@@SAPEAV_objref_PullConsumer@2@XZ
?_nil@PullConsumer_Helper@CosEventComm@@SAPEAV_objref_PullConsumer@2@XZ
?_nil@PullConsumer_Helper@CosNotifyComm@@SAPEAV_objref_PullConsumer@2@XZ
?_nil@PullSupplier@CosEventComm@@SAPEAV_objref_PullSupplier@2@XZ
?_nil@PullSupplier@CosNotifyComm@@SAPEAV_objref_PullSupplier@2@XZ
?_nil@PullSupplier_Helper@CosEventComm@@SAPEAV_objref_PullSupplier@2@XZ
?_nil@PullSupplier_Helper@CosNotifyComm@@SAPEAV_objref_PullSupplier@2@XZ
?_nil@PushConsumer@CosEventComm@@SAPEAV_objref_PushConsumer@2@XZ
?_nil@PushConsumer@CosNotifyComm@@SAPEAV_objref_PushConsumer@2@XZ
?_nil@PushConsumer_Helper@CosEventComm@@SAPEAV_objref_PushConsumer@2@XZ
?_nil@PushConsumer_Helper@CosNotifyComm@@SAPEAV_objref_PushConsumer@2@XZ
?_nil@PushSupplier@CosEventComm@@SAPEAV_objref_PushSupplier@2@XZ
?_nil@PushSupplier@CosNotifyComm@@SAPEAV_objref_PushSupplier@2@XZ
?_nil@PushSupplier_Helper@CosEventComm@@SAPEAV_objref_PushSupplier@2@XZ
?_nil@PushSupplier_Helper@CosNotifyComm@@SAPEAV_objref_PushSupplier@2@XZ
?_nil@QoSAdmin@CosNotification@@SAPEAV_objref_QoSAdmin@2@XZ
?_nil@QoSAdmin_Helper@CosNotification@@SAPEAV_objref_QoSAdmin@2@XZ
?_nil@SequenceProxyPullConsumer@CosNotifyChannelAdmin@@SAPEAV_objref_SequenceProxyPullConsumer@2@XZ
?_nil@SequenceProxyPullConsumer_Helper@CosNotifyChannelAdmin@@SAPEAV_objref_SequenceProxyPullConsumer@2@XZ
?_nil@SequenceProxyPullSupplier@CosNotifyChannelAdmin@@SAPEAV_objref_SequenceProxyPullSupplier@2@XZ
?_nil@SequenceProxyPullSupplier_Helper@CosNotifyChannelAdmin@@SAPEAV_objref_SequenceProxyPullSupplier@2@XZ
?_nil@SequenceProxyPushConsumer@CosNotifyChannelAdmin@@SAPEAV_objref_SequenceProxyPushConsumer@2@XZ
?_nil@SequenceProxyPushConsumer_Helper@CosNotifyChannelAdmin@@SAPEAV_objref_SequenceProxyPushConsumer@2@XZ
?_nil@SequenceProxyPushSupplier@CosNotifyChannelAdmin@@SAPEAV_objref_SequenceProxyPushSupplier@2@XZ
?_nil@SequenceProxyPushSupplier_Helper@CosNotifyChannelAdmin@@SAPEAV_objref_SequenceProxyPushSupplier@2@XZ
?_nil@SequencePullConsumer@CosNotifyComm@@SAPEAV_objref_SequencePullConsumer@2@XZ
?_nil@SequencePullConsumer_Helper@CosNotifyComm@@SAPEAV_objref_SequencePullConsumer@2@XZ
?_nil@SequencePullSupplier@CosNotifyComm@@SAPEAV_objref_SequencePullSupplier@2@XZ
?_nil@SequencePullSupplier_Helper@CosNotifyComm@@SAPEAV_objref_SequencePullSupplier@2@XZ
?_nil@SequencePushConsumer@CosNotifyComm@@SAPEAV_objref_SequencePushConsumer@2@XZ
?_nil@SequencePushConsumer_Helper@CosNotifyComm@@SAPEAV_objref_SequencePushConsumer@2@XZ
?_nil@SequencePushSupplier@CosNotifyComm@@SAPEAV_objref_SequencePushSupplier@2@XZ
?_nil@SequencePushSupplier_Helper@CosNotifyComm@@SAPEAV_objref_SequencePushSupplier@2@XZ
?_nil@StructuredProxyPullConsumer@CosNotifyChannelAdmin@@SAPEAV_objref_StructuredProxyPullConsumer@2@XZ
?_nil@StructuredProxyPullConsumer_Helper@CosNotifyChannelAdmin@@SAPEAV_objref_StructuredProxyPullConsumer@2@XZ
?_nil@StructuredProxyPullSupplier@CosNotifyChannelAdmin@@SAPEAV_objref_StructuredProxyPullSupplier@2@XZ
?_nil@StructuredProxyPullSupplier_Helper@CosNotifyChannelAdmin@@SAPEAV_objref_StructuredProxyPullSupplier@2@XZ
?_nil@StructuredProxyPushConsumer@CosNotifyChannelAdmin@@SAPEAV_objref_StructuredProxyPushConsumer@2@XZ
?_nil@StructuredProxyPushConsumer_Helper@CosNotifyChannelAdmin@@SAPEAV_objref_StructuredProxyPushConsumer@2@XZ
?_nil@StructuredProxyPushSupplier@CosNotifyChannelAdmin@@SAPEAV_objref_StructuredProxyPushSupplier@2@XZ
?_nil@StructuredProxyPushSupplier_Helper@CosNotifyChannelAdmin@@SAPEAV_objref_StructuredProxyPushSupplier@2@XZ
?_nil@StructuredPullConsumer@CosNotifyComm@@SAPEAV_objref_StructuredPullConsumer@2@XZ
?_nil@StructuredPullConsumer_Helper@CosNotifyComm@@SAPEAV_objref_StructuredPullConsumer@2@XZ
?_nil@StructuredPullSupplier@CosNotifyComm@@SAPEAV_objref_StructuredPullSupplier@2@XZ
?_nil@StructuredPullSupplier_Helper@CosNotifyComm@@SAPEAV_objref_StructuredPullSupplier@2@XZ
?_nil@StructuredPushConsumer@CosNotifyComm@@SAPEAV_objref_StructuredPushConsumer@2@XZ
?_nil@StructuredPushConsumer_Helper@CosNotifyComm@@SAPEAV_objref_StructuredPushConsumer@2@XZ
?_nil@StructuredPushSupplier@CosNotifyComm@@SAPEAV_objref_StructuredPushSupplier@2@XZ
?_nil@StructuredPushSupplier_Helper@CosNotifyComm@@SAPEAV_objref_StructuredPushSupplier@2@XZ
?_nil@SupplierAdmin@CosEventChannelAdmin@@SAPEAV_objref_SupplierAdmin@2@XZ
?_nil@SupplierAdmin@CosNotifyChannelAdmin@@SAPEAV_objref_SupplierAdmin@2@XZ
?_nil@SupplierAdmin_Helper@CosEventChannelAdmin@@SAPEAV_objref_SupplierAdmin@2@XZ
?_nil@SupplierAdmin_Helper@CosNotifyChannelAdmin@@SAPEAV_objref_SupplierAdmin@2@XZ
?_nil@TIO@CosTime@@SAPEAV_objref_TIO@2@XZ
?_nil@TIO_Helper@CosTime@@SAPEAV_objref_TIO@2@XZ
?_nil@TimeService@CosTime@@SAPEAV_objref_TimeService@2@XZ
?_nil@TimeService_Helper@CosTime@@SAPEAV_objref_TimeService@2@XZ
?_nil@UTO@CosTime@@SAPEAV_objref_UTO@2@XZ
?_nil@UTO_Helper@CosTime@@SAPEAV_objref_UTO@2@XZ
?_ptrToInterface@_impl_AdminPropertiesAdmin@CosNotification@@$0PPPPPPPM@A@EAAPEAXPEBD@Z
?_ptrToInterface@_impl_AdminPropertiesAdmin@CosNotification@@$R0BA@7PPPPPPPM@BI@EAAPEAXPEBD@Z
?_ptrToInterface@_impl_AdminPropertiesAdmin@CosNotification@@EEAAPEAXPEBD@Z
?_ptrToInterface@_impl_ConsumerAdmin@CosEventChannelAdmin@@$0PPPPPPPM@A@EAAPEAXPEBD@Z
?_ptrToInterface@_impl_ConsumerAdmin@CosEventChannelAdmin@@$R0BA@7PPPPPPPM@BI@EAAPEAXPEBD@Z
?_ptrToInterface@_impl_ConsumerAdmin@CosEventChannelAdmin@@EEAAPEAXPEBD@Z
?_ptrToInterface@_impl_ConsumerAdmin@CosNotifyChannelAdmin@@$0PPPPPPPM@A@EAAPEAXPEBD@Z
?_ptrToInterface@_impl_ConsumerAdmin@CosNotifyChannelAdmin@@$R0BA@BI@PPPPPPPM@BI@EAAPEAXPEBD@Z
?_ptrToInterface@_impl_ConsumerAdmin@CosNotifyChannelAdmin@@EEAAPEAXPEBD@Z
?_ptrToInterface@_impl_EventChannel@CosEventChannelAdmin@@$0PPPPPPPM@A@EAAPEAXPEBD@Z
?_ptrToInterface@_impl_EventChannel@CosEventChannelAdmin@@$R0BA@7PPPPPPPM@BI@EAAPEAXPEBD@Z
?_ptrToInterface@_impl_EventChannel@CosEventChannelAdmin@@EEAAPEAXPEBD@Z
?_ptrToInterface@_impl_EventChannel@CosNotifyChannelAdmin@@$0PPPPPPPM@A@EAAPEAXPEBD@Z
?_ptrToInterface@_impl_EventChannel@CosNotifyChannelAdmin@@$R0BA@BE@PPPPPPPM@BI@EAAPEAXPEBD@Z
?_ptrToInterface@_impl_EventChannel@CosNotifyChannelAdmin@@EEAAPEAXPEBD@Z
?_ptrToInterface@_impl_EventChannelFactory@CosNotifyChannelAdmin@@$0PPPPPPPM@A@EAAPEAXPEBD@Z
?_ptrToInterface@_impl_EventChannelFactory@CosNotifyChannelAdmin@@$R0BA@7PPPPPPPM@BI@EAAPEAXPEBD@Z
?_ptrToInterface@_impl_EventChannelFactory@CosNotifyChannelAdmin@@EEAAPEAXPEBD@Z
?_ptrToInterface@_impl_FactoryFinder@CosLifeCycle@@$0PPPPPPPM@A@EAAPEAXPEBD@Z
?_ptrToInterface@_impl_FactoryFinder@CosLifeCycle@@$R0BA@7PPPPPPPM@BI@EAAPEAXPEBD@Z
?_ptrToInterface@_impl_FactoryFinder@CosLifeCycle@@EEAAPEAXPEBD@Z
?_ptrToInterface@_impl_Filter@CosNotifyFilter@@$0PPPPPPPM@A@EAAPEAXPEBD@Z
?_ptrToInterface@_impl_Filter@CosNotifyFilter@@$R0BA@7PPPPPPPM@BI@EAAPEAXPEBD@Z
?_ptrToInterface@_impl_Filter@CosNotifyFilter@@EEAAPEAXPEBD@Z
?_ptrToInterface@_impl_FilterAdmin@CosNotifyFilter@@$0PPPPPPPM@A@EAAPEAXPEBD@Z
?_ptrToInterface@_impl_FilterAdmin@CosNotifyFilter@@$R0BA@7PPPPPPPM@BI@EAAPEAXPEBD@Z
?_ptrToInterface@_impl_FilterAdmin@CosNotifyFilter@@EEAAPEAXPEBD@Z
?_ptrToInterface@_impl_FilterFactory@CosNotifyFilter@@$0PPPPPPPM@A@EAAPEAXPEBD@Z
?_ptrToInterface@_impl_FilterFactory@CosNotifyFilter@@$R0BA@7PPPPPPPM@BI@EAAPEAXPEBD@Z
?_ptrToInterface@_impl_FilterFactory@CosNotifyFilter@@EEAAPEAXPEBD@Z
?_ptrToInterface@_impl_GenericFactory@CosLifeCycle@@$0PPPPPPPM@A@EAAPEAXPEBD@Z
?_ptrToInterface@_impl_GenericFactory@CosLifeCycle@@$R0BA@7PPPPPPPM@BI@EAAPEAXPEBD@Z
?_ptrToInterface@_impl_GenericFactory@CosLifeCycle@@EEAAPEAXPEBD@Z
?_ptrToInterface@_impl_LifeCycleObject@CosLifeCycle@@$0PPPPPPPM@A@EAAPEAXPEBD@Z
?_ptrToInterface@_impl_LifeCycleObject@CosLifeCycle@@$R0BA@7PPPPPPPM@BI@EAAPEAXPEBD@Z
?_ptrToInterface@_impl_LifeCycleObject@CosLifeCycle@@EEAAPEAXPEBD@Z
?_ptrToInterface@_impl_MappingFilter@CosNotifyFilter@@$0PPPPPPPM@A@EAAPEAXPEBD@Z
?_ptrToInterface@_impl_MappingFilter@CosNotifyFilter@@$R0BA@7PPPPPPPM@BI@EAAPEAXPEBD@Z
?_ptrToInterface@_impl_MappingFilter@CosNotifyFilter@@EEAAPEAXPEBD@Z
?_ptrToInterface@_impl_NotifyPublish@CosNotifyComm@@$0PPPPPPPM@A@EAAPEAXPEBD@Z
?_ptrToInterface@_impl_NotifyPublish@CosNotifyComm@@$R0BA@7PPPPPPPM@BI@EAAPEAXPEBD@Z
?_ptrToInterface@_impl_NotifyPublish@CosNotifyComm@@EEAAPEAXPEBD@Z
?_ptrToInterface@_impl_NotifySubscribe@CosNotifyComm@@$0PPPPPPPM@A@EAAPEAXPEBD@Z
?_ptrToInterface@_impl_NotifySubscribe@CosNotifyComm@@$R0BA@7PPPPPPPM@BI@EAAPEAXPEBD@Z
?_ptrToInterface@_impl_NotifySubscribe@CosNotifyComm@@EEAAPEAXPEBD@Z
?_ptrToInterface@_impl_ProxyConsumer@CosNotifyChannelAdmin@@$0PPPPPPPM@A@EAAPEAXPEBD@Z
?_ptrToInterface@_impl_ProxyConsumer@CosNotifyChannelAdmin@@$R0BA@BA@PPPPPPPM@BI@EAAPEAXPEBD@Z
?_ptrToInterface@_impl_ProxyConsumer@CosNotifyChannelAdmin@@EEAAPEAXPEBD@Z
?_ptrToInterface@_impl_ProxyPullConsumer@CosEventChannelAdmin@@$0PPPPPPPM@A@EAAPEAXPEBD@Z
?_ptrToInterface@_impl_ProxyPullConsumer@CosEventChannelAdmin@@$R0BA@M@PPPPPPPM@BI@EAAPEAXPEBD@Z
?_ptrToInterface@_impl_ProxyPullConsumer@CosEventChannelAdmin@@EEAAPEAXPEBD@Z
?_ptrToInterface@_impl_ProxyPullConsumer@CosNotifyChannelAdmin@@$0PPPPPPPM@A@EAAPEAXPEBD@Z
?_ptrToInterface@_impl_ProxyPullConsumer@CosNotifyChannelAdmin@@$R0BA@CA@PPPPPPPM@BI@EAAPEAXPEBD@Z
?_ptrToInterface@_impl_ProxyPullConsumer@CosNotifyChannelAdmin@@EEAAPEAXPEBD@Z
?_ptrToInterface@_impl_ProxyPullSupplier@CosEventChannelAdmin@@$0PPPPPPPM@A@EAAPEAXPEBD@Z
?_ptrToInterface@_impl_ProxyPullSupplier@CosEventChannelAdmin@@$R0BA@M@PPPPPPPM@BI@EAAPEAXPEBD@Z
?_ptrToInterface@_impl_ProxyPullSupplier@CosEventChannelAdmin@@EEAAPEAXPEBD@Z
?_ptrToInterface@_impl_ProxyPullSupplier@CosNotifyChannelAdmin@@$0PPPPPPPM@A@EAAPEAXPEBD@Z
?_ptrToInterface@_impl_ProxyPullSupplier@CosNotifyChannelAdmin@@$R0BA@CA@PPPPPPPM@BI@EAAPEAXPEBD@Z
?_ptrToInterface@_impl_ProxyPullSupplier@CosNotifyChannelAdmin@@EEAAPEAXPEBD@Z
?_ptrToInterface@_impl_ProxyPushConsumer@CosEventChannelAdmin@@$0PPPPPPPM@A@EAAPEAXPEBD@Z
?_ptrToInterface@_impl_ProxyPushConsumer@CosEventChannelAdmin@@$R0BA@M@PPPPPPPM@BI@EAAPEAXPEBD@Z
?_ptrToInterface@_impl_ProxyPushConsumer@CosEventChannelAdmin@@EEAAPEAXPEBD@Z
?_ptrToInterface@_impl_ProxyPushConsumer@CosNotifyChannelAdmin@@$0PPPPPPPM@A@EAAPEAXPEBD@Z
?_ptrToInterface@_impl_ProxyPushConsumer@CosNotifyChannelAdmin@@$R0BA@CA@PPPPPPPM@BI@EAAPEAXPEBD@Z
?_ptrToInterface@_impl_ProxyPushConsumer@CosNotifyChannelAdmin@@EEAAPEAXPEBD@Z
?_ptrToInterface@_impl_ProxyPushSupplier@CosEventChannelAdmin@@$0PPPPPPPM@A@EAAPEAXPEBD@Z
?_ptrToInterface@_impl_ProxyPushSupplier@CosEventChannelAdmin@@$R0BA@M@PPPPPPPM@BI@EAAPEAXPEBD@Z
?_ptrToInterface@_impl_ProxyPushSupplier@CosEventChannelAdmin@@EEAAPEAXPEBD@Z
?_ptrToInterface@_impl_ProxyPushSupplier@CosNotifyChannelAdmin@@$0PPPPPPPM@A@EAAPEAXPEBD@Z
?_ptrToInterface@_impl_ProxyPushSupplier@CosNotifyChannelAdmin@@$R0BA@CA@PPPPPPPM@BI@EAAPEAXPEBD@Z
?_ptrToInterface@_impl_ProxyPushSupplier@CosNotifyChannelAdmin@@EEAAPEAXPEBD@Z
?_ptrToInterface@_impl_ProxySupplier@CosNotifyChannelAdmin@@$0PPPPPPPM@A@EAAPEAXPEBD@Z
?_ptrToInterface@_impl_ProxySupplier@CosNotifyChannelAdmin@@$R0BA@BA@PPPPPPPM@BI@EAAPEAXPEBD@Z
?_ptrToInterface@_impl_ProxySupplier@CosNotifyChannelAdmin@@EEAAPEAXPEBD@Z
?_ptrToInterface@_impl_PullConsumer@CosEventComm@@$0PPPPPPPM@A@EAAPEAXPEBD@Z
?_ptrToInterface@_impl_PullConsumer@CosEventComm@@$R0BA@7PPPPPPPM@BI@EAAPEAXPEBD@Z
?_ptrToInterface@_impl_PullConsumer@CosEventComm@@EEAAPEAXPEBD@Z
?_ptrToInterface@_impl_PullConsumer@CosNotifyComm@@$0PPPPPPPM@A@EAAPEAXPEBD@Z
?_ptrToInterface@_impl_PullConsumer@CosNotifyComm@@$R0BA@BA@PPPPPPPM@BA@EAAPEAXPEBD@Z
?_ptrToInterface@_impl_PullConsumer@CosNotifyComm@@EEAAPEAXPEBD@Z
?_ptrToInterface@_impl_PullSupplier@CosEventComm@@$0PPPPPPPM@A@EAAPEAXPEBD@Z
?_ptrToInterface@_impl_PullSupplier@CosEventComm@@$R0BA@7PPPPPPPM@BI@EAAPEAXPEBD@Z
?_ptrToInterface@_impl_PullSupplier@CosEventComm@@EEAAPEAXPEBD@Z
?_ptrToInterface@_impl_PullSupplier@CosNotifyComm@@$0PPPPPPPM@A@EAAPEAXPEBD@Z
?_ptrToInterface@_impl_PullSupplier@CosNotifyComm@@$R0BA@BA@PPPPPPPM@BA@EAAPEAXPEBD@Z
?_ptrToInterface@_impl_PullSupplier@CosNotifyComm@@EEAAPEAXPEBD@Z
?_ptrToInterface@_impl_PushConsumer@CosEventComm@@$0PPPPPPPM@A@EAAPEAXPEBD@Z
?_ptrToInterface@_impl_PushConsumer@CosEventComm@@$R0BA@7PPPPPPPM@BI@EAAPEAXPEBD@Z
?_ptrToInterface@_impl_PushConsumer@CosEventComm@@EEAAPEAXPEBD@Z
?_ptrToInterface@_impl_PushConsumer@CosNotifyComm@@$0PPPPPPPM@A@EAAPEAXPEBD@Z
?_ptrToInterface@_impl_PushConsumer@CosNotifyComm@@$R0BA@BA@PPPPPPPM@BA@EAAPEAXPEBD@Z
?_ptrToInterface@_impl_PushConsumer@CosNotifyComm@@EEAAPEAXPEBD@Z
?_ptrToInterface@_impl_PushSupplier@CosEventComm@@$0PPPPPPPM@A@EAAPEAXPEBD@Z
?_ptrToInterface@_impl_PushSupplier@CosEventComm@@$R0BA@7PPPPPPPM@BI@EAAPEAXPEBD@Z
?_ptrToInterface@_impl_PushSupplier@CosEventComm@@EEAAPEAXPEBD@Z
?_ptrToInterface@_impl_PushSupplier@CosNotifyComm@@$0PPPPPPPM@A@EAAPEAXPEBD@Z
?_ptrToInterface@_impl_PushSupplier@CosNotifyComm@@$R0BA@BA@PPPPPPPM@BA@EAAPEAXPEBD@Z
?_ptrToInterface@_impl_PushSupplier@CosNotifyComm@@EEAAPEAXPEBD@Z
?_ptrToInterface@_impl_QoSAdmin@CosNotification@@$0PPPPPPPM@A@EAAPEAXPEBD@Z
?_ptrToInterface@_impl_QoSAdmin@CosNotification@@$R0BA@7PPPPPPPM@BI@EAAPEAXPEBD@Z
?_ptrToInterface@_impl_QoSAdmin@CosNotification@@EEAAPEAXPEBD@Z
?_ptrToInterface@_impl_SequenceProxyPullConsumer@CosNotifyChannelAdmin@@$0PPPPPPPM@A@EAAPEAXPEBD@Z
?_ptrToInterface@_impl_SequenceProxyPullConsumer@CosNotifyChannelAdmin@@$R0BA@BM@PPPPPPPM@BI@EAAPEAXPEBD@Z
?_ptrToInterface@_impl_SequenceProxyPullConsumer@CosNotifyChannelAdmin@@EEAAPEAXPEBD@Z
?_ptrToInterface@_impl_SequenceProxyPullSupplier@CosNotifyChannelAdmin@@$0PPPPPPPM@A@EAAPEAXPEBD@Z
?_ptrToInterface@_impl_SequenceProxyPullSupplier@CosNotifyChannelAdmin@@$R0BA@BM@PPPPPPPM@BI@EAAPEAXPEBD@Z
?_ptrToInterface@_impl_SequenceProxyPullSupplier@CosNotifyChannelAdmin@@EEAAPEAXPEBD@Z
?_ptrToInterface@_impl_SequenceProxyPushConsumer@CosNotifyChannelAdmin@@$0PPPPPPPM@A@EAAPEAXPEBD@Z
?_ptrToInterface@_impl_SequenceProxyPushConsumer@CosNotifyChannelAdmin@@$R0BA@BM@PPPPPPPM@BI@EAAPEAXPEBD@Z
?_ptrToInterface@_impl_SequenceProxyPushConsumer@CosNotifyChannelAdmin@@EEAAPEAXPEBD@Z
?_ptrToInterface@_impl_SequenceProxyPushSupplier@CosNotifyChannelAdmin@@$0PPPPPPPM@A@EAAPEAXPEBD@Z
?_ptrToInterface@_impl_SequenceProxyPushSupplier@CosNotifyChannelAdmin@@$R0BA@BM@PPPPPPPM@BI@EAAPEAXPEBD@Z
?_ptrToInterface@_impl_SequenceProxyPushSupplier@CosNotifyChannelAdmin@@EEAAPEAXPEBD@Z
?_ptrToInterface@_impl_SequencePullConsumer@CosNotifyComm@@$0PPPPPPPM@A@EAAPEAXPEBD@Z
?_ptrToInterface@_impl_SequencePullConsumer@CosNotifyComm@@$R0BA@M@PPPPPPPM@BI@EAAPEAXPEBD@Z
?_ptrToInterface@_impl_SequencePullConsumer@CosNotifyComm@@EEAAPEAXPEBD@Z
?_ptrToInterface@_impl_SequencePullSupplier@CosNotifyComm@@$0PPPPPPPM@A@EAAPEAXPEBD@Z
?_ptrToInterface@_impl_SequencePullSupplier@CosNotifyComm@@$R0BA@M@PPPPPPPM@BI@EAAPEAXPEBD@Z
?_ptrToInterface@_impl_SequencePullSupplier@CosNotifyComm@@EEAAPEAXPEBD@Z
?_ptrToInterface@_impl_SequencePushConsumer@CosNotifyComm@@$0PPPPPPPM@A@EAAPEAXPEBD@Z
?_ptrToInterface@_impl_SequencePushConsumer@CosNotifyComm@@$R0BA@M@PPPPPPPM@BI@EAAPEAXPEBD@Z
?_ptrToInterface@_impl_SequencePushConsumer@CosNotifyComm@@EEAAPEAXPEBD@Z
?_ptrToInterface@_impl_SequencePushSupplier@CosNotifyComm@@$0PPPPPPPM@A@EAAPEAXPEBD@Z
?_ptrToInterface@_impl_SequencePushSupplier@CosNotifyComm@@$R0BA@M@PPPPPPPM@BI@EAAPEAXPEBD@Z
?_ptrToInterface@_impl_SequencePushSupplier@CosNotifyComm@@EEAAPEAXPEBD@Z
?_ptrToInterface@_impl_StructuredProxyPullConsumer@CosNotifyChannelAdmin@@$0PPPPPPPM@A@EAAPEAXPEBD@Z
?_ptrToInterface@_impl_StructuredProxyPullConsumer@CosNotifyChannelAdmin@@$R0BA@BM@PPPPPPPM@BI@EAAPEAXPEBD@Z
?_ptrToInterface@_impl_StructuredProxyPullConsumer@CosNotifyChannelAdmin@@EEAAPEAXPEBD@Z
?_ptrToInterface@_impl_StructuredProxyPullSupplier@CosNotifyChannelAdmin@@$0PPPPPPPM@A@EAAPEAXPEBD@Z
?_ptrToInterface@_impl_StructuredProxyPullSupplier@CosNotifyChannelAdmin@@$R0BA@BM@PPPPPPPM@BI@EAAPEAXPEBD@Z
?_ptrToInterface@_impl_StructuredProxyPullSupplier@CosNotifyChannelAdmin@@EEAAPEAXPEBD@Z
?_ptrToInterface@_impl_StructuredProxyPushConsumer@CosNotifyChannelAdmin@@$0PPPPPPPM@A@EAAPEAXPEBD@Z
?_ptrToInterface@_impl_StructuredProxyPushConsumer@CosNotifyChannelAdmin@@$R0BA@BM@PPPPPPPM@BI@EAAPEAXPEBD@Z
?_ptrToInterface@_impl_StructuredProxyPushConsumer@CosNotifyChannelAdmin@@EEAAPEAXPEBD@Z
?_ptrToInterface@_impl_StructuredProxyPushSupplier@CosNotifyChannelAdmin@@$0PPPPPPPM@A@EAAPEAXPEBD@Z
?_ptrToInterface@_impl_StructuredProxyPushSupplier@CosNotifyChannelAdmin@@$R0BA@BM@PPPPPPPM@BI@EAAPEAXPEBD@Z
?_ptrToInterface@_impl_StructuredProxyPushSupplier@CosNotifyChannelAdmin@@EEAAPEAXPEBD@Z
?_ptrToInterface@_impl_StructuredPullConsumer@CosNotifyComm@@$0PPPPPPPM@A@EAAPEAXPEBD@Z
?_ptrToInterface@_impl_StructuredPullConsumer@CosNotifyComm@@$R0BA@M@PPPPPPPM@BI@EAAPEAXPEBD@Z
?_ptrToInterface@_impl_StructuredPullConsumer@CosNotifyComm@@EEAAPEAXPEBD@Z
?_ptrToInterface@_impl_StructuredPullSupplier@CosNotifyComm@@$0PPPPPPPM@A@EAAPEAXPEBD@Z
?_ptrToInterface@_impl_StructuredPullSupplier@CosNotifyComm@@$R0BA@M@PPPPPPPM@BI@EAAPEAXPEBD@Z
?_ptrToInterface@_impl_StructuredPullSupplier@CosNotifyComm@@EEAAPEAXPEBD@Z
?_ptrToInterface@_impl_StructuredPushConsumer@CosNotifyComm@@$0PPPPPPPM@A@EAAPEAXPEBD@Z
?_ptrToInterface@_impl_StructuredPushConsumer@CosNotifyComm@@$R0BA@M@PPPPPPPM@BI@EAAPEAXPEBD@Z
?_ptrToInterface@_impl_StructuredPushConsumer@CosNotifyComm@@EEAAPEAXPEBD@Z
?_ptrToInterface@_impl_StructuredPushSupplier@CosNotifyComm@@$0PPPPPPPM@A@EAAPEAXPEBD@Z
?_ptrToInterface@_impl_StructuredPushSupplier@CosNotifyComm@@$R0BA@M@PPPPPPPM@BI@EAAPEAXPEBD@Z
?_ptrToInterface@_impl_StructuredPushSupplier@CosNotifyComm@@EEAAPEAXPEBD@Z
?_ptrToInterface@_impl_SupplierAdmin@CosEventChannelAdmin@@$0PPPPPPPM@A@EAAPEAXPEBD@Z
?_ptrToInterface@_impl_SupplierAdmin@CosEventChannelAdmin@@$R0BA@7PPPPPPPM@BI@EAAPEAXPEBD@Z
?_ptrToInterface@_impl_SupplierAdmin@CosEventChannelAdmin@@EEAAPEAXPEBD@Z
?_ptrToInterface@_impl_SupplierAdmin@CosNotifyChannelAdmin@@$0PPPPPPPM@A@EAAPEAXPEBD@Z
?_ptrToInterface@_impl_SupplierAdmin@CosNotifyChannelAdmin@@$R0BA@BI@PPPPPPPM@BI@EAAPEAXPEBD@Z
?_ptrToInterface@_impl_SupplierAdmin@CosNotifyChannelAdmin@@EEAAPEAXPEBD@Z
?_ptrToInterface@_impl_TIO@CosTime@@$0PPPPPPPM@A@EAAPEAXPEBD@Z
?_ptrToInterface@_impl_TIO@CosTime@@$R0BA@7PPPPPPPM@BI@EAAPEAXPEBD@Z
?_ptrToInterface@_impl_TIO@CosTime@@EEAAPEAXPEBD@Z
?_ptrToInterface@_impl_TimeService@CosTime@@$0PPPPPPPM@A@EAAPEAXPEBD@Z
?_ptrToInterface@_impl_TimeService@CosTime@@$R0BA@7PPPPPPPM@BI@EAAPEAXPEBD@Z
?_ptrToInterface@_impl_TimeService@CosTime@@EEAAPEAXPEBD@Z
?_ptrToInterface@_impl_UTO@CosTime@@$0PPPPPPPM@A@EAAPEAXPEBD@Z
?_ptrToInterface@_impl_UTO@CosTime@@$R0BA@7PPPPPPPM@BI@EAAPEAXPEBD@Z
?_ptrToInterface@_impl_UTO@CosTime@@EEAAPEAXPEBD@Z
?_ptrToObjRef@_objref_AdminPropertiesAdmin@CosNotification@@$0PPPPPPPM@A@EAAPEAXPEBD@Z
?_ptrToObjRef@_objref_AdminPropertiesAdmin@CosNotification@@$0PPPPPPPM@CA@EAAPEAXPEBD@Z
?_ptrToObjRef@_objref_AdminPropertiesAdmin@CosNotification@@EEAAPEAXPEBD@Z
?_ptrToObjRef@_objref_ConsumerAdmin@CosEventChannelAdmin@@$0PPPPPPPM@A@EAAPEAXPEBD@Z
?_ptrToObjRef@_objref_ConsumerAdmin@CosEventChannelAdmin@@$0PPPPPPPM@CA@EAAPEAXPEBD@Z
?_ptrToObjRef@_objref_ConsumerAdmin@CosEventChannelAdmin@@EEAAPEAXPEBD@Z
?_ptrToObjRef@_objref_ConsumerAdmin@CosNotifyChannelAdmin@@$0PPPPPPPM@A@EAAPEAXPEBD@Z
?_ptrToObjRef@_objref_ConsumerAdmin@CosNotifyChannelAdmin@@$0PPPPPPPM@CA@EAAPEAXPEBD@Z
?_ptrToObjRef@_objref_ConsumerAdmin@CosNotifyChannelAdmin@@EEAAPEAXPEBD@Z
?_ptrToObjRef@_objref_EventChannel@CosEventChannelAdmin@@$0PPPPPPPM@A@EAAPEAXPEBD@Z
?_ptrToObjRef@_objref_EventChannel@CosEventChannelAdmin@@$0PPPPPPPM@CA@EAAPEAXPEBD@Z
?_ptrToObjRef@_objref_EventChannel@CosEventChannelAdmin@@EEAAPEAXPEBD@Z
?_ptrToObjRef@_objref_EventChannel@CosNotifyChannelAdmin@@$0PPPPPPPM@A@EAAPEAXPEBD@Z
?_ptrToObjRef@_objref_EventChannel@CosNotifyChannelAdmin@@$0PPPPPPPM@CA@EAAPEAXPEBD@Z
?_ptrToObjRef@_objref_EventChannel@CosNotifyChannelAdmin@@EEAAPEAXPEBD@Z
?_ptrToObjRef@_objref_EventChannelFactory@CosNotifyChannelAdmin@@$0PPPPPPPM@A@EAAPEAXPEBD@Z
?_ptrToObjRef@_objref_EventChannelFactory@CosNotifyChannelAdmin@@$0PPPPPPPM@CA@EAAPEAXPEBD@Z
?_ptrToObjRef@_objref_EventChannelFactory@CosNotifyChannelAdmin@@EEAAPEAXPEBD@Z
?_ptrToObjRef@_objref_FactoryFinder@CosLifeCycle@@$0PPPPPPPM@A@EAAPEAXPEBD@Z
?_ptrToObjRef@_objref_FactoryFinder@CosLifeCycle@@$0PPPPPPPM@CA@EAAPEAXPEBD@Z
?_ptrToObjRef@_objref_FactoryFinder@CosLifeCycle@@EEAAPEAXPEBD@Z
?_ptrToObjRef@_objref_Filter@CosNotifyFilter@@$0PPPPPPPM@A@EAAPEAXPEBD@Z
?_ptrToObjRef@_objref_Filter@CosNotifyFilter@@$0PPPPPPPM@CA@EAAPEAXPEBD@Z
?_ptrToObjRef@_objref_Filter@CosNotifyFilter@@EEAAPEAXPEBD@Z
?_ptrToObjRef@_objref_FilterAdmin@CosNotifyFilter@@$0PPPPPPPM@A@EAAPEAXPEBD@Z
?_ptrToObjRef@_objref_FilterAdmin@CosNotifyFilter@@$0PPPPPPPM@CA@EAAPEAXPEBD@Z
?_ptrToObjRef@_objref_FilterAdmin@CosNotifyFilter@@EEAAPEAXPEBD@Z
?_ptrToObjRef@_objref_FilterFactory@CosNotifyFilter@@$0PPPPPPPM@A@EAAPEAXPEBD@Z
?_ptrToObjRef@_objref_FilterFactory@CosNotifyFilter@@$0PPPPPPPM@CA@EAAPEAXPEBD@Z
?_ptrToObjRef@_objref_FilterFactory@CosNotifyFilter@@EEAAPEAXPEBD@Z
?_ptrToObjRef@_objref_GenericFactory@CosLifeCycle@@$0PPPPPPPM@A@EAAPEAXPEBD@Z
?_ptrToObjRef@_objref_GenericFactory@CosLifeCycle@@$0PPPPPPPM@CA@EAAPEAXPEBD@Z
?_ptrToObjRef@_objref_GenericFactory@CosLifeCycle@@EEAAPEAXPEBD@Z
?_ptrToObjRef@_objref_LifeCycleObject@CosLifeCycle@@$0PPPPPPPM@A@EAAPEAXPEBD@Z
?_ptrToObjRef@_objref_LifeCycleObject@CosLifeCycle@@$0PPPPPPPM@CA@EAAPEAXPEBD@Z
?_ptrToObjRef@_objref_LifeCycleObject@CosLifeCycle@@EEAAPEAXPEBD@Z
?_ptrToObjRef@_objref_MappingFilter@CosNotifyFilter@@$0PPPPPPPM@A@EAAPEAXPEBD@Z
?_ptrToObjRef@_objref_MappingFilter@CosNotifyFilter@@$0PPPPPPPM@CA@EAAPEAXPEBD@Z
?_ptrToObjRef@_objref_MappingFilter@CosNotifyFilter@@EEAAPEAXPEBD@Z
?_ptrToObjRef@_objref_NotifyPublish@CosNotifyComm@@$0PPPPPPPM@A@EAAPEAXPEBD@Z
?_ptrToObjRef@_objref_NotifyPublish@CosNotifyComm@@$0PPPPPPPM@CA@EAAPEAXPEBD@Z
?_ptrToObjRef@_objref_NotifyPublish@CosNotifyComm@@EEAAPEAXPEBD@Z
?_ptrToObjRef@_objref_NotifySubscribe@CosNotifyComm@@$0PPPPPPPM@A@EAAPEAXPEBD@Z
?_ptrToObjRef@_objref_NotifySubscribe@CosNotifyComm@@$0PPPPPPPM@CA@EAAPEAXPEBD@Z
?_ptrToObjRef@_objref_NotifySubscribe@CosNotifyComm@@EEAAPEAXPEBD@Z
?_ptrToObjRef@_objref_ProxyConsumer@CosNotifyChannelAdmin@@$0PPPPPPPM@A@EAAPEAXPEBD@Z
?_ptrToObjRef@_objref_ProxyConsumer@CosNotifyChannelAdmin@@$0PPPPPPPM@CA@EAAPEAXPEBD@Z
?_ptrToObjRef@_objref_ProxyConsumer@CosNotifyChannelAdmin@@EEAAPEAXPEBD@Z
?_ptrToObjRef@_objref_ProxyPullConsumer@CosEventChannelAdmin@@$0PPPPPPPM@A@EAAPEAXPEBD@Z
?_ptrToObjRef@_objref_ProxyPullConsumer@CosEventChannelAdmin@@$0PPPPPPPM@CA@EAAPEAXPEBD@Z
?_ptrToObjRef@_objref_ProxyPullConsumer@CosEventChannelAdmin@@EEAAPEAXPEBD@Z
?_ptrToObjRef@_objref_ProxyPullConsumer@CosNotifyChannelAdmin@@$0PPPPPPPM@A@EAAPEAXPEBD@Z
?_ptrToObjRef@_objref_ProxyPullConsumer@CosNotifyChannelAdmin@@$0PPPPPPPM@CA@EAAPEAXPEBD@Z
?_ptrToObjRef@_objref_ProxyPullConsumer@CosNotifyChannelAdmin@@EEAAPEAXPEBD@Z
?_ptrToObjRef@_objref_ProxyPullSupplier@CosEventChannelAdmin@@$0PPPPPPPM@A@EAAPEAXPEBD@Z
?_ptrToObjRef@_objref_ProxyPullSupplier@CosEventChannelAdmin@@$0PPPPPPPM@CA@EAAPEAXPEBD@Z
?_ptrToObjRef@_objref_ProxyPullSupplier@CosEventChannelAdmin@@EEAAPEAXPEBD@Z
?_ptrToObjRef@_objref_ProxyPullSupplier@CosNotifyChannelAdmin@@$0PPPPPPPM@A@EAAPEAXPEBD@Z
?_ptrToObjRef@_objref_ProxyPullSupplier@CosNotifyChannelAdmin@@$0PPPPPPPM@CA@EAAPEAXPEBD@Z
?_ptrToObjRef@_objref_ProxyPullSupplier@CosNotifyChannelAdmin@@EEAAPEAXPEBD@Z
?_ptrToObjRef@_objref_ProxyPushConsumer@CosEventChannelAdmin@@$0PPPPPPPM@A@EAAPEAXPEBD@Z
?_ptrToObjRef@_objref_ProxyPushConsumer@CosEventChannelAdmin@@$0PPPPPPPM@CA@EAAPEAXPEBD@Z
?_ptrToObjRef@_objref_ProxyPushConsumer@CosEventChannelAdmin@@EEAAPEAXPEBD@Z
?_ptrToObjRef@_objref_ProxyPushConsumer@CosNotifyChannelAdmin@@$0PPPPPPPM@A@EAAPEAXPEBD@Z
?_ptrToObjRef@_objref_ProxyPushConsumer@CosNotifyChannelAdmin@@$0PPPPPPPM@CA@EAAPEAXPEBD@Z
?_ptrToObjRef@_objref_ProxyPushConsumer@CosNotifyChannelAdmin@@EEAAPEAXPEBD@Z
?_ptrToObjRef@_objref_ProxyPushSupplier@CosEventChannelAdmin@@$0PPPPPPPM@A@EAAPEAXPEBD@Z
?_ptrToObjRef@_objref_ProxyPushSupplier@CosEventChannelAdmin@@$0PPPPPPPM@CA@EAAPEAXPEBD@Z
?_ptrToObjRef@_objref_ProxyPushSupplier@CosEventChannelAdmin@@EEAAPEAXPEBD@Z
?_ptrToObjRef@_objref_ProxyPushSupplier@CosNotifyChannelAdmin@@$0PPPPPPPM@A@EAAPEAXPEBD@Z
?_ptrToObjRef@_objref_ProxyPushSupplier@CosNotifyChannelAdmin@@$0PPPPPPPM@CA@EAAPEAXPEBD@Z
?_ptrToObjRef@_objref_ProxyPushSupplier@CosNotifyChannelAdmin@@EEAAPEAXPEBD@Z
?_ptrToObjRef@_objref_ProxySupplier@CosNotifyChannelAdmin@@$0PPPPPPPM@A@EAAPEAXPEBD@Z
?_ptrToObjRef@_objref_ProxySupplier@CosNotifyChannelAdmin@@$0PPPPPPPM@CA@EAAPEAXPEBD@Z
?_ptrToObjRef@_objref_ProxySupplier@CosNotifyChannelAdmin@@EEAAPEAXPEBD@Z
?_ptrToObjRef@_objref_PullConsumer@CosEventComm@@$0PPPPPPPM@A@EAAPEAXPEBD@Z
?_ptrToObjRef@_objref_PullConsumer@CosEventComm@@$0PPPPPPPM@CA@EAAPEAXPEBD@Z
?_ptrToObjRef@_objref_PullConsumer@CosEventComm@@EEAAPEAXPEBD@Z
?_ptrToObjRef@_objref_PullConsumer@CosNotifyComm@@$0PPPPPPPM@A@EAAPEAXPEBD@Z
?_ptrToObjRef@_objref_PullConsumer@CosNotifyComm@@$0PPPPPPPM@CA@EAAPEAXPEBD@Z
?_ptrToObjRef@_objref_PullConsumer@CosNotifyComm@@EEAAPEAXPEBD@Z
?_ptrToObjRef@_objref_PullSupplier@CosEventComm@@$0PPPPPPPM@A@EAAPEAXPEBD@Z
?_ptrToObjRef@_objref_PullSupplier@CosEventComm@@$0PPPPPPPM@CA@EAAPEAXPEBD@Z
?_ptrToObjRef@_objref_PullSupplier@CosEventComm@@EEAAPEAXPEBD@Z
?_ptrToObjRef@_objref_PullSupplier@CosNotifyComm@@$0PPPPPPPM@A@EAAPEAXPEBD@Z
?_ptrToObjRef@_objref_PullSupplier@CosNotifyComm@@$0PPPPPPPM@CA@EAAPEAXPEBD@Z
?_ptrToObjRef@_objref_PullSupplier@CosNotifyComm@@EEAAPEAXPEBD@Z
?_ptrToObjRef@_objref_PushConsumer@CosEventComm@@$0PPPPPPPM@A@EAAPEAXPEBD@Z
?_ptrToObjRef@_objref_PushConsumer@CosEventComm@@$0PPPPPPPM@CA@EAAPEAXPEBD@Z
?_ptrToObjRef@_objref_PushConsumer@CosEventComm@@EEAAPEAXPEBD@Z
?_ptrToObjRef@_objref_PushConsumer@CosNotifyComm@@$0PPPPPPPM@A@EAAPEAXPEBD@Z
?_ptrToObjRef@_objref_PushConsumer@CosNotifyComm@@$0PPPPPPPM@CA@EAAPEAXPEBD@Z
?_ptrToObjRef@_objref_PushConsumer@CosNotifyComm@@EEAAPEAXPEBD@Z
?_ptrToObjRef@_objref_PushSupplier@CosEventComm@@$0PPPPPPPM@A@EAAPEAXPEBD@Z
?_ptrToObjRef@_objref_PushSupplier@CosEventComm@@$0PPPPPPPM@CA@EAAPEAXPEBD@Z
?_ptrToObjRef@_objref_PushSupplier@CosEventComm@@EEAAPEAXPEBD@Z
?_ptrToObjRef@_objref_PushSupplier@CosNotifyComm@@$0PPPPPPPM@A@EAAPEAXPEBD@Z
?_ptrToObjRef@_objref_PushSupplier@CosNotifyComm@@$0PPPPPPPM@CA@EAAPEAXPEBD@Z
?_ptrToObjRef@_objref_PushSupplier@CosNotifyComm@@EEAAPEAXPEBD@Z
?_ptrToObjRef@_objref_QoSAdmin@CosNotification@@$0PPPPPPPM@A@EAAPEAXPEBD@Z
?_ptrToObjRef@_objref_QoSAdmin@CosNotification@@$0PPPPPPPM@CA@EAAPEAXPEBD@Z
?_ptrToObjRef@_objref_QoSAdmin@CosNotification@@EEAAPEAXPEBD@Z
?_ptrToObjRef@_objref_SequenceProxyPullConsumer@CosNotifyChannelAdmin@@$0PPPPPPPM@A@EAAPEAXPEBD@Z
?_ptrToObjRef@_objref_SequenceProxyPullConsumer@CosNotifyChannelAdmin@@$0PPPPPPPM@CA@EAAPEAXPEBD@Z
?_ptrToObjRef@_objref_SequenceProxyPullConsumer@CosNotifyChannelAdmin@@EEAAPEAXPEBD@Z
?_ptrToObjRef@_objref_SequenceProxyPullSupplier@CosNotifyChannelAdmin@@$0PPPPPPPM@A@EAAPEAXPEBD@Z
?_ptrToObjRef@_objref_SequenceProxyPullSupplier@CosNotifyChannelAdmin@@$0PPPPPPPM@CA@EAAPEAXPEBD@Z
?_ptrToObjRef@_objref_SequenceProxyPullSupplier@CosNotifyChannelAdmin@@EEAAPEAXPEBD@Z
?_ptrToObjRef@_objref_SequenceProxyPushConsumer@CosNotifyChannelAdmin@@$0PPPPPPPM@A@EAAPEAXPEBD@Z
?_ptrToObjRef@_objref_SequenceProxyPushConsumer@CosNotifyChannelAdmin@@$0PPPPPPPM@CA@EAAPEAXPEBD@Z
?_ptrToObjRef@_objref_SequenceProxyPushConsumer@CosNotifyChannelAdmin@@EEAAPEAXPEBD@Z
?_ptrToObjRef@_objref_SequenceProxyPushSupplier@CosNotifyChannelAdmin@@$0PPPPPPPM@A@EAAPEAXPEBD@Z
?_ptrToObjRef@_objref_SequenceProxyPushSupplier@CosNotifyChannelAdmin@@$0PPPPPPPM@CA@EAAPEAXPEBD@Z
?_ptrToObjRef@_objref_SequenceProxyPushSupplier@CosNotifyChannelAdmin@@EEAAPEAXPEBD@Z
?_ptrToObjRef@_objref_SequencePullConsumer@CosNotifyComm@@$0PPPPPPPM@A@EAAPEAXPEBD@Z
?_ptrToObjRef@_objref_SequencePullConsumer@CosNotifyComm@@$0PPPPPPPM@CA@EAAPEAXPEBD@Z
?_ptrToObjRef@_objref_SequencePullConsumer@CosNotifyComm@@EEAAPEAXPEBD@Z
?_ptrToObjRef@_objref_SequencePullSupplier@CosNotifyComm@@$0PPPPPPPM@A@EAAPEAXPEBD@Z
?_ptrToObjRef@_objref_SequencePullSupplier@CosNotifyComm@@$0PPPPPPPM@CA@EAAPEAXPEBD@Z
?_ptrToObjRef@_objref_SequencePullSupplier@CosNotifyComm@@EEAAPEAXPEBD@Z
?_ptrToObjRef@_objref_SequencePushConsumer@CosNotifyComm@@$0PPPPPPPM@A@EAAPEAXPEBD@Z
?_ptrToObjRef@_objref_SequencePushConsumer@CosNotifyComm@@$0PPPPPPPM@CA@EAAPEAXPEBD@Z
?_ptrToObjRef@_objref_SequencePushConsumer@CosNotifyComm@@EEAAPEAXPEBD@Z
?_ptrToObjRef@_objref_SequencePushSupplier@CosNotifyComm@@$0PPPPPPPM@A@EAAPEAXPEBD@Z
?_ptrToObjRef@_objref_SequencePushSupplier@CosNotifyComm@@$0PPPPPPPM@CA@EAAPEAXPEBD@Z
?_ptrToObjRef@_objref_SequencePushSupplier@CosNotifyComm@@EEAAPEAXPEBD@Z
?_ptrToObjRef@_objref_StructuredProxyPullConsumer@CosNotifyChannelAdmin@@$0PPPPPPPM@A@EAAPEAXPEBD@Z
?_ptrToObjRef@_objref_StructuredProxyPullConsumer@CosNotifyChannelAdmin@@$0PPPPPPPM@CA@EAAPEAXPEBD@Z
?_ptrToObjRef@_objref_StructuredProxyPullConsumer@CosNotifyChannelAdmin@@EEAAPEAXPEBD@Z
?_ptrToObjRef@_objref_StructuredProxyPullSupplier@CosNotifyChannelAdmin@@$0PPPPPPPM@A@EAAPEAXPEBD@Z
?_ptrToObjRef@_objref_StructuredProxyPullSupplier@CosNotifyChannelAdmin@@$0PPPPPPPM@CA@EAAPEAXPEBD@Z
?_ptrToObjRef@_objref_StructuredProxyPullSupplier@CosNotifyChannelAdmin@@EEAAPEAXPEBD@Z
?_ptrToObjRef@_objref_StructuredProxyPushConsumer@CosNotifyChannelAdmin@@$0PPPPPPPM@A@EAAPEAXPEBD@Z
?_ptrToObjRef@_objref_StructuredProxyPushConsumer@CosNotifyChannelAdmin@@$0PPPPPPPM@CA@EAAPEAXPEBD@Z
?_ptrToObjRef@_objref_StructuredProxyPushConsumer@CosNotifyChannelAdmin@@EEAAPEAXPEBD@Z
?_ptrToObjRef@_objref_StructuredProxyPushSupplier@CosNotifyChannelAdmin@@$0PPPPPPPM@A@EAAPEAXPEBD@Z
?_ptrToObjRef@_objref_StructuredProxyPushSupplier@CosNotifyChannelAdmin@@$0PPPPPPPM@CA@EAAPEAXPEBD@Z
?_ptrToObjRef@_objref_StructuredProxyPushSupplier@CosNotifyChannelAdmin@@EEAAPEAXPEBD@Z
?_ptrToObjRef@_objref_StructuredPullConsumer@CosNotifyComm@@$0PPPPPPPM@A@EAAPEAXPEBD@Z
?_ptrToObjRef@_objref_StructuredPullConsumer@CosNotifyComm@@$0PPPPPPPM@CA@EAAPEAXPEBD@Z
?_ptrToObjRef@_objref_StructuredPullConsumer@CosNotifyComm@@EEAAPEAXPEBD@Z
?_ptrToObjRef@_objref_StructuredPullSupplier@CosNotifyComm@@$0PPPPPPPM@A@EAAPEAXPEBD@Z
?_ptrToObjRef@_objref_StructuredPullSupplier@CosNotifyComm@@$0PPPPPPPM@CA@EAAPEAXPEBD@Z
?_ptrToObjRef@_objref_StructuredPullSupplier@CosNotifyComm@@EEAAPEAXPEBD@Z
?_ptrToObjRef@_objref_StructuredPushConsumer@CosNotifyComm@@$0PPPPPPPM@A@EAAPEAXPEBD@Z
?_ptrToObjRef@_objref_StructuredPushConsumer@CosNotifyComm@@$0PPPPPPPM@CA@EAAPEAXPEBD@Z
?_ptrToObjRef@_objref_StructuredPushConsumer@CosNotifyComm@@EEAAPEAXPEBD@Z
?_ptrToObjRef@_objref_StructuredPushSupplier@CosNotifyComm@@$0PPPPPPPM@A@EAAPEAXPEBD@Z
?_ptrToObjRef@_objref_StructuredPushSupplier@CosNotifyComm@@$0PPPPPPPM@CA@EAAPEAXPEBD@Z
?_ptrToObjRef@_objref_StructuredPushSupplier@CosNotifyComm@@EEAAPEAXPEBD@Z
?_ptrToObjRef@_objref_SupplierAdmin@CosEventChannelAdmin@@$0PPPPPPPM@A@EAAPEAXPEBD@Z
?_ptrToObjRef@_objref_SupplierAdmin@CosEventChannelAdmin@@$0PPPPPPPM@CA@EAAPEAXPEBD@Z
?_ptrToObjRef@_objref_SupplierAdmin@CosEventChannelAdmin@@EEAAPEAXPEBD@Z
?_ptrToObjRef@_objref_SupplierAdmin@CosNotifyChannelAdmin@@$0PPPPPPPM@A@EAAPEAXPEBD@Z
?_ptrToObjRef@_objref_SupplierAdmin@CosNotifyChannelAdmin@@$0PPPPPPPM@CA@EAAPEAXPEBD@Z
?_ptrToObjRef@_objref_SupplierAdmin@CosNotifyChannelAdmin@@EEAAPEAXPEBD@Z
?_ptrToObjRef@_objref_TIO@CosTime@@$0PPPPPPPM@A@EAAPEAXPEBD@Z
?_ptrToObjRef@_objref_TIO@CosTime@@$0PPPPPPPM@CA@EAAPEAXPEBD@Z
?_ptrToObjRef@_objref_TIO@CosTime@@EEAAPEAXPEBD@Z
?_ptrToObjRef@_objref_TimeService@CosTime@@$0PPPPPPPM@A@EAAPEAXPEBD@Z
?_ptrToObjRef@_objref_TimeService@CosTime@@$0PPPPPPPM@CA@EAAPEAXPEBD@Z
?_ptrToObjRef@_objref_TimeService@CosTime@@EEAAPEAXPEBD@Z
?_ptrToObjRef@_objref_UTO@CosTime@@$0PPPPPPPM@A@EAAPEAXPEBD@Z
?_ptrToObjRef@_objref_UTO@CosTime@@$0PPPPPPPM@CA@EAAPEAXPEBD@Z
?_ptrToObjRef@_objref_UTO@CosTime@@EEAAPEAXPEBD@Z
?_raise@AdminLimitExceeded@CosNotifyChannelAdmin@@UEBAXXZ
?_raise@AdminNotFound@CosNotifyChannelAdmin@@UEBAXXZ
?_raise@AlreadyConnected@CosEventChannelAdmin@@UEBAXXZ
?_raise@CallbackNotFound@CosNotifyFilter@@UEBAXXZ
?_raise@CannotMeetCriteria@CosLifeCycle@@UEBAXXZ
?_raise@ChannelNotFound@CosNotifyChannelAdmin@@UEBAXXZ
?_raise@ConnectionAlreadyActive@CosNotifyChannelAdmin@@UEBAXXZ
?_raise@ConnectionAlreadyInactive@CosNotifyChannelAdmin@@UEBAXXZ
?_raise@ConstraintNotFound@CosNotifyFilter@@UEBAXXZ
?_raise@Disconnected@CosEventComm@@UEBAXXZ
?_raise@DuplicateConstraintID@CosNotifyFilter@@UEBAXXZ
?_raise@FilterNotFound@CosNotifyFilter@@UEBAXXZ
?_raise@InvalidConstraint@CosNotifyFilter@@UEBAXXZ
?_raise@InvalidCriteria@CosLifeCycle@@UEBAXXZ
?_raise@InvalidEventType@CosNotifyComm@@UEBAXXZ
?_raise@InvalidGrammar@CosNotifyFilter@@UEBAXXZ
?_raise@InvalidValue@CosNotifyFilter@@UEBAXXZ
?_raise@NoFactory@CosLifeCycle@@UEBAXXZ
?_raise@NotConnected@CosNotifyChannelAdmin@@UEBAXXZ
?_raise@NotCopyable@CosLifeCycle@@UEBAXXZ
?_raise@NotMovable@CosLifeCycle@@UEBAXXZ
?_raise@NotRemovable@CosLifeCycle@@UEBAXXZ
?_raise@ProxyNotFound@CosNotifyChannelAdmin@@UEBAXXZ
?_raise@TimeUnavailable@CosTime@@UEBAXXZ
?_raise@TypeError@CosEventChannelAdmin@@UEBAXXZ
?_raise@UnsupportedAdmin@CosNotification@@UEBAXXZ
?_raise@UnsupportedFilterableData@CosNotifyFilter@@UEBAXXZ
?_raise@UnsupportedQoS@CosNotification@@UEBAXXZ
?_remove_ref@ServantBase@PortableServer@@$R4BA@BA@PPPPPPPM@CA@EAAXXZ
?_remove_ref@ServantBase@PortableServer@@$R4BA@BE@PPPPPPPM@CA@EAAXXZ
?_remove_ref@ServantBase@PortableServer@@$R4BA@BI@PPPPPPPM@CA@EAAXXZ
?_remove_ref@ServantBase@PortableServer@@$R4BA@BM@PPPPPPPM@CA@EAAXXZ
?_remove_ref@ServantBase@PortableServer@@$R4BA@CA@PPPPPPPM@CA@EAAXXZ
?_remove_ref@ServantBase@PortableServer@@$R4BA@CE@PPPPPPPM@CA@EAAXXZ
?_remove_ref@ServantBase@PortableServer@@$R4BA@M@PPPPPPPM@CA@EAAXXZ
?_retn@?$_CORBA_ConstrType_Variable_Var@UStructuredEvent@CosNotification@@@@QEAAPEAUStructuredEvent@CosNotification@@XZ
?_retn@?$_CORBA_ObjRef_Var@V_objref_ConsumerAdmin@CosEventChannelAdmin@@VConsumerAdmin_Helper@2@@@QEAAPEAV_objref_ConsumerAdmin@CosEventChannelAdmin@@XZ
?_retn@?$_CORBA_ObjRef_Var@V_objref_ConsumerAdmin@CosNotifyChannelAdmin@@VConsumerAdmin_Helper@2@@@QEAAPEAV_objref_ConsumerAdmin@CosNotifyChannelAdmin@@XZ
?_retn@?$_CORBA_ObjRef_Var@V_objref_EventChannel@CosNotifyChannelAdmin@@VEventChannel_Helper@2@@@QEAAPEAV_objref_EventChannel@CosNotifyChannelAdmin@@XZ
?_retn@?$_CORBA_ObjRef_Var@V_objref_EventChannelFactory@CosNotifyChannelAdmin@@VEventChannelFactory_Helper@2@@@QEAAPEAV_objref_EventChannelFactory@CosNotifyChannelAdmin@@XZ
?_retn@?$_CORBA_ObjRef_Var@V_objref_Filter@CosNotifyFilter@@VFilter_Helper@2@@@QEAAPEAV_objref_Filter@CosNotifyFilter@@XZ
?_retn@?$_CORBA_ObjRef_Var@V_objref_FilterFactory@CosNotifyFilter@@VFilterFactory_Helper@2@@@QEAAPEAV_objref_FilterFactory@CosNotifyFilter@@XZ
?_retn@?$_CORBA_ObjRef_Var@V_objref_LifeCycleObject@CosLifeCycle@@VLifeCycleObject_Helper@2@@@QEAAPEAV_objref_LifeCycleObject@CosLifeCycle@@XZ
?_retn@?$_CORBA_ObjRef_Var@V_objref_MappingFilter@CosNotifyFilter@@VMappingFilter_Helper@2@@@QEAAPEAV_objref_MappingFilter@CosNotifyFilter@@XZ
?_retn@?$_CORBA_ObjRef_Var@V_objref_ProxyConsumer@CosNotifyChannelAdmin@@VProxyConsumer_Helper@2@@@QEAAPEAV_objref_ProxyConsumer@CosNotifyChannelAdmin@@XZ
?_retn@?$_CORBA_ObjRef_Var@V_objref_ProxyPullConsumer@CosEventChannelAdmin@@VProxyPullConsumer_Helper@2@@@QEAAPEAV_objref_ProxyPullConsumer@CosEventChannelAdmin@@XZ
?_retn@?$_CORBA_ObjRef_Var@V_objref_ProxyPullSupplier@CosEventChannelAdmin@@VProxyPullSupplier_Helper@2@@@QEAAPEAV_objref_ProxyPullSupplier@CosEventChannelAdmin@@XZ
?_retn@?$_CORBA_ObjRef_Var@V_objref_ProxyPushConsumer@CosEventChannelAdmin@@VProxyPushConsumer_Helper@2@@@QEAAPEAV_objref_ProxyPushConsumer@CosEventChannelAdmin@@XZ
?_retn@?$_CORBA_ObjRef_Var@V_objref_ProxyPushSupplier@CosEventChannelAdmin@@VProxyPushSupplier_Helper@2@@@QEAAPEAV_objref_ProxyPushSupplier@CosEventChannelAdmin@@XZ
?_retn@?$_CORBA_ObjRef_Var@V_objref_ProxySupplier@CosNotifyChannelAdmin@@VProxySupplier_Helper@2@@@QEAAPEAV_objref_ProxySupplier@CosNotifyChannelAdmin@@XZ
?_retn@?$_CORBA_ObjRef_Var@V_objref_SupplierAdmin@CosEventChannelAdmin@@VSupplierAdmin_Helper@2@@@QEAAPEAV_objref_SupplierAdmin@CosEventChannelAdmin@@XZ
?_retn@?$_CORBA_ObjRef_Var@V_objref_SupplierAdmin@CosNotifyChannelAdmin@@VSupplierAdmin_Helper@2@@@QEAAPEAV_objref_SupplierAdmin@CosNotifyChannelAdmin@@XZ
?_retn@?$_CORBA_ObjRef_Var@V_objref_TIO@CosTime@@VTIO_Helper@2@@@QEAAPEAV_objref_TIO@CosTime@@XZ
?_retn@?$_CORBA_ObjRef_Var@V_objref_UTO@CosTime@@VUTO_Helper@2@@@QEAAPEAV_objref_UTO@CosTime@@XZ
?_retn@AdminIDSeq_var@CosNotifyChannelAdmin@@QEAAPEAVAdminIDSeq@2@XZ
?_retn@Any_var@CORBA@@QEAAPEAVAny@2@XZ
?_retn@CallbackIDSeq_var@CosNotifyFilter@@QEAAPEAVCallbackIDSeq@2@XZ
?_retn@ChannelIDSeq_var@CosNotifyChannelAdmin@@QEAAPEAVChannelIDSeq@2@XZ
?_retn@ConstraintInfoSeq_var@CosNotifyFilter@@QEAAPEAVConstraintInfoSeq@2@XZ
?_retn@EventBatch_var@CosNotification@@QEAAPEAVEventBatch@2@XZ
?_retn@EventTypeSeq_var@CosNotification@@QEAAPEAVEventTypeSeq@2@XZ
?_retn@Factories_var@CosLifeCycle@@QEAAPEAVFactories@2@XZ
?_retn@FilterIDSeq_var@CosNotifyFilter@@QEAAPEAVFilterIDSeq@2@XZ
?_retn@MappingConstraintInfoSeq_var@CosNotifyFilter@@QEAAPEAVMappingConstraintInfoSeq@2@XZ
?_retn@NamedPropertyRangeSeq_var@CosNotification@@QEAAPEAVNamedPropertyRangeSeq@2@XZ
?_retn@Object_var@CORBA@@QEAAPEAVObject@2@XZ
?_retn@PropertySeq_var@CosNotification@@QEAAPEAVPropertySeq@2@XZ
?_retn@ProxyIDSeq_var@CosNotifyChannelAdmin@@QEAAPEAVProxyIDSeq@2@XZ
?_retn@TypeCode_var@CORBA@@QEAAPEAVTypeCode@2@XZ
?_retn@_CORBA_String_var@@QEAAPEADXZ
?_unchecked_narrow@AdminPropertiesAdmin@CosNotification@@SAPEAV_objref_AdminPropertiesAdmin@2@PEAVObject@CORBA@@@Z
?_unchecked_narrow@ConsumerAdmin@CosEventChannelAdmin@@SAPEAV_objref_ConsumerAdmin@2@PEAVObject@CORBA@@@Z
?_unchecked_narrow@ConsumerAdmin@CosNotifyChannelAdmin@@SAPEAV_objref_ConsumerAdmin@2@PEAVObject@CORBA@@@Z
?_unchecked_narrow@EventChannel@CosEventChannelAdmin@@SAPEAV_objref_EventChannel@2@PEAVObject@CORBA@@@Z
?_unchecked_narrow@EventChannel@CosNotifyChannelAdmin@@SAPEAV_objref_EventChannel@2@PEAVObject@CORBA@@@Z
?_unchecked_narrow@EventChannelFactory@CosNotifyChannelAdmin@@SAPEAV_objref_EventChannelFactory@2@PEAVObject@CORBA@@@Z
?_unchecked_narrow@FactoryFinder@CosLifeCycle@@SAPEAV_objref_FactoryFinder@2@PEAVObject@CORBA@@@Z
?_unchecked_narrow@Filter@CosNotifyFilter@@SAPEAV_objref_Filter@2@PEAVObject@CORBA@@@Z
?_unchecked_narrow@FilterAdmin@CosNotifyFilter@@SAPEAV_objref_FilterAdmin@2@PEAVObject@CORBA@@@Z
?_unchecked_narrow@FilterFactory@CosNotifyFilter@@SAPEAV_objref_FilterFactory@2@PEAVObject@CORBA@@@Z
?_unchecked_narrow@GenericFactory@CosLifeCycle@@SAPEAV_objref_GenericFactory@2@PEAVObject@CORBA@@@Z
?_unchecked_narrow@LifeCycleObject@CosLifeCycle@@SAPEAV_objref_LifeCycleObject@2@PEAVObject@CORBA@@@Z
?_unchecked_narrow@MappingFilter@CosNotifyFilter@@SAPEAV_objref_MappingFilter@2@PEAVObject@CORBA@@@Z
?_unchecked_narrow@NotifyPublish@CosNotifyComm@@SAPEAV_objref_NotifyPublish@2@PEAVObject@CORBA@@@Z
?_unchecked_narrow@NotifySubscribe@CosNotifyComm@@SAPEAV_objref_NotifySubscribe@2@PEAVObject@CORBA@@@Z
?_unchecked_narrow@ProxyConsumer@CosNotifyChannelAdmin@@SAPEAV_objref_ProxyConsumer@2@PEAVObject@CORBA@@@Z
?_unchecked_narrow@ProxyPullConsumer@CosEventChannelAdmin@@SAPEAV_objref_ProxyPullConsumer@2@PEAVObject@CORBA@@@Z
?_unchecked_narrow@ProxyPullConsumer@CosNotifyChannelAdmin@@SAPEAV_objref_ProxyPullConsumer@2@PEAVObject@CORBA@@@Z
?_unchecked_narrow@ProxyPullSupplier@CosEventChannelAdmin@@SAPEAV_objref_ProxyPullSupplier@2@PEAVObject@CORBA@@@Z
?_unchecked_narrow@ProxyPullSupplier@CosNotifyChannelAdmin@@SAPEAV_objref_ProxyPullSupplier@2@PEAVObject@CORBA@@@Z
?_unchecked_narrow@ProxyPushConsumer@CosEventChannelAdmin@@SAPEAV_objref_ProxyPushConsumer@2@PEAVObject@CORBA@@@Z
?_unchecked_narrow@ProxyPushConsumer@CosNotifyChannelAdmin@@SAPEAV_objref_ProxyPushConsumer@2@PEAVObject@CORBA@@@Z
?_unchecked_narrow@ProxyPushSupplier@CosEventChannelAdmin@@SAPEAV_objref_ProxyPushSupplier@2@PEAVObject@CORBA@@@Z
?_unchecked_narrow@ProxyPushSupplier@CosNotifyChannelAdmin@@SAPEAV_objref_ProxyPushSupplier@2@PEAVObject@CORBA@@@Z
?_unchecked_narrow@ProxySupplier@CosNotifyChannelAdmin@@SAPEAV_objref_ProxySupplier@2@PEAVObject@CORBA@@@Z
?_unchecked_narrow@PullConsumer@CosEventComm@@SAPEAV_objref_PullConsumer@2@PEAVObject@CORBA@@@Z
?_unchecked_narrow@PullConsumer@CosNotifyComm@@SAPEAV_objref_PullConsumer@2@PEAVObject@CORBA@@@Z
?_unchecked_narrow@PullSupplier@CosEventComm@@SAPEAV_objref_PullSupplier@2@PEAVObject@CORBA@@@Z
?_unchecked_narrow@PullSupplier@CosNotifyComm@@SAPEAV_objref_PullSupplier@2@PEAVObject@CORBA@@@Z
?_unchecked_narrow@PushConsumer@CosEventComm@@SAPEAV_objref_PushConsumer@2@PEAVObject@CORBA@@@Z
?_unchecked_narrow@PushConsumer@CosNotifyComm@@SAPEAV_objref_PushConsumer@2@PEAVObject@CORBA@@@Z
?_unchecked_narrow@PushSupplier@CosEventComm@@SAPEAV_objref_PushSupplier@2@PEAVObject@CORBA@@@Z
?_unchecked_narrow@PushSupplier@CosNotifyComm@@SAPEAV_objref_PushSupplier@2@PEAVObject@CORBA@@@Z
?_unchecked_narrow@QoSAdmin@CosNotification@@SAPEAV_objref_QoSAdmin@2@PEAVObject@CORBA@@@Z
?_unchecked_narrow@SequenceProxyPullConsumer@CosNotifyChannelAdmin@@SAPEAV_objref_SequenceProxyPullConsumer@2@PEAVObject@CORBA@@@Z
?_unchecked_narrow@SequenceProxyPullSupplier@CosNotifyChannelAdmin@@SAPEAV_objref_SequenceProxyPullSupplier@2@PEAVObject@CORBA@@@Z
?_unchecked_narrow@SequenceProxyPushConsumer@CosNotifyChannelAdmin@@SAPEAV_objref_SequenceProxyPushConsumer@2@PEAVObject@CORBA@@@Z
?_unchecked_narrow@SequenceProxyPushSupplier@CosNotifyChannelAdmin@@SAPEAV_objref_SequenceProxyPushSupplier@2@PEAVObject@CORBA@@@Z
?_unchecked_narrow@SequencePullConsumer@CosNotifyComm@@SAPEAV_objref_SequencePullConsumer@2@PEAVObject@CORBA@@@Z
?_unchecked_narrow@SequencePullSupplier@CosNotifyComm@@SAPEAV_objref_SequencePullSupplier@2@PEAVObject@CORBA@@@Z
?_unchecked_narrow@SequencePushConsumer@CosNotifyComm@@SAPEAV_objref_SequencePushConsumer@2@PEAVObject@CORBA@@@Z
?_unchecked_narrow@SequencePushSupplier@CosNotifyComm@@SAPEAV_objref_SequencePushSupplier@2@PEAVObject@CORBA@@@Z
?_unchecked_narrow@StructuredProxyPullConsumer@CosNotifyChannelAdmin@@SAPEAV_objref_StructuredProxyPullConsumer@2@PEAVObject@CORBA@@@Z
?_unchecked_narrow@StructuredProxyPullSupplier@CosNotifyChannelAdmin@@SAPEAV_objref_StructuredProxyPullSupplier@2@PEAVObject@CORBA@@@Z
?_unchecked_narrow@StructuredProxyPushConsumer@CosNotifyChannelAdmin@@SAPEAV_objref_StructuredProxyPushConsumer@2@PEAVObject@CORBA@@@Z
?_unchecked_narrow@StructuredProxyPushSupplier@CosNotifyChannelAdmin@@SAPEAV_objref_StructuredProxyPushSupplier@2@PEAVObject@CORBA@@@Z
?_unchecked_narrow@StructuredPullConsumer@CosNotifyComm@@SAPEAV_objref_StructuredPullConsumer@2@PEAVObject@CORBA@@@Z
?_unchecked_narrow@StructuredPullSupplier@CosNotifyComm@@SAPEAV_objref_StructuredPullSupplier@2@PEAVObject@CORBA@@@Z
?_unchecked_narrow@StructuredPushConsumer@CosNotifyComm@@SAPEAV_objref_StructuredPushConsumer@2@PEAVObject@CORBA@@@Z
?_unchecked_narrow@StructuredPushSupplier@CosNotifyComm@@SAPEAV_objref_StructuredPushSupplier@2@PEAVObject@CORBA@@@Z
?_unchecked_narrow@SupplierAdmin@CosEventChannelAdmin@@SAPEAV_objref_SupplierAdmin@2@PEAVObject@CORBA@@@Z
?_unchecked_narrow@SupplierAdmin@CosNotifyChannelAdmin@@SAPEAV_objref_SupplierAdmin@2@PEAVObject@CORBA@@@Z
?_unchecked_narrow@TIO@CosTime@@SAPEAV_objref_TIO@2@PEAVObject@CORBA@@@Z
?_unchecked_narrow@TimeService@CosTime@@SAPEAV_objref_TimeService@2@PEAVObject@CORBA@@@Z
?_unchecked_narrow@UTO@CosTime@@SAPEAV_objref_UTO@2@PEAVObject@CORBA@@@Z
?_unmarshalObjRef@AdminPropertiesAdmin@CosNotification@@SAPEAV_objref_AdminPropertiesAdmin@2@AEAVcdrStream@@@Z
?_unmarshalObjRef@ConsumerAdmin@CosEventChannelAdmin@@SAPEAV_objref_ConsumerAdmin@2@AEAVcdrStream@@@Z
?_unmarshalObjRef@ConsumerAdmin@CosNotifyChannelAdmin@@SAPEAV_objref_ConsumerAdmin@2@AEAVcdrStream@@@Z
?_unmarshalObjRef@EventChannel@CosEventChannelAdmin@@SAPEAV_objref_EventChannel@2@AEAVcdrStream@@@Z
?_unmarshalObjRef@EventChannel@CosNotifyChannelAdmin@@SAPEAV_objref_EventChannel@2@AEAVcdrStream@@@Z
?_unmarshalObjRef@EventChannelFactory@CosNotifyChannelAdmin@@SAPEAV_objref_EventChannelFactory@2@AEAVcdrStream@@@Z
?_unmarshalObjRef@FactoryFinder@CosLifeCycle@@SAPEAV_objref_FactoryFinder@2@AEAVcdrStream@@@Z
?_unmarshalObjRef@Filter@CosNotifyFilter@@SAPEAV_objref_Filter@2@AEAVcdrStream@@@Z
?_unmarshalObjRef@FilterAdmin@CosNotifyFilter@@SAPEAV_objref_FilterAdmin@2@AEAVcdrStream@@@Z
?_unmarshalObjRef@FilterFactory@CosNotifyFilter@@SAPEAV_objref_FilterFactory@2@AEAVcdrStream@@@Z
?_unmarshalObjRef@GenericFactory@CosLifeCycle@@SAPEAV_objref_GenericFactory@2@AEAVcdrStream@@@Z
?_unmarshalObjRef@LifeCycleObject@CosLifeCycle@@SAPEAV_objref_LifeCycleObject@2@AEAVcdrStream@@@Z
?_unmarshalObjRef@MappingFilter@CosNotifyFilter@@SAPEAV_objref_MappingFilter@2@AEAVcdrStream@@@Z
?_unmarshalObjRef@NotifyPublish@CosNotifyComm@@SAPEAV_objref_NotifyPublish@2@AEAVcdrStream@@@Z
?_unmarshalObjRef@NotifySubscribe@CosNotifyComm@@SAPEAV_objref_NotifySubscribe@2@AEAVcdrStream@@@Z
?_unmarshalObjRef@ProxyConsumer@CosNotifyChannelAdmin@@SAPEAV_objref_ProxyConsumer@2@AEAVcdrStream@@@Z
?_unmarshalObjRef@ProxyPullConsumer@CosEventChannelAdmin@@SAPEAV_objref_ProxyPullConsumer@2@AEAVcdrStream@@@Z
?_unmarshalObjRef@ProxyPullConsumer@CosNotifyChannelAdmin@@SAPEAV_objref_ProxyPullConsumer@2@AEAVcdrStream@@@Z
?_unmarshalObjRef@ProxyPullSupplier@CosEventChannelAdmin@@SAPEAV_objref_ProxyPullSupplier@2@AEAVcdrStream@@@Z
?_unmarshalObjRef@ProxyPullSupplier@CosNotifyChannelAdmin@@SAPEAV_objref_ProxyPullSupplier@2@AEAVcdrStream@@@Z
?_unmarshalObjRef@ProxyPushConsumer@CosEventChannelAdmin@@SAPEAV_objref_ProxyPushConsumer@2@AEAVcdrStream@@@Z
?_unmarshalObjRef@ProxyPushConsumer@CosNotifyChannelAdmin@@SAPEAV_objref_ProxyPushConsumer@2@AEAVcdrStream@@@Z
?_unmarshalObjRef@ProxyPushSupplier@CosEventChannelAdmin@@SAPEAV_objref_ProxyPushSupplier@2@AEAVcdrStream@@@Z
?_unmarshalObjRef@ProxyPushSupplier@CosNotifyChannelAdmin@@SAPEAV_objref_ProxyPushSupplier@2@AEAVcdrStream@@@Z
?_unmarshalObjRef@ProxySupplier@CosNotifyChannelAdmin@@SAPEAV_objref_ProxySupplier@2@AEAVcdrStream@@@Z
?_unmarshalObjRef@PullConsumer@CosEventComm@@SAPEAV_objref_PullConsumer@2@AEAVcdrStream@@@Z
?_unmarshalObjRef@PullConsumer@CosNotifyComm@@SAPEAV_objref_PullConsumer@2@AEAVcdrStream@@@Z
?_unmarshalObjRef@PullSupplier@CosEventComm@@SAPEAV_objref_PullSupplier@2@AEAVcdrStream@@@Z
?_unmarshalObjRef@PullSupplier@CosNotifyComm@@SAPEAV_objref_PullSupplier@2@AEAVcdrStream@@@Z
?_unmarshalObjRef@PushConsumer@CosEventComm@@SAPEAV_objref_PushConsumer@2@AEAVcdrStream@@@Z
?_unmarshalObjRef@PushConsumer@CosNotifyComm@@SAPEAV_objref_PushConsumer@2@AEAVcdrStream@@@Z
?_unmarshalObjRef@PushSupplier@CosEventComm@@SAPEAV_objref_PushSupplier@2@AEAVcdrStream@@@Z
?_unmarshalObjRef@PushSupplier@CosNotifyComm@@SAPEAV_objref_PushSupplier@2@AEAVcdrStream@@@Z
?_unmarshalObjRef@QoSAdmin@CosNotification@@SAPEAV_objref_QoSAdmin@2@AEAVcdrStream@@@Z
?_unmarshalObjRef@SequenceProxyPullConsumer@CosNotifyChannelAdmin@@SAPEAV_objref_SequenceProxyPullConsumer@2@AEAVcdrStream@@@Z
?_unmarshalObjRef@SequenceProxyPullSupplier@CosNotifyChannelAdmin@@SAPEAV_objref_SequenceProxyPullSupplier@2@AEAVcdrStream@@@Z
?_unmarshalObjRef@SequenceProxyPushConsumer@CosNotifyChannelAdmin@@SAPEAV_objref_SequenceProxyPushConsumer@2@AEAVcdrStream@@@Z
?_unmarshalObjRef@SequenceProxyPushSupplier@CosNotifyChannelAdmin@@SAPEAV_objref_SequenceProxyPushSupplier@2@AEAVcdrStream@@@Z
?_unmarshalObjRef@SequencePullConsumer@CosNotifyComm@@SAPEAV_objref_SequencePullConsumer@2@AEAVcdrStream@@@Z
?_unmarshalObjRef@SequencePullSupplier@CosNotifyComm@@SAPEAV_objref_SequencePullSupplier@2@AEAVcdrStream@@@Z
?_unmarshalObjRef@SequencePushConsumer@CosNotifyComm@@SAPEAV_objref_SequencePushConsumer@2@AEAVcdrStream@@@Z
?_unmarshalObjRef@SequencePushSupplier@CosNotifyComm@@SAPEAV_objref_SequencePushSupplier@2@AEAVcdrStream@@@Z
?_unmarshalObjRef@StructuredProxyPullConsumer@CosNotifyChannelAdmin@@SAPEAV_objref_StructuredProxyPullConsumer@2@AEAVcdrStream@@@Z
?_unmarshalObjRef@StructuredProxyPullSupplier@CosNotifyChannelAdmin@@SAPEAV_objref_StructuredProxyPullSupplier@2@AEAVcdrStream@@@Z
?_unmarshalObjRef@StructuredProxyPushConsumer@CosNotifyChannelAdmin@@SAPEAV_objref_StructuredProxyPushConsumer@2@AEAVcdrStream@@@Z
?_unmarshalObjRef@StructuredProxyPushSupplier@CosNotifyChannelAdmin@@SAPEAV_objref_StructuredProxyPushSupplier@2@AEAVcdrStream@@@Z
?_unmarshalObjRef@StructuredPullConsumer@CosNotifyComm@@SAPEAV_objref_StructuredPullConsumer@2@AEAVcdrStream@@@Z
?_unmarshalObjRef@StructuredPullSupplier@CosNotifyComm@@SAPEAV_objref_StructuredPullSupplier@2@AEAVcdrStream@@@Z
?_unmarshalObjRef@StructuredPushConsumer@CosNotifyComm@@SAPEAV_objref_StructuredPushConsumer@2@AEAVcdrStream@@@Z
?_unmarshalObjRef@StructuredPushSupplier@CosNotifyComm@@SAPEAV_objref_StructuredPushSupplier@2@AEAVcdrStream@@@Z
?_unmarshalObjRef@SupplierAdmin@CosEventChannelAdmin@@SAPEAV_objref_SupplierAdmin@2@AEAVcdrStream@@@Z
?_unmarshalObjRef@SupplierAdmin@CosNotifyChannelAdmin@@SAPEAV_objref_SupplierAdmin@2@AEAVcdrStream@@@Z
?_unmarshalObjRef@TIO@CosTime@@SAPEAV_objref_TIO@2@AEAVcdrStream@@@Z
?_unmarshalObjRef@TimeService@CosTime@@SAPEAV_objref_TimeService@2@AEAVcdrStream@@@Z
?_unmarshalObjRef@UTO@CosTime@@SAPEAV_objref_UTO@2@AEAVcdrStream@@@Z
?_user_exns@_0RL_cd_1fe8f330207afd15_00000000@@2QBQEBDB
?_user_exns@_0RL_cd_1fe8f330207afd15_02000000@@2QBQEBDB
?_user_exns@_0RL_cd_1fe8f330207afd15_03000000@@2QBQEBDB
?_user_exns@_0RL_cd_1fe8f330207afd15_11000000@@2QBQEBDB
?_user_exns@_0RL_cd_1fe8f330207afd15_20000000@@2QBQEBDB
?_user_exns@_0RL_cd_1fe8f330207afd15_22000000@@2QBQEBDB
?_user_exns@_0RL_cd_1fe8f330207afd15_23000000@@2QBQEBDB
?_user_exns@_0RL_cd_1fe8f330207afd15_31000000@@2QBQEBDB
?_user_exns@_0RL_cd_1fe8f330207afd15_40000000@@2QBQEBDB
?_user_exns@_0RL_cd_1fe8f330207afd15_42000000@@2QBQEBDB
?_user_exns@_0RL_cd_1fe8f330207afd15_43000000@@2QBQEBDB
?_user_exns@_0RL_cd_1fe8f330207afd15_51000000@@2QBQEBDB
?_user_exns@_0RL_cd_1fe8f330207afd15_60000000@@2QBQEBDB
?_user_exns@_0RL_cd_1fe8f330207afd15_63000000@@2QBQEBDB
?_user_exns@_0RL_cd_1fe8f330207afd15_71000000@@2QBQEBDB
?_user_exns@_0RL_cd_1fe8f330207afd15_80000000@@2QBQEBDB
?_user_exns@_0RL_cd_1fe8f330207afd15_82000000@@2QBQEBDB
?_user_exns@_0RL_cd_1fe8f330207afd15_83000000@@2QBQEBDB
?_user_exns@_0RL_cd_1fe8f330207afd15_a0000000@@2QBQEBDB
?_user_exns@_0RL_cd_1fe8f330207afd15_a1000000@@2QBQEBDB
?_user_exns@_0RL_cd_1fe8f330207afd15_a2000000@@2QBQEBDB
?_user_exns@_0RL_cd_1fe8f330207afd15_c1000000@@2QBQEBDB
?_user_exns@_0RL_cd_1fe8f330207afd15_c2000000@@2QBQEBDB
?_user_exns@_0RL_cd_1fe8f330207afd15_d0000000@@2QBQEBDB
?_user_exns@_0RL_cd_1fe8f330207afd15_e1000000@@2QBQEBDB
?_user_exns@_0RL_cd_1fe8f330207afd15_e2000000@@2QBQEBDB
?_user_exns@_0RL_cd_1fe8f330207afd15_f0000000@@2QBQEBDB
?_user_exns@_0RL_cd_25b2b9dd5b4ad98d_00000000@@2QBQEBDB
?_user_exns@_0RL_cd_25b2b9dd5b4ad98d_20000000@@2QBQEBDB
?_user_exns@_0RL_cd_25b2b9dd5b4ad98d_40000000@@2QBQEBDB
?_user_exns@_0RL_cd_25b2b9dd5b4ad98d_60000000@@2QBQEBDB
?_user_exns@_0RL_cd_25b2b9dd5b4ad98d_80000000@@2QBQEBDB
?_user_exns@_0RL_cd_25b2b9dd5b4ad98d_a0000000@@2QBQEBDB
?_user_exns@_0RL_cd_4b6b86183777b6c2_00000000@@2QBQEBDB
?_user_exns@_0RL_cd_4b6b86183777b6c2_21000000@@2QBQEBDB
?_user_exns@_0RL_cd_4b6b86183777b6c2_30000000@@2QBQEBDB
?_user_exns@_0RL_cd_4b6b86183777b6c2_41000000@@2QBQEBDB
?_user_exns@_0RL_cd_4b6b86183777b6c2_50000000@@2QBQEBDB
?_user_exns@_0RL_cd_4b6b86183777b6c2_80000000@@2QBQEBDB
?_user_exns@_0RL_cd_4b6b86183777b6c2_a0000000@@2QBQEBDB
?_user_exns@_0RL_cd_4b6b86183777b6c2_e0000000@@2QBQEBDB
?_user_exns@_0RL_cd_8b6214f5b3100e7e_00000000@@2QBQEBDB
?_user_exns@_0RL_cd_8b6214f5b3100e7e_20000000@@2QBQEBDB
?_user_exns@_0RL_cd_8b6214f5b3100e7e_40000000@@2QBQEBDB
?_user_exns@_0RL_cd_8b6214f5b3100e7e_70000000@@2QBQEBDB
?_user_exns@_0RL_cd_9043e11a9721dab3_00000000@@2QBQEBDB
?_user_exns@_0RL_cd_9043e11a9721dab3_06000000@@2QBQEBDB
?_user_exns@_0RL_cd_9043e11a9721dab3_12000000@@2QBQEBDB
?_user_exns@_0RL_cd_9043e11a9721dab3_13000000@@2QBQEBDB
?_user_exns@_0RL_cd_9043e11a9721dab3_20000000@@2QBQEBDB
?_user_exns@_0RL_cd_9043e11a9721dab3_25000000@@2QBQEBDB
?_user_exns@_0RL_cd_9043e11a9721dab3_26000000@@2QBQEBDB
?_user_exns@_0RL_cd_9043e11a9721dab3_31000000@@2QBQEBDB
?_user_exns@_0RL_cd_9043e11a9721dab3_32000000@@2QBQEBDB
?_user_exns@_0RL_cd_9043e11a9721dab3_34000000@@2QBQEBDB
?_user_exns@_0RL_cd_9043e11a9721dab3_40000000@@2QBQEBDB
?_user_exns@_0RL_cd_9043e11a9721dab3_45000000@@2QBQEBDB
?_user_exns@_0RL_cd_9043e11a9721dab3_46000000@@2QBQEBDB
?_user_exns@_0RL_cd_9043e11a9721dab3_51000000@@2QBQEBDB
?_user_exns@_0RL_cd_9043e11a9721dab3_52000000@@2QBQEBDB
?_user_exns@_0RL_cd_9043e11a9721dab3_53000000@@2QBQEBDB
?_user_exns@_0RL_cd_9043e11a9721dab3_60000000@@2QBQEBDB
?_user_exns@_0RL_cd_9043e11a9721dab3_64000000@@2QBQEBDB
?_user_exns@_0RL_cd_9043e11a9721dab3_66000000@@2QBQEBDB
?_user_exns@_0RL_cd_9043e11a9721dab3_71000000@@2QBQEBDB
?_user_exns@_0RL_cd_9043e11a9721dab3_84000000@@2QBQEBDB
?_user_exns@_0RL_cd_9043e11a9721dab3_85000000@@2QBQEBDB
?_user_exns@_0RL_cd_9043e11a9721dab3_90000000@@2QBQEBDB
?_user_exns@_0RL_cd_9043e11a9721dab3_91000000@@2QBQEBDB
?_user_exns@_0RL_cd_9043e11a9721dab3_92000000@@2QBQEBDB
?_user_exns@_0RL_cd_9043e11a9721dab3_93000000@@2QBQEBDB
?_user_exns@_0RL_cd_9043e11a9721dab3_96000000@@2QBQEBDB
?_user_exns@_0RL_cd_9043e11a9721dab3_b0000000@@2QBQEBDB
?_user_exns@_0RL_cd_9043e11a9721dab3_b1000000@@2QBQEBDB
?_user_exns@_0RL_cd_9043e11a9721dab3_b3000000@@2QBQEBDB
?_user_exns@_0RL_cd_9043e11a9721dab3_b4000000@@2QBQEBDB
?_user_exns@_0RL_cd_9043e11a9721dab3_b6000000@@2QBQEBDB
?_user_exns@_0RL_cd_9043e11a9721dab3_c5000000@@2QBQEBDB
?_user_exns@_0RL_cd_9043e11a9721dab3_d0000000@@2QBQEBDB
?_user_exns@_0RL_cd_9043e11a9721dab3_d1000000@@2QBQEBDB
?_user_exns@_0RL_cd_9043e11a9721dab3_d2000000@@2QBQEBDB
?_user_exns@_0RL_cd_9043e11a9721dab3_d3000000@@2QBQEBDB
?_user_exns@_0RL_cd_9043e11a9721dab3_d6000000@@2QBQEBDB
?_user_exns@_0RL_cd_9043e11a9721dab3_e5000000@@2QBQEBDB
?_user_exns@_0RL_cd_9043e11a9721dab3_f1000000@@2QBQEBDB
?_user_exns@_0RL_cd_99dff546ea0f9974_00000000@@2QBQEBDB
?_user_exns@_0RL_cd_99dff546ea0f9974_11000000@@2QBQEBDB
?_user_exns@_0RL_cd_99dff546ea0f9974_30000000@@2QBQEBDB
?_user_exns@_0RL_cd_99dff546ea0f9974_31000000@@2QBQEBDB
?_user_exns@_0RL_cd_99dff546ea0f9974_50000000@@2QBQEBDB
?_user_exns@_0RL_cd_99dff546ea0f9974_61000000@@2QBQEBDB
?_user_exns@_0RL_cd_99dff546ea0f9974_70000000@@2QBQEBDB
?_user_exns@_0RL_cd_99dff546ea0f9974_90000000@@2QBQEBDB
?_user_exns@_0RL_cd_99dff546ea0f9974_91000000@@2QBQEBDB
?_user_exns@_0RL_cd_99dff546ea0f9974_b0000000@@2QBQEBDB
?_user_exns@_0RL_cd_99dff546ea0f9974_b1000000@@2QBQEBDB
?_user_exns@_0RL_cd_99dff546ea0f9974_d0000000@@2QBQEBDB
?_user_exns@_0RL_cd_99dff546ea0f9974_d1000000@@2QBQEBDB
?_user_exns@_0RL_cd_99dff546ea0f9974_f0000000@@2QBQEBDB
?_user_exns@_0RL_cd_bd959cc57b2e138f_00000000@@2QBQEBDB
?_user_exns@_0RL_cd_bd959cc57b2e138f_20000000@@2QBQEBDB
?_user_exns@_0RL_cd_bd959cc57b2e138f_50000000@@2QBQEBDB
?_user_exns@_0RL_cd_bd959cc57b2e138f_70000000@@2QBQEBDB
?_user_exns@_0RL_cd_f894c8374a428e70_00000000@@2QBQEBDB
?_user_exns@_0RL_cd_f894c8374a428e70_01000000@@2QBQEBDB
?_user_exns@_0RL_cd_f894c8374a428e70_20000000@@2QBQEBDB
?_user_exns@_0RL_cd_f894c8374a428e70_21000000@@2QBQEBDB
?_user_exns@_0RL_cd_f894c8374a428e70_40000000@@2QBQEBDB
?_user_exns@_0RL_cd_f894c8374a428e70_41000000@@2QBQEBDB
?_user_exns@_0RL_cd_f894c8374a428e70_60000000@@2QBQEBDB
?_user_exns@_0RL_cd_f894c8374a428e70_80000000@@2QBQEBDB
?_user_exns@_0RL_cd_f894c8374a428e70_a0000000@@2QBQEBDB
?_user_exns@_0RL_cd_f894c8374a428e70_c0000000@@2QBQEBDB
?_user_exns@_0RL_cd_f894c8374a428e70_e0000000@@2QBQEBDB
?absolute_time@_objref_UTO@CosTime@@QEAAPEAV12@XZ
?add_constraints@_objref_Filter@CosNotifyFilter@@QEAAPEAVConstraintInfoSeq@2@AEBVConstraintExpSeq@2@@Z
?add_filter@_objref_FilterAdmin@CosNotifyFilter@@QEAAJPEAV_objref_Filter@2@@Z
?add_mapping_constraints@_objref_MappingFilter@CosNotifyFilter@@QEAAPEAVMappingConstraintInfoSeq@2@AEBVMappingConstraintPairSeq@2@@Z
?align_to@omni@@YA_K_KW4alignment_t@1@@Z
?alloc@_CORBA_String_helper@@SAPEADH@Z
?allocbuf@?$_CORBA_Sequence@J@@SAPEAJK@Z
?allocbuf@?$_CORBA_Sequence@UConstraintExp@CosNotifyFilter@@@@SAPEAUConstraintExp@CosNotifyFilter@@K@Z
?allocbuf@?$_CORBA_Sequence@UConstraintInfo@CosNotifyFilter@@@@SAPEAUConstraintInfo@CosNotifyFilter@@K@Z
?allocbuf@?$_CORBA_Sequence@UEventType@CosNotification@@@@SAPEAUEventType@CosNotification@@K@Z
?allocbuf@?$_CORBA_Sequence@UMappingConstraintInfo@CosNotifyFilter@@@@SAPEAUMappingConstraintInfo@CosNotifyFilter@@K@Z
?allocbuf@?$_CORBA_Sequence@UMappingConstraintPair@CosNotifyFilter@@@@SAPEAUMappingConstraintPair@CosNotifyFilter@@K@Z
?allocbuf@?$_CORBA_Sequence@UNVP@CosLifeCycle@@@@SAPEAUNVP@CosLifeCycle@@K@Z
?allocbuf@?$_CORBA_Sequence@UNameComponent@CosNaming@@@@SAPEAUNameComponent@CosNaming@@K@Z
?allocbuf@?$_CORBA_Sequence@UNamedPropertyRange@CosNotification@@@@SAPEAUNamedPropertyRange@CosNotification@@K@Z
?allocbuf@?$_CORBA_Sequence@UProperty@CosNotification@@@@SAPEAUProperty@CosNotification@@K@Z
?allocbuf@?$_CORBA_Sequence@UPropertyError@CosNotification@@@@SAPEAUPropertyError@CosNotification@@K@Z
?allocbuf@?$_CORBA_Sequence@UStructuredEvent@CosNotification@@@@SAPEAUStructuredEvent@CosNotification@@K@Z
?allocbuf@?$_CORBA_Sequence_ObjRef@VObject@CORBA@@VObject_Element@2@VObject_Helper@2@@@SAPEAPEAVObject@CORBA@@K@Z
?attach_callback@_objref_Filter@CosNotifyFilter@@QEAAJPEAV_objref_NotifySubscribe@CosNotifyComm@@@Z
?byteSwap@cdrStream@@SAFF@Z
?byteSwap@cdrStream@@SAGG@Z
?byteSwap@cdrStream@@SAJJ@Z
?byteSwap@cdrStream@@SAKK@Z
?byteSwap@cdrStream@@SA_K_K@Z
?compare_time@_objref_UTO@CosTime@@QEAA?AW4TimeComparison@2@W4ComparisonType@2@PEAV12@@Z
?connect_any_pull_consumer@_objref_ProxyPullSupplier@CosNotifyChannelAdmin@@QEAAXPEAV_objref_PullConsumer@CosEventComm@@@Z
?connect_any_pull_supplier@_objref_ProxyPullConsumer@CosNotifyChannelAdmin@@QEAAXPEAV_objref_PullSupplier@CosEventComm@@@Z
?connect_any_push_consumer@_objref_ProxyPushSupplier@CosNotifyChannelAdmin@@QEAAXPEAV_objref_PushConsumer@CosEventComm@@@Z
?connect_any_push_supplier@_objref_ProxyPushConsumer@CosNotifyChannelAdmin@@QEAAXPEAV_objref_PushSupplier@CosEventComm@@@Z
?connect_pull_consumer@_objref_ProxyPullSupplier@CosEventChannelAdmin@@QEAAXPEAV_objref_PullConsumer@CosEventComm@@@Z
?connect_pull_supplier@_objref_ProxyPullConsumer@CosEventChannelAdmin@@QEAAXPEAV_objref_PullSupplier@CosEventComm@@@Z
?connect_push_consumer@_objref_ProxyPushSupplier@CosEventChannelAdmin@@QEAAXPEAV_objref_PushConsumer@CosEventComm@@@Z
?connect_push_supplier@_objref_ProxyPushConsumer@CosEventChannelAdmin@@QEAAXPEAV_objref_PushSupplier@CosEventComm@@@Z
?connect_sequence_pull_consumer@_objref_SequenceProxyPullSupplier@CosNotifyChannelAdmin@@QEAAXPEAV_objref_SequencePullConsumer@CosNotifyComm@@@Z
?connect_sequence_pull_supplier@_objref_SequenceProxyPullConsumer@CosNotifyChannelAdmin@@QEAAXPEAV_objref_SequencePullSupplier@CosNotifyComm@@@Z
?connect_sequence_push_consumer@_objref_SequenceProxyPushSupplier@CosNotifyChannelAdmin@@QEAAXPEAV_objref_SequencePushConsumer@CosNotifyComm@@@Z
?connect_sequence_push_supplier@_objref_SequenceProxyPushConsumer@CosNotifyChannelAdmin@@QEAAXPEAV_objref_SequencePushSupplier@CosNotifyComm@@@Z
?connect_structured_pull_consumer@_objref_StructuredProxyPullSupplier@CosNotifyChannelAdmin@@QEAAXPEAV_objref_StructuredPullConsumer@CosNotifyComm@@@Z
?connect_structured_pull_supplier@_objref_StructuredProxyPullConsumer@CosNotifyChannelAdmin@@QEAAXPEAV_objref_StructuredPullSupplier@CosNotifyComm@@@Z
?connect_structured_push_consumer@_objref_StructuredProxyPushSupplier@CosNotifyChannelAdmin@@QEAAXPEAV_objref_StructuredPushConsumer@CosNotifyComm@@@Z
?connect_structured_push_supplier@_objref_StructuredProxyPushConsumer@CosNotifyChannelAdmin@@QEAAXPEAV_objref_StructuredPushSupplier@CosNotifyComm@@@Z
?constraint_grammar@_objref_Filter@CosNotifyFilter@@QEAAPEADXZ
?constraint_grammar@_objref_MappingFilter@CosNotifyFilter@@QEAAPEADXZ
?copy@_objref_LifeCycleObject@CosLifeCycle@@QEAAPEAV12@PEAV_objref_FactoryFinder@2@AEBVCriteria@2@@Z
?copybuffer@?$_CORBA_Sequence@J@@IEAAXK@Z
?copybuffer@?$_CORBA_Sequence@UConstraintExp@CosNotifyFilter@@@@IEAAXK@Z
?copybuffer@?$_CORBA_Sequence@UConstraintInfo@CosNotifyFilter@@@@IEAAXK@Z
?copybuffer@?$_CORBA_Sequence@UEventType@CosNotification@@@@IEAAXK@Z
?copybuffer@?$_CORBA_Sequence@UMappingConstraintInfo@CosNotifyFilter@@@@IEAAXK@Z
?copybuffer@?$_CORBA_Sequence@UMappingConstraintPair@CosNotifyFilter@@@@IEAAXK@Z
?copybuffer@?$_CORBA_Sequence@UNVP@CosLifeCycle@@@@IEAAXK@Z
?copybuffer@?$_CORBA_Sequence@UNameComponent@CosNaming@@@@IEAAXK@Z
?copybuffer@?$_CORBA_Sequence@UNamedPropertyRange@CosNotification@@@@IEAAXK@Z
?copybuffer@?$_CORBA_Sequence@UProperty@CosNotification@@@@IEAAXK@Z
?copybuffer@?$_CORBA_Sequence@UPropertyError@CosNotification@@@@IEAAXK@Z
?copybuffer@?$_CORBA_Sequence@UStructuredEvent@CosNotification@@@@IEAAXK@Z
?copybuffer@?$_CORBA_Sequence_ObjRef@VObject@CORBA@@VObject_Element@2@VObject_Helper@2@@@IEAAXK@Z
?create_channel@_objref_EventChannelFactory@CosNotifyChannelAdmin@@QEAAPEAV_objref_EventChannel@2@AEBVPropertySeq@CosNotification@@0AEAJ@Z
?create_filter@_objref_FilterFactory@CosNotifyFilter@@QEAAPEAV_objref_Filter@2@PEBD@Z
?create_mapping_filter@_objref_FilterFactory@CosNotifyFilter@@QEAAPEAV_objref_MappingFilter@2@PEBDAEBVAny@CORBA@@@Z
?create_object@_objref_GenericFactory@CosLifeCycle@@QEAAPEAVObject@CORBA@@AEBVName@CosNaming@@AEBVCriteria@2@@Z
?dealloc@_CORBA_String_helper@@SAXPEAD@Z
?default_consumer_admin@_objref_EventChannel@CosNotifyChannelAdmin@@QEAAPEAV_objref_ConsumerAdmin@2@XZ
?default_filter_factory@_objref_EventChannel@CosNotifyChannelAdmin@@QEAAPEAV_objref_FilterFactory@CosNotifyFilter@@XZ
?default_supplier_admin@_objref_EventChannel@CosNotifyChannelAdmin@@QEAAPEAV_objref_SupplierAdmin@2@XZ
?default_value@_objref_MappingFilter@CosNotifyFilter@@QEAAPEAVAny@CORBA@@XZ
?destroy@_objref_ConsumerAdmin@CosNotifyChannelAdmin@@QEAAXXZ
?destroy@_objref_EventChannel@CosEventChannelAdmin@@QEAAXXZ
?destroy@_objref_Filter@CosNotifyFilter@@QEAAXXZ
?destroy@_objref_MappingFilter@CosNotifyFilter@@QEAAXXZ
?destroy@_objref_SupplierAdmin@CosNotifyChannelAdmin@@QEAAXXZ
?detach_callback@_objref_Filter@CosNotifyFilter@@QEAAXJ@Z
?disconnect_pull_consumer@_objref_PullConsumer@CosEventComm@@QEAAXXZ
?disconnect_pull_supplier@_objref_PullSupplier@CosEventComm@@QEAAXXZ
?disconnect_push_consumer@_objref_PushConsumer@CosEventComm@@QEAAXXZ
?disconnect_push_supplier@_objref_PushSupplier@CosEventComm@@QEAAXXZ
?disconnect_sequence_pull_consumer@_objref_SequencePullConsumer@CosNotifyComm@@QEAAXXZ
?disconnect_sequence_pull_supplier@_objref_SequencePullSupplier@CosNotifyComm@@QEAAXXZ
?disconnect_sequence_push_consumer@_objref_SequencePushConsumer@CosNotifyComm@@QEAAXXZ
?disconnect_sequence_push_supplier@_objref_SequencePushSupplier@CosNotifyComm@@QEAAXXZ
?disconnect_structured_pull_consumer@_objref_StructuredPullConsumer@CosNotifyComm@@QEAAXXZ
?disconnect_structured_pull_supplier@_objref_StructuredPullSupplier@CosNotifyComm@@QEAAXXZ
?disconnect_structured_push_consumer@_objref_StructuredPushConsumer@CosNotifyComm@@QEAAXXZ
?disconnect_structured_push_supplier@_objref_StructuredPushSupplier@CosNotifyComm@@QEAAXXZ
?dup@_CORBA_String_helper@@SAPEADPEBD@Z
?duplicate@AdminPropertiesAdmin_Helper@CosNotification@@SAXPEAV_objref_AdminPropertiesAdmin@2@@Z
?duplicate@ConsumerAdmin_Helper@CosEventChannelAdmin@@SAXPEAV_objref_ConsumerAdmin@2@@Z
?duplicate@ConsumerAdmin_Helper@CosNotifyChannelAdmin@@SAXPEAV_objref_ConsumerAdmin@2@@Z
?duplicate@EventChannelFactory_Helper@CosNotifyChannelAdmin@@SAXPEAV_objref_EventChannelFactory@2@@Z
?duplicate@EventChannel_Helper@CosEventChannelAdmin@@SAXPEAV_objref_EventChannel@2@@Z
?duplicate@EventChannel_Helper@CosNotifyChannelAdmin@@SAXPEAV_objref_EventChannel@2@@Z
?duplicate@FactoryFinder_Helper@CosLifeCycle@@SAXPEAV_objref_FactoryFinder@2@@Z
?duplicate@FilterAdmin_Helper@CosNotifyFilter@@SAXPEAV_objref_FilterAdmin@2@@Z
?duplicate@FilterFactory_Helper@CosNotifyFilter@@SAXPEAV_objref_FilterFactory@2@@Z
?duplicate@Filter_Helper@CosNotifyFilter@@SAXPEAV_objref_Filter@2@@Z
?duplicate@GenericFactory_Helper@CosLifeCycle@@SAXPEAV_objref_GenericFactory@2@@Z
?duplicate@LifeCycleObject_Helper@CosLifeCycle@@SAXPEAV_objref_LifeCycleObject@2@@Z
?duplicate@MappingFilter_Helper@CosNotifyFilter@@SAXPEAV_objref_MappingFilter@2@@Z
?duplicate@NotifyPublish_Helper@CosNotifyComm@@SAXPEAV_objref_NotifyPublish@2@@Z
?duplicate@NotifySubscribe_Helper@CosNotifyComm@@SAXPEAV_objref_NotifySubscribe@2@@Z
?duplicate@ProxyConsumer_Helper@CosNotifyChannelAdmin@@SAXPEAV_objref_ProxyConsumer@2@@Z
?duplicate@ProxyPullConsumer_Helper@CosEventChannelAdmin@@SAXPEAV_objref_ProxyPullConsumer@2@@Z
?duplicate@ProxyPullConsumer_Helper@CosNotifyChannelAdmin@@SAXPEAV_objref_ProxyPullConsumer@2@@Z
?duplicate@ProxyPullSupplier_Helper@CosEventChannelAdmin@@SAXPEAV_objref_ProxyPullSupplier@2@@Z
?duplicate@ProxyPullSupplier_Helper@CosNotifyChannelAdmin@@SAXPEAV_objref_ProxyPullSupplier@2@@Z
?duplicate@ProxyPushConsumer_Helper@CosEventChannelAdmin@@SAXPEAV_objref_ProxyPushConsumer@2@@Z
?duplicate@ProxyPushConsumer_Helper@CosNotifyChannelAdmin@@SAXPEAV_objref_ProxyPushConsumer@2@@Z
?duplicate@ProxyPushSupplier_Helper@CosEventChannelAdmin@@SAXPEAV_objref_ProxyPushSupplier@2@@Z
?duplicate@ProxyPushSupplier_Helper@CosNotifyChannelAdmin@@SAXPEAV_objref_ProxyPushSupplier@2@@Z
?duplicate@ProxySupplier_Helper@CosNotifyChannelAdmin@@SAXPEAV_objref_ProxySupplier@2@@Z
?duplicate@PullConsumer_Helper@CosEventComm@@SAXPEAV_objref_PullConsumer@2@@Z
?duplicate@PullConsumer_Helper@CosNotifyComm@@SAXPEAV_objref_PullConsumer@2@@Z
?duplicate@PullSupplier_Helper@CosEventComm@@SAXPEAV_objref_PullSupplier@2@@Z
?duplicate@PullSupplier_Helper@CosNotifyComm@@SAXPEAV_objref_PullSupplier@2@@Z
?duplicate@PushConsumer_Helper@CosEventComm@@SAXPEAV_objref_PushConsumer@2@@Z
?duplicate@PushConsumer_Helper@CosNotifyComm@@SAXPEAV_objref_PushConsumer@2@@Z
?duplicate@PushSupplier_Helper@CosEventComm@@SAXPEAV_objref_PushSupplier@2@@Z
?duplicate@PushSupplier_Helper@CosNotifyComm@@SAXPEAV_objref_PushSupplier@2@@Z
?duplicate@QoSAdmin_Helper@CosNotification@@SAXPEAV_objref_QoSAdmin@2@@Z
?duplicate@SequenceProxyPullConsumer_Helper@CosNotifyChannelAdmin@@SAXPEAV_objref_SequenceProxyPullConsumer@2@@Z
?duplicate@SequenceProxyPullSupplier_Helper@CosNotifyChannelAdmin@@SAXPEAV_objref_SequenceProxyPullSupplier@2@@Z
?duplicate@SequenceProxyPushConsumer_Helper@CosNotifyChannelAdmin@@SAXPEAV_objref_SequenceProxyPushConsumer@2@@Z
?duplicate@SequenceProxyPushSupplier_Helper@CosNotifyChannelAdmin@@SAXPEAV_objref_SequenceProxyPushSupplier@2@@Z
?duplicate@SequencePullConsumer_Helper@CosNotifyComm@@SAXPEAV_objref_SequencePullConsumer@2@@Z
?duplicate@SequencePullSupplier_Helper@CosNotifyComm@@SAXPEAV_objref_SequencePullSupplier@2@@Z
?duplicate@SequencePushConsumer_Helper@CosNotifyComm@@SAXPEAV_objref_SequencePushConsumer@2@@Z
?duplicate@SequencePushSupplier_Helper@CosNotifyComm@@SAXPEAV_objref_SequencePushSupplier@2@@Z
?duplicate@StructuredProxyPullConsumer_Helper@CosNotifyChannelAdmin@@SAXPEAV_objref_StructuredProxyPullConsumer@2@@Z
?duplicate@StructuredProxyPullSupplier_Helper@CosNotifyChannelAdmin@@SAXPEAV_objref_StructuredProxyPullSupplier@2@@Z
?duplicate@StructuredProxyPushConsumer_Helper@CosNotifyChannelAdmin@@SAXPEAV_objref_StructuredProxyPushConsumer@2@@Z
?duplicate@StructuredProxyPushSupplier_Helper@CosNotifyChannelAdmin@@SAXPEAV_objref_StructuredProxyPushSupplier@2@@Z
?duplicate@StructuredPullConsumer_Helper@CosNotifyComm@@SAXPEAV_objref_StructuredPullConsumer@2@@Z
?duplicate@StructuredPullSupplier_Helper@CosNotifyComm@@SAXPEAV_objref_StructuredPullSupplier@2@@Z
?duplicate@StructuredPushConsumer_Helper@CosNotifyComm@@SAXPEAV_objref_StructuredPushConsumer@2@@Z
?duplicate@StructuredPushSupplier_Helper@CosNotifyComm@@SAXPEAV_objref_StructuredPushSupplier@2@@Z
?duplicate@SupplierAdmin_Helper@CosEventChannelAdmin@@SAXPEAV_objref_SupplierAdmin@2@@Z
?duplicate@SupplierAdmin_Helper@CosNotifyChannelAdmin@@SAXPEAV_objref_SupplierAdmin@2@@Z
?duplicate@TIO_Helper@CosTime@@SAXPEAV_objref_TIO@2@@Z
?duplicate@TimeService_Helper@CosTime@@SAXPEAV_objref_TimeService@2@@Z
?duplicate@UTO_Helper@CosTime@@SAXPEAV_objref_UTO@2@@Z
?find_factories@_objref_FactoryFinder@CosLifeCycle@@QEAAPEAVFactories@2@AEBVName@CosNaming@@@Z
?for_consumers@_objref_EventChannel@CosEventChannelAdmin@@QEAAPEAV_objref_ConsumerAdmin@2@XZ
?for_suppliers@_objref_EventChannel@CosEventChannelAdmin@@QEAAPEAV_objref_SupplierAdmin@2@XZ
?freebuf@?$_CORBA_Sequence@E@@SAXPEAE@Z
?freebuf@?$_CORBA_Sequence@J@@SAXPEAJ@Z
?freebuf@?$_CORBA_Sequence@UConstraintExp@CosNotifyFilter@@@@SAXPEAUConstraintExp@CosNotifyFilter@@@Z
?freebuf@?$_CORBA_Sequence@UConstraintInfo@CosNotifyFilter@@@@SAXPEAUConstraintInfo@CosNotifyFilter@@@Z
?freebuf@?$_CORBA_Sequence@UEventType@CosNotification@@@@SAXPEAUEventType@CosNotification@@@Z
?freebuf@?$_CORBA_Sequence@UExceptionDescription@CORBA@@@@SAXPEAUExceptionDescription@CORBA@@@Z
?freebuf@?$_CORBA_Sequence@UMappingConstraintInfo@CosNotifyFilter@@@@SAXPEAUMappingConstraintInfo@CosNotifyFilter@@@Z
?freebuf@?$_CORBA_Sequence@UMappingConstraintPair@CosNotifyFilter@@@@SAXPEAUMappingConstraintPair@CosNotifyFilter@@@Z
?freebuf@?$_CORBA_Sequence@UNVP@CosLifeCycle@@@@SAXPEAUNVP@CosLifeCycle@@@Z
?freebuf@?$_CORBA_Sequence@UNameComponent@CosNaming@@@@SAXPEAUNameComponent@CosNaming@@@Z
?freebuf@?$_CORBA_Sequence@UNamedPropertyRange@CosNotification@@@@SAXPEAUNamedPropertyRange@CosNotification@@@Z
?freebuf@?$_CORBA_Sequence@UParameterDescription@CORBA@@@@SAXPEAUParameterDescription@CORBA@@@Z
?freebuf@?$_CORBA_Sequence@UProperty@CosNotification@@@@SAXPEAUProperty@CosNotification@@@Z
?freebuf@?$_CORBA_Sequence@UPropertyError@CosNotification@@@@SAXPEAUPropertyError@CosNotification@@@Z
?freebuf@?$_CORBA_Sequence@UStructMember@CORBA@@@@SAXPEAUStructMember@CORBA@@@Z
?freebuf@?$_CORBA_Sequence@UStructuredEvent@CosNotification@@@@SAXPEAUStructuredEvent@CosNotification@@@Z
?freebuf@?$_CORBA_Sequence_ObjRef@VObject@CORBA@@VObject_Element@2@VObject_Helper@2@@@SAXPEAPEAVObject@CORBA@@@Z
?freebuf@_CORBA_Sequence_String@@SAXPEAPEAD@Z
?get_admin@_objref_AdminPropertiesAdmin@CosNotification@@QEAAPEAVPropertySeq@2@XZ
?get_all_channels@_objref_EventChannelFactory@CosNotifyChannelAdmin@@QEAAPEAVChannelIDSeq@2@XZ
?get_all_constraints@_objref_Filter@CosNotifyFilter@@QEAAPEAVConstraintInfoSeq@2@XZ
?get_all_consumeradmins@_objref_EventChannel@CosNotifyChannelAdmin@@QEAAPEAVAdminIDSeq@2@XZ
?get_all_filters@_objref_FilterAdmin@CosNotifyFilter@@QEAAPEAVFilterIDSeq@2@XZ
?get_all_mapping_constraints@_objref_MappingFilter@CosNotifyFilter@@QEAAPEAVMappingConstraintInfoSeq@2@XZ
?get_all_supplieradmins@_objref_EventChannel@CosNotifyChannelAdmin@@QEAAPEAVAdminIDSeq@2@XZ
?get_callbacks@_objref_Filter@CosNotifyFilter@@QEAAPEAVCallbackIDSeq@2@XZ
?get_constraints@_objref_Filter@CosNotifyFilter@@QEAAPEAVConstraintInfoSeq@2@AEBVConstraintIDSeq@2@@Z
?get_consumeradmin@_objref_EventChannel@CosNotifyChannelAdmin@@QEAAPEAV_objref_ConsumerAdmin@2@J@Z
?get_event_channel@_objref_EventChannelFactory@CosNotifyChannelAdmin@@QEAAPEAV_objref_EventChannel@2@J@Z
?get_filter@_objref_FilterAdmin@CosNotifyFilter@@QEAAPEAV_objref_Filter@2@J@Z
?get_large_octet_array@cdrStream@@QEAAXPEAE_KW4alignment_t@omni@@@Z
?get_mapping_constraints@_objref_MappingFilter@CosNotifyFilter@@QEAAPEAVMappingConstraintInfoSeq@2@AEBVConstraintIDSeq@2@@Z
?get_proxy_consumer@_objref_SupplierAdmin@CosNotifyChannelAdmin@@QEAAPEAV_objref_ProxyConsumer@2@J@Z
?get_proxy_supplier@_objref_ConsumerAdmin@CosNotifyChannelAdmin@@QEAAPEAV_objref_ProxySupplier@2@J@Z
?get_qos@_objref_QoSAdmin@CosNotification@@QEAAPEAVPropertySeq@2@XZ
?get_supplieradmin@_objref_EventChannel@CosNotifyChannelAdmin@@QEAAPEAV_objref_SupplierAdmin@2@J@Z
?in@?$_CORBA_ConstrType_Variable_Var@UStructuredEvent@CosNotification@@@@QEBAAEBUStructuredEvent@CosNotification@@XZ
?in@?$_CORBA_ObjRef_Var@V_objref_FactoryFinder@CosLifeCycle@@VFactoryFinder_Helper@2@@@QEBAPEAV_objref_FactoryFinder@CosLifeCycle@@XZ
?in@?$_CORBA_ObjRef_Var@V_objref_Filter@CosNotifyFilter@@VFilter_Helper@2@@@QEBAPEAV_objref_Filter@CosNotifyFilter@@XZ
?in@?$_CORBA_ObjRef_Var@V_objref_MappingFilter@CosNotifyFilter@@VMappingFilter_Helper@2@@@QEBAPEAV_objref_MappingFilter@CosNotifyFilter@@XZ
?in@?$_CORBA_ObjRef_Var@V_objref_NotifySubscribe@CosNotifyComm@@VNotifySubscribe_Helper@2@@@QEBAPEAV_objref_NotifySubscribe@CosNotifyComm@@XZ
?in@?$_CORBA_ObjRef_Var@V_objref_PullConsumer@CosEventComm@@VPullConsumer_Helper@2@@@QEBAPEAV_objref_PullConsumer@CosEventComm@@XZ
?in@?$_CORBA_ObjRef_Var@V_objref_PullSupplier@CosEventComm@@VPullSupplier_Helper@2@@@QEBAPEAV_objref_PullSupplier@CosEventComm@@XZ
?in@?$_CORBA_ObjRef_Var@V_objref_PushConsumer@CosEventComm@@VPushConsumer_Helper@2@@@QEBAPEAV_objref_PushConsumer@CosEventComm@@XZ
?in@?$_CORBA_ObjRef_Var@V_objref_PushSupplier@CosEventComm@@VPushSupplier_Helper@2@@@QEBAPEAV_objref_PushSupplier@CosEventComm@@XZ
?in@?$_CORBA_ObjRef_Var@V_objref_SequencePullConsumer@CosNotifyComm@@VSequencePullConsumer_Helper@2@@@QEBAPEAV_objref_SequencePullConsumer@CosNotifyComm@@XZ
?in@?$_CORBA_ObjRef_Var@V_objref_SequencePullSupplier@CosNotifyComm@@VSequencePullSupplier_Helper@2@@@QEBAPEAV_objref_SequencePullSupplier@CosNotifyComm@@XZ
?in@?$_CORBA_ObjRef_Var@V_objref_SequencePushConsumer@CosNotifyComm@@VSequencePushConsumer_Helper@2@@@QEBAPEAV_objref_SequencePushConsumer@CosNotifyComm@@XZ
?in@?$_CORBA_ObjRef_Var@V_objref_SequencePushSupplier@CosNotifyComm@@VSequencePushSupplier_Helper@2@@@QEBAPEAV_objref_SequencePushSupplier@CosNotifyComm@@XZ
?in@?$_CORBA_ObjRef_Var@V_objref_StructuredPullConsumer@CosNotifyComm@@VStructuredPullConsumer_Helper@2@@@QEBAPEAV_objref_StructuredPullConsumer@CosNotifyComm@@XZ
?in@?$_CORBA_ObjRef_Var@V_objref_StructuredPullSupplier@CosNotifyComm@@VStructuredPullSupplier_Helper@2@@@QEBAPEAV_objref_StructuredPullSupplier@CosNotifyComm@@XZ
?in@?$_CORBA_ObjRef_Var@V_objref_StructuredPushConsumer@CosNotifyComm@@VStructuredPushConsumer_Helper@2@@@QEBAPEAV_objref_StructuredPushConsumer@CosNotifyComm@@XZ
?in@?$_CORBA_ObjRef_Var@V_objref_StructuredPushSupplier@CosNotifyComm@@VStructuredPushSupplier_Helper@2@@@QEBAPEAV_objref_StructuredPushSupplier@CosNotifyComm@@XZ
?in@?$_CORBA_ObjRef_Var@V_objref_TIO@CosTime@@VTIO_Helper@2@@@QEBAPEAV_objref_TIO@CosTime@@XZ
?in@?$_CORBA_ObjRef_Var@V_objref_UTO@CosTime@@VUTO_Helper@2@@@QEBAPEAV_objref_UTO@CosTime@@XZ
?in@Any_var@CORBA@@QEBAAEBVAny@2@XZ
?in@ConstraintExpSeq_var@CosNotifyFilter@@QEBAAEBVConstraintExpSeq@2@XZ
?in@ConstraintIDSeq_var@CosNotifyFilter@@QEBAAEBVConstraintIDSeq@2@XZ
?in@ConstraintInfoSeq_var@CosNotifyFilter@@QEBAAEBVConstraintInfoSeq@2@XZ
?in@Criteria_var@CosLifeCycle@@QEBAAEBVCriteria@2@XZ
?in@EventBatch_var@CosNotification@@QEBAAEBVEventBatch@2@XZ
?in@EventTypeSeq_var@CosNotification@@QEBAAEBVEventTypeSeq@2@XZ
?in@MappingConstraintInfoSeq_var@CosNotifyFilter@@QEBAAEBVMappingConstraintInfoSeq@2@XZ
?in@MappingConstraintPairSeq_var@CosNotifyFilter@@QEBAAEBVMappingConstraintPairSeq@2@XZ
?in@Name_var@CosNaming@@QEBAAEBVName@2@XZ
?in@PropertySeq_var@CosNotification@@QEBAAEBVPropertySeq@2@XZ
?in@_CORBA_String_var@@QEBAPEBDXZ
?inMkr@cdrStream@@IEBA_KW4alignment_t@omni@@@Z
?inMkr@cdrStream@@IEBA_KXZ
?inaccuracy@_objref_UTO@CosTime@@QEAA_KXZ
?insertToAnyFn@AdminLimitExceeded@CosNotifyChannelAdmin@@2P6AXAEAVAny@CORBA@@AEBVException@4@@ZEA
?insertToAnyFn@AdminNotFound@CosNotifyChannelAdmin@@2P6AXAEAVAny@CORBA@@AEBVException@4@@ZEA
?insertToAnyFn@AlreadyConnected@CosEventChannelAdmin@@2P6AXAEAVAny@CORBA@@AEBVException@4@@ZEA
?insertToAnyFn@CallbackNotFound@CosNotifyFilter@@2P6AXAEAVAny@CORBA@@AEBVException@4@@ZEA
?insertToAnyFn@CannotMeetCriteria@CosLifeCycle@@2P6AXAEAVAny@CORBA@@AEBVException@4@@ZEA
?insertToAnyFn@ChannelNotFound@CosNotifyChannelAdmin@@2P6AXAEAVAny@CORBA@@AEBVException@4@@ZEA
?insertToAnyFn@ConnectionAlreadyActive@CosNotifyChannelAdmin@@2P6AXAEAVAny@CORBA@@AEBVException@4@@ZEA
?insertToAnyFn@ConnectionAlreadyInactive@CosNotifyChannelAdmin@@2P6AXAEAVAny@CORBA@@AEBVException@4@@ZEA
?insertToAnyFn@ConstraintNotFound@CosNotifyFilter@@2P6AXAEAVAny@CORBA@@AEBVException@4@@ZEA
?insertToAnyFn@Disconnected@CosEventComm@@2P6AXAEAVAny@CORBA@@AEBVException@4@@ZEA
?insertToAnyFn@DuplicateConstraintID@CosNotifyFilter@@2P6AXAEAVAny@CORBA@@AEBVException@4@@ZEA
?insertToAnyFn@FilterNotFound@CosNotifyFilter@@2P6AXAEAVAny@CORBA@@AEBVException@4@@ZEA
?insertToAnyFn@InvalidConstraint@CosNotifyFilter@@2P6AXAEAVAny@CORBA@@AEBVException@4@@ZEA
?insertToAnyFn@InvalidCriteria@CosLifeCycle@@2P6AXAEAVAny@CORBA@@AEBVException@4@@ZEA
?insertToAnyFn@InvalidEventType@CosNotifyComm@@2P6AXAEAVAny@CORBA@@AEBVException@4@@ZEA
?insertToAnyFn@InvalidGrammar@CosNotifyFilter@@2P6AXAEAVAny@CORBA@@AEBVException@4@@ZEA
?insertToAnyFn@InvalidValue@CosNotifyFilter@@2P6AXAEAVAny@CORBA@@AEBVException@4@@ZEA
?insertToAnyFn@NoFactory@CosLifeCycle@@2P6AXAEAVAny@CORBA@@AEBVException@4@@ZEA
?insertToAnyFn@NotConnected@CosNotifyChannelAdmin@@2P6AXAEAVAny@CORBA@@AEBVException@4@@ZEA
?insertToAnyFn@NotCopyable@CosLifeCycle@@2P6AXAEAVAny@CORBA@@AEBVException@4@@ZEA
?insertToAnyFn@NotMovable@CosLifeCycle@@2P6AXAEAVAny@CORBA@@AEBVException@4@@ZEA
?insertToAnyFn@NotRemovable@CosLifeCycle@@2P6AXAEAVAny@CORBA@@AEBVException@4@@ZEA
?insertToAnyFn@ProxyNotFound@CosNotifyChannelAdmin@@2P6AXAEAVAny@CORBA@@AEBVException@4@@ZEA
?insertToAnyFn@TimeUnavailable@CosTime@@2P6AXAEAVAny@CORBA@@AEBVException@4@@ZEA
?insertToAnyFn@TypeError@CosEventChannelAdmin@@2P6AXAEAVAny@CORBA@@AEBVException@4@@ZEA
?insertToAnyFn@UnsupportedAdmin@CosNotification@@2P6AXAEAVAny@CORBA@@AEBVException@4@@ZEA
?insertToAnyFn@UnsupportedFilterableData@CosNotifyFilter@@2P6AXAEAVAny@CORBA@@AEBVException@4@@ZEA
?insertToAnyFn@UnsupportedQoS@CosNotification@@2P6AXAEAVAny@CORBA@@AEBVException@4@@ZEA
?insertToAnyFnNCP@AdminLimitExceeded@CosNotifyChannelAdmin@@2P6AXAEAVAny@CORBA@@PEBVException@4@@ZEA
?insertToAnyFnNCP@AdminNotFound@CosNotifyChannelAdmin@@2P6AXAEAVAny@CORBA@@PEBVException@4@@ZEA
?insertToAnyFnNCP@AlreadyConnected@CosEventChannelAdmin@@2P6AXAEAVAny@CORBA@@PEBVException@4@@ZEA
?insertToAnyFnNCP@CallbackNotFound@CosNotifyFilter@@2P6AXAEAVAny@CORBA@@PEBVException@4@@ZEA
?insertToAnyFnNCP@CannotMeetCriteria@CosLifeCycle@@2P6AXAEAVAny@CORBA@@PEBVException@4@@ZEA
?insertToAnyFnNCP@ChannelNotFound@CosNotifyChannelAdmin@@2P6AXAEAVAny@CORBA@@PEBVException@4@@ZEA
?insertToAnyFnNCP@ConnectionAlreadyActive@CosNotifyChannelAdmin@@2P6AXAEAVAny@CORBA@@PEBVException@4@@ZEA
?insertToAnyFnNCP@ConnectionAlreadyInactive@CosNotifyChannelAdmin@@2P6AXAEAVAny@CORBA@@PEBVException@4@@ZEA
?insertToAnyFnNCP@ConstraintNotFound@CosNotifyFilter@@2P6AXAEAVAny@CORBA@@PEBVException@4@@ZEA
?insertToAnyFnNCP@Disconnected@CosEventComm@@2P6AXAEAVAny@CORBA@@PEBVException@4@@ZEA
?insertToAnyFnNCP@DuplicateConstraintID@CosNotifyFilter@@2P6AXAEAVAny@CORBA@@PEBVException@4@@ZEA
?insertToAnyFnNCP@FilterNotFound@CosNotifyFilter@@2P6AXAEAVAny@CORBA@@PEBVException@4@@ZEA
?insertToAnyFnNCP@InvalidConstraint@CosNotifyFilter@@2P6AXAEAVAny@CORBA@@PEBVException@4@@ZEA
?insertToAnyFnNCP@InvalidCriteria@CosLifeCycle@@2P6AXAEAVAny@CORBA@@PEBVException@4@@ZEA
?insertToAnyFnNCP@InvalidEventType@CosNotifyComm@@2P6AXAEAVAny@CORBA@@PEBVException@4@@ZEA
?insertToAnyFnNCP@InvalidGrammar@CosNotifyFilter@@2P6AXAEAVAny@CORBA@@PEBVException@4@@ZEA
?insertToAnyFnNCP@InvalidValue@CosNotifyFilter@@2P6AXAEAVAny@CORBA@@PEBVException@4@@ZEA
?insertToAnyFnNCP@NoFactory@CosLifeCycle@@2P6AXAEAVAny@CORBA@@PEBVException@4@@ZEA
?insertToAnyFnNCP@NotConnected@CosNotifyChannelAdmin@@2P6AXAEAVAny@CORBA@@PEBVException@4@@ZEA
?insertToAnyFnNCP@NotCopyable@CosLifeCycle@@2P6AXAEAVAny@CORBA@@PEBVException@4@@ZEA
?insertToAnyFnNCP@NotMovable@CosLifeCycle@@2P6AXAEAVAny@CORBA@@PEBVException@4@@ZEA
?insertToAnyFnNCP@NotRemovable@CosLifeCycle@@2P6AXAEAVAny@CORBA@@PEBVException@4@@ZEA
?insertToAnyFnNCP@ProxyNotFound@CosNotifyChannelAdmin@@2P6AXAEAVAny@CORBA@@PEBVException@4@@ZEA
?insertToAnyFnNCP@TimeUnavailable@CosTime@@2P6AXAEAVAny@CORBA@@PEBVException@4@@ZEA
?insertToAnyFnNCP@TypeError@CosEventChannelAdmin@@2P6AXAEAVAny@CORBA@@PEBVException@4@@ZEA
?insertToAnyFnNCP@UnsupportedAdmin@CosNotification@@2P6AXAEAVAny@CORBA@@PEBVException@4@@ZEA
?insertToAnyFnNCP@UnsupportedFilterableData@CosNotifyFilter@@2P6AXAEAVAny@CORBA@@PEBVException@4@@ZEA
?insertToAnyFnNCP@UnsupportedQoS@CosNotification@@2P6AXAEAVAny@CORBA@@PEBVException@4@@ZEA
?interval@_objref_UTO@CosTime@@QEAAPEAV_objref_TIO@2@XZ
?is_a@_pof_AdminPropertiesAdmin@CosNotification@@UEBA_NPEBD@Z
?is_a@_pof_ConsumerAdmin@CosEventChannelAdmin@@UEBA_NPEBD@Z
?is_a@_pof_ConsumerAdmin@CosNotifyChannelAdmin@@UEBA_NPEBD@Z
?is_a@_pof_EventChannel@CosEventChannelAdmin@@UEBA_NPEBD@Z
?is_a@_pof_EventChannel@CosNotifyChannelAdmin@@UEBA_NPEBD@Z
?is_a@_pof_EventChannelFactory@CosNotifyChannelAdmin@@UEBA_NPEBD@Z
?is_a@_pof_FactoryFinder@CosLifeCycle@@UEBA_NPEBD@Z
?is_a@_pof_Filter@CosNotifyFilter@@UEBA_NPEBD@Z
?is_a@_pof_FilterAdmin@CosNotifyFilter@@UEBA_NPEBD@Z
?is_a@_pof_FilterFactory@CosNotifyFilter@@UEBA_NPEBD@Z
?is_a@_pof_GenericFactory@CosLifeCycle@@UEBA_NPEBD@Z
?is_a@_pof_LifeCycleObject@CosLifeCycle@@UEBA_NPEBD@Z
?is_a@_pof_MappingFilter@CosNotifyFilter@@UEBA_NPEBD@Z
?is_a@_pof_NotifyPublish@CosNotifyComm@@UEBA_NPEBD@Z
?is_a@_pof_NotifySubscribe@CosNotifyComm@@UEBA_NPEBD@Z
?is_a@_pof_ProxyConsumer@CosNotifyChannelAdmin@@UEBA_NPEBD@Z
?is_a@_pof_ProxyPullConsumer@CosEventChannelAdmin@@UEBA_NPEBD@Z
?is_a@_pof_ProxyPullConsumer@CosNotifyChannelAdmin@@UEBA_NPEBD@Z
?is_a@_pof_ProxyPullSupplier@CosEventChannelAdmin@@UEBA_NPEBD@Z
?is_a@_pof_ProxyPullSupplier@CosNotifyChannelAdmin@@UEBA_NPEBD@Z
?is_a@_pof_ProxyPushConsumer@CosEventChannelAdmin@@UEBA_NPEBD@Z
?is_a@_pof_ProxyPushConsumer@CosNotifyChannelAdmin@@UEBA_NPEBD@Z
?is_a@_pof_ProxyPushSupplier@CosEventChannelAdmin@@UEBA_NPEBD@Z
?is_a@_pof_ProxyPushSupplier@CosNotifyChannelAdmin@@UEBA_NPEBD@Z
?is_a@_pof_ProxySupplier@CosNotifyChannelAdmin@@UEBA_NPEBD@Z
?is_a@_pof_PullConsumer@CosEventComm@@UEBA_NPEBD@Z
?is_a@_pof_PullConsumer@CosNotifyComm@@UEBA_NPEBD@Z
?is_a@_pof_PullSupplier@CosEventComm@@UEBA_NPEBD@Z
?is_a@_pof_PullSupplier@CosNotifyComm@@UEBA_NPEBD@Z
?is_a@_pof_PushConsumer@CosEventComm@@UEBA_NPEBD@Z
?is_a@_pof_PushConsumer@CosNotifyComm@@UEBA_NPEBD@Z
?is_a@_pof_PushSupplier@CosEventComm@@UEBA_NPEBD@Z
?is_a@_pof_PushSupplier@CosNotifyComm@@UEBA_NPEBD@Z
?is_a@_pof_QoSAdmin@CosNotification@@UEBA_NPEBD@Z
?is_a@_pof_SequenceProxyPullConsumer@CosNotifyChannelAdmin@@UEBA_NPEBD@Z
?is_a@_pof_SequenceProxyPullSupplier@CosNotifyChannelAdmin@@UEBA_NPEBD@Z
?is_a@_pof_SequenceProxyPushConsumer@CosNotifyChannelAdmin@@UEBA_NPEBD@Z
?is_a@_pof_SequenceProxyPushSupplier@CosNotifyChannelAdmin@@UEBA_NPEBD@Z
?is_a@_pof_SequencePullConsumer@CosNotifyComm@@UEBA_NPEBD@Z
?is_a@_pof_SequencePullSupplier@CosNotifyComm@@UEBA_NPEBD@Z
?is_a@_pof_SequencePushConsumer@CosNotifyComm@@UEBA_NPEBD@Z
?is_a@_pof_SequencePushSupplier@CosNotifyComm@@UEBA_NPEBD@Z
?is_a@_pof_StructuredProxyPullConsumer@CosNotifyChannelAdmin@@UEBA_NPEBD@Z
?is_a@_pof_StructuredProxyPullSupplier@CosNotifyChannelAdmin@@UEBA_NPEBD@Z
?is_a@_pof_StructuredProxyPushConsumer@CosNotifyChannelAdmin@@UEBA_NPEBD@Z
?is_a@_pof_StructuredProxyPushSupplier@CosNotifyChannelAdmin@@UEBA_NPEBD@Z
?is_a@_pof_StructuredPullConsumer@CosNotifyComm@@UEBA_NPEBD@Z
?is_a@_pof_StructuredPullSupplier@CosNotifyComm@@UEBA_NPEBD@Z
?is_a@_pof_StructuredPushConsumer@CosNotifyComm@@UEBA_NPEBD@Z
?is_a@_pof_StructuredPushSupplier@CosNotifyComm@@UEBA_NPEBD@Z
?is_a@_pof_SupplierAdmin@CosEventChannelAdmin@@UEBA_NPEBD@Z
?is_a@_pof_SupplierAdmin@CosNotifyChannelAdmin@@UEBA_NPEBD@Z
?is_a@_pof_TIO@CosTime@@UEBA_NPEBD@Z
?is_a@_pof_TimeService@CosTime@@UEBA_NPEBD@Z
?is_a@_pof_UTO@CosTime@@UEBA_NPEBD@Z
?is_nil@AdminPropertiesAdmin_Helper@CosNotification@@SA_NPEAV_objref_AdminPropertiesAdmin@2@@Z
?is_nil@CORBA@@YA_NPEAVObject@1@@Z
?is_nil@ConsumerAdmin_Helper@CosEventChannelAdmin@@SA_NPEAV_objref_ConsumerAdmin@2@@Z
?is_nil@ConsumerAdmin_Helper@CosNotifyChannelAdmin@@SA_NPEAV_objref_ConsumerAdmin@2@@Z
?is_nil@EventChannelFactory_Helper@CosNotifyChannelAdmin@@SA_NPEAV_objref_EventChannelFactory@2@@Z
?is_nil@EventChannel_Helper@CosEventChannelAdmin@@SA_NPEAV_objref_EventChannel@2@@Z
?is_nil@EventChannel_Helper@CosNotifyChannelAdmin@@SA_NPEAV_objref_EventChannel@2@@Z
?is_nil@FactoryFinder_Helper@CosLifeCycle@@SA_NPEAV_objref_FactoryFinder@2@@Z
?is_nil@FilterAdmin_Helper@CosNotifyFilter@@SA_NPEAV_objref_FilterAdmin@2@@Z
?is_nil@FilterFactory_Helper@CosNotifyFilter@@SA_NPEAV_objref_FilterFactory@2@@Z
?is_nil@Filter_Helper@CosNotifyFilter@@SA_NPEAV_objref_Filter@2@@Z
?is_nil@GenericFactory_Helper@CosLifeCycle@@SA_NPEAV_objref_GenericFactory@2@@Z
?is_nil@LifeCycleObject_Helper@CosLifeCycle@@SA_NPEAV_objref_LifeCycleObject@2@@Z
?is_nil@MappingFilter_Helper@CosNotifyFilter@@SA_NPEAV_objref_MappingFilter@2@@Z
?is_nil@NotifyPublish_Helper@CosNotifyComm@@SA_NPEAV_objref_NotifyPublish@2@@Z
?is_nil@NotifySubscribe_Helper@CosNotifyComm@@SA_NPEAV_objref_NotifySubscribe@2@@Z
?is_nil@ProxyConsumer_Helper@CosNotifyChannelAdmin@@SA_NPEAV_objref_ProxyConsumer@2@@Z
?is_nil@ProxyPullConsumer_Helper@CosEventChannelAdmin@@SA_NPEAV_objref_ProxyPullConsumer@2@@Z
?is_nil@ProxyPullConsumer_Helper@CosNotifyChannelAdmin@@SA_NPEAV_objref_ProxyPullConsumer@2@@Z
?is_nil@ProxyPullSupplier_Helper@CosEventChannelAdmin@@SA_NPEAV_objref_ProxyPullSupplier@2@@Z
?is_nil@ProxyPullSupplier_Helper@CosNotifyChannelAdmin@@SA_NPEAV_objref_ProxyPullSupplier@2@@Z
?is_nil@ProxyPushConsumer_Helper@CosEventChannelAdmin@@SA_NPEAV_objref_ProxyPushConsumer@2@@Z
?is_nil@ProxyPushConsumer_Helper@CosNotifyChannelAdmin@@SA_NPEAV_objref_ProxyPushConsumer@2@@Z
?is_nil@ProxyPushSupplier_Helper@CosEventChannelAdmin@@SA_NPEAV_objref_ProxyPushSupplier@2@@Z
?is_nil@ProxyPushSupplier_Helper@CosNotifyChannelAdmin@@SA_NPEAV_objref_ProxyPushSupplier@2@@Z
?is_nil@ProxySupplier_Helper@CosNotifyChannelAdmin@@SA_NPEAV_objref_ProxySupplier@2@@Z
?is_nil@PullConsumer_Helper@CosEventComm@@SA_NPEAV_objref_PullConsumer@2@@Z
?is_nil@PullConsumer_Helper@CosNotifyComm@@SA_NPEAV_objref_PullConsumer@2@@Z
?is_nil@PullSupplier_Helper@CosEventComm@@SA_NPEAV_objref_PullSupplier@2@@Z
?is_nil@PullSupplier_Helper@CosNotifyComm@@SA_NPEAV_objref_PullSupplier@2@@Z
?is_nil@PushConsumer_Helper@CosEventComm@@SA_NPEAV_objref_PushConsumer@2@@Z
?is_nil@PushConsumer_Helper@CosNotifyComm@@SA_NPEAV_objref_PushConsumer@2@@Z
?is_nil@PushSupplier_Helper@CosEventComm@@SA_NPEAV_objref_PushSupplier@2@@Z
?is_nil@PushSupplier_Helper@CosNotifyComm@@SA_NPEAV_objref_PushSupplier@2@@Z
?is_nil@QoSAdmin_Helper@CosNotification@@SA_NPEAV_objref_QoSAdmin@2@@Z
?is_nil@SequenceProxyPullConsumer_Helper@CosNotifyChannelAdmin@@SA_NPEAV_objref_SequenceProxyPullConsumer@2@@Z
?is_nil@SequenceProxyPullSupplier_Helper@CosNotifyChannelAdmin@@SA_NPEAV_objref_SequenceProxyPullSupplier@2@@Z
?is_nil@SequenceProxyPushConsumer_Helper@CosNotifyChannelAdmin@@SA_NPEAV_objref_SequenceProxyPushConsumer@2@@Z
?is_nil@SequenceProxyPushSupplier_Helper@CosNotifyChannelAdmin@@SA_NPEAV_objref_SequenceProxyPushSupplier@2@@Z
?is_nil@SequencePullConsumer_Helper@CosNotifyComm@@SA_NPEAV_objref_SequencePullConsumer@2@@Z
?is_nil@SequencePullSupplier_Helper@CosNotifyComm@@SA_NPEAV_objref_SequencePullSupplier@2@@Z
?is_nil@SequencePushConsumer_Helper@CosNotifyComm@@SA_NPEAV_objref_SequencePushConsumer@2@@Z
?is_nil@SequencePushSupplier_Helper@CosNotifyComm@@SA_NPEAV_objref_SequencePushSupplier@2@@Z
?is_nil@StructuredProxyPullConsumer_Helper@CosNotifyChannelAdmin@@SA_NPEAV_objref_StructuredProxyPullConsumer@2@@Z
?is_nil@StructuredProxyPullSupplier_Helper@CosNotifyChannelAdmin@@SA_NPEAV_objref_StructuredProxyPullSupplier@2@@Z
?is_nil@StructuredProxyPushConsumer_Helper@CosNotifyChannelAdmin@@SA_NPEAV_objref_StructuredProxyPushConsumer@2@@Z
?is_nil@StructuredProxyPushSupplier_Helper@CosNotifyChannelAdmin@@SA_NPEAV_objref_StructuredProxyPushSupplier@2@@Z
?is_nil@StructuredPullConsumer_Helper@CosNotifyComm@@SA_NPEAV_objref_StructuredPullConsumer@2@@Z
?is_nil@StructuredPullSupplier_Helper@CosNotifyComm@@SA_NPEAV_objref_StructuredPullSupplier@2@@Z
?is_nil@StructuredPushConsumer_Helper@CosNotifyComm@@SA_NPEAV_objref_StructuredPushConsumer@2@@Z
?is_nil@StructuredPushSupplier_Helper@CosNotifyComm@@SA_NPEAV_objref_StructuredPushSupplier@2@@Z
?is_nil@SupplierAdmin_Helper@CosEventChannelAdmin@@SA_NPEAV_objref_SupplierAdmin@2@@Z
?is_nil@SupplierAdmin_Helper@CosNotifyChannelAdmin@@SA_NPEAV_objref_SupplierAdmin@2@@Z
?is_nil@TIO_Helper@CosTime@@SA_NPEAV_objref_TIO@2@@Z
?is_nil@TimeService_Helper@CosTime@@SA_NPEAV_objref_TimeService@2@@Z
?is_nil@UTO_Helper@CosTime@@SA_NPEAV_objref_UTO@2@@Z
?length@?$_CORBA_Sequence@J@@QEAAXK@Z
?length@?$_CORBA_Sequence@J@@QEBAKXZ
?length@?$_CORBA_Sequence@UConstraintExp@CosNotifyFilter@@@@QEAAXK@Z
?length@?$_CORBA_Sequence@UConstraintInfo@CosNotifyFilter@@@@QEAAXK@Z
?length@?$_CORBA_Sequence@UEventType@CosNotification@@@@QEAAXK@Z
?length@?$_CORBA_Sequence@UMappingConstraintInfo@CosNotifyFilter@@@@QEAAXK@Z
?length@?$_CORBA_Sequence@UMappingConstraintPair@CosNotifyFilter@@@@QEAAXK@Z
?length@?$_CORBA_Sequence@UNVP@CosLifeCycle@@@@QEAAXK@Z
?length@?$_CORBA_Sequence@UNameComponent@CosNaming@@@@QEAAXK@Z
?length@?$_CORBA_Sequence@UNamedPropertyRange@CosNotification@@@@QEAAXK@Z
?length@?$_CORBA_Sequence@UProperty@CosNotification@@@@QEAAXK@Z
?length@?$_CORBA_Sequence@UPropertyError@CosNotification@@@@QEAAXK@Z
?length@?$_CORBA_Sequence@UStructuredEvent@CosNotification@@@@QEAAXK@Z
?length@?$_CORBA_Sequence_ObjRef@VObject@CORBA@@VObject_Element@2@VObject_Helper@2@@@QEAAXK@Z
?lifetime_filter@_objref_ConsumerAdmin@CosNotifyChannelAdmin@@QEAAPEAV_objref_MappingFilter@CosNotifyFilter@@XZ
?lifetime_filter@_objref_ConsumerAdmin@CosNotifyChannelAdmin@@QEAAXPEAV_objref_MappingFilter@CosNotifyFilter@@@Z
?lifetime_filter@_objref_ProxySupplier@CosNotifyChannelAdmin@@QEAAPEAV_objref_MappingFilter@CosNotifyFilter@@XZ
?lifetime_filter@_objref_ProxySupplier@CosNotifyChannelAdmin@@QEAAXPEAV_objref_MappingFilter@CosNotifyFilter@@@Z
?lock@omni_mutex@@QEAAXXZ
?marshalArguments@_0RL_cd_1fe8f330207afd15_02000000@@UEAAXAEAVcdrStream@@@Z
?marshalArguments@_0RL_cd_1fe8f330207afd15_03000000@@UEAAXAEAVcdrStream@@@Z
?marshalArguments@_0RL_cd_1fe8f330207afd15_11000000@@UEAAXAEAVcdrStream@@@Z
?marshalArguments@_0RL_cd_1fe8f330207afd15_20000000@@UEAAXAEAVcdrStream@@@Z
?marshalArguments@_0RL_cd_1fe8f330207afd15_22000000@@UEAAXAEAVcdrStream@@@Z
?marshalArguments@_0RL_cd_1fe8f330207afd15_23000000@@UEAAXAEAVcdrStream@@@Z
?marshalArguments@_0RL_cd_1fe8f330207afd15_31000000@@UEAAXAEAVcdrStream@@@Z
?marshalArguments@_0RL_cd_1fe8f330207afd15_40000000@@UEAAXAEAVcdrStream@@@Z
?marshalArguments@_0RL_cd_1fe8f330207afd15_43000000@@UEAAXAEAVcdrStream@@@Z
?marshalArguments@_0RL_cd_1fe8f330207afd15_51000000@@UEAAXAEAVcdrStream@@@Z
?marshalArguments@_0RL_cd_1fe8f330207afd15_60000000@@UEAAXAEAVcdrStream@@@Z
?marshalArguments@_0RL_cd_1fe8f330207afd15_63000000@@UEAAXAEAVcdrStream@@@Z
?marshalArguments@_0RL_cd_1fe8f330207afd15_82000000@@UEAAXAEAVcdrStream@@@Z
?marshalArguments@_0RL_cd_1fe8f330207afd15_a2000000@@UEAAXAEAVcdrStream@@@Z
?marshalArguments@_0RL_cd_1fe8f330207afd15_c2000000@@UEAAXAEAVcdrStream@@@Z
?marshalArguments@_0RL_cd_1fe8f330207afd15_d0000000@@UEAAXAEAVcdrStream@@@Z
?marshalArguments@_0RL_cd_1fe8f330207afd15_e1000000@@UEAAXAEAVcdrStream@@@Z
?marshalArguments@_0RL_cd_1fe8f330207afd15_e2000000@@UEAAXAEAVcdrStream@@@Z
?marshalArguments@_0RL_cd_1fe8f330207afd15_f0000000@@UEAAXAEAVcdrStream@@@Z
?marshalArguments@_0RL_cd_25b2b9dd5b4ad98d_00000000@@UEAAXAEAVcdrStream@@@Z
?marshalArguments@_0RL_cd_25b2b9dd5b4ad98d_20000000@@UEAAXAEAVcdrStream@@@Z
?marshalArguments@_0RL_cd_25b2b9dd5b4ad98d_40000000@@UEAAXAEAVcdrStream@@@Z
?marshalArguments@_0RL_cd_25b2b9dd5b4ad98d_80000000@@UEAAXAEAVcdrStream@@@Z
?marshalArguments@_0RL_cd_25b2b9dd5b4ad98d_a0000000@@UEAAXAEAVcdrStream@@@Z
?marshalArguments@_0RL_cd_4b6b86183777b6c2_00000000@@UEAAXAEAVcdrStream@@@Z
?marshalArguments@_0RL_cd_4b6b86183777b6c2_21000000@@UEAAXAEAVcdrStream@@@Z
?marshalArguments@_0RL_cd_4b6b86183777b6c2_30000000@@UEAAXAEAVcdrStream@@@Z
?marshalArguments@_0RL_cd_4b6b86183777b6c2_41000000@@UEAAXAEAVcdrStream@@@Z
?marshalArguments@_0RL_cd_4b6b86183777b6c2_e0000000@@UEAAXAEAVcdrStream@@@Z
?marshalArguments@_0RL_cd_8b6214f5b3100e7e_20000000@@UEAAXAEAVcdrStream@@@Z
?marshalArguments@_0RL_cd_8b6214f5b3100e7e_40000000@@UEAAXAEAVcdrStream@@@Z
?marshalArguments@_0RL_cd_8b6214f5b3100e7e_70000000@@UEAAXAEAVcdrStream@@@Z
?marshalArguments@_0RL_cd_9043e11a9721dab3_06000000@@UEAAXAEAVcdrStream@@@Z
?marshalArguments@_0RL_cd_9043e11a9721dab3_13000000@@UEAAXAEAVcdrStream@@@Z
?marshalArguments@_0RL_cd_9043e11a9721dab3_25000000@@UEAAXAEAVcdrStream@@@Z
?marshalArguments@_0RL_cd_9043e11a9721dab3_26000000@@UEAAXAEAVcdrStream@@@Z
?marshalArguments@_0RL_cd_9043e11a9721dab3_31000000@@UEAAXAEAVcdrStream@@@Z
?marshalArguments@_0RL_cd_9043e11a9721dab3_40000000@@UEAAXAEAVcdrStream@@@Z
?marshalArguments@_0RL_cd_9043e11a9721dab3_45000000@@UEAAXAEAVcdrStream@@@Z
?marshalArguments@_0RL_cd_9043e11a9721dab3_46000000@@UEAAXAEAVcdrStream@@@Z
?marshalArguments@_0RL_cd_9043e11a9721dab3_51000000@@UEAAXAEAVcdrStream@@@Z
?marshalArguments@_0RL_cd_9043e11a9721dab3_52000000@@UEAAXAEAVcdrStream@@@Z
?marshalArguments@_0RL_cd_9043e11a9721dab3_53000000@@UEAAXAEAVcdrStream@@@Z
?marshalArguments@_0RL_cd_9043e11a9721dab3_60000000@@UEAAXAEAVcdrStream@@@Z
?marshalArguments@_0RL_cd_9043e11a9721dab3_64000000@@UEAAXAEAVcdrStream@@@Z
?marshalArguments@_0RL_cd_9043e11a9721dab3_71000000@@UEAAXAEAVcdrStream@@@Z
?marshalArguments@_0RL_cd_9043e11a9721dab3_84000000@@UEAAXAEAVcdrStream@@@Z
?marshalArguments@_0RL_cd_9043e11a9721dab3_91000000@@UEAAXAEAVcdrStream@@@Z
?marshalArguments@_0RL_cd_9043e11a9721dab3_92000000@@UEAAXAEAVcdrStream@@@Z
?marshalArguments@_0RL_cd_9043e11a9721dab3_96000000@@UEAAXAEAVcdrStream@@@Z
?marshalArguments@_0RL_cd_9043e11a9721dab3_b1000000@@UEAAXAEAVcdrStream@@@Z
?marshalArguments@_0RL_cd_9043e11a9721dab3_d0000000@@UEAAXAEAVcdrStream@@@Z
?marshalArguments@_0RL_cd_9043e11a9721dab3_d1000000@@UEAAXAEAVcdrStream@@@Z
?marshalArguments@_0RL_cd_9043e11a9721dab3_d2000000@@UEAAXAEAVcdrStream@@@Z
?marshalArguments@_0RL_cd_9043e11a9721dab3_d6000000@@UEAAXAEAVcdrStream@@@Z
?marshalArguments@_0RL_cd_9043e11a9721dab3_e5000000@@UEAAXAEAVcdrStream@@@Z
?marshalArguments@_0RL_cd_9043e11a9721dab3_f1000000@@UEAAXAEAVcdrStream@@@Z
?marshalArguments@_0RL_cd_99dff546ea0f9974_11000000@@UEAAXAEAVcdrStream@@@Z
?marshalArguments@_0RL_cd_99dff546ea0f9974_31000000@@UEAAXAEAVcdrStream@@@Z
?marshalArguments@_0RL_cd_99dff546ea0f9974_90000000@@UEAAXAEAVcdrStream@@@Z
?marshalArguments@_0RL_cd_99dff546ea0f9974_91000000@@UEAAXAEAVcdrStream@@@Z
?marshalArguments@_0RL_cd_99dff546ea0f9974_b0000000@@UEAAXAEAVcdrStream@@@Z
?marshalArguments@_0RL_cd_99dff546ea0f9974_b1000000@@UEAAXAEAVcdrStream@@@Z
?marshalArguments@_0RL_cd_99dff546ea0f9974_d1000000@@UEAAXAEAVcdrStream@@@Z
?marshalArguments@_0RL_cd_bd959cc57b2e138f_00000000@@UEAAXAEAVcdrStream@@@Z
?marshalArguments@_0RL_cd_f894c8374a428e70_00000000@@UEAAXAEAVcdrStream@@@Z
?marshalArguments@_0RL_cd_f894c8374a428e70_20000000@@UEAAXAEAVcdrStream@@@Z
?marshalArguments@_0RL_cd_f894c8374a428e70_40000000@@UEAAXAEAVcdrStream@@@Z
?marshalArguments@_0RL_cd_f894c8374a428e70_60000000@@UEAAXAEAVcdrStream@@@Z
?marshalBoolean@cdrStream@@QEAAX_N@Z
?marshalLong@cdrStream@@QEAAXJ@Z
?marshalObjRef@AdminPropertiesAdmin_Helper@CosNotification@@SAXPEAV_objref_AdminPropertiesAdmin@2@AEAVcdrStream@@@Z
?marshalObjRef@ConsumerAdmin_Helper@CosEventChannelAdmin@@SAXPEAV_objref_ConsumerAdmin@2@AEAVcdrStream@@@Z
?marshalObjRef@ConsumerAdmin_Helper@CosNotifyChannelAdmin@@SAXPEAV_objref_ConsumerAdmin@2@AEAVcdrStream@@@Z
?marshalObjRef@EventChannelFactory_Helper@CosNotifyChannelAdmin@@SAXPEAV_objref_EventChannelFactory@2@AEAVcdrStream@@@Z
?marshalObjRef@EventChannel_Helper@CosEventChannelAdmin@@SAXPEAV_objref_EventChannel@2@AEAVcdrStream@@@Z
?marshalObjRef@EventChannel_Helper@CosNotifyChannelAdmin@@SAXPEAV_objref_EventChannel@2@AEAVcdrStream@@@Z
?marshalObjRef@FactoryFinder_Helper@CosLifeCycle@@SAXPEAV_objref_FactoryFinder@2@AEAVcdrStream@@@Z
?marshalObjRef@FilterAdmin_Helper@CosNotifyFilter@@SAXPEAV_objref_FilterAdmin@2@AEAVcdrStream@@@Z
?marshalObjRef@FilterFactory_Helper@CosNotifyFilter@@SAXPEAV_objref_FilterFactory@2@AEAVcdrStream@@@Z
?marshalObjRef@Filter_Helper@CosNotifyFilter@@SAXPEAV_objref_Filter@2@AEAVcdrStream@@@Z
?marshalObjRef@GenericFactory_Helper@CosLifeCycle@@SAXPEAV_objref_GenericFactory@2@AEAVcdrStream@@@Z
?marshalObjRef@LifeCycleObject_Helper@CosLifeCycle@@SAXPEAV_objref_LifeCycleObject@2@AEAVcdrStream@@@Z
?marshalObjRef@MappingFilter_Helper@CosNotifyFilter@@SAXPEAV_objref_MappingFilter@2@AEAVcdrStream@@@Z
?marshalObjRef@NotifyPublish_Helper@CosNotifyComm@@SAXPEAV_objref_NotifyPublish@2@AEAVcdrStream@@@Z
?marshalObjRef@NotifySubscribe_Helper@CosNotifyComm@@SAXPEAV_objref_NotifySubscribe@2@AEAVcdrStream@@@Z
?marshalObjRef@ProxyConsumer_Helper@CosNotifyChannelAdmin@@SAXPEAV_objref_ProxyConsumer@2@AEAVcdrStream@@@Z
?marshalObjRef@ProxyPullConsumer_Helper@CosEventChannelAdmin@@SAXPEAV_objref_ProxyPullConsumer@2@AEAVcdrStream@@@Z
?marshalObjRef@ProxyPullConsumer_Helper@CosNotifyChannelAdmin@@SAXPEAV_objref_ProxyPullConsumer@2@AEAVcdrStream@@@Z
?marshalObjRef@ProxyPullSupplier_Helper@CosEventChannelAdmin@@SAXPEAV_objref_ProxyPullSupplier@2@AEAVcdrStream@@@Z
?marshalObjRef@ProxyPullSupplier_Helper@CosNotifyChannelAdmin@@SAXPEAV_objref_ProxyPullSupplier@2@AEAVcdrStream@@@Z
?marshalObjRef@ProxyPushConsumer_Helper@CosEventChannelAdmin@@SAXPEAV_objref_ProxyPushConsumer@2@AEAVcdrStream@@@Z
?marshalObjRef@ProxyPushConsumer_Helper@CosNotifyChannelAdmin@@SAXPEAV_objref_ProxyPushConsumer@2@AEAVcdrStream@@@Z
?marshalObjRef@ProxyPushSupplier_Helper@CosEventChannelAdmin@@SAXPEAV_objref_ProxyPushSupplier@2@AEAVcdrStream@@@Z
?marshalObjRef@ProxyPushSupplier_Helper@CosNotifyChannelAdmin@@SAXPEAV_objref_ProxyPushSupplier@2@AEAVcdrStream@@@Z
?marshalObjRef@ProxySupplier_Helper@CosNotifyChannelAdmin@@SAXPEAV_objref_ProxySupplier@2@AEAVcdrStream@@@Z
?marshalObjRef@PullConsumer_Helper@CosEventComm@@SAXPEAV_objref_PullConsumer@2@AEAVcdrStream@@@Z
?marshalObjRef@PullConsumer_Helper@CosNotifyComm@@SAXPEAV_objref_PullConsumer@2@AEAVcdrStream@@@Z
?marshalObjRef@PullSupplier_Helper@CosEventComm@@SAXPEAV_objref_PullSupplier@2@AEAVcdrStream@@@Z
?marshalObjRef@PullSupplier_Helper@CosNotifyComm@@SAXPEAV_objref_PullSupplier@2@AEAVcdrStream@@@Z
?marshalObjRef@PushConsumer_Helper@CosEventComm@@SAXPEAV_objref_PushConsumer@2@AEAVcdrStream@@@Z
?marshalObjRef@PushConsumer_Helper@CosNotifyComm@@SAXPEAV_objref_PushConsumer@2@AEAVcdrStream@@@Z
?marshalObjRef@PushSupplier_Helper@CosEventComm@@SAXPEAV_objref_PushSupplier@2@AEAVcdrStream@@@Z
?marshalObjRef@PushSupplier_Helper@CosNotifyComm@@SAXPEAV_objref_PushSupplier@2@AEAVcdrStream@@@Z
?marshalObjRef@QoSAdmin_Helper@CosNotification@@SAXPEAV_objref_QoSAdmin@2@AEAVcdrStream@@@Z
?marshalObjRef@SequenceProxyPullConsumer_Helper@CosNotifyChannelAdmin@@SAXPEAV_objref_SequenceProxyPullConsumer@2@AEAVcdrStream@@@Z
?marshalObjRef@SequenceProxyPullSupplier_Helper@CosNotifyChannelAdmin@@SAXPEAV_objref_SequenceProxyPullSupplier@2@AEAVcdrStream@@@Z
?marshalObjRef@SequenceProxyPushConsumer_Helper@CosNotifyChannelAdmin@@SAXPEAV_objref_SequenceProxyPushConsumer@2@AEAVcdrStream@@@Z
?marshalObjRef@SequenceProxyPushSupplier_Helper@CosNotifyChannelAdmin@@SAXPEAV_objref_SequenceProxyPushSupplier@2@AEAVcdrStream@@@Z
?marshalObjRef@SequencePullConsumer_Helper@CosNotifyComm@@SAXPEAV_objref_SequencePullConsumer@2@AEAVcdrStream@@@Z
?marshalObjRef@SequencePullSupplier_Helper@CosNotifyComm@@SAXPEAV_objref_SequencePullSupplier@2@AEAVcdrStream@@@Z
?marshalObjRef@SequencePushConsumer_Helper@CosNotifyComm@@SAXPEAV_objref_SequencePushConsumer@2@AEAVcdrStream@@@Z
?marshalObjRef@SequencePushSupplier_Helper@CosNotifyComm@@SAXPEAV_objref_SequencePushSupplier@2@AEAVcdrStream@@@Z
?marshalObjRef@StructuredProxyPullConsumer_Helper@CosNotifyChannelAdmin@@SAXPEAV_objref_StructuredProxyPullConsumer@2@AEAVcdrStream@@@Z
?marshalObjRef@StructuredProxyPullSupplier_Helper@CosNotifyChannelAdmin@@SAXPEAV_objref_StructuredProxyPullSupplier@2@AEAVcdrStream@@@Z
?marshalObjRef@StructuredProxyPushConsumer_Helper@CosNotifyChannelAdmin@@SAXPEAV_objref_StructuredProxyPushConsumer@2@AEAVcdrStream@@@Z
?marshalObjRef@StructuredProxyPushSupplier_Helper@CosNotifyChannelAdmin@@SAXPEAV_objref_StructuredProxyPushSupplier@2@AEAVcdrStream@@@Z
?marshalObjRef@StructuredPullConsumer_Helper@CosNotifyComm@@SAXPEAV_objref_StructuredPullConsumer@2@AEAVcdrStream@@@Z
?marshalObjRef@StructuredPullSupplier_Helper@CosNotifyComm@@SAXPEAV_objref_StructuredPullSupplier@2@AEAVcdrStream@@@Z
?marshalObjRef@StructuredPushConsumer_Helper@CosNotifyComm@@SAXPEAV_objref_StructuredPushConsumer@2@AEAVcdrStream@@@Z
?marshalObjRef@StructuredPushSupplier_Helper@CosNotifyComm@@SAXPEAV_objref_StructuredPushSupplier@2@AEAVcdrStream@@@Z
?marshalObjRef@SupplierAdmin_Helper@CosEventChannelAdmin@@SAXPEAV_objref_SupplierAdmin@2@AEAVcdrStream@@@Z
?marshalObjRef@SupplierAdmin_Helper@CosNotifyChannelAdmin@@SAXPEAV_objref_SupplierAdmin@2@AEAVcdrStream@@@Z
?marshalObjRef@TIO_Helper@CosTime@@SAXPEAV_objref_TIO@2@AEAVcdrStream@@@Z
?marshalObjRef@TimeService_Helper@CosTime@@SAXPEAV_objref_TimeService@2@AEAVcdrStream@@@Z
?marshalObjRef@UTO_Helper@CosTime@@SAXPEAV_objref_UTO@2@AEAVcdrStream@@@Z
?marshalOctet@cdrStream@@QEAAXE@Z
?marshalReturnedValues@_0RL_cd_1fe8f330207afd15_00000000@@UEAAXAEAVcdrStream@@@Z
?marshalReturnedValues@_0RL_cd_1fe8f330207afd15_03000000@@UEAAXAEAVcdrStream@@@Z
?marshalReturnedValues@_0RL_cd_1fe8f330207afd15_11000000@@UEAAXAEAVcdrStream@@@Z
?marshalReturnedValues@_0RL_cd_1fe8f330207afd15_20000000@@UEAAXAEAVcdrStream@@@Z
?marshalReturnedValues@_0RL_cd_1fe8f330207afd15_22000000@@UEAAXAEAVcdrStream@@@Z
?marshalReturnedValues@_0RL_cd_1fe8f330207afd15_23000000@@UEAAXAEAVcdrStream@@@Z
?marshalReturnedValues@_0RL_cd_1fe8f330207afd15_31000000@@UEAAXAEAVcdrStream@@@Z
?marshalReturnedValues@_0RL_cd_1fe8f330207afd15_42000000@@UEAAXAEAVcdrStream@@@Z
?marshalReturnedValues@_0RL_cd_1fe8f330207afd15_60000000@@UEAAXAEAVcdrStream@@@Z
?marshalReturnedValues@_0RL_cd_1fe8f330207afd15_63000000@@UEAAXAEAVcdrStream@@@Z
?marshalReturnedValues@_0RL_cd_1fe8f330207afd15_71000000@@UEAAXAEAVcdrStream@@@Z
?marshalReturnedValues@_0RL_cd_1fe8f330207afd15_80000000@@UEAAXAEAVcdrStream@@@Z
?marshalReturnedValues@_0RL_cd_1fe8f330207afd15_82000000@@UEAAXAEAVcdrStream@@@Z
?marshalReturnedValues@_0RL_cd_1fe8f330207afd15_83000000@@UEAAXAEAVcdrStream@@@Z
?marshalReturnedValues@_0RL_cd_1fe8f330207afd15_a1000000@@UEAAXAEAVcdrStream@@@Z
?marshalReturnedValues@_0RL_cd_1fe8f330207afd15_a2000000@@UEAAXAEAVcdrStream@@@Z
?marshalReturnedValues@_0RL_cd_1fe8f330207afd15_c1000000@@UEAAXAEAVcdrStream@@@Z
?marshalReturnedValues@_0RL_cd_1fe8f330207afd15_c2000000@@UEAAXAEAVcdrStream@@@Z
?marshalReturnedValues@_0RL_cd_1fe8f330207afd15_d0000000@@UEAAXAEAVcdrStream@@@Z
?marshalReturnedValues@_0RL_cd_1fe8f330207afd15_e1000000@@UEAAXAEAVcdrStream@@@Z
?marshalReturnedValues@_0RL_cd_1fe8f330207afd15_e2000000@@UEAAXAEAVcdrStream@@@Z
?marshalReturnedValues@_0RL_cd_1fe8f330207afd15_f0000000@@UEAAXAEAVcdrStream@@@Z
?marshalReturnedValues@_0RL_cd_25b2b9dd5b4ad98d_00000000@@UEAAXAEAVcdrStream@@@Z
?marshalReturnedValues@_0RL_cd_25b2b9dd5b4ad98d_20000000@@UEAAXAEAVcdrStream@@@Z
?marshalReturnedValues@_0RL_cd_25b2b9dd5b4ad98d_80000000@@UEAAXAEAVcdrStream@@@Z
?marshalReturnedValues@_0RL_cd_25b2b9dd5b4ad98d_a0000000@@UEAAXAEAVcdrStream@@@Z
?marshalReturnedValues@_0RL_cd_4b6b86183777b6c2_21000000@@UEAAXAEAVcdrStream@@@Z
?marshalReturnedValues@_0RL_cd_4b6b86183777b6c2_41000000@@UEAAXAEAVcdrStream@@@Z
?marshalReturnedValues@_0RL_cd_4b6b86183777b6c2_80000000@@UEAAXAEAVcdrStream@@@Z
?marshalReturnedValues@_0RL_cd_4b6b86183777b6c2_a0000000@@UEAAXAEAVcdrStream@@@Z
?marshalReturnedValues@_0RL_cd_8b6214f5b3100e7e_00000000@@UEAAXAEAVcdrStream@@@Z
?marshalReturnedValues@_0RL_cd_8b6214f5b3100e7e_40000000@@UEAAXAEAVcdrStream@@@Z
?marshalReturnedValues@_0RL_cd_9043e11a9721dab3_00000000@@UEAAXAEAVcdrStream@@@Z
?marshalReturnedValues@_0RL_cd_9043e11a9721dab3_06000000@@UEAAXAEAVcdrStream@@@Z
?marshalReturnedValues@_0RL_cd_9043e11a9721dab3_20000000@@UEAAXAEAVcdrStream@@@Z
?marshalReturnedValues@_0RL_cd_9043e11a9721dab3_25000000@@UEAAXAEAVcdrStream@@@Z
?marshalReturnedValues@_0RL_cd_9043e11a9721dab3_26000000@@UEAAXAEAVcdrStream@@@Z
?marshalReturnedValues@_0RL_cd_9043e11a9721dab3_34000000@@UEAAXAEAVcdrStream@@@Z
?marshalReturnedValues@_0RL_cd_9043e11a9721dab3_40000000@@UEAAXAEAVcdrStream@@@Z
?marshalReturnedValues@_0RL_cd_9043e11a9721dab3_45000000@@UEAAXAEAVcdrStream@@@Z
?marshalReturnedValues@_0RL_cd_9043e11a9721dab3_46000000@@UEAAXAEAVcdrStream@@@Z
?marshalReturnedValues@_0RL_cd_9043e11a9721dab3_60000000@@UEAAXAEAVcdrStream@@@Z
?marshalReturnedValues@_0RL_cd_9043e11a9721dab3_64000000@@UEAAXAEAVcdrStream@@@Z
?marshalReturnedValues@_0RL_cd_9043e11a9721dab3_66000000@@UEAAXAEAVcdrStream@@@Z
?marshalReturnedValues@_0RL_cd_9043e11a9721dab3_84000000@@UEAAXAEAVcdrStream@@@Z
?marshalReturnedValues@_0RL_cd_9043e11a9721dab3_85000000@@UEAAXAEAVcdrStream@@@Z
?marshalReturnedValues@_0RL_cd_9043e11a9721dab3_90000000@@UEAAXAEAVcdrStream@@@Z
?marshalReturnedValues@_0RL_cd_9043e11a9721dab3_93000000@@UEAAXAEAVcdrStream@@@Z
?marshalReturnedValues@_0RL_cd_9043e11a9721dab3_96000000@@UEAAXAEAVcdrStream@@@Z
?marshalReturnedValues@_0RL_cd_9043e11a9721dab3_b0000000@@UEAAXAEAVcdrStream@@@Z
?marshalReturnedValues@_0RL_cd_9043e11a9721dab3_b3000000@@UEAAXAEAVcdrStream@@@Z
?marshalReturnedValues@_0RL_cd_9043e11a9721dab3_b6000000@@UEAAXAEAVcdrStream@@@Z
?marshalReturnedValues@_0RL_cd_9043e11a9721dab3_c5000000@@UEAAXAEAVcdrStream@@@Z
?marshalReturnedValues@_0RL_cd_9043e11a9721dab3_d3000000@@UEAAXAEAVcdrStream@@@Z
?marshalReturnedValues@_0RL_cd_9043e11a9721dab3_d6000000@@UEAAXAEAVcdrStream@@@Z
?marshalReturnedValues@_0RL_cd_9043e11a9721dab3_e5000000@@UEAAXAEAVcdrStream@@@Z
?marshalReturnedValues@_0RL_cd_99dff546ea0f9974_00000000@@UEAAXAEAVcdrStream@@@Z
?marshalReturnedValues@_0RL_cd_99dff546ea0f9974_11000000@@UEAAXAEAVcdrStream@@@Z
?marshalReturnedValues@_0RL_cd_99dff546ea0f9974_30000000@@UEAAXAEAVcdrStream@@@Z
?marshalReturnedValues@_0RL_cd_99dff546ea0f9974_31000000@@UEAAXAEAVcdrStream@@@Z
?marshalReturnedValues@_0RL_cd_99dff546ea0f9974_50000000@@UEAAXAEAVcdrStream@@@Z
?marshalReturnedValues@_0RL_cd_99dff546ea0f9974_61000000@@UEAAXAEAVcdrStream@@@Z
?marshalReturnedValues@_0RL_cd_99dff546ea0f9974_70000000@@UEAAXAEAVcdrStream@@@Z
?marshalReturnedValues@_0RL_cd_99dff546ea0f9974_90000000@@UEAAXAEAVcdrStream@@@Z
?marshalReturnedValues@_0RL_cd_99dff546ea0f9974_91000000@@UEAAXAEAVcdrStream@@@Z
?marshalReturnedValues@_0RL_cd_99dff546ea0f9974_b0000000@@UEAAXAEAVcdrStream@@@Z
?marshalReturnedValues@_0RL_cd_99dff546ea0f9974_b1000000@@UEAAXAEAVcdrStream@@@Z
?marshalReturnedValues@_0RL_cd_99dff546ea0f9974_d0000000@@UEAAXAEAVcdrStream@@@Z
?marshalReturnedValues@_0RL_cd_99dff546ea0f9974_d1000000@@UEAAXAEAVcdrStream@@@Z
?marshalReturnedValues@_0RL_cd_99dff546ea0f9974_f0000000@@UEAAXAEAVcdrStream@@@Z
?marshalReturnedValues@_0RL_cd_bd959cc57b2e138f_50000000@@UEAAXAEAVcdrStream@@@Z
?marshalReturnedValues@_0RL_cd_bd959cc57b2e138f_70000000@@UEAAXAEAVcdrStream@@@Z
?marshalReturnedValues@_0RL_cd_f894c8374a428e70_01000000@@UEAAXAEAVcdrStream@@@Z
?marshalReturnedValues@_0RL_cd_f894c8374a428e70_21000000@@UEAAXAEAVcdrStream@@@Z
?marshalReturnedValues@_0RL_cd_f894c8374a428e70_80000000@@UEAAXAEAVcdrStream@@@Z
?marshalReturnedValues@_0RL_cd_f894c8374a428e70_a0000000@@UEAAXAEAVcdrStream@@@Z
?marshalReturnedValues@_0RL_cd_f894c8374a428e70_c0000000@@UEAAXAEAVcdrStream@@@Z
?marshalReturnedValues@_0RL_cd_f894c8374a428e70_e0000000@@UEAAXAEAVcdrStream@@@Z
?marshalShort@cdrStream@@QEAAXF@Z
?marshalString@cdrStream@@QEAAXPEBDH@Z
?marshalULong@cdrStream@@QEAAXK@Z
?marshalULongLong@cdrStream@@QEAAX_K@Z
?marshalUShort@cdrStream@@QEAAXG@Z
?marshal_byte_swap@cdrStream@@QEBA_NXZ
?match@_objref_Filter@CosNotifyFilter@@QEAA_NAEBVAny@CORBA@@@Z
?match@_objref_MappingFilter@CosNotifyFilter@@QEAA_NAEBVAny@CORBA@@VAny_OUT_arg@4@@Z
?match_structured@_objref_Filter@CosNotifyFilter@@QEAA_NAEBUStructuredEvent@CosNotification@@@Z
?match_structured@_objref_MappingFilter@CosNotifyFilter@@QEAA_NAEBUStructuredEvent@CosNotification@@VAny_OUT_arg@CORBA@@@Z
?match_typed@_objref_Filter@CosNotifyFilter@@QEAA_NAEBVPropertySeq@CosNotification@@@Z
?match_typed@_objref_MappingFilter@CosNotifyFilter@@QEAA_NAEBVPropertySeq@CosNotification@@VAny_OUT_arg@CORBA@@@Z
?modify_constraints@_objref_Filter@CosNotifyFilter@@QEAAXAEBVConstraintIDSeq@2@AEBVConstraintInfoSeq@2@@Z
?modify_mapping_constraints@_objref_MappingFilter@CosNotifyFilter@@QEAAXAEBVConstraintIDSeq@2@AEBVMappingConstraintInfoSeq@2@@Z
?move@_objref_LifeCycleObject@CosLifeCycle@@QEAAXPEAV_objref_FactoryFinder@2@AEBVCriteria@2@@Z
?newObjRef@_pof_AdminPropertiesAdmin@CosNotification@@UEAAPEAVomniObjRef@@PEAVomniIOR@@PEAVomniIdentity@@@Z
?newObjRef@_pof_ConsumerAdmin@CosEventChannelAdmin@@UEAAPEAVomniObjRef@@PEAVomniIOR@@PEAVomniIdentity@@@Z
?newObjRef@_pof_ConsumerAdmin@CosNotifyChannelAdmin@@UEAAPEAVomniObjRef@@PEAVomniIOR@@PEAVomniIdentity@@@Z
?newObjRef@_pof_EventChannel@CosEventChannelAdmin@@UEAAPEAVomniObjRef@@PEAVomniIOR@@PEAVomniIdentity@@@Z
?newObjRef@_pof_EventChannel@CosNotifyChannelAdmin@@UEAAPEAVomniObjRef@@PEAVomniIOR@@PEAVomniIdentity@@@Z
?newObjRef@_pof_EventChannelFactory@CosNotifyChannelAdmin@@UEAAPEAVomniObjRef@@PEAVomniIOR@@PEAVomniIdentity@@@Z
?newObjRef@_pof_FactoryFinder@CosLifeCycle@@UEAAPEAVomniObjRef@@PEAVomniIOR@@PEAVomniIdentity@@@Z
?newObjRef@_pof_Filter@CosNotifyFilter@@UEAAPEAVomniObjRef@@PEAVomniIOR@@PEAVomniIdentity@@@Z
?newObjRef@_pof_FilterAdmin@CosNotifyFilter@@UEAAPEAVomniObjRef@@PEAVomniIOR@@PEAVomniIdentity@@@Z
?newObjRef@_pof_FilterFactory@CosNotifyFilter@@UEAAPEAVomniObjRef@@PEAVomniIOR@@PEAVomniIdentity@@@Z
?newObjRef@_pof_GenericFactory@CosLifeCycle@@UEAAPEAVomniObjRef@@PEAVomniIOR@@PEAVomniIdentity@@@Z
?newObjRef@_pof_LifeCycleObject@CosLifeCycle@@UEAAPEAVomniObjRef@@PEAVomniIOR@@PEAVomniIdentity@@@Z
?newObjRef@_pof_MappingFilter@CosNotifyFilter@@UEAAPEAVomniObjRef@@PEAVomniIOR@@PEAVomniIdentity@@@Z
?newObjRef@_pof_NotifyPublish@CosNotifyComm@@UEAAPEAVomniObjRef@@PEAVomniIOR@@PEAVomniIdentity@@@Z
?newObjRef@_pof_NotifySubscribe@CosNotifyComm@@UEAAPEAVomniObjRef@@PEAVomniIOR@@PEAVomniIdentity@@@Z
?newObjRef@_pof_ProxyConsumer@CosNotifyChannelAdmin@@UEAAPEAVomniObjRef@@PEAVomniIOR@@PEAVomniIdentity@@@Z
?newObjRef@_pof_ProxyPullConsumer@CosEventChannelAdmin@@UEAAPEAVomniObjRef@@PEAVomniIOR@@PEAVomniIdentity@@@Z
?newObjRef@_pof_ProxyPullConsumer@CosNotifyChannelAdmin@@UEAAPEAVomniObjRef@@PEAVomniIOR@@PEAVomniIdentity@@@Z
?newObjRef@_pof_ProxyPullSupplier@CosEventChannelAdmin@@UEAAPEAVomniObjRef@@PEAVomniIOR@@PEAVomniIdentity@@@Z
?newObjRef@_pof_ProxyPullSupplier@CosNotifyChannelAdmin@@UEAAPEAVomniObjRef@@PEAVomniIOR@@PEAVomniIdentity@@@Z
?newObjRef@_pof_ProxyPushConsumer@CosEventChannelAdmin@@UEAAPEAVomniObjRef@@PEAVomniIOR@@PEAVomniIdentity@@@Z
?newObjRef@_pof_ProxyPushConsumer@CosNotifyChannelAdmin@@UEAAPEAVomniObjRef@@PEAVomniIOR@@PEAVomniIdentity@@@Z
?newObjRef@_pof_ProxyPushSupplier@CosEventChannelAdmin@@UEAAPEAVomniObjRef@@PEAVomniIOR@@PEAVomniIdentity@@@Z
?newObjRef@_pof_ProxyPushSupplier@CosNotifyChannelAdmin@@UEAAPEAVomniObjRef@@PEAVomniIOR@@PEAVomniIdentity@@@Z
?newObjRef@_pof_ProxySupplier@CosNotifyChannelAdmin@@UEAAPEAVomniObjRef@@PEAVomniIOR@@PEAVomniIdentity@@@Z
?newObjRef@_pof_PullConsumer@CosEventComm@@UEAAPEAVomniObjRef@@PEAVomniIOR@@PEAVomniIdentity@@@Z
?newObjRef@_pof_PullConsumer@CosNotifyComm@@UEAAPEAVomniObjRef@@PEAVomniIOR@@PEAVomniIdentity@@@Z
?newObjRef@_pof_PullSupplier@CosEventComm@@UEAAPEAVomniObjRef@@PEAVomniIOR@@PEAVomniIdentity@@@Z
?newObjRef@_pof_PullSupplier@CosNotifyComm@@UEAAPEAVomniObjRef@@PEAVomniIOR@@PEAVomniIdentity@@@Z
?newObjRef@_pof_PushConsumer@CosEventComm@@UEAAPEAVomniObjRef@@PEAVomniIOR@@PEAVomniIdentity@@@Z
?newObjRef@_pof_PushConsumer@CosNotifyComm@@UEAAPEAVomniObjRef@@PEAVomniIOR@@PEAVomniIdentity@@@Z
?newObjRef@_pof_PushSupplier@CosEventComm@@UEAAPEAVomniObjRef@@PEAVomniIOR@@PEAVomniIdentity@@@Z
?newObjRef@_pof_PushSupplier@CosNotifyComm@@UEAAPEAVomniObjRef@@PEAVomniIOR@@PEAVomniIdentity@@@Z
?newObjRef@_pof_QoSAdmin@CosNotification@@UEAAPEAVomniObjRef@@PEAVomniIOR@@PEAVomniIdentity@@@Z
?newObjRef@_pof_SequenceProxyPullConsumer@CosNotifyChannelAdmin@@UEAAPEAVomniObjRef@@PEAVomniIOR@@PEAVomniIdentity@@@Z
?newObjRef@_pof_SequenceProxyPullSupplier@CosNotifyChannelAdmin@@UEAAPEAVomniObjRef@@PEAVomniIOR@@PEAVomniIdentity@@@Z
?newObjRef@_pof_SequenceProxyPushConsumer@CosNotifyChannelAdmin@@UEAAPEAVomniObjRef@@PEAVomniIOR@@PEAVomniIdentity@@@Z
?newObjRef@_pof_SequenceProxyPushSupplier@CosNotifyChannelAdmin@@UEAAPEAVomniObjRef@@PEAVomniIOR@@PEAVomniIdentity@@@Z
?newObjRef@_pof_SequencePullConsumer@CosNotifyComm@@UEAAPEAVomniObjRef@@PEAVomniIOR@@PEAVomniIdentity@@@Z
?newObjRef@_pof_SequencePullSupplier@CosNotifyComm@@UEAAPEAVomniObjRef@@PEAVomniIOR@@PEAVomniIdentity@@@Z
?newObjRef@_pof_SequencePushConsumer@CosNotifyComm@@UEAAPEAVomniObjRef@@PEAVomniIOR@@PEAVomniIdentity@@@Z
?newObjRef@_pof_SequencePushSupplier@CosNotifyComm@@UEAAPEAVomniObjRef@@PEAVomniIOR@@PEAVomniIdentity@@@Z
?newObjRef@_pof_StructuredProxyPullConsumer@CosNotifyChannelAdmin@@UEAAPEAVomniObjRef@@PEAVomniIOR@@PEAVomniIdentity@@@Z
?newObjRef@_pof_StructuredProxyPullSupplier@CosNotifyChannelAdmin@@UEAAPEAVomniObjRef@@PEAVomniIOR@@PEAVomniIdentity@@@Z
?newObjRef@_pof_StructuredProxyPushConsumer@CosNotifyChannelAdmin@@UEAAPEAVomniObjRef@@PEAVomniIOR@@PEAVomniIdentity@@@Z
?newObjRef@_pof_StructuredProxyPushSupplier@CosNotifyChannelAdmin@@UEAAPEAVomniObjRef@@PEAVomniIOR@@PEAVomniIdentity@@@Z
?newObjRef@_pof_StructuredPullConsumer@CosNotifyComm@@UEAAPEAVomniObjRef@@PEAVomniIOR@@PEAVomniIdentity@@@Z
?newObjRef@_pof_StructuredPullSupplier@CosNotifyComm@@UEAAPEAVomniObjRef@@PEAVomniIOR@@PEAVomniIdentity@@@Z
?newObjRef@_pof_StructuredPushConsumer@CosNotifyComm@@UEAAPEAVomniObjRef@@PEAVomniIOR@@PEAVomniIdentity@@@Z
?newObjRef@_pof_StructuredPushSupplier@CosNotifyComm@@UEAAPEAVomniObjRef@@PEAVomniIOR@@PEAVomniIdentity@@@Z
?newObjRef@_pof_SupplierAdmin@CosEventChannelAdmin@@UEAAPEAVomniObjRef@@PEAVomniIOR@@PEAVomniIdentity@@@Z
?newObjRef@_pof_SupplierAdmin@CosNotifyChannelAdmin@@UEAAPEAVomniObjRef@@PEAVomniIOR@@PEAVomniIdentity@@@Z
?newObjRef@_pof_TIO@CosTime@@UEAAPEAVomniObjRef@@PEAVomniIOR@@PEAVomniIdentity@@@Z
?newObjRef@_pof_TimeService@CosTime@@UEAAPEAVomniObjRef@@PEAVomniIOR@@PEAVomniIdentity@@@Z
?newObjRef@_pof_UTO@CosTime@@UEAAPEAVomniObjRef@@PEAVomniIOR@@PEAVomniIdentity@@@Z
?new_for_consumers@_objref_EventChannel@CosNotifyChannelAdmin@@QEAAPEAV_objref_ConsumerAdmin@2@W4InterFilterGroupOperator@2@AEAJ@Z
?new_for_suppliers@_objref_EventChannel@CosNotifyChannelAdmin@@QEAAPEAV_objref_SupplierAdmin@2@W4InterFilterGroupOperator@2@AEAJ@Z
?new_interval@_objref_TimeService@CosTime@@QEAAPEAV_objref_TIO@2@_K0@Z
?new_universal_time@_objref_TimeService@CosTime@@QEAAPEAV_objref_UTO@2@_K0F@Z
?obtain_notification_pull_consumer@_objref_SupplierAdmin@CosNotifyChannelAdmin@@QEAAPEAV_objref_ProxyConsumer@2@W4ClientType@2@AEAJ@Z
?obtain_notification_pull_supplier@_objref_ConsumerAdmin@CosNotifyChannelAdmin@@QEAAPEAV_objref_ProxySupplier@2@W4ClientType@2@AEAJ@Z
?obtain_notification_push_consumer@_objref_SupplierAdmin@CosNotifyChannelAdmin@@QEAAPEAV_objref_ProxyConsumer@2@W4ClientType@2@AEAJ@Z
?obtain_notification_push_supplier@_objref_ConsumerAdmin@CosNotifyChannelAdmin@@QEAAPEAV_objref_ProxySupplier@2@W4ClientType@2@AEAJ@Z
?obtain_offered_types@_objref_ProxySupplier@CosNotifyChannelAdmin@@QEAAPEAVEventTypeSeq@CosNotification@@W4ObtainInfoMode@2@@Z
?obtain_pull_consumer@_objref_SupplierAdmin@CosEventChannelAdmin@@QEAAPEAV_objref_ProxyPullConsumer@2@XZ
?obtain_pull_supplier@_objref_ConsumerAdmin@CosEventChannelAdmin@@QEAAPEAV_objref_ProxyPullSupplier@2@XZ
?obtain_push_consumer@_objref_SupplierAdmin@CosEventChannelAdmin@@QEAAPEAV_objref_ProxyPushConsumer@2@XZ
?obtain_push_supplier@_objref_ConsumerAdmin@CosEventChannelAdmin@@QEAAPEAV_objref_ProxyPushSupplier@2@XZ
?obtain_subscription_types@_objref_ProxyConsumer@CosNotifyChannelAdmin@@QEAAPEAVEventTypeSeq@CosNotification@@W4ObtainInfoMode@2@@Z
?offer_change@_objref_NotifyPublish@CosNotifyComm@@QEAAXAEBVEventTypeSeq@CosNotification@@0@Z
?operation_name@omniCallHandle@@QEBAPEBDXZ
?out@?$_CORBA_ObjRef_Var@V_objref_TIO@CosTime@@VTIO_Helper@2@@@QEAAAEAPEAV_objref_TIO@CosTime@@XZ
?out@Any_var@CORBA@@QEAAAEAPEAVAny@2@XZ
?out@NamedPropertyRangeSeq_var@CosNotification@@QEAAAEAPEAVNamedPropertyRangeSeq@2@XZ
?outMkr@cdrStream@@IEBA_KW4alignment_t@omni@@@Z
?outMkr@cdrStream@@IEBA_KXZ
?overlaps@_objref_TIO@CosTime@@QEAA?AW4OverlapType@2@PEAV12@V?$_CORBA_ObjRef_OUT_arg@V_objref_TIO@CosTime@@VTIO_Helper@2@@@@Z
?priority_filter@_objref_ConsumerAdmin@CosNotifyChannelAdmin@@QEAAPEAV_objref_MappingFilter@CosNotifyFilter@@XZ
?priority_filter@_objref_ConsumerAdmin@CosNotifyChannelAdmin@@QEAAXPEAV_objref_MappingFilter@CosNotifyFilter@@@Z
?priority_filter@_objref_ProxySupplier@CosNotifyChannelAdmin@@QEAAPEAV_objref_MappingFilter@CosNotifyFilter@@XZ
?priority_filter@_objref_ProxySupplier@CosNotifyChannelAdmin@@QEAAXPEAV_objref_MappingFilter@CosNotifyFilter@@@Z
?ptrStrMatch@omni@@YA_NPEBD0@Z
?pull@_objref_PullSupplier@CosEventComm@@QEAAPEAVAny@CORBA@@XZ
?pull_consumers@_objref_SupplierAdmin@CosNotifyChannelAdmin@@QEAAPEAVProxyIDSeq@2@XZ
?pull_structured_event@_objref_StructuredPullSupplier@CosNotifyComm@@QEAAPEAUStructuredEvent@CosNotification@@XZ
?pull_structured_events@_objref_SequencePullSupplier@CosNotifyComm@@QEAAPEAVEventBatch@CosNotification@@J@Z
?pull_suppliers@_objref_ConsumerAdmin@CosNotifyChannelAdmin@@QEAAPEAVProxyIDSeq@2@XZ
?push@_objref_PushConsumer@CosEventComm@@QEAAXAEBVAny@CORBA@@@Z
?push_consumers@_objref_SupplierAdmin@CosNotifyChannelAdmin@@QEAAPEAVProxyIDSeq@2@XZ
?push_structured_event@_objref_StructuredPushConsumer@CosNotifyComm@@QEAAXAEBUStructuredEvent@CosNotification@@@Z
?push_structured_events@_objref_SequencePushConsumer@CosNotifyComm@@QEAAXAEBVEventBatch@CosNotification@@@Z
?push_suppliers@_objref_ConsumerAdmin@CosNotifyChannelAdmin@@QEAAPEAVProxyIDSeq@2@XZ
?put_large_octet_array@cdrStream@@QEAAXPEBE_KW4alignment_t@omni@@@Z
?release@AdminPropertiesAdmin_Helper@CosNotification@@SAXPEAV_objref_AdminPropertiesAdmin@2@@Z
?release@CORBA@@YAXPEAVObject@1@@Z
?release@ConsumerAdmin_Helper@CosEventChannelAdmin@@SAXPEAV_objref_ConsumerAdmin@2@@Z
?release@ConsumerAdmin_Helper@CosNotifyChannelAdmin@@SAXPEAV_objref_ConsumerAdmin@2@@Z
?release@EventChannelFactory_Helper@CosNotifyChannelAdmin@@SAXPEAV_objref_EventChannelFactory@2@@Z
?release@EventChannel_Helper@CosEventChannelAdmin@@SAXPEAV_objref_EventChannel@2@@Z
?release@EventChannel_Helper@CosNotifyChannelAdmin@@SAXPEAV_objref_EventChannel@2@@Z
?release@FactoryFinder_Helper@CosLifeCycle@@SAXPEAV_objref_FactoryFinder@2@@Z
?release@FilterAdmin_Helper@CosNotifyFilter@@SAXPEAV_objref_FilterAdmin@2@@Z
?release@FilterFactory_Helper@CosNotifyFilter@@SAXPEAV_objref_FilterFactory@2@@Z
?release@Filter_Helper@CosNotifyFilter@@SAXPEAV_objref_Filter@2@@Z
?release@GenericFactory_Helper@CosLifeCycle@@SAXPEAV_objref_GenericFactory@2@@Z
?release@LifeCycleObject_Helper@CosLifeCycle@@SAXPEAV_objref_LifeCycleObject@2@@Z
?release@MappingFilter_Helper@CosNotifyFilter@@SAXPEAV_objref_MappingFilter@2@@Z
?release@NotifyPublish_Helper@CosNotifyComm@@SAXPEAV_objref_NotifyPublish@2@@Z
?release@NotifySubscribe_Helper@CosNotifyComm@@SAXPEAV_objref_NotifySubscribe@2@@Z
?release@ProxyConsumer_Helper@CosNotifyChannelAdmin@@SAXPEAV_objref_ProxyConsumer@2@@Z
?release@ProxyPullConsumer_Helper@CosEventChannelAdmin@@SAXPEAV_objref_ProxyPullConsumer@2@@Z
?release@ProxyPullConsumer_Helper@CosNotifyChannelAdmin@@SAXPEAV_objref_ProxyPullConsumer@2@@Z
?release@ProxyPullSupplier_Helper@CosEventChannelAdmin@@SAXPEAV_objref_ProxyPullSupplier@2@@Z
?release@ProxyPullSupplier_Helper@CosNotifyChannelAdmin@@SAXPEAV_objref_ProxyPullSupplier@2@@Z
?release@ProxyPushConsumer_Helper@CosEventChannelAdmin@@SAXPEAV_objref_ProxyPushConsumer@2@@Z
?release@ProxyPushConsumer_Helper@CosNotifyChannelAdmin@@SAXPEAV_objref_ProxyPushConsumer@2@@Z
?release@ProxyPushSupplier_Helper@CosEventChannelAdmin@@SAXPEAV_objref_ProxyPushSupplier@2@@Z
?release@ProxyPushSupplier_Helper@CosNotifyChannelAdmin@@SAXPEAV_objref_ProxyPushSupplier@2@@Z
?release@ProxySupplier_Helper@CosNotifyChannelAdmin@@SAXPEAV_objref_ProxySupplier@2@@Z
?release@PullConsumer_Helper@CosEventComm@@SAXPEAV_objref_PullConsumer@2@@Z
?release@PullConsumer_Helper@CosNotifyComm@@SAXPEAV_objref_PullConsumer@2@@Z
?release@PullSupplier_Helper@CosEventComm@@SAXPEAV_objref_PullSupplier@2@@Z
?release@PullSupplier_Helper@CosNotifyComm@@SAXPEAV_objref_PullSupplier@2@@Z
?release@PushConsumer_Helper@CosEventComm@@SAXPEAV_objref_PushConsumer@2@@Z
?release@PushConsumer_Helper@CosNotifyComm@@SAXPEAV_objref_PushConsumer@2@@Z
?release@PushSupplier_Helper@CosEventComm@@SAXPEAV_objref_PushSupplier@2@@Z
?release@PushSupplier_Helper@CosNotifyComm@@SAXPEAV_objref_PushSupplier@2@@Z
?release@QoSAdmin_Helper@CosNotification@@SAXPEAV_objref_QoSAdmin@2@@Z
?release@SequenceProxyPullConsumer_Helper@CosNotifyChannelAdmin@@SAXPEAV_objref_SequenceProxyPullConsumer@2@@Z
?release@SequenceProxyPullSupplier_Helper@CosNotifyChannelAdmin@@SAXPEAV_objref_SequenceProxyPullSupplier@2@@Z
?release@SequenceProxyPushConsumer_Helper@CosNotifyChannelAdmin@@SAXPEAV_objref_SequenceProxyPushConsumer@2@@Z
?release@SequenceProxyPushSupplier_Helper@CosNotifyChannelAdmin@@SAXPEAV_objref_SequenceProxyPushSupplier@2@@Z
?release@SequencePullConsumer_Helper@CosNotifyComm@@SAXPEAV_objref_SequencePullConsumer@2@@Z
?release@SequencePullSupplier_Helper@CosNotifyComm@@SAXPEAV_objref_SequencePullSupplier@2@@Z
?release@SequencePushConsumer_Helper@CosNotifyComm@@SAXPEAV_objref_SequencePushConsumer@2@@Z
?release@SequencePushSupplier_Helper@CosNotifyComm@@SAXPEAV_objref_SequencePushSupplier@2@@Z
?release@StructuredProxyPullConsumer_Helper@CosNotifyChannelAdmin@@SAXPEAV_objref_StructuredProxyPullConsumer@2@@Z
?release@StructuredProxyPullSupplier_Helper@CosNotifyChannelAdmin@@SAXPEAV_objref_StructuredProxyPullSupplier@2@@Z
?release@StructuredProxyPushConsumer_Helper@CosNotifyChannelAdmin@@SAXPEAV_objref_StructuredProxyPushConsumer@2@@Z
?release@StructuredProxyPushSupplier_Helper@CosNotifyChannelAdmin@@SAXPEAV_objref_StructuredProxyPushSupplier@2@@Z
?release@StructuredPullConsumer_Helper@CosNotifyComm@@SAXPEAV_objref_StructuredPullConsumer@2@@Z
?release@StructuredPullSupplier_Helper@CosNotifyComm@@SAXPEAV_objref_StructuredPullSupplier@2@@Z
?release@StructuredPushConsumer_Helper@CosNotifyComm@@SAXPEAV_objref_StructuredPushConsumer@2@@Z
?release@StructuredPushSupplier_Helper@CosNotifyComm@@SAXPEAV_objref_StructuredPushSupplier@2@@Z
?release@SupplierAdmin_Helper@CosEventChannelAdmin@@SAXPEAV_objref_SupplierAdmin@2@@Z
?release@SupplierAdmin_Helper@CosNotifyChannelAdmin@@SAXPEAV_objref_SupplierAdmin@2@@Z
?release@TIO_Helper@CosTime@@SAXPEAV_objref_TIO@2@@Z
?release@TimeService_Helper@CosTime@@SAXPEAV_objref_TimeService@2@@Z
?release@UTO_Helper@CosTime@@SAXPEAV_objref_UTO@2@@Z
?remove@_objref_LifeCycleObject@CosLifeCycle@@QEAAXXZ
?remove_all_constraints@_objref_Filter@CosNotifyFilter@@QEAAXXZ
?remove_all_filters@_objref_FilterAdmin@CosNotifyFilter@@QEAAXXZ
?remove_all_mapping_constraints@_objref_MappingFilter@CosNotifyFilter@@QEAAXXZ
?remove_filter@_objref_FilterAdmin@CosNotifyFilter@@QEAAXJ@Z
?resume_connection@_objref_ProxyPullConsumer@CosNotifyChannelAdmin@@QEAAXXZ
?resume_connection@_objref_ProxyPushSupplier@CosNotifyChannelAdmin@@QEAAXXZ
?resume_connection@_objref_SequenceProxyPullConsumer@CosNotifyChannelAdmin@@QEAAXXZ
?resume_connection@_objref_SequenceProxyPushSupplier@CosNotifyChannelAdmin@@QEAAXXZ
?resume_connection@_objref_StructuredProxyPullConsumer@CosNotifyChannelAdmin@@QEAAXXZ
?resume_connection@_objref_StructuredProxyPushSupplier@CosNotifyChannelAdmin@@QEAAXXZ
?secure_universal_time@_objref_TimeService@CosTime@@QEAAPEAV_objref_UTO@2@XZ
?set_admin@_objref_AdminPropertiesAdmin@CosNotification@@QEAAXAEBVPropertySeq@2@@Z
?set_qos@_objref_QoSAdmin@CosNotification@@QEAAXAEBVPropertySeq@2@@Z
?spans@_objref_TIO@CosTime@@QEAA?AW4OverlapType@2@PEAV_objref_UTO@2@V?$_CORBA_ObjRef_OUT_arg@V_objref_TIO@CosTime@@VTIO_Helper@2@@@@Z
?strMatch@omni@@YA_NPEBD0@Z
?subscription_change@_objref_NotifySubscribe@CosNotifyComm@@QEAAXAEBVEventTypeSeq@CosNotification@@0@Z
?supports@_objref_GenericFactory@CosLifeCycle@@QEAA_NAEBVName@CosNaming@@@Z
?suspend_connection@_objref_ProxyPullConsumer@CosNotifyChannelAdmin@@QEAAXXZ
?suspend_connection@_objref_ProxyPushSupplier@CosNotifyChannelAdmin@@QEAAXXZ
?suspend_connection@_objref_SequenceProxyPullConsumer@CosNotifyChannelAdmin@@QEAAXXZ
?suspend_connection@_objref_SequenceProxyPushSupplier@CosNotifyChannelAdmin@@QEAAXXZ
?suspend_connection@_objref_StructuredProxyPullConsumer@CosNotifyChannelAdmin@@QEAAXXZ
?suspend_connection@_objref_StructuredProxyPushSupplier@CosNotifyChannelAdmin@@QEAAXXZ
?tdf@_objref_UTO@CosTime@@QEAAFXZ
?time@_objref_TIO@CosTime@@QEAAPEAV_objref_UTO@2@XZ
?time@_objref_UTO@CosTime@@QEAA_KXZ
?time_interval@_objref_TIO@CosTime@@QEAA?AUIntervalT@TimeBase@@XZ
?time_to_interval@_objref_UTO@CosTime@@QEAAPEAV_objref_TIO@2@PEAV12@@Z
?try_pull@_objref_PullSupplier@CosEventComm@@QEAAPEAVAny@CORBA@@AEA_N@Z
?try_pull_structured_event@_objref_StructuredPullSupplier@CosNotifyComm@@QEAAPEAUStructuredEvent@CosNotification@@AEA_N@Z
?try_pull_structured_events@_objref_SequencePullSupplier@CosNotifyComm@@QEAAPEAVEventBatch@CosNotification@@JAEA_N@Z
?universal_time@_objref_TimeService@CosTime@@QEAAPEAV_objref_UTO@2@XZ
?unlock@omni_mutex@@QEAAXXZ
?unmarshalArguments@_0RL_cd_1fe8f330207afd15_02000000@@UEAAXAEAVcdrStream@@@Z
?unmarshalArguments@_0RL_cd_1fe8f330207afd15_03000000@@UEAAXAEAVcdrStream@@@Z
?unmarshalArguments@_0RL_cd_1fe8f330207afd15_11000000@@UEAAXAEAVcdrStream@@@Z
?unmarshalArguments@_0RL_cd_1fe8f330207afd15_20000000@@UEAAXAEAVcdrStream@@@Z
?unmarshalArguments@_0RL_cd_1fe8f330207afd15_22000000@@UEAAXAEAVcdrStream@@@Z
?unmarshalArguments@_0RL_cd_1fe8f330207afd15_23000000@@UEAAXAEAVcdrStream@@@Z
?unmarshalArguments@_0RL_cd_1fe8f330207afd15_31000000@@UEAAXAEAVcdrStream@@@Z
?unmarshalArguments@_0RL_cd_1fe8f330207afd15_40000000@@UEAAXAEAVcdrStream@@@Z
?unmarshalArguments@_0RL_cd_1fe8f330207afd15_43000000@@UEAAXAEAVcdrStream@@@Z
?unmarshalArguments@_0RL_cd_1fe8f330207afd15_51000000@@UEAAXAEAVcdrStream@@@Z
?unmarshalArguments@_0RL_cd_1fe8f330207afd15_60000000@@UEAAXAEAVcdrStream@@@Z
?unmarshalArguments@_0RL_cd_1fe8f330207afd15_63000000@@UEAAXAEAVcdrStream@@@Z
?unmarshalArguments@_0RL_cd_1fe8f330207afd15_82000000@@UEAAXAEAVcdrStream@@@Z
?unmarshalArguments@_0RL_cd_1fe8f330207afd15_a2000000@@UEAAXAEAVcdrStream@@@Z
?unmarshalArguments@_0RL_cd_1fe8f330207afd15_c2000000@@UEAAXAEAVcdrStream@@@Z
?unmarshalArguments@_0RL_cd_1fe8f330207afd15_d0000000@@UEAAXAEAVcdrStream@@@Z
?unmarshalArguments@_0RL_cd_1fe8f330207afd15_e1000000@@UEAAXAEAVcdrStream@@@Z
?unmarshalArguments@_0RL_cd_1fe8f330207afd15_e2000000@@UEAAXAEAVcdrStream@@@Z
?unmarshalArguments@_0RL_cd_1fe8f330207afd15_f0000000@@UEAAXAEAVcdrStream@@@Z
?unmarshalArguments@_0RL_cd_25b2b9dd5b4ad98d_00000000@@UEAAXAEAVcdrStream@@@Z
?unmarshalArguments@_0RL_cd_25b2b9dd5b4ad98d_20000000@@UEAAXAEAVcdrStream@@@Z
?unmarshalArguments@_0RL_cd_25b2b9dd5b4ad98d_40000000@@UEAAXAEAVcdrStream@@@Z
?unmarshalArguments@_0RL_cd_25b2b9dd5b4ad98d_80000000@@UEAAXAEAVcdrStream@@@Z
?unmarshalArguments@_0RL_cd_25b2b9dd5b4ad98d_a0000000@@UEAAXAEAVcdrStream@@@Z
?unmarshalArguments@_0RL_cd_4b6b86183777b6c2_00000000@@UEAAXAEAVcdrStream@@@Z
?unmarshalArguments@_0RL_cd_4b6b86183777b6c2_21000000@@UEAAXAEAVcdrStream@@@Z
?unmarshalArguments@_0RL_cd_4b6b86183777b6c2_30000000@@UEAAXAEAVcdrStream@@@Z
?unmarshalArguments@_0RL_cd_4b6b86183777b6c2_41000000@@UEAAXAEAVcdrStream@@@Z
?unmarshalArguments@_0RL_cd_4b6b86183777b6c2_e0000000@@UEAAXAEAVcdrStream@@@Z
?unmarshalArguments@_0RL_cd_8b6214f5b3100e7e_20000000@@UEAAXAEAVcdrStream@@@Z
?unmarshalArguments@_0RL_cd_8b6214f5b3100e7e_40000000@@UEAAXAEAVcdrStream@@@Z
?unmarshalArguments@_0RL_cd_8b6214f5b3100e7e_70000000@@UEAAXAEAVcdrStream@@@Z
?unmarshalArguments@_0RL_cd_9043e11a9721dab3_06000000@@UEAAXAEAVcdrStream@@@Z
?unmarshalArguments@_0RL_cd_9043e11a9721dab3_13000000@@UEAAXAEAVcdrStream@@@Z
?unmarshalArguments@_0RL_cd_9043e11a9721dab3_25000000@@UEAAXAEAVcdrStream@@@Z
?unmarshalArguments@_0RL_cd_9043e11a9721dab3_26000000@@UEAAXAEAVcdrStream@@@Z
?unmarshalArguments@_0RL_cd_9043e11a9721dab3_31000000@@UEAAXAEAVcdrStream@@@Z
?unmarshalArguments@_0RL_cd_9043e11a9721dab3_40000000@@UEAAXAEAVcdrStream@@@Z
?unmarshalArguments@_0RL_cd_9043e11a9721dab3_45000000@@UEAAXAEAVcdrStream@@@Z
?unmarshalArguments@_0RL_cd_9043e11a9721dab3_46000000@@UEAAXAEAVcdrStream@@@Z
?unmarshalArguments@_0RL_cd_9043e11a9721dab3_51000000@@UEAAXAEAVcdrStream@@@Z
?unmarshalArguments@_0RL_cd_9043e11a9721dab3_52000000@@UEAAXAEAVcdrStream@@@Z
?unmarshalArguments@_0RL_cd_9043e11a9721dab3_53000000@@UEAAXAEAVcdrStream@@@Z
?unmarshalArguments@_0RL_cd_9043e11a9721dab3_60000000@@UEAAXAEAVcdrStream@@@Z
?unmarshalArguments@_0RL_cd_9043e11a9721dab3_64000000@@UEAAXAEAVcdrStream@@@Z
?unmarshalArguments@_0RL_cd_9043e11a9721dab3_71000000@@UEAAXAEAVcdrStream@@@Z
?unmarshalArguments@_0RL_cd_9043e11a9721dab3_84000000@@UEAAXAEAVcdrStream@@@Z
?unmarshalArguments@_0RL_cd_9043e11a9721dab3_91000000@@UEAAXAEAVcdrStream@@@Z
?unmarshalArguments@_0RL_cd_9043e11a9721dab3_92000000@@UEAAXAEAVcdrStream@@@Z
?unmarshalArguments@_0RL_cd_9043e11a9721dab3_96000000@@UEAAXAEAVcdrStream@@@Z
?unmarshalArguments@_0RL_cd_9043e11a9721dab3_b1000000@@UEAAXAEAVcdrStream@@@Z
?unmarshalArguments@_0RL_cd_9043e11a9721dab3_d0000000@@UEAAXAEAVcdrStream@@@Z
?unmarshalArguments@_0RL_cd_9043e11a9721dab3_d1000000@@UEAAXAEAVcdrStream@@@Z
?unmarshalArguments@_0RL_cd_9043e11a9721dab3_d2000000@@UEAAXAEAVcdrStream@@@Z
?unmarshalArguments@_0RL_cd_9043e11a9721dab3_d6000000@@UEAAXAEAVcdrStream@@@Z
?unmarshalArguments@_0RL_cd_9043e11a9721dab3_e5000000@@UEAAXAEAVcdrStream@@@Z
?unmarshalArguments@_0RL_cd_9043e11a9721dab3_f1000000@@UEAAXAEAVcdrStream@@@Z
?unmarshalArguments@_0RL_cd_99dff546ea0f9974_11000000@@UEAAXAEAVcdrStream@@@Z
?unmarshalArguments@_0RL_cd_99dff546ea0f9974_31000000@@UEAAXAEAVcdrStream@@@Z
?unmarshalArguments@_0RL_cd_99dff546ea0f9974_90000000@@UEAAXAEAVcdrStream@@@Z
?unmarshalArguments@_0RL_cd_99dff546ea0f9974_91000000@@UEAAXAEAVcdrStream@@@Z
?unmarshalArguments@_0RL_cd_99dff546ea0f9974_b0000000@@UEAAXAEAVcdrStream@@@Z
?unmarshalArguments@_0RL_cd_99dff546ea0f9974_b1000000@@UEAAXAEAVcdrStream@@@Z
?unmarshalArguments@_0RL_cd_99dff546ea0f9974_d1000000@@UEAAXAEAVcdrStream@@@Z
?unmarshalArguments@_0RL_cd_bd959cc57b2e138f_00000000@@UEAAXAEAVcdrStream@@@Z
?unmarshalArguments@_0RL_cd_f894c8374a428e70_00000000@@UEAAXAEAVcdrStream@@@Z
?unmarshalArguments@_0RL_cd_f894c8374a428e70_20000000@@UEAAXAEAVcdrStream@@@Z
?unmarshalArguments@_0RL_cd_f894c8374a428e70_40000000@@UEAAXAEAVcdrStream@@@Z
?unmarshalArguments@_0RL_cd_f894c8374a428e70_60000000@@UEAAXAEAVcdrStream@@@Z
?unmarshalBoolean@cdrStream@@QEAA_NXZ
?unmarshalLong@cdrStream@@QEAAJXZ
?unmarshalObjRef@AdminPropertiesAdmin_Helper@CosNotification@@SAPEAV_objref_AdminPropertiesAdmin@2@AEAVcdrStream@@@Z
?unmarshalObjRef@ConsumerAdmin_Helper@CosEventChannelAdmin@@SAPEAV_objref_ConsumerAdmin@2@AEAVcdrStream@@@Z
?unmarshalObjRef@ConsumerAdmin_Helper@CosNotifyChannelAdmin@@SAPEAV_objref_ConsumerAdmin@2@AEAVcdrStream@@@Z
?unmarshalObjRef@EventChannelFactory_Helper@CosNotifyChannelAdmin@@SAPEAV_objref_EventChannelFactory@2@AEAVcdrStream@@@Z
?unmarshalObjRef@EventChannel_Helper@CosEventChannelAdmin@@SAPEAV_objref_EventChannel@2@AEAVcdrStream@@@Z
?unmarshalObjRef@EventChannel_Helper@CosNotifyChannelAdmin@@SAPEAV_objref_EventChannel@2@AEAVcdrStream@@@Z
?unmarshalObjRef@FactoryFinder_Helper@CosLifeCycle@@SAPEAV_objref_FactoryFinder@2@AEAVcdrStream@@@Z
?unmarshalObjRef@FilterAdmin_Helper@CosNotifyFilter@@SAPEAV_objref_FilterAdmin@2@AEAVcdrStream@@@Z
?unmarshalObjRef@FilterFactory_Helper@CosNotifyFilter@@SAPEAV_objref_FilterFactory@2@AEAVcdrStream@@@Z
?unmarshalObjRef@Filter_Helper@CosNotifyFilter@@SAPEAV_objref_Filter@2@AEAVcdrStream@@@Z
?unmarshalObjRef@GenericFactory_Helper@CosLifeCycle@@SAPEAV_objref_GenericFactory@2@AEAVcdrStream@@@Z
?unmarshalObjRef@LifeCycleObject_Helper@CosLifeCycle@@SAPEAV_objref_LifeCycleObject@2@AEAVcdrStream@@@Z
?unmarshalObjRef@MappingFilter_Helper@CosNotifyFilter@@SAPEAV_objref_MappingFilter@2@AEAVcdrStream@@@Z
?unmarshalObjRef@NotifyPublish_Helper@CosNotifyComm@@SAPEAV_objref_NotifyPublish@2@AEAVcdrStream@@@Z
?unmarshalObjRef@NotifySubscribe_Helper@CosNotifyComm@@SAPEAV_objref_NotifySubscribe@2@AEAVcdrStream@@@Z
?unmarshalObjRef@ProxyConsumer_Helper@CosNotifyChannelAdmin@@SAPEAV_objref_ProxyConsumer@2@AEAVcdrStream@@@Z
?unmarshalObjRef@ProxyPullConsumer_Helper@CosEventChannelAdmin@@SAPEAV_objref_ProxyPullConsumer@2@AEAVcdrStream@@@Z
?unmarshalObjRef@ProxyPullConsumer_Helper@CosNotifyChannelAdmin@@SAPEAV_objref_ProxyPullConsumer@2@AEAVcdrStream@@@Z
?unmarshalObjRef@ProxyPullSupplier_Helper@CosEventChannelAdmin@@SAPEAV_objref_ProxyPullSupplier@2@AEAVcdrStream@@@Z
?unmarshalObjRef@ProxyPullSupplier_Helper@CosNotifyChannelAdmin@@SAPEAV_objref_ProxyPullSupplier@2@AEAVcdrStream@@@Z
?unmarshalObjRef@ProxyPushConsumer_Helper@CosEventChannelAdmin@@SAPEAV_objref_ProxyPushConsumer@2@AEAVcdrStream@@@Z
?unmarshalObjRef@ProxyPushConsumer_Helper@CosNotifyChannelAdmin@@SAPEAV_objref_ProxyPushConsumer@2@AEAVcdrStream@@@Z
?unmarshalObjRef@ProxyPushSupplier_Helper@CosEventChannelAdmin@@SAPEAV_objref_ProxyPushSupplier@2@AEAVcdrStream@@@Z
?unmarshalObjRef@ProxyPushSupplier_Helper@CosNotifyChannelAdmin@@SAPEAV_objref_ProxyPushSupplier@2@AEAVcdrStream@@@Z
?unmarshalObjRef@ProxySupplier_Helper@CosNotifyChannelAdmin@@SAPEAV_objref_ProxySupplier@2@AEAVcdrStream@@@Z
?unmarshalObjRef@PullConsumer_Helper@CosEventComm@@SAPEAV_objref_PullConsumer@2@AEAVcdrStream@@@Z
?unmarshalObjRef@PullConsumer_Helper@CosNotifyComm@@SAPEAV_objref_PullConsumer@2@AEAVcdrStream@@@Z
?unmarshalObjRef@PullSupplier_Helper@CosEventComm@@SAPEAV_objref_PullSupplier@2@AEAVcdrStream@@@Z
?unmarshalObjRef@PullSupplier_Helper@CosNotifyComm@@SAPEAV_objref_PullSupplier@2@AEAVcdrStream@@@Z
?unmarshalObjRef@PushConsumer_Helper@CosEventComm@@SAPEAV_objref_PushConsumer@2@AEAVcdrStream@@@Z
?unmarshalObjRef@PushConsumer_Helper@CosNotifyComm@@SAPEAV_objref_PushConsumer@2@AEAVcdrStream@@@Z
?unmarshalObjRef@PushSupplier_Helper@CosEventComm@@SAPEAV_objref_PushSupplier@2@AEAVcdrStream@@@Z
?unmarshalObjRef@PushSupplier_Helper@CosNotifyComm@@SAPEAV_objref_PushSupplier@2@AEAVcdrStream@@@Z
?unmarshalObjRef@QoSAdmin_Helper@CosNotification@@SAPEAV_objref_QoSAdmin@2@AEAVcdrStream@@@Z
?unmarshalObjRef@SequenceProxyPullConsumer_Helper@CosNotifyChannelAdmin@@SAPEAV_objref_SequenceProxyPullConsumer@2@AEAVcdrStream@@@Z
?unmarshalObjRef@SequenceProxyPullSupplier_Helper@CosNotifyChannelAdmin@@SAPEAV_objref_SequenceProxyPullSupplier@2@AEAVcdrStream@@@Z
?unmarshalObjRef@SequenceProxyPushConsumer_Helper@CosNotifyChannelAdmin@@SAPEAV_objref_SequenceProxyPushConsumer@2@AEAVcdrStream@@@Z
?unmarshalObjRef@SequenceProxyPushSupplier_Helper@CosNotifyChannelAdmin@@SAPEAV_objref_SequenceProxyPushSupplier@2@AEAVcdrStream@@@Z
?unmarshalObjRef@SequencePullConsumer_Helper@CosNotifyComm@@SAPEAV_objref_SequencePullConsumer@2@AEAVcdrStream@@@Z
?unmarshalObjRef@SequencePullSupplier_Helper@CosNotifyComm@@SAPEAV_objref_SequencePullSupplier@2@AEAVcdrStream@@@Z
?unmarshalObjRef@SequencePushConsumer_Helper@CosNotifyComm@@SAPEAV_objref_SequencePushConsumer@2@AEAVcdrStream@@@Z
?unmarshalObjRef@SequencePushSupplier_Helper@CosNotifyComm@@SAPEAV_objref_SequencePushSupplier@2@AEAVcdrStream@@@Z
?unmarshalObjRef@StructuredProxyPullConsumer_Helper@CosNotifyChannelAdmin@@SAPEAV_objref_StructuredProxyPullConsumer@2@AEAVcdrStream@@@Z
?unmarshalObjRef@StructuredProxyPullSupplier_Helper@CosNotifyChannelAdmin@@SAPEAV_objref_StructuredProxyPullSupplier@2@AEAVcdrStream@@@Z
?unmarshalObjRef@StructuredProxyPushConsumer_Helper@CosNotifyChannelAdmin@@SAPEAV_objref_StructuredProxyPushConsumer@2@AEAVcdrStream@@@Z
?unmarshalObjRef@StructuredProxyPushSupplier_Helper@CosNotifyChannelAdmin@@SAPEAV_objref_StructuredProxyPushSupplier@2@AEAVcdrStream@@@Z
?unmarshalObjRef@StructuredPullConsumer_Helper@CosNotifyComm@@SAPEAV_objref_StructuredPullConsumer@2@AEAVcdrStream@@@Z
?unmarshalObjRef@StructuredPullSupplier_Helper@CosNotifyComm@@SAPEAV_objref_StructuredPullSupplier@2@AEAVcdrStream@@@Z
?unmarshalObjRef@StructuredPushConsumer_Helper@CosNotifyComm@@SAPEAV_objref_StructuredPushConsumer@2@AEAVcdrStream@@@Z
?unmarshalObjRef@StructuredPushSupplier_Helper@CosNotifyComm@@SAPEAV_objref_StructuredPushSupplier@2@AEAVcdrStream@@@Z
?unmarshalObjRef@SupplierAdmin_Helper@CosEventChannelAdmin@@SAPEAV_objref_SupplierAdmin@2@AEAVcdrStream@@@Z
?unmarshalObjRef@SupplierAdmin_Helper@CosNotifyChannelAdmin@@SAPEAV_objref_SupplierAdmin@2@AEAVcdrStream@@@Z
?unmarshalObjRef@TIO_Helper@CosTime@@SAPEAV_objref_TIO@2@AEAVcdrStream@@@Z
?unmarshalObjRef@TimeService_Helper@CosTime@@SAPEAV_objref_TimeService@2@AEAVcdrStream@@@Z
?unmarshalObjRef@UTO_Helper@CosTime@@SAPEAV_objref_UTO@2@AEAVcdrStream@@@Z
?unmarshalOctet@cdrStream@@QEAAEXZ
?unmarshalReturnedValues@_0RL_cd_1fe8f330207afd15_00000000@@UEAAXAEAVcdrStream@@@Z
?unmarshalReturnedValues@_0RL_cd_1fe8f330207afd15_03000000@@UEAAXAEAVcdrStream@@@Z
?unmarshalReturnedValues@_0RL_cd_1fe8f330207afd15_11000000@@UEAAXAEAVcdrStream@@@Z
?unmarshalReturnedValues@_0RL_cd_1fe8f330207afd15_20000000@@UEAAXAEAVcdrStream@@@Z
?unmarshalReturnedValues@_0RL_cd_1fe8f330207afd15_22000000@@UEAAXAEAVcdrStream@@@Z
?unmarshalReturnedValues@_0RL_cd_1fe8f330207afd15_23000000@@UEAAXAEAVcdrStream@@@Z
?unmarshalReturnedValues@_0RL_cd_1fe8f330207afd15_31000000@@UEAAXAEAVcdrStream@@@Z
?unmarshalReturnedValues@_0RL_cd_1fe8f330207afd15_42000000@@UEAAXAEAVcdrStream@@@Z
?unmarshalReturnedValues@_0RL_cd_1fe8f330207afd15_60000000@@UEAAXAEAVcdrStream@@@Z
?unmarshalReturnedValues@_0RL_cd_1fe8f330207afd15_63000000@@UEAAXAEAVcdrStream@@@Z
?unmarshalReturnedValues@_0RL_cd_1fe8f330207afd15_71000000@@UEAAXAEAVcdrStream@@@Z
?unmarshalReturnedValues@_0RL_cd_1fe8f330207afd15_80000000@@UEAAXAEAVcdrStream@@@Z
?unmarshalReturnedValues@_0RL_cd_1fe8f330207afd15_82000000@@UEAAXAEAVcdrStream@@@Z
?unmarshalReturnedValues@_0RL_cd_1fe8f330207afd15_83000000@@UEAAXAEAVcdrStream@@@Z
?unmarshalReturnedValues@_0RL_cd_1fe8f330207afd15_a1000000@@UEAAXAEAVcdrStream@@@Z
?unmarshalReturnedValues@_0RL_cd_1fe8f330207afd15_a2000000@@UEAAXAEAVcdrStream@@@Z
?unmarshalReturnedValues@_0RL_cd_1fe8f330207afd15_c1000000@@UEAAXAEAVcdrStream@@@Z
?unmarshalReturnedValues@_0RL_cd_1fe8f330207afd15_c2000000@@UEAAXAEAVcdrStream@@@Z
?unmarshalReturnedValues@_0RL_cd_1fe8f330207afd15_d0000000@@UEAAXAEAVcdrStream@@@Z
?unmarshalReturnedValues@_0RL_cd_1fe8f330207afd15_e1000000@@UEAAXAEAVcdrStream@@@Z
?unmarshalReturnedValues@_0RL_cd_1fe8f330207afd15_e2000000@@UEAAXAEAVcdrStream@@@Z
?unmarshalReturnedValues@_0RL_cd_1fe8f330207afd15_f0000000@@UEAAXAEAVcdrStream@@@Z
?unmarshalReturnedValues@_0RL_cd_25b2b9dd5b4ad98d_00000000@@UEAAXAEAVcdrStream@@@Z
?unmarshalReturnedValues@_0RL_cd_25b2b9dd5b4ad98d_20000000@@UEAAXAEAVcdrStream@@@Z
?unmarshalReturnedValues@_0RL_cd_25b2b9dd5b4ad98d_80000000@@UEAAXAEAVcdrStream@@@Z
?unmarshalReturnedValues@_0RL_cd_25b2b9dd5b4ad98d_a0000000@@UEAAXAEAVcdrStream@@@Z
?unmarshalReturnedValues@_0RL_cd_4b6b86183777b6c2_21000000@@UEAAXAEAVcdrStream@@@Z
?unmarshalReturnedValues@_0RL_cd_4b6b86183777b6c2_41000000@@UEAAXAEAVcdrStream@@@Z
?unmarshalReturnedValues@_0RL_cd_4b6b86183777b6c2_80000000@@UEAAXAEAVcdrStream@@@Z
?unmarshalReturnedValues@_0RL_cd_4b6b86183777b6c2_a0000000@@UEAAXAEAVcdrStream@@@Z
?unmarshalReturnedValues@_0RL_cd_8b6214f5b3100e7e_00000000@@UEAAXAEAVcdrStream@@@Z
?unmarshalReturnedValues@_0RL_cd_8b6214f5b3100e7e_40000000@@UEAAXAEAVcdrStream@@@Z
?unmarshalReturnedValues@_0RL_cd_9043e11a9721dab3_00000000@@UEAAXAEAVcdrStream@@@Z
?unmarshalReturnedValues@_0RL_cd_9043e11a9721dab3_06000000@@UEAAXAEAVcdrStream@@@Z
?unmarshalReturnedValues@_0RL_cd_9043e11a9721dab3_20000000@@UEAAXAEAVcdrStream@@@Z
?unmarshalReturnedValues@_0RL_cd_9043e11a9721dab3_25000000@@UEAAXAEAVcdrStream@@@Z
?unmarshalReturnedValues@_0RL_cd_9043e11a9721dab3_26000000@@UEAAXAEAVcdrStream@@@Z
?unmarshalReturnedValues@_0RL_cd_9043e11a9721dab3_34000000@@UEAAXAEAVcdrStream@@@Z
?unmarshalReturnedValues@_0RL_cd_9043e11a9721dab3_40000000@@UEAAXAEAVcdrStream@@@Z
?unmarshalReturnedValues@_0RL_cd_9043e11a9721dab3_45000000@@UEAAXAEAVcdrStream@@@Z
?unmarshalReturnedValues@_0RL_cd_9043e11a9721dab3_46000000@@UEAAXAEAVcdrStream@@@Z
?unmarshalReturnedValues@_0RL_cd_9043e11a9721dab3_60000000@@UEAAXAEAVcdrStream@@@Z
?unmarshalReturnedValues@_0RL_cd_9043e11a9721dab3_64000000@@UEAAXAEAVcdrStream@@@Z
?unmarshalReturnedValues@_0RL_cd_9043e11a9721dab3_66000000@@UEAAXAEAVcdrStream@@@Z
?unmarshalReturnedValues@_0RL_cd_9043e11a9721dab3_84000000@@UEAAXAEAVcdrStream@@@Z
?unmarshalReturnedValues@_0RL_cd_9043e11a9721dab3_85000000@@UEAAXAEAVcdrStream@@@Z
?unmarshalReturnedValues@_0RL_cd_9043e11a9721dab3_90000000@@UEAAXAEAVcdrStream@@@Z
?unmarshalReturnedValues@_0RL_cd_9043e11a9721dab3_93000000@@UEAAXAEAVcdrStream@@@Z
?unmarshalReturnedValues@_0RL_cd_9043e11a9721dab3_96000000@@UEAAXAEAVcdrStream@@@Z
?unmarshalReturnedValues@_0RL_cd_9043e11a9721dab3_b0000000@@UEAAXAEAVcdrStream@@@Z
?unmarshalReturnedValues@_0RL_cd_9043e11a9721dab3_b3000000@@UEAAXAEAVcdrStream@@@Z
?unmarshalReturnedValues@_0RL_cd_9043e11a9721dab3_b6000000@@UEAAXAEAVcdrStream@@@Z
?unmarshalReturnedValues@_0RL_cd_9043e11a9721dab3_c5000000@@UEAAXAEAVcdrStream@@@Z
?unmarshalReturnedValues@_0RL_cd_9043e11a9721dab3_d3000000@@UEAAXAEAVcdrStream@@@Z
?unmarshalReturnedValues@_0RL_cd_9043e11a9721dab3_d6000000@@UEAAXAEAVcdrStream@@@Z
?unmarshalReturnedValues@_0RL_cd_9043e11a9721dab3_e5000000@@UEAAXAEAVcdrStream@@@Z
?unmarshalReturnedValues@_0RL_cd_99dff546ea0f9974_00000000@@UEAAXAEAVcdrStream@@@Z
?unmarshalReturnedValues@_0RL_cd_99dff546ea0f9974_11000000@@UEAAXAEAVcdrStream@@@Z
?unmarshalReturnedValues@_0RL_cd_99dff546ea0f9974_30000000@@UEAAXAEAVcdrStream@@@Z
?unmarshalReturnedValues@_0RL_cd_99dff546ea0f9974_31000000@@UEAAXAEAVcdrStream@@@Z
?unmarshalReturnedValues@_0RL_cd_99dff546ea0f9974_50000000@@UEAAXAEAVcdrStream@@@Z
?unmarshalReturnedValues@_0RL_cd_99dff546ea0f9974_61000000@@UEAAXAEAVcdrStream@@@Z
?unmarshalReturnedValues@_0RL_cd_99dff546ea0f9974_70000000@@UEAAXAEAVcdrStream@@@Z
?unmarshalReturnedValues@_0RL_cd_99dff546ea0f9974_90000000@@UEAAXAEAVcdrStream@@@Z
?unmarshalReturnedValues@_0RL_cd_99dff546ea0f9974_91000000@@UEAAXAEAVcdrStream@@@Z
?unmarshalReturnedValues@_0RL_cd_99dff546ea0f9974_b0000000@@UEAAXAEAVcdrStream@@@Z
?unmarshalReturnedValues@_0RL_cd_99dff546ea0f9974_b1000000@@UEAAXAEAVcdrStream@@@Z
?unmarshalReturnedValues@_0RL_cd_99dff546ea0f9974_d0000000@@UEAAXAEAVcdrStream@@@Z
?unmarshalReturnedValues@_0RL_cd_99dff546ea0f9974_d1000000@@UEAAXAEAVcdrStream@@@Z
?unmarshalReturnedValues@_0RL_cd_99dff546ea0f9974_f0000000@@UEAAXAEAVcdrStream@@@Z
?unmarshalReturnedValues@_0RL_cd_bd959cc57b2e138f_50000000@@UEAAXAEAVcdrStream@@@Z
?unmarshalReturnedValues@_0RL_cd_bd959cc57b2e138f_70000000@@UEAAXAEAVcdrStream@@@Z
?unmarshalReturnedValues@_0RL_cd_f894c8374a428e70_01000000@@UEAAXAEAVcdrStream@@@Z
?unmarshalReturnedValues@_0RL_cd_f894c8374a428e70_21000000@@UEAAXAEAVcdrStream@@@Z
?unmarshalReturnedValues@_0RL_cd_f894c8374a428e70_80000000@@UEAAXAEAVcdrStream@@@Z
?unmarshalReturnedValues@_0RL_cd_f894c8374a428e70_a0000000@@UEAAXAEAVcdrStream@@@Z
?unmarshalReturnedValues@_0RL_cd_f894c8374a428e70_c0000000@@UEAAXAEAVcdrStream@@@Z
?unmarshalReturnedValues@_0RL_cd_f894c8374a428e70_e0000000@@UEAAXAEAVcdrStream@@@Z
?unmarshalShort@cdrStream@@QEAAFXZ
?unmarshalString@cdrStream@@QEAAPEADH@Z
?unmarshalULong@cdrStream@@QEAAKXZ
?unmarshalULongLong@cdrStream@@QEAA_KXZ
?unmarshalUShort@cdrStream@@QEAAGXZ
?unmarshal_byte_swap@cdrStream@@QEBA_NXZ
?userException@_0RL_cd_1fe8f330207afd15_02000000@@UEAAXAEAVcdrStream@@PEAVIOP_C@omni@@PEBD@Z
?userException@_0RL_cd_1fe8f330207afd15_03000000@@UEAAXAEAVcdrStream@@PEAVIOP_C@omni@@PEBD@Z
?userException@_0RL_cd_1fe8f330207afd15_11000000@@UEAAXAEAVcdrStream@@PEAVIOP_C@omni@@PEBD@Z
?userException@_0RL_cd_1fe8f330207afd15_20000000@@UEAAXAEAVcdrStream@@PEAVIOP_C@omni@@PEBD@Z
?userException@_0RL_cd_1fe8f330207afd15_22000000@@UEAAXAEAVcdrStream@@PEAVIOP_C@omni@@PEBD@Z
?userException@_0RL_cd_1fe8f330207afd15_40000000@@UEAAXAEAVcdrStream@@PEAVIOP_C@omni@@PEBD@Z
?userException@_0RL_cd_1fe8f330207afd15_43000000@@UEAAXAEAVcdrStream@@PEAVIOP_C@omni@@PEBD@Z
?userException@_0RL_cd_1fe8f330207afd15_51000000@@UEAAXAEAVcdrStream@@PEAVIOP_C@omni@@PEBD@Z
?userException@_0RL_cd_1fe8f330207afd15_60000000@@UEAAXAEAVcdrStream@@PEAVIOP_C@omni@@PEBD@Z
?userException@_0RL_cd_1fe8f330207afd15_63000000@@UEAAXAEAVcdrStream@@PEAVIOP_C@omni@@PEBD@Z
?userException@_0RL_cd_1fe8f330207afd15_82000000@@UEAAXAEAVcdrStream@@PEAVIOP_C@omni@@PEBD@Z
?userException@_0RL_cd_1fe8f330207afd15_a2000000@@UEAAXAEAVcdrStream@@PEAVIOP_C@omni@@PEBD@Z
?userException@_0RL_cd_1fe8f330207afd15_c2000000@@UEAAXAEAVcdrStream@@PEAVIOP_C@omni@@PEBD@Z
?userException@_0RL_cd_1fe8f330207afd15_d0000000@@UEAAXAEAVcdrStream@@PEAVIOP_C@omni@@PEBD@Z
?userException@_0RL_cd_1fe8f330207afd15_e1000000@@UEAAXAEAVcdrStream@@PEAVIOP_C@omni@@PEBD@Z
?userException@_0RL_cd_1fe8f330207afd15_e2000000@@UEAAXAEAVcdrStream@@PEAVIOP_C@omni@@PEBD@Z
?userException@_0RL_cd_1fe8f330207afd15_f0000000@@UEAAXAEAVcdrStream@@PEAVIOP_C@omni@@PEBD@Z
?userException@_0RL_cd_25b2b9dd5b4ad98d_00000000@@UEAAXAEAVcdrStream@@PEAVIOP_C@omni@@PEBD@Z
?userException@_0RL_cd_25b2b9dd5b4ad98d_20000000@@UEAAXAEAVcdrStream@@PEAVIOP_C@omni@@PEBD@Z
?userException@_0RL_cd_25b2b9dd5b4ad98d_40000000@@UEAAXAEAVcdrStream@@PEAVIOP_C@omni@@PEBD@Z
?userException@_0RL_cd_25b2b9dd5b4ad98d_60000000@@UEAAXAEAVcdrStream@@PEAVIOP_C@omni@@PEBD@Z
?userException@_0RL_cd_25b2b9dd5b4ad98d_a0000000@@UEAAXAEAVcdrStream@@PEAVIOP_C@omni@@PEBD@Z
?userException@_0RL_cd_4b6b86183777b6c2_00000000@@UEAAXAEAVcdrStream@@PEAVIOP_C@omni@@PEBD@Z
?userException@_0RL_cd_4b6b86183777b6c2_21000000@@UEAAXAEAVcdrStream@@PEAVIOP_C@omni@@PEBD@Z
?userException@_0RL_cd_4b6b86183777b6c2_30000000@@UEAAXAEAVcdrStream@@PEAVIOP_C@omni@@PEBD@Z
?userException@_0RL_cd_4b6b86183777b6c2_41000000@@UEAAXAEAVcdrStream@@PEAVIOP_C@omni@@PEBD@Z
?userException@_0RL_cd_4b6b86183777b6c2_80000000@@UEAAXAEAVcdrStream@@PEAVIOP_C@omni@@PEBD@Z
?userException@_0RL_cd_4b6b86183777b6c2_a0000000@@UEAAXAEAVcdrStream@@PEAVIOP_C@omni@@PEBD@Z
?userException@_0RL_cd_4b6b86183777b6c2_e0000000@@UEAAXAEAVcdrStream@@PEAVIOP_C@omni@@PEBD@Z
?userException@_0RL_cd_8b6214f5b3100e7e_20000000@@UEAAXAEAVcdrStream@@PEAVIOP_C@omni@@PEBD@Z
?userException@_0RL_cd_8b6214f5b3100e7e_40000000@@UEAAXAEAVcdrStream@@PEAVIOP_C@omni@@PEBD@Z
?userException@_0RL_cd_8b6214f5b3100e7e_70000000@@UEAAXAEAVcdrStream@@PEAVIOP_C@omni@@PEBD@Z
?userException@_0RL_cd_9043e11a9721dab3_12000000@@UEAAXAEAVcdrStream@@PEAVIOP_C@omni@@PEBD@Z
?userException@_0RL_cd_9043e11a9721dab3_13000000@@UEAAXAEAVcdrStream@@PEAVIOP_C@omni@@PEBD@Z
?userException@_0RL_cd_9043e11a9721dab3_25000000@@UEAAXAEAVcdrStream@@PEAVIOP_C@omni@@PEBD@Z
?userException@_0RL_cd_9043e11a9721dab3_26000000@@UEAAXAEAVcdrStream@@PEAVIOP_C@omni@@PEBD@Z
?userException@_0RL_cd_9043e11a9721dab3_31000000@@UEAAXAEAVcdrStream@@PEAVIOP_C@omni@@PEBD@Z
?userException@_0RL_cd_9043e11a9721dab3_32000000@@UEAAXAEAVcdrStream@@PEAVIOP_C@omni@@PEBD@Z
?userException@_0RL_cd_9043e11a9721dab3_45000000@@UEAAXAEAVcdrStream@@PEAVIOP_C@omni@@PEBD@Z
?userException@_0RL_cd_9043e11a9721dab3_46000000@@UEAAXAEAVcdrStream@@PEAVIOP_C@omni@@PEBD@Z
?userException@_0RL_cd_9043e11a9721dab3_51000000@@UEAAXAEAVcdrStream@@PEAVIOP_C@omni@@PEBD@Z
?userException@_0RL_cd_9043e11a9721dab3_52000000@@UEAAXAEAVcdrStream@@PEAVIOP_C@omni@@PEBD@Z
?userException@_0RL_cd_9043e11a9721dab3_53000000@@UEAAXAEAVcdrStream@@PEAVIOP_C@omni@@PEBD@Z
?userException@_0RL_cd_9043e11a9721dab3_60000000@@UEAAXAEAVcdrStream@@PEAVIOP_C@omni@@PEBD@Z
?userException@_0RL_cd_9043e11a9721dab3_64000000@@UEAAXAEAVcdrStream@@PEAVIOP_C@omni@@PEBD@Z
?userException@_0RL_cd_9043e11a9721dab3_71000000@@UEAAXAEAVcdrStream@@PEAVIOP_C@omni@@PEBD@Z
?userException@_0RL_cd_9043e11a9721dab3_84000000@@UEAAXAEAVcdrStream@@PEAVIOP_C@omni@@PEBD@Z
?userException@_0RL_cd_9043e11a9721dab3_91000000@@UEAAXAEAVcdrStream@@PEAVIOP_C@omni@@PEBD@Z
?userException@_0RL_cd_9043e11a9721dab3_92000000@@UEAAXAEAVcdrStream@@PEAVIOP_C@omni@@PEBD@Z
?userException@_0RL_cd_9043e11a9721dab3_96000000@@UEAAXAEAVcdrStream@@PEAVIOP_C@omni@@PEBD@Z
?userException@_0RL_cd_9043e11a9721dab3_b1000000@@UEAAXAEAVcdrStream@@PEAVIOP_C@omni@@PEBD@Z
?userException@_0RL_cd_9043e11a9721dab3_d1000000@@UEAAXAEAVcdrStream@@PEAVIOP_C@omni@@PEBD@Z
?userException@_0RL_cd_9043e11a9721dab3_d2000000@@UEAAXAEAVcdrStream@@PEAVIOP_C@omni@@PEBD@Z
?userException@_0RL_cd_9043e11a9721dab3_d6000000@@UEAAXAEAVcdrStream@@PEAVIOP_C@omni@@PEBD@Z
?userException@_0RL_cd_9043e11a9721dab3_f1000000@@UEAAXAEAVcdrStream@@PEAVIOP_C@omni@@PEBD@Z
?userException@_0RL_cd_99dff546ea0f9974_61000000@@UEAAXAEAVcdrStream@@PEAVIOP_C@omni@@PEBD@Z
?userException@_0RL_cd_bd959cc57b2e138f_00000000@@UEAAXAEAVcdrStream@@PEAVIOP_C@omni@@PEBD@Z
?userException@_0RL_cd_bd959cc57b2e138f_50000000@@UEAAXAEAVcdrStream@@PEAVIOP_C@omni@@PEBD@Z
?userException@_0RL_cd_bd959cc57b2e138f_70000000@@UEAAXAEAVcdrStream@@PEAVIOP_C@omni@@PEBD@Z
?userException@_0RL_cd_f894c8374a428e70_00000000@@UEAAXAEAVcdrStream@@PEAVIOP_C@omni@@PEBD@Z
?userException@_0RL_cd_f894c8374a428e70_20000000@@UEAAXAEAVcdrStream@@PEAVIOP_C@omni@@PEBD@Z
?userException@_0RL_cd_f894c8374a428e70_40000000@@UEAAXAEAVcdrStream@@PEAVIOP_C@omni@@PEBD@Z
?userException@_0RL_cd_f894c8374a428e70_60000000@@UEAAXAEAVcdrStream@@PEAVIOP_C@omni@@PEBD@Z
?utc_time@_objref_UTO@CosTime@@QEAA?AUUtcT@TimeBase@@XZ
?uto_from_utc@_objref_TimeService@CosTime@@QEAAPEAV_objref_UTO@2@AEBUUtcT@TimeBase@@@Z
?validate_event_qos@_objref_ProxyConsumer@CosNotifyChannelAdmin@@QEAAXAEBVPropertySeq@CosNotification@@VNamedPropertyRangeSeq_out@4@@Z
?validate_event_qos@_objref_ProxySupplier@CosNotifyChannelAdmin@@QEAAXAEBVPropertySeq@CosNotification@@VNamedPropertyRangeSeq_out@4@@Z
?validate_qos@_objref_QoSAdmin@CosNotification@@QEAAXAEBVPropertySeq@2@VNamedPropertyRangeSeq_out@2@@Z
?value_type@_objref_MappingFilter@CosNotifyFilter@@QEAAPEAVTypeCode@CORBA@@XZ
